Copyright (C) Microsoft Corporation.  All rights reserved.


Dump of file aesni-x86_64.obj

File Type: COFF OBJECT

aws_lc_0_21_0_aes_hw_encrypt:
  0000000000000000: 0F 10 11           movups      xmm2,xmmword ptr [rcx]
  0000000000000003: 41 8B 80 F0 00 00  mov         eax,dword ptr [r8+0F0h]
                    00
  000000000000000A: 41 0F 10 00        movups      xmm0,xmmword ptr [r8]
  000000000000000E: 41 0F 10 48 10     movups      xmm1,xmmword ptr [r8+10h]
  0000000000000013: 4D 8D 40 20        lea         r8,[r8+20h]
  0000000000000017: 0F 57 D0           xorps       xmm2,xmm0
L$oop_enc1_1:
  000000000000001A: 66 0F 38 DC D1     aesenc      xmm2,xmm1
  000000000000001F: FF C8              dec         eax
  0000000000000021: 41 0F 10 08        movups      xmm1,xmmword ptr [r8]
  0000000000000025: 4D 8D 40 10        lea         r8,[r8+10h]
  0000000000000029: 0F 85 EB FF FF FF  jne         L$oop_enc1_1
  000000000000002F: 66 0F 38 DD D1     aesenclast  xmm2,xmm1
  0000000000000034: 66 0F EF C0        pxor        xmm0,xmm0
  0000000000000038: 66 0F EF C9        pxor        xmm1,xmm1
  000000000000003C: 0F 11 12           movups      xmmword ptr [rdx],xmm2
  000000000000003F: 66 0F EF D2        pxor        xmm2,xmm2
  0000000000000043: F3 C3              rep ret
  0000000000000045: 90                 nop
  0000000000000046: 90                 nop
  0000000000000047: 90                 nop
  0000000000000048: 90                 nop
  0000000000000049: 90                 nop
  000000000000004A: 90                 nop
  000000000000004B: 90                 nop
  000000000000004C: 90                 nop
  000000000000004D: 90                 nop
  000000000000004E: 90                 nop
  000000000000004F: 90                 nop
aws_lc_0_21_0_aes_hw_decrypt:
  0000000000000050: 0F 10 11           movups      xmm2,xmmword ptr [rcx]
  0000000000000053: 41 8B 80 F0 00 00  mov         eax,dword ptr [r8+0F0h]
                    00
  000000000000005A: 41 0F 10 00        movups      xmm0,xmmword ptr [r8]
  000000000000005E: 41 0F 10 48 10     movups      xmm1,xmmword ptr [r8+10h]
  0000000000000063: 4D 8D 40 20        lea         r8,[r8+20h]
  0000000000000067: 0F 57 D0           xorps       xmm2,xmm0
L$oop_dec1_2:
  000000000000006A: 66 0F 38 DE D1     aesdec      xmm2,xmm1
  000000000000006F: FF C8              dec         eax
  0000000000000071: 41 0F 10 08        movups      xmm1,xmmword ptr [r8]
  0000000000000075: 4D 8D 40 10        lea         r8,[r8+10h]
  0000000000000079: 0F 85 EB FF FF FF  jne         L$oop_dec1_2
  000000000000007F: 66 0F 38 DF D1     aesdeclast  xmm2,xmm1
  0000000000000084: 66 0F EF C0        pxor        xmm0,xmm0
  0000000000000088: 66 0F EF C9        pxor        xmm1,xmm1
  000000000000008C: 0F 11 12           movups      xmmword ptr [rdx],xmm2
  000000000000008F: 66 0F EF D2        pxor        xmm2,xmm2
  0000000000000093: F3 C3              rep ret
  0000000000000095: 90                 nop
  0000000000000096: 90                 nop
  0000000000000097: 90                 nop
  0000000000000098: 90                 nop
  0000000000000099: 90                 nop
  000000000000009A: 90                 nop
  000000000000009B: 90                 nop
  000000000000009C: 90                 nop
  000000000000009D: 90                 nop
  000000000000009E: 90                 nop
  000000000000009F: 90                 nop
_aesni_encrypt2:
  00000000000000A0: 0F 10 01           movups      xmm0,xmmword ptr [rcx]
  00000000000000A3: C1 E0 04           shl         eax,4
  00000000000000A6: 0F 10 49 10        movups      xmm1,xmmword ptr [rcx+10h]
  00000000000000AA: 0F 57 D0           xorps       xmm2,xmm0
  00000000000000AD: 0F 57 D8           xorps       xmm3,xmm0
  00000000000000B0: 0F 10 41 20        movups      xmm0,xmmword ptr [rcx+20h]
  00000000000000B4: 48 8D 4C 01 20     lea         rcx,[rcx+rax+20h]
  00000000000000B9: 48 F7 D8           neg         rax
  00000000000000BC: 48 83 C0 10        add         rax,10h
L$enc_loop2:
  00000000000000C0: 66 0F 38 DC D1     aesenc      xmm2,xmm1
  00000000000000C5: 66 0F 38 DC D9     aesenc      xmm3,xmm1
  00000000000000CA: 0F 10 0C 01        movups      xmm1,xmmword ptr [rcx+rax]
  00000000000000CE: 48 83 C0 20        add         rax,20h
  00000000000000D2: 66 0F 38 DC D0     aesenc      xmm2,xmm0
  00000000000000D7: 66 0F 38 DC D8     aesenc      xmm3,xmm0
  00000000000000DC: 0F 10 44 01 F0     movups      xmm0,xmmword ptr [rcx+rax-10h]
  00000000000000E1: 0F 85 D9 FF FF FF  jne         L$enc_loop2
  00000000000000E7: 66 0F 38 DC D1     aesenc      xmm2,xmm1
  00000000000000EC: 66 0F 38 DC D9     aesenc      xmm3,xmm1
  00000000000000F1: 66 0F 38 DD D0     aesenclast  xmm2,xmm0
  00000000000000F6: 66 0F 38 DD D8     aesenclast  xmm3,xmm0
  00000000000000FB: F3 C3              rep ret
  00000000000000FD: 90                 nop
  00000000000000FE: 90                 nop
  00000000000000FF: 90                 nop
_aesni_decrypt2:
  0000000000000100: 0F 10 01           movups      xmm0,xmmword ptr [rcx]
  0000000000000103: C1 E0 04           shl         eax,4
  0000000000000106: 0F 10 49 10        movups      xmm1,xmmword ptr [rcx+10h]
  000000000000010A: 0F 57 D0           xorps       xmm2,xmm0
  000000000000010D: 0F 57 D8           xorps       xmm3,xmm0
  0000000000000110: 0F 10 41 20        movups      xmm0,xmmword ptr [rcx+20h]
  0000000000000114: 48 8D 4C 01 20     lea         rcx,[rcx+rax+20h]
  0000000000000119: 48 F7 D8           neg         rax
  000000000000011C: 48 83 C0 10        add         rax,10h
L$dec_loop2:
  0000000000000120: 66 0F 38 DE D1     aesdec      xmm2,xmm1
  0000000000000125: 66 0F 38 DE D9     aesdec      xmm3,xmm1
  000000000000012A: 0F 10 0C 01        movups      xmm1,xmmword ptr [rcx+rax]
  000000000000012E: 48 83 C0 20        add         rax,20h
  0000000000000132: 66 0F 38 DE D0     aesdec      xmm2,xmm0
  0000000000000137: 66 0F 38 DE D8     aesdec      xmm3,xmm0
  000000000000013C: 0F 10 44 01 F0     movups      xmm0,xmmword ptr [rcx+rax-10h]
  0000000000000141: 0F 85 D9 FF FF FF  jne         L$dec_loop2
  0000000000000147: 66 0F 38 DE D1     aesdec      xmm2,xmm1
  000000000000014C: 66 0F 38 DE D9     aesdec      xmm3,xmm1
  0000000000000151: 66 0F 38 DF D0     aesdeclast  xmm2,xmm0
  0000000000000156: 66 0F 38 DF D8     aesdeclast  xmm3,xmm0
  000000000000015B: F3 C3              rep ret
  000000000000015D: 90                 nop
  000000000000015E: 90                 nop
  000000000000015F: 90                 nop
_aesni_encrypt3:
  0000000000000160: 0F 10 01           movups      xmm0,xmmword ptr [rcx]
  0000000000000163: C1 E0 04           shl         eax,4
  0000000000000166: 0F 10 49 10        movups      xmm1,xmmword ptr [rcx+10h]
  000000000000016A: 0F 57 D0           xorps       xmm2,xmm0
  000000000000016D: 0F 57 D8           xorps       xmm3,xmm0
  0000000000000170: 0F 57 E0           xorps       xmm4,xmm0
  0000000000000173: 0F 10 41 20        movups      xmm0,xmmword ptr [rcx+20h]
  0000000000000177: 48 8D 4C 01 20     lea         rcx,[rcx+rax+20h]
  000000000000017C: 48 F7 D8           neg         rax
  000000000000017F: 48 83 C0 10        add         rax,10h
L$enc_loop3:
  0000000000000183: 66 0F 38 DC D1     aesenc      xmm2,xmm1
  0000000000000188: 66 0F 38 DC D9     aesenc      xmm3,xmm1
  000000000000018D: 66 0F 38 DC E1     aesenc      xmm4,xmm1
  0000000000000192: 0F 10 0C 01        movups      xmm1,xmmword ptr [rcx+rax]
  0000000000000196: 48 83 C0 20        add         rax,20h
  000000000000019A: 66 0F 38 DC D0     aesenc      xmm2,xmm0
  000000000000019F: 66 0F 38 DC D8     aesenc      xmm3,xmm0
  00000000000001A4: 66 0F 38 DC E0     aesenc      xmm4,xmm0
  00000000000001A9: 0F 10 44 01 F0     movups      xmm0,xmmword ptr [rcx+rax-10h]
  00000000000001AE: 0F 85 CF FF FF FF  jne         L$enc_loop3
  00000000000001B4: 66 0F 38 DC D1     aesenc      xmm2,xmm1
  00000000000001B9: 66 0F 38 DC D9     aesenc      xmm3,xmm1
  00000000000001BE: 66 0F 38 DC E1     aesenc      xmm4,xmm1
  00000000000001C3: 66 0F 38 DD D0     aesenclast  xmm2,xmm0
  00000000000001C8: 66 0F 38 DD D8     aesenclast  xmm3,xmm0
  00000000000001CD: 66 0F 38 DD E0     aesenclast  xmm4,xmm0
  00000000000001D2: F3 C3              rep ret
  00000000000001D4: 90                 nop
  00000000000001D5: 90                 nop
  00000000000001D6: 90                 nop
  00000000000001D7: 90                 nop
  00000000000001D8: 90                 nop
  00000000000001D9: 90                 nop
  00000000000001DA: 90                 nop
  00000000000001DB: 90                 nop
  00000000000001DC: 90                 nop
  00000000000001DD: 90                 nop
  00000000000001DE: 90                 nop
  00000000000001DF: 90                 nop
_aesni_decrypt3:
  00000000000001E0: 0F 10 01           movups      xmm0,xmmword ptr [rcx]
  00000000000001E3: C1 E0 04           shl         eax,4
  00000000000001E6: 0F 10 49 10        movups      xmm1,xmmword ptr [rcx+10h]
  00000000000001EA: 0F 57 D0           xorps       xmm2,xmm0
  00000000000001ED: 0F 57 D8           xorps       xmm3,xmm0
  00000000000001F0: 0F 57 E0           xorps       xmm4,xmm0
  00000000000001F3: 0F 10 41 20        movups      xmm0,xmmword ptr [rcx+20h]
  00000000000001F7: 48 8D 4C 01 20     lea         rcx,[rcx+rax+20h]
  00000000000001FC: 48 F7 D8           neg         rax
  00000000000001FF: 48 83 C0 10        add         rax,10h
L$dec_loop3:
  0000000000000203: 66 0F 38 DE D1     aesdec      xmm2,xmm1
  0000000000000208: 66 0F 38 DE D9     aesdec      xmm3,xmm1
  000000000000020D: 66 0F 38 DE E1     aesdec      xmm4,xmm1
  0000000000000212: 0F 10 0C 01        movups      xmm1,xmmword ptr [rcx+rax]
  0000000000000216: 48 83 C0 20        add         rax,20h
  000000000000021A: 66 0F 38 DE D0     aesdec      xmm2,xmm0
  000000000000021F: 66 0F 38 DE D8     aesdec      xmm3,xmm0
  0000000000000224: 66 0F 38 DE E0     aesdec      xmm4,xmm0
  0000000000000229: 0F 10 44 01 F0     movups      xmm0,xmmword ptr [rcx+rax-10h]
  000000000000022E: 0F 85 CF FF FF FF  jne         L$dec_loop3
  0000000000000234: 66 0F 38 DE D1     aesdec      xmm2,xmm1
  0000000000000239: 66 0F 38 DE D9     aesdec      xmm3,xmm1
  000000000000023E: 66 0F 38 DE E1     aesdec      xmm4,xmm1
  0000000000000243: 66 0F 38 DF D0     aesdeclast  xmm2,xmm0
  0000000000000248: 66 0F 38 DF D8     aesdeclast  xmm3,xmm0
  000000000000024D: 66 0F 38 DF E0     aesdeclast  xmm4,xmm0
  0000000000000252: F3 C3              rep ret
  0000000000000254: 90                 nop
  0000000000000255: 90                 nop
  0000000000000256: 90                 nop
  0000000000000257: 90                 nop
  0000000000000258: 90                 nop
  0000000000000259: 90                 nop
  000000000000025A: 90                 nop
  000000000000025B: 90                 nop
  000000000000025C: 90                 nop
  000000000000025D: 90                 nop
  000000000000025E: 90                 nop
  000000000000025F: 90                 nop
_aesni_encrypt4:
  0000000000000260: 0F 10 01           movups      xmm0,xmmword ptr [rcx]
  0000000000000263: C1 E0 04           shl         eax,4
  0000000000000266: 0F 10 49 10        movups      xmm1,xmmword ptr [rcx+10h]
  000000000000026A: 0F 57 D0           xorps       xmm2,xmm0
  000000000000026D: 0F 57 D8           xorps       xmm3,xmm0
  0000000000000270: 0F 57 E0           xorps       xmm4,xmm0
  0000000000000273: 0F 57 E8           xorps       xmm5,xmm0
  0000000000000276: 0F 10 41 20        movups      xmm0,xmmword ptr [rcx+20h]
  000000000000027A: 48 8D 4C 01 20     lea         rcx,[rcx+rax+20h]
  000000000000027F: 48 F7 D8           neg         rax
  0000000000000282: 0F 1F 00           nop         dword ptr [rax]
  0000000000000285: 48 83 C0 10        add         rax,10h
L$enc_loop4:
  0000000000000289: 66 0F 38 DC D1     aesenc      xmm2,xmm1
  000000000000028E: 66 0F 38 DC D9     aesenc      xmm3,xmm1
  0000000000000293: 66 0F 38 DC E1     aesenc      xmm4,xmm1
  0000000000000298: 66 0F 38 DC E9     aesenc      xmm5,xmm1
  000000000000029D: 0F 10 0C 01        movups      xmm1,xmmword ptr [rcx+rax]
  00000000000002A1: 48 83 C0 20        add         rax,20h
  00000000000002A5: 66 0F 38 DC D0     aesenc      xmm2,xmm0
  00000000000002AA: 66 0F 38 DC D8     aesenc      xmm3,xmm0
  00000000000002AF: 66 0F 38 DC E0     aesenc      xmm4,xmm0
  00000000000002B4: 66 0F 38 DC E8     aesenc      xmm5,xmm0
  00000000000002B9: 0F 10 44 01 F0     movups      xmm0,xmmword ptr [rcx+rax-10h]
  00000000000002BE: 0F 85 C5 FF FF FF  jne         L$enc_loop4
  00000000000002C4: 66 0F 38 DC D1     aesenc      xmm2,xmm1
  00000000000002C9: 66 0F 38 DC D9     aesenc      xmm3,xmm1
  00000000000002CE: 66 0F 38 DC E1     aesenc      xmm4,xmm1
  00000000000002D3: 66 0F 38 DC E9     aesenc      xmm5,xmm1
  00000000000002D8: 66 0F 38 DD D0     aesenclast  xmm2,xmm0
  00000000000002DD: 66 0F 38 DD D8     aesenclast  xmm3,xmm0
  00000000000002E2: 66 0F 38 DD E0     aesenclast  xmm4,xmm0
  00000000000002E7: 66 0F 38 DD E8     aesenclast  xmm5,xmm0
  00000000000002EC: F3 C3              rep ret
  00000000000002EE: 90                 nop
  00000000000002EF: 90                 nop
_aesni_decrypt4:
  00000000000002F0: 0F 10 01           movups      xmm0,xmmword ptr [rcx]
  00000000000002F3: C1 E0 04           shl         eax,4
  00000000000002F6: 0F 10 49 10        movups      xmm1,xmmword ptr [rcx+10h]
  00000000000002FA: 0F 57 D0           xorps       xmm2,xmm0
  00000000000002FD: 0F 57 D8           xorps       xmm3,xmm0
  0000000000000300: 0F 57 E0           xorps       xmm4,xmm0
  0000000000000303: 0F 57 E8           xorps       xmm5,xmm0
  0000000000000306: 0F 10 41 20        movups      xmm0,xmmword ptr [rcx+20h]
  000000000000030A: 48 8D 4C 01 20     lea         rcx,[rcx+rax+20h]
  000000000000030F: 48 F7 D8           neg         rax
  0000000000000312: 0F 1F 00           nop         dword ptr [rax]
  0000000000000315: 48 83 C0 10        add         rax,10h
L$dec_loop4:
  0000000000000319: 66 0F 38 DE D1     aesdec      xmm2,xmm1
  000000000000031E: 66 0F 38 DE D9     aesdec      xmm3,xmm1
  0000000000000323: 66 0F 38 DE E1     aesdec      xmm4,xmm1
  0000000000000328: 66 0F 38 DE E9     aesdec      xmm5,xmm1
  000000000000032D: 0F 10 0C 01        movups      xmm1,xmmword ptr [rcx+rax]
  0000000000000331: 48 83 C0 20        add         rax,20h
  0000000000000335: 66 0F 38 DE D0     aesdec      xmm2,xmm0
  000000000000033A: 66 0F 38 DE D8     aesdec      xmm3,xmm0
  000000000000033F: 66 0F 38 DE E0     aesdec      xmm4,xmm0
  0000000000000344: 66 0F 38 DE E8     aesdec      xmm5,xmm0
  0000000000000349: 0F 10 44 01 F0     movups      xmm0,xmmword ptr [rcx+rax-10h]
  000000000000034E: 0F 85 C5 FF FF FF  jne         L$dec_loop4
  0000000000000354: 66 0F 38 DE D1     aesdec      xmm2,xmm1
  0000000000000359: 66 0F 38 DE D9     aesdec      xmm3,xmm1
  000000000000035E: 66 0F 38 DE E1     aesdec      xmm4,xmm1
  0000000000000363: 66 0F 38 DE E9     aesdec      xmm5,xmm1
  0000000000000368: 66 0F 38 DF D0     aesdeclast  xmm2,xmm0
  000000000000036D: 66 0F 38 DF D8     aesdeclast  xmm3,xmm0
  0000000000000372: 66 0F 38 DF E0     aesdeclast  xmm4,xmm0
  0000000000000377: 66 0F 38 DF E8     aesdeclast  xmm5,xmm0
  000000000000037C: F3 C3              rep ret
  000000000000037E: 90                 nop
  000000000000037F: 90                 nop
_aesni_encrypt6:
  0000000000000380: 0F 10 01           movups      xmm0,xmmword ptr [rcx]
  0000000000000383: C1 E0 04           shl         eax,4
  0000000000000386: 0F 10 49 10        movups      xmm1,xmmword ptr [rcx+10h]
  000000000000038A: 0F 57 D0           xorps       xmm2,xmm0
  000000000000038D: 66 0F EF D8        pxor        xmm3,xmm0
  0000000000000391: 66 0F EF E0        pxor        xmm4,xmm0
  0000000000000395: 66 0F 38 DC D1     aesenc      xmm2,xmm1
  000000000000039A: 48 8D 4C 01 20     lea         rcx,[rcx+rax+20h]
  000000000000039F: 48 F7 D8           neg         rax
  00000000000003A2: 66 0F 38 DC D9     aesenc      xmm3,xmm1
  00000000000003A7: 66 0F EF E8        pxor        xmm5,xmm0
  00000000000003AB: 66 0F EF F0        pxor        xmm6,xmm0
  00000000000003AF: 66 0F 38 DC E1     aesenc      xmm4,xmm1
  00000000000003B4: 66 0F EF F8        pxor        xmm7,xmm0
  00000000000003B8: 0F 10 04 01        movups      xmm0,xmmword ptr [rcx+rax]
  00000000000003BC: 48 83 C0 10        add         rax,10h
  00000000000003C0: E9 1A 00 00 00     jmp         L$enc_loop6_enter
  00000000000003C5: 90                 nop
  00000000000003C6: 90                 nop
  00000000000003C7: 90                 nop
  00000000000003C8: 90                 nop
  00000000000003C9: 90                 nop
  00000000000003CA: 90                 nop
  00000000000003CB: 90                 nop
  00000000000003CC: 90                 nop
  00000000000003CD: 90                 nop
  00000000000003CE: 90                 nop
  00000000000003CF: 90                 nop
L$enc_loop6:
  00000000000003D0: 66 0F 38 DC D1     aesenc      xmm2,xmm1
  00000000000003D5: 66 0F 38 DC D9     aesenc      xmm3,xmm1
  00000000000003DA: 66 0F 38 DC E1     aesenc      xmm4,xmm1
L$enc_loop6_enter:
  00000000000003DF: 66 0F 38 DC E9     aesenc      xmm5,xmm1
  00000000000003E4: 66 0F 38 DC F1     aesenc      xmm6,xmm1
  00000000000003E9: 66 0F 38 DC F9     aesenc      xmm7,xmm1
  00000000000003EE: 0F 10 0C 01        movups      xmm1,xmmword ptr [rcx+rax]
  00000000000003F2: 48 83 C0 20        add         rax,20h
  00000000000003F6: 66 0F 38 DC D0     aesenc      xmm2,xmm0
  00000000000003FB: 66 0F 38 DC D8     aesenc      xmm3,xmm0
  0000000000000400: 66 0F 38 DC E0     aesenc      xmm4,xmm0
  0000000000000405: 66 0F 38 DC E8     aesenc      xmm5,xmm0
  000000000000040A: 66 0F 38 DC F0     aesenc      xmm6,xmm0
  000000000000040F: 66 0F 38 DC F8     aesenc      xmm7,xmm0
  0000000000000414: 0F 10 44 01 F0     movups      xmm0,xmmword ptr [rcx+rax-10h]
  0000000000000419: 0F 85 B1 FF FF FF  jne         L$enc_loop6
  000000000000041F: 66 0F 38 DC D1     aesenc      xmm2,xmm1
  0000000000000424: 66 0F 38 DC D9     aesenc      xmm3,xmm1
  0000000000000429: 66 0F 38 DC E1     aesenc      xmm4,xmm1
  000000000000042E: 66 0F 38 DC E9     aesenc      xmm5,xmm1
  0000000000000433: 66 0F 38 DC F1     aesenc      xmm6,xmm1
  0000000000000438: 66 0F 38 DC F9     aesenc      xmm7,xmm1
  000000000000043D: 66 0F 38 DD D0     aesenclast  xmm2,xmm0
  0000000000000442: 66 0F 38 DD D8     aesenclast  xmm3,xmm0
  0000000000000447: 66 0F 38 DD E0     aesenclast  xmm4,xmm0
  000000000000044C: 66 0F 38 DD E8     aesenclast  xmm5,xmm0
  0000000000000451: 66 0F 38 DD F0     aesenclast  xmm6,xmm0
  0000000000000456: 66 0F 38 DD F8     aesenclast  xmm7,xmm0
  000000000000045B: F3 C3              rep ret
  000000000000045D: 90                 nop
  000000000000045E: 90                 nop
  000000000000045F: 90                 nop
_aesni_decrypt6:
  0000000000000460: 0F 10 01           movups      xmm0,xmmword ptr [rcx]
  0000000000000463: C1 E0 04           shl         eax,4
  0000000000000466: 0F 10 49 10        movups      xmm1,xmmword ptr [rcx+10h]
  000000000000046A: 0F 57 D0           xorps       xmm2,xmm0
  000000000000046D: 66 0F EF D8        pxor        xmm3,xmm0
  0000000000000471: 66 0F EF E0        pxor        xmm4,xmm0
  0000000000000475: 66 0F 38 DE D1     aesdec      xmm2,xmm1
  000000000000047A: 48 8D 4C 01 20     lea         rcx,[rcx+rax+20h]
  000000000000047F: 48 F7 D8           neg         rax
  0000000000000482: 66 0F 38 DE D9     aesdec      xmm3,xmm1
  0000000000000487: 66 0F EF E8        pxor        xmm5,xmm0
  000000000000048B: 66 0F EF F0        pxor        xmm6,xmm0
  000000000000048F: 66 0F 38 DE E1     aesdec      xmm4,xmm1
  0000000000000494: 66 0F EF F8        pxor        xmm7,xmm0
  0000000000000498: 0F 10 04 01        movups      xmm0,xmmword ptr [rcx+rax]
  000000000000049C: 48 83 C0 10        add         rax,10h
  00000000000004A0: E9 1A 00 00 00     jmp         L$dec_loop6_enter
  00000000000004A5: 90                 nop
  00000000000004A6: 90                 nop
  00000000000004A7: 90                 nop
  00000000000004A8: 90                 nop
  00000000000004A9: 90                 nop
  00000000000004AA: 90                 nop
  00000000000004AB: 90                 nop
  00000000000004AC: 90                 nop
  00000000000004AD: 90                 nop
  00000000000004AE: 90                 nop
  00000000000004AF: 90                 nop
L$dec_loop6:
  00000000000004B0: 66 0F 38 DE D1     aesdec      xmm2,xmm1
  00000000000004B5: 66 0F 38 DE D9     aesdec      xmm3,xmm1
  00000000000004BA: 66 0F 38 DE E1     aesdec      xmm4,xmm1
L$dec_loop6_enter:
  00000000000004BF: 66 0F 38 DE E9     aesdec      xmm5,xmm1
  00000000000004C4: 66 0F 38 DE F1     aesdec      xmm6,xmm1
  00000000000004C9: 66 0F 38 DE F9     aesdec      xmm7,xmm1
  00000000000004CE: 0F 10 0C 01        movups      xmm1,xmmword ptr [rcx+rax]
  00000000000004D2: 48 83 C0 20        add         rax,20h
  00000000000004D6: 66 0F 38 DE D0     aesdec      xmm2,xmm0
  00000000000004DB: 66 0F 38 DE D8     aesdec      xmm3,xmm0
  00000000000004E0: 66 0F 38 DE E0     aesdec      xmm4,xmm0
  00000000000004E5: 66 0F 38 DE E8     aesdec      xmm5,xmm0
  00000000000004EA: 66 0F 38 DE F0     aesdec      xmm6,xmm0
  00000000000004EF: 66 0F 38 DE F8     aesdec      xmm7,xmm0
  00000000000004F4: 0F 10 44 01 F0     movups      xmm0,xmmword ptr [rcx+rax-10h]
  00000000000004F9: 0F 85 B1 FF FF FF  jne         L$dec_loop6
  00000000000004FF: 66 0F 38 DE D1     aesdec      xmm2,xmm1
  0000000000000504: 66 0F 38 DE D9     aesdec      xmm3,xmm1
  0000000000000509: 66 0F 38 DE E1     aesdec      xmm4,xmm1
  000000000000050E: 66 0F 38 DE E9     aesdec      xmm5,xmm1
  0000000000000513: 66 0F 38 DE F1     aesdec      xmm6,xmm1
  0000000000000518: 66 0F 38 DE F9     aesdec      xmm7,xmm1
  000000000000051D: 66 0F 38 DF D0     aesdeclast  xmm2,xmm0
  0000000000000522: 66 0F 38 DF D8     aesdeclast  xmm3,xmm0
  0000000000000527: 66 0F 38 DF E0     aesdeclast  xmm4,xmm0
  000000000000052C: 66 0F 38 DF E8     aesdeclast  xmm5,xmm0
  0000000000000531: 66 0F 38 DF F0     aesdeclast  xmm6,xmm0
  0000000000000536: 66 0F 38 DF F8     aesdeclast  xmm7,xmm0
  000000000000053B: F3 C3              rep ret
  000000000000053D: 90                 nop
  000000000000053E: 90                 nop
  000000000000053F: 90                 nop
_aesni_encrypt8:
  0000000000000540: 0F 10 01           movups      xmm0,xmmword ptr [rcx]
  0000000000000543: C1 E0 04           shl         eax,4
  0000000000000546: 0F 10 49 10        movups      xmm1,xmmword ptr [rcx+10h]
  000000000000054A: 0F 57 D0           xorps       xmm2,xmm0
  000000000000054D: 0F 57 D8           xorps       xmm3,xmm0
  0000000000000550: 66 0F EF E0        pxor        xmm4,xmm0
  0000000000000554: 66 0F EF E8        pxor        xmm5,xmm0
  0000000000000558: 66 0F EF F0        pxor        xmm6,xmm0
  000000000000055C: 48 8D 4C 01 20     lea         rcx,[rcx+rax+20h]
  0000000000000561: 48 F7 D8           neg         rax
  0000000000000564: 66 0F 38 DC D1     aesenc      xmm2,xmm1
  0000000000000569: 66 0F EF F8        pxor        xmm7,xmm0
  000000000000056D: 66 44 0F EF C0     pxor        xmm8,xmm0
  0000000000000572: 66 0F 38 DC D9     aesenc      xmm3,xmm1
  0000000000000577: 66 44 0F EF C8     pxor        xmm9,xmm0
  000000000000057C: 0F 10 04 01        movups      xmm0,xmmword ptr [rcx+rax]
  0000000000000580: 48 83 C0 10        add         rax,10h
  0000000000000584: E9 11 00 00 00     jmp         L$enc_loop8_inner
  0000000000000589: 90                 nop
  000000000000058A: 90                 nop
  000000000000058B: 90                 nop
  000000000000058C: 90                 nop
  000000000000058D: 90                 nop
  000000000000058E: 90                 nop
  000000000000058F: 90                 nop
L$enc_loop8:
  0000000000000590: 66 0F 38 DC D1     aesenc      xmm2,xmm1
  0000000000000595: 66 0F 38 DC D9     aesenc      xmm3,xmm1
L$enc_loop8_inner:
  000000000000059A: 66 0F 38 DC E1     aesenc      xmm4,xmm1
  000000000000059F: 66 0F 38 DC E9     aesenc      xmm5,xmm1
  00000000000005A4: 66 0F 38 DC F1     aesenc      xmm6,xmm1
  00000000000005A9: 66 0F 38 DC F9     aesenc      xmm7,xmm1
  00000000000005AE: 66 44 0F 38 DC C1  aesenc      xmm8,xmm1
  00000000000005B4: 66 44 0F 38 DC C9  aesenc      xmm9,xmm1
L$enc_loop8_enter:
  00000000000005BA: 0F 10 0C 01        movups      xmm1,xmmword ptr [rcx+rax]
  00000000000005BE: 48 83 C0 20        add         rax,20h
  00000000000005C2: 66 0F 38 DC D0     aesenc      xmm2,xmm0
  00000000000005C7: 66 0F 38 DC D8     aesenc      xmm3,xmm0
  00000000000005CC: 66 0F 38 DC E0     aesenc      xmm4,xmm0
  00000000000005D1: 66 0F 38 DC E8     aesenc      xmm5,xmm0
  00000000000005D6: 66 0F 38 DC F0     aesenc      xmm6,xmm0
  00000000000005DB: 66 0F 38 DC F8     aesenc      xmm7,xmm0
  00000000000005E0: 66 44 0F 38 DC C0  aesenc      xmm8,xmm0
  00000000000005E6: 66 44 0F 38 DC C8  aesenc      xmm9,xmm0
  00000000000005EC: 0F 10 44 01 F0     movups      xmm0,xmmword ptr [rcx+rax-10h]
  00000000000005F1: 0F 85 99 FF FF FF  jne         L$enc_loop8
  00000000000005F7: 66 0F 38 DC D1     aesenc      xmm2,xmm1
  00000000000005FC: 66 0F 38 DC D9     aesenc      xmm3,xmm1
  0000000000000601: 66 0F 38 DC E1     aesenc      xmm4,xmm1
  0000000000000606: 66 0F 38 DC E9     aesenc      xmm5,xmm1
  000000000000060B: 66 0F 38 DC F1     aesenc      xmm6,xmm1
  0000000000000610: 66 0F 38 DC F9     aesenc      xmm7,xmm1
  0000000000000615: 66 44 0F 38 DC C1  aesenc      xmm8,xmm1
  000000000000061B: 66 44 0F 38 DC C9  aesenc      xmm9,xmm1
  0000000000000621: 66 0F 38 DD D0     aesenclast  xmm2,xmm0
  0000000000000626: 66 0F 38 DD D8     aesenclast  xmm3,xmm0
  000000000000062B: 66 0F 38 DD E0     aesenclast  xmm4,xmm0
  0000000000000630: 66 0F 38 DD E8     aesenclast  xmm5,xmm0
  0000000000000635: 66 0F 38 DD F0     aesenclast  xmm6,xmm0
  000000000000063A: 66 0F 38 DD F8     aesenclast  xmm7,xmm0
  000000000000063F: 66 44 0F 38 DD C0  aesenclast  xmm8,xmm0
  0000000000000645: 66 44 0F 38 DD C8  aesenclast  xmm9,xmm0
  000000000000064B: F3 C3              rep ret
  000000000000064D: 90                 nop
  000000000000064E: 90                 nop
  000000000000064F: 90                 nop
_aesni_decrypt8:
  0000000000000650: 0F 10 01           movups      xmm0,xmmword ptr [rcx]
  0000000000000653: C1 E0 04           shl         eax,4
  0000000000000656: 0F 10 49 10        movups      xmm1,xmmword ptr [rcx+10h]
  000000000000065A: 0F 57 D0           xorps       xmm2,xmm0
  000000000000065D: 0F 57 D8           xorps       xmm3,xmm0
  0000000000000660: 66 0F EF E0        pxor        xmm4,xmm0
  0000000000000664: 66 0F EF E8        pxor        xmm5,xmm0
  0000000000000668: 66 0F EF F0        pxor        xmm6,xmm0
  000000000000066C: 48 8D 4C 01 20     lea         rcx,[rcx+rax+20h]
  0000000000000671: 48 F7 D8           neg         rax
  0000000000000674: 66 0F 38 DE D1     aesdec      xmm2,xmm1
  0000000000000679: 66 0F EF F8        pxor        xmm7,xmm0
  000000000000067D: 66 44 0F EF C0     pxor        xmm8,xmm0
  0000000000000682: 66 0F 38 DE D9     aesdec      xmm3,xmm1
  0000000000000687: 66 44 0F EF C8     pxor        xmm9,xmm0
  000000000000068C: 0F 10 04 01        movups      xmm0,xmmword ptr [rcx+rax]
  0000000000000690: 48 83 C0 10        add         rax,10h
  0000000000000694: E9 11 00 00 00     jmp         L$dec_loop8_inner
  0000000000000699: 90                 nop
  000000000000069A: 90                 nop
  000000000000069B: 90                 nop
  000000000000069C: 90                 nop
  000000000000069D: 90                 nop
  000000000000069E: 90                 nop
  000000000000069F: 90                 nop
L$dec_loop8:
  00000000000006A0: 66 0F 38 DE D1     aesdec      xmm2,xmm1
  00000000000006A5: 66 0F 38 DE D9     aesdec      xmm3,xmm1
L$dec_loop8_inner:
  00000000000006AA: 66 0F 38 DE E1     aesdec      xmm4,xmm1
  00000000000006AF: 66 0F 38 DE E9     aesdec      xmm5,xmm1
  00000000000006B4: 66 0F 38 DE F1     aesdec      xmm6,xmm1
  00000000000006B9: 66 0F 38 DE F9     aesdec      xmm7,xmm1
  00000000000006BE: 66 44 0F 38 DE C1  aesdec      xmm8,xmm1
  00000000000006C4: 66 44 0F 38 DE C9  aesdec      xmm9,xmm1
L$dec_loop8_enter:
  00000000000006CA: 0F 10 0C 01        movups      xmm1,xmmword ptr [rcx+rax]
  00000000000006CE: 48 83 C0 20        add         rax,20h
  00000000000006D2: 66 0F 38 DE D0     aesdec      xmm2,xmm0
  00000000000006D7: 66 0F 38 DE D8     aesdec      xmm3,xmm0
  00000000000006DC: 66 0F 38 DE E0     aesdec      xmm4,xmm0
  00000000000006E1: 66 0F 38 DE E8     aesdec      xmm5,xmm0
  00000000000006E6: 66 0F 38 DE F0     aesdec      xmm6,xmm0
  00000000000006EB: 66 0F 38 DE F8     aesdec      xmm7,xmm0
  00000000000006F0: 66 44 0F 38 DE C0  aesdec      xmm8,xmm0
  00000000000006F6: 66 44 0F 38 DE C8  aesdec      xmm9,xmm0
  00000000000006FC: 0F 10 44 01 F0     movups      xmm0,xmmword ptr [rcx+rax-10h]
  0000000000000701: 0F 85 99 FF FF FF  jne         L$dec_loop8
  0000000000000707: 66 0F 38 DE D1     aesdec      xmm2,xmm1
  000000000000070C: 66 0F 38 DE D9     aesdec      xmm3,xmm1
  0000000000000711: 66 0F 38 DE E1     aesdec      xmm4,xmm1
  0000000000000716: 66 0F 38 DE E9     aesdec      xmm5,xmm1
  000000000000071B: 66 0F 38 DE F1     aesdec      xmm6,xmm1
  0000000000000720: 66 0F 38 DE F9     aesdec      xmm7,xmm1
  0000000000000725: 66 44 0F 38 DE C1  aesdec      xmm8,xmm1
  000000000000072B: 66 44 0F 38 DE C9  aesdec      xmm9,xmm1
  0000000000000731: 66 0F 38 DF D0     aesdeclast  xmm2,xmm0
  0000000000000736: 66 0F 38 DF D8     aesdeclast  xmm3,xmm0
  000000000000073B: 66 0F 38 DF E0     aesdeclast  xmm4,xmm0
  0000000000000740: 66 0F 38 DF E8     aesdeclast  xmm5,xmm0
  0000000000000745: 66 0F 38 DF F0     aesdeclast  xmm6,xmm0
  000000000000074A: 66 0F 38 DF F8     aesdeclast  xmm7,xmm0
  000000000000074F: 66 44 0F 38 DF C0  aesdeclast  xmm8,xmm0
  0000000000000755: 66 44 0F 38 DF C8  aesdeclast  xmm9,xmm0
  000000000000075B: F3 C3              rep ret
  000000000000075D: 90                 nop
  000000000000075E: 90                 nop
  000000000000075F: 90                 nop
aws_lc_0_21_0_aes_hw_ecb_encrypt:
  0000000000000760: 48 89 7C 24 08     mov         qword ptr [rsp+8],rdi
  0000000000000765: 48 89 74 24 10     mov         qword ptr [rsp+10h],rsi
  000000000000076A: 48 89 E0           mov         rax,rsp
L$SEH_begin_aes_hw_ecb_encrypt:
  000000000000076D: 48 89 CF           mov         rdi,rcx
  0000000000000770: 48 89 D6           mov         rsi,rdx
  0000000000000773: 4C 89 C2           mov         rdx,r8
  0000000000000776: 4C 89 C9           mov         rcx,r9
  0000000000000779: 4C 8B 44 24 28     mov         r8,qword ptr [rsp+28h]
  000000000000077E: 48 8D 64 24 A8     lea         rsp,[rsp-58h]
  0000000000000783: 0F 29 34 24        movaps      xmmword ptr [rsp],xmm6
  0000000000000787: 0F 29 7C 24 10     movaps      xmmword ptr [rsp+10h],xmm7
  000000000000078C: 44 0F 29 44 24 20  movaps      xmmword ptr [rsp+20h],xmm8
  0000000000000792: 44 0F 29 4C 24 30  movaps      xmmword ptr [rsp+30h],xmm9
L$ecb_enc_body:
  0000000000000798: 48 83 E2 F0        and         rdx,0FFFFFFFFFFFFFFF0h
  000000000000079C: 0F 84 72 05 00 00  je          L$ecb_ret
  00000000000007A2: 8B 81 F0 00 00 00  mov         eax,dword ptr [rcx+0F0h]
  00000000000007A8: 0F 10 01           movups      xmm0,xmmword ptr [rcx]
  00000000000007AB: 49 89 CB           mov         r11,rcx
  00000000000007AE: 41 89 C2           mov         r10d,eax
  00000000000007B1: 45 85 C0           test        r8d,r8d
  00000000000007B4: 0F 84 66 02 00 00  je          L$ecb_decrypt
  00000000000007BA: 48 81 FA 80 00 00  cmp         rdx,80h
                    00
  00000000000007C1: 0F 82 F4 00 00 00  jb          L$ecb_enc_tail
  00000000000007C7: F3 0F 6F 17        movdqu      xmm2,xmmword ptr [rdi]
  00000000000007CB: F3 0F 6F 5F 10     movdqu      xmm3,xmmword ptr [rdi+10h]
  00000000000007D0: F3 0F 6F 67 20     movdqu      xmm4,xmmword ptr [rdi+20h]
  00000000000007D5: F3 0F 6F 6F 30     movdqu      xmm5,xmmword ptr [rdi+30h]
  00000000000007DA: F3 0F 6F 77 40     movdqu      xmm6,xmmword ptr [rdi+40h]
  00000000000007DF: F3 0F 6F 7F 50     movdqu      xmm7,xmmword ptr [rdi+50h]
  00000000000007E4: F3 44 0F 6F 47 60  movdqu      xmm8,xmmword ptr [rdi+60h]
  00000000000007EA: F3 44 0F 6F 4F 70  movdqu      xmm9,xmmword ptr [rdi+70h]
  00000000000007F0: 48 8D BF 80 00 00  lea         rdi,[rdi+80h]
                    00
  00000000000007F7: 48 81 EA 80 00 00  sub         rdx,80h
                    00
  00000000000007FE: E9 6B 00 00 00     jmp         L$ecb_enc_loop8_enter
  0000000000000803: 90                 nop
  0000000000000804: 90                 nop
  0000000000000805: 90                 nop
  0000000000000806: 90                 nop
  0000000000000807: 90                 nop
  0000000000000808: 90                 nop
  0000000000000809: 90                 nop
  000000000000080A: 90                 nop
  000000000000080B: 90                 nop
  000000000000080C: 90                 nop
  000000000000080D: 90                 nop
  000000000000080E: 90                 nop
  000000000000080F: 90                 nop
L$ecb_enc_loop8:
  0000000000000810: 0F 11 16           movups      xmmword ptr [rsi],xmm2
  0000000000000813: 4C 89 D9           mov         rcx,r11
  0000000000000816: F3 0F 6F 17        movdqu      xmm2,xmmword ptr [rdi]
  000000000000081A: 44 89 D0           mov         eax,r10d
  000000000000081D: 0F 11 5E 10        movups      xmmword ptr [rsi+10h],xmm3
  0000000000000821: F3 0F 6F 5F 10     movdqu      xmm3,xmmword ptr [rdi+10h]
  0000000000000826: 0F 11 66 20        movups      xmmword ptr [rsi+20h],xmm4
  000000000000082A: F3 0F 6F 67 20     movdqu      xmm4,xmmword ptr [rdi+20h]
  000000000000082F: 0F 11 6E 30        movups      xmmword ptr [rsi+30h],xmm5
  0000000000000833: F3 0F 6F 6F 30     movdqu      xmm5,xmmword ptr [rdi+30h]
  0000000000000838: 0F 11 76 40        movups      xmmword ptr [rsi+40h],xmm6
  000000000000083C: F3 0F 6F 77 40     movdqu      xmm6,xmmword ptr [rdi+40h]
  0000000000000841: 0F 11 7E 50        movups      xmmword ptr [rsi+50h],xmm7
  0000000000000845: F3 0F 6F 7F 50     movdqu      xmm7,xmmword ptr [rdi+50h]
  000000000000084A: 44 0F 11 46 60     movups      xmmword ptr [rsi+60h],xmm8
  000000000000084F: F3 44 0F 6F 47 60  movdqu      xmm8,xmmword ptr [rdi+60h]
  0000000000000855: 44 0F 11 4E 70     movups      xmmword ptr [rsi+70h],xmm9
  000000000000085A: 48 8D B6 80 00 00  lea         rsi,[rsi+80h]
                    00
  0000000000000861: F3 44 0F 6F 4F 70  movdqu      xmm9,xmmword ptr [rdi+70h]
  0000000000000867: 48 8D BF 80 00 00  lea         rdi,[rdi+80h]
                    00
L$ecb_enc_loop8_enter:
  000000000000086E: E8 CD FC FF FF     call        _aesni_encrypt8
  0000000000000873: 48 81 EA 80 00 00  sub         rdx,80h
                    00
  000000000000087A: 0F 83 90 FF FF FF  jae         L$ecb_enc_loop8
  0000000000000880: 0F 11 16           movups      xmmword ptr [rsi],xmm2
  0000000000000883: 4C 89 D9           mov         rcx,r11
  0000000000000886: 0F 11 5E 10        movups      xmmword ptr [rsi+10h],xmm3
  000000000000088A: 44 89 D0           mov         eax,r10d
  000000000000088D: 0F 11 66 20        movups      xmmword ptr [rsi+20h],xmm4
  0000000000000891: 0F 11 6E 30        movups      xmmword ptr [rsi+30h],xmm5
  0000000000000895: 0F 11 76 40        movups      xmmword ptr [rsi+40h],xmm6
  0000000000000899: 0F 11 7E 50        movups      xmmword ptr [rsi+50h],xmm7
  000000000000089D: 44 0F 11 46 60     movups      xmmword ptr [rsi+60h],xmm8
  00000000000008A2: 44 0F 11 4E 70     movups      xmmword ptr [rsi+70h],xmm9
  00000000000008A7: 48 8D B6 80 00 00  lea         rsi,[rsi+80h]
                    00
  00000000000008AE: 48 81 C2 80 00 00  add         rdx,80h
                    00
  00000000000008B5: 0F 84 59 04 00 00  je          L$ecb_ret
L$ecb_enc_tail:
  00000000000008BB: 0F 10 17           movups      xmm2,xmmword ptr [rdi]
  00000000000008BE: 48 83 FA 20        cmp         rdx,20h
  00000000000008C2: 0F 82 78 00 00 00  jb          L$ecb_enc_one
  00000000000008C8: 0F 10 5F 10        movups      xmm3,xmmword ptr [rdi+10h]
  00000000000008CC: 0F 84 9E 00 00 00  je          L$ecb_enc_two
  00000000000008D2: 0F 10 67 20        movups      xmm4,xmmword ptr [rdi+20h]
  00000000000008D6: 48 83 FA 40        cmp         rdx,40h
  00000000000008DA: 0F 82 B0 00 00 00  jb          L$ecb_enc_three
  00000000000008E0: 0F 10 6F 30        movups      xmm5,xmmword ptr [rdi+30h]
  00000000000008E4: 0F 84 C6 00 00 00  je          L$ecb_enc_four
  00000000000008EA: 0F 10 77 40        movups      xmm6,xmmword ptr [rdi+40h]
  00000000000008EE: 48 83 FA 60        cmp         rdx,60h
  00000000000008F2: 0F 82 D8 00 00 00  jb          L$ecb_enc_five
  00000000000008F8: 0F 10 7F 50        movups      xmm7,xmmword ptr [rdi+50h]
  00000000000008FC: 0F 84 EE 00 00 00  je          L$ecb_enc_six
  0000000000000902: F3 44 0F 6F 47 60  movdqu      xmm8,xmmword ptr [rdi+60h]
  0000000000000908: 45 0F 57 C9        xorps       xmm9,xmm9
  000000000000090C: E8 2F FC FF FF     call        _aesni_encrypt8
  0000000000000911: 0F 11 16           movups      xmmword ptr [rsi],xmm2
  0000000000000914: 0F 11 5E 10        movups      xmmword ptr [rsi+10h],xmm3
  0000000000000918: 0F 11 66 20        movups      xmmword ptr [rsi+20h],xmm4
  000000000000091C: 0F 11 6E 30        movups      xmmword ptr [rsi+30h],xmm5
  0000000000000920: 0F 11 76 40        movups      xmmword ptr [rsi+40h],xmm6
  0000000000000924: 0F 11 7E 50        movups      xmmword ptr [rsi+50h],xmm7
  0000000000000928: 44 0F 11 46 60     movups      xmmword ptr [rsi+60h],xmm8
  000000000000092D: E9 E2 03 00 00     jmp         L$ecb_ret
  0000000000000932: 90                 nop
  0000000000000933: 90                 nop
  0000000000000934: 90                 nop
  0000000000000935: 90                 nop
  0000000000000936: 90                 nop
  0000000000000937: 90                 nop
  0000000000000938: 90                 nop
  0000000000000939: 90                 nop
  000000000000093A: 90                 nop
  000000000000093B: 90                 nop
  000000000000093C: 90                 nop
  000000000000093D: 90                 nop
  000000000000093E: 90                 nop
  000000000000093F: 90                 nop
L$ecb_enc_one:
  0000000000000940: 0F 10 01           movups      xmm0,xmmword ptr [rcx]
  0000000000000943: 0F 10 49 10        movups      xmm1,xmmword ptr [rcx+10h]
  0000000000000947: 48 8D 49 20        lea         rcx,[rcx+20h]
  000000000000094B: 0F 57 D0           xorps       xmm2,xmm0
L$oop_enc1_3:
  000000000000094E: 66 0F 38 DC D1     aesenc      xmm2,xmm1
  0000000000000953: FF C8              dec         eax
  0000000000000955: 0F 10 09           movups      xmm1,xmmword ptr [rcx]
  0000000000000958: 48 8D 49 10        lea         rcx,[rcx+10h]
  000000000000095C: 0F 85 EC FF FF FF  jne         L$oop_enc1_3
  0000000000000962: 66 0F 38 DD D1     aesenclast  xmm2,xmm1
  0000000000000967: 0F 11 16           movups      xmmword ptr [rsi],xmm2
  000000000000096A: E9 A5 03 00 00     jmp         L$ecb_ret
  000000000000096F: 90                 nop
L$ecb_enc_two:
  0000000000000970: E8 2B F7 FF FF     call        _aesni_encrypt2
  0000000000000975: 0F 11 16           movups      xmmword ptr [rsi],xmm2
  0000000000000978: 0F 11 5E 10        movups      xmmword ptr [rsi+10h],xmm3
  000000000000097C: E9 93 03 00 00     jmp         L$ecb_ret
  0000000000000981: 90                 nop
  0000000000000982: 90                 nop
  0000000000000983: 90                 nop
  0000000000000984: 90                 nop
  0000000000000985: 90                 nop
  0000000000000986: 90                 nop
  0000000000000987: 90                 nop
  0000000000000988: 90                 nop
  0000000000000989: 90                 nop
  000000000000098A: 90                 nop
  000000000000098B: 90                 nop
  000000000000098C: 90                 nop
  000000000000098D: 90                 nop
  000000000000098E: 90                 nop
  000000000000098F: 90                 nop
L$ecb_enc_three:
  0000000000000990: E8 CB F7 FF FF     call        _aesni_encrypt3
  0000000000000995: 0F 11 16           movups      xmmword ptr [rsi],xmm2
  0000000000000998: 0F 11 5E 10        movups      xmmword ptr [rsi+10h],xmm3
  000000000000099C: 0F 11 66 20        movups      xmmword ptr [rsi+20h],xmm4
  00000000000009A0: E9 6F 03 00 00     jmp         L$ecb_ret
  00000000000009A5: 90                 nop
  00000000000009A6: 90                 nop
  00000000000009A7: 90                 nop
  00000000000009A8: 90                 nop
  00000000000009A9: 90                 nop
  00000000000009AA: 90                 nop
  00000000000009AB: 90                 nop
  00000000000009AC: 90                 nop
  00000000000009AD: 90                 nop
  00000000000009AE: 90                 nop
  00000000000009AF: 90                 nop
L$ecb_enc_four:
  00000000000009B0: E8 AB F8 FF FF     call        _aesni_encrypt4
  00000000000009B5: 0F 11 16           movups      xmmword ptr [rsi],xmm2
  00000000000009B8: 0F 11 5E 10        movups      xmmword ptr [rsi+10h],xmm3
  00000000000009BC: 0F 11 66 20        movups      xmmword ptr [rsi+20h],xmm4
  00000000000009C0: 0F 11 6E 30        movups      xmmword ptr [rsi+30h],xmm5
  00000000000009C4: E9 4B 03 00 00     jmp         L$ecb_ret
  00000000000009C9: 90                 nop
  00000000000009CA: 90                 nop
  00000000000009CB: 90                 nop
  00000000000009CC: 90                 nop
  00000000000009CD: 90                 nop
  00000000000009CE: 90                 nop
  00000000000009CF: 90                 nop
L$ecb_enc_five:
  00000000000009D0: 0F 57 FF           xorps       xmm7,xmm7
  00000000000009D3: E8 A8 F9 FF FF     call        _aesni_encrypt6
  00000000000009D8: 0F 11 16           movups      xmmword ptr [rsi],xmm2
  00000000000009DB: 0F 11 5E 10        movups      xmmword ptr [rsi+10h],xmm3
  00000000000009DF: 0F 11 66 20        movups      xmmword ptr [rsi+20h],xmm4
  00000000000009E3: 0F 11 6E 30        movups      xmmword ptr [rsi+30h],xmm5
  00000000000009E7: 0F 11 76 40        movups      xmmword ptr [rsi+40h],xmm6
  00000000000009EB: E9 24 03 00 00     jmp         L$ecb_ret
L$ecb_enc_six:
  00000000000009F0: E8 8B F9 FF FF     call        _aesni_encrypt6
  00000000000009F5: 0F 11 16           movups      xmmword ptr [rsi],xmm2
  00000000000009F8: 0F 11 5E 10        movups      xmmword ptr [rsi+10h],xmm3
  00000000000009FC: 0F 11 66 20        movups      xmmword ptr [rsi+20h],xmm4
  0000000000000A00: 0F 11 6E 30        movups      xmmword ptr [rsi+30h],xmm5
  0000000000000A04: 0F 11 76 40        movups      xmmword ptr [rsi+40h],xmm6
  0000000000000A08: 0F 11 7E 50        movups      xmmword ptr [rsi+50h],xmm7
  0000000000000A0C: E9 03 03 00 00     jmp         L$ecb_ret
  0000000000000A11: 90                 nop
  0000000000000A12: 90                 nop
  0000000000000A13: 90                 nop
  0000000000000A14: 90                 nop
  0000000000000A15: 90                 nop
  0000000000000A16: 90                 nop
  0000000000000A17: 90                 nop
  0000000000000A18: 90                 nop
  0000000000000A19: 90                 nop
  0000000000000A1A: 90                 nop
  0000000000000A1B: 90                 nop
  0000000000000A1C: 90                 nop
  0000000000000A1D: 90                 nop
  0000000000000A1E: 90                 nop
  0000000000000A1F: 90                 nop
L$ecb_decrypt:
  0000000000000A20: 48 81 FA 80 00 00  cmp         rdx,80h
                    00
  0000000000000A27: 0F 82 14 01 00 00  jb          L$ecb_dec_tail
  0000000000000A2D: F3 0F 6F 17        movdqu      xmm2,xmmword ptr [rdi]
  0000000000000A31: F3 0F 6F 5F 10     movdqu      xmm3,xmmword ptr [rdi+10h]
  0000000000000A36: F3 0F 6F 67 20     movdqu      xmm4,xmmword ptr [rdi+20h]
  0000000000000A3B: F3 0F 6F 6F 30     movdqu      xmm5,xmmword ptr [rdi+30h]
  0000000000000A40: F3 0F 6F 77 40     movdqu      xmm6,xmmword ptr [rdi+40h]
  0000000000000A45: F3 0F 6F 7F 50     movdqu      xmm7,xmmword ptr [rdi+50h]
  0000000000000A4A: F3 44 0F 6F 47 60  movdqu      xmm8,xmmword ptr [rdi+60h]
  0000000000000A50: F3 44 0F 6F 4F 70  movdqu      xmm9,xmmword ptr [rdi+70h]
  0000000000000A56: 48 8D BF 80 00 00  lea         rdi,[rdi+80h]
                    00
  0000000000000A5D: 48 81 EA 80 00 00  sub         rdx,80h
                    00
  0000000000000A64: E9 65 00 00 00     jmp         L$ecb_dec_loop8_enter
  0000000000000A69: 90                 nop
  0000000000000A6A: 90                 nop
  0000000000000A6B: 90                 nop
  0000000000000A6C: 90                 nop
  0000000000000A6D: 90                 nop
  0000000000000A6E: 90                 nop
  0000000000000A6F: 90                 nop
L$ecb_dec_loop8:
  0000000000000A70: 0F 11 16           movups      xmmword ptr [rsi],xmm2
  0000000000000A73: 4C 89 D9           mov         rcx,r11
  0000000000000A76: F3 0F 6F 17        movdqu      xmm2,xmmword ptr [rdi]
  0000000000000A7A: 44 89 D0           mov         eax,r10d
  0000000000000A7D: 0F 11 5E 10        movups      xmmword ptr [rsi+10h],xmm3
  0000000000000A81: F3 0F 6F 5F 10     movdqu      xmm3,xmmword ptr [rdi+10h]
  0000000000000A86: 0F 11 66 20        movups      xmmword ptr [rsi+20h],xmm4
  0000000000000A8A: F3 0F 6F 67 20     movdqu      xmm4,xmmword ptr [rdi+20h]
  0000000000000A8F: 0F 11 6E 30        movups      xmmword ptr [rsi+30h],xmm5
  0000000000000A93: F3 0F 6F 6F 30     movdqu      xmm5,xmmword ptr [rdi+30h]
  0000000000000A98: 0F 11 76 40        movups      xmmword ptr [rsi+40h],xmm6
  0000000000000A9C: F3 0F 6F 77 40     movdqu      xmm6,xmmword ptr [rdi+40h]
  0000000000000AA1: 0F 11 7E 50        movups      xmmword ptr [rsi+50h],xmm7
  0000000000000AA5: F3 0F 6F 7F 50     movdqu      xmm7,xmmword ptr [rdi+50h]
  0000000000000AAA: 44 0F 11 46 60     movups      xmmword ptr [rsi+60h],xmm8
  0000000000000AAF: F3 44 0F 6F 47 60  movdqu      xmm8,xmmword ptr [rdi+60h]
  0000000000000AB5: 44 0F 11 4E 70     movups      xmmword ptr [rsi+70h],xmm9
  0000000000000ABA: 48 8D B6 80 00 00  lea         rsi,[rsi+80h]
                    00
  0000000000000AC1: F3 44 0F 6F 4F 70  movdqu      xmm9,xmmword ptr [rdi+70h]
  0000000000000AC7: 48 8D BF 80 00 00  lea         rdi,[rdi+80h]
                    00
L$ecb_dec_loop8_enter:
  0000000000000ACE: E8 7D FB FF FF     call        _aesni_decrypt8
  0000000000000AD3: 41 0F 10 03        movups      xmm0,xmmword ptr [r11]
  0000000000000AD7: 48 81 EA 80 00 00  sub         rdx,80h
                    00
  0000000000000ADE: 0F 83 8C FF FF FF  jae         L$ecb_dec_loop8
  0000000000000AE4: 0F 11 16           movups      xmmword ptr [rsi],xmm2
  0000000000000AE7: 66 0F EF D2        pxor        xmm2,xmm2
  0000000000000AEB: 4C 89 D9           mov         rcx,r11
  0000000000000AEE: 0F 11 5E 10        movups      xmmword ptr [rsi+10h],xmm3
  0000000000000AF2: 66 0F EF DB        pxor        xmm3,xmm3
  0000000000000AF6: 44 89 D0           mov         eax,r10d
  0000000000000AF9: 0F 11 66 20        movups      xmmword ptr [rsi+20h],xmm4
  0000000000000AFD: 66 0F EF E4        pxor        xmm4,xmm4
  0000000000000B01: 0F 11 6E 30        movups      xmmword ptr [rsi+30h],xmm5
  0000000000000B05: 66 0F EF ED        pxor        xmm5,xmm5
  0000000000000B09: 0F 11 76 40        movups      xmmword ptr [rsi+40h],xmm6
  0000000000000B0D: 66 0F EF F6        pxor        xmm6,xmm6
  0000000000000B11: 0F 11 7E 50        movups      xmmword ptr [rsi+50h],xmm7
  0000000000000B15: 66 0F EF FF        pxor        xmm7,xmm7
  0000000000000B19: 44 0F 11 46 60     movups      xmmword ptr [rsi+60h],xmm8
  0000000000000B1E: 66 45 0F EF C0     pxor        xmm8,xmm8
  0000000000000B23: 44 0F 11 4E 70     movups      xmmword ptr [rsi+70h],xmm9
  0000000000000B28: 66 45 0F EF C9     pxor        xmm9,xmm9
  0000000000000B2D: 48 8D B6 80 00 00  lea         rsi,[rsi+80h]
                    00
  0000000000000B34: 48 81 C2 80 00 00  add         rdx,80h
                    00
  0000000000000B3B: 0F 84 D3 01 00 00  je          L$ecb_ret
L$ecb_dec_tail:
  0000000000000B41: 0F 10 17           movups      xmm2,xmmword ptr [rdi]
  0000000000000B44: 48 83 FA 20        cmp         rdx,20h
  0000000000000B48: 0F 82 92 00 00 00  jb          L$ecb_dec_one
  0000000000000B4E: 0F 10 5F 10        movups      xmm3,xmmword ptr [rdi+10h]
  0000000000000B52: 0F 84 C8 00 00 00  je          L$ecb_dec_two
  0000000000000B58: 0F 10 67 20        movups      xmm4,xmmword ptr [rdi+20h]
  0000000000000B5C: 48 83 FA 40        cmp         rdx,40h
  0000000000000B60: 0F 82 DA 00 00 00  jb          L$ecb_dec_three
  0000000000000B66: 0F 10 6F 30        movups      xmm5,xmmword ptr [rdi+30h]
  0000000000000B6A: 0F 84 00 01 00 00  je          L$ecb_dec_four
  0000000000000B70: 0F 10 77 40        movups      xmm6,xmmword ptr [rdi+40h]
  0000000000000B74: 48 83 FA 60        cmp         rdx,60h
  0000000000000B78: 0F 82 22 01 00 00  jb          L$ecb_dec_five
  0000000000000B7E: 0F 10 7F 50        movups      xmm7,xmmword ptr [rdi+50h]
  0000000000000B82: 0F 84 58 01 00 00  je          L$ecb_dec_six
  0000000000000B88: 44 0F 10 47 60     movups      xmm8,xmmword ptr [rdi+60h]
  0000000000000B8D: 0F 10 01           movups      xmm0,xmmword ptr [rcx]
  0000000000000B90: 45 0F 57 C9        xorps       xmm9,xmm9
  0000000000000B94: E8 B7 FA FF FF     call        _aesni_decrypt8
  0000000000000B99: 0F 11 16           movups      xmmword ptr [rsi],xmm2
  0000000000000B9C: 66 0F EF D2        pxor        xmm2,xmm2
  0000000000000BA0: 0F 11 5E 10        movups      xmmword ptr [rsi+10h],xmm3
  0000000000000BA4: 66 0F EF DB        pxor        xmm3,xmm3
  0000000000000BA8: 0F 11 66 20        movups      xmmword ptr [rsi+20h],xmm4
  0000000000000BAC: 66 0F EF E4        pxor        xmm4,xmm4
  0000000000000BB0: 0F 11 6E 30        movups      xmmword ptr [rsi+30h],xmm5
  0000000000000BB4: 66 0F EF ED        pxor        xmm5,xmm5
  0000000000000BB8: 0F 11 76 40        movups      xmmword ptr [rsi+40h],xmm6
  0000000000000BBC: 66 0F EF F6        pxor        xmm6,xmm6
  0000000000000BC0: 0F 11 7E 50        movups      xmmword ptr [rsi+50h],xmm7
  0000000000000BC4: 66 0F EF FF        pxor        xmm7,xmm7
  0000000000000BC8: 44 0F 11 46 60     movups      xmmword ptr [rsi+60h],xmm8
  0000000000000BCD: 66 45 0F EF C0     pxor        xmm8,xmm8
  0000000000000BD2: 66 45 0F EF C9     pxor        xmm9,xmm9
  0000000000000BD7: E9 38 01 00 00     jmp         L$ecb_ret
  0000000000000BDC: 90                 nop
  0000000000000BDD: 90                 nop
  0000000000000BDE: 90                 nop
  0000000000000BDF: 90                 nop
L$ecb_dec_one:
  0000000000000BE0: 0F 10 01           movups      xmm0,xmmword ptr [rcx]
  0000000000000BE3: 0F 10 49 10        movups      xmm1,xmmword ptr [rcx+10h]
  0000000000000BE7: 48 8D 49 20        lea         rcx,[rcx+20h]
  0000000000000BEB: 0F 57 D0           xorps       xmm2,xmm0
L$oop_dec1_4:
  0000000000000BEE: 66 0F 38 DE D1     aesdec      xmm2,xmm1
  0000000000000BF3: FF C8              dec         eax
  0000000000000BF5: 0F 10 09           movups      xmm1,xmmword ptr [rcx]
  0000000000000BF8: 48 8D 49 10        lea         rcx,[rcx+10h]
  0000000000000BFC: 0F 85 EC FF FF FF  jne         L$oop_dec1_4
  0000000000000C02: 66 0F 38 DF D1     aesdeclast  xmm2,xmm1
  0000000000000C07: 0F 11 16           movups      xmmword ptr [rsi],xmm2
  0000000000000C0A: 66 0F EF D2        pxor        xmm2,xmm2
  0000000000000C0E: E9 01 01 00 00     jmp         L$ecb_ret
  0000000000000C13: 90                 nop
  0000000000000C14: 90                 nop
  0000000000000C15: 90                 nop
  0000000000000C16: 90                 nop
  0000000000000C17: 90                 nop
  0000000000000C18: 90                 nop
  0000000000000C19: 90                 nop
  0000000000000C1A: 90                 nop
  0000000000000C1B: 90                 nop
  0000000000000C1C: 90                 nop
  0000000000000C1D: 90                 nop
  0000000000000C1E: 90                 nop
  0000000000000C1F: 90                 nop
L$ecb_dec_two:
  0000000000000C20: E8 DB F4 FF FF     call        _aesni_decrypt2
  0000000000000C25: 0F 11 16           movups      xmmword ptr [rsi],xmm2
  0000000000000C28: 66 0F EF D2        pxor        xmm2,xmm2
  0000000000000C2C: 0F 11 5E 10        movups      xmmword ptr [rsi+10h],xmm3
  0000000000000C30: 66 0F EF DB        pxor        xmm3,xmm3
  0000000000000C34: E9 DB 00 00 00     jmp         L$ecb_ret
  0000000000000C39: 90                 nop
  0000000000000C3A: 90                 nop
  0000000000000C3B: 90                 nop
  0000000000000C3C: 90                 nop
  0000000000000C3D: 90                 nop
  0000000000000C3E: 90                 nop
  0000000000000C3F: 90                 nop
L$ecb_dec_three:
  0000000000000C40: E8 9B F5 FF FF     call        _aesni_decrypt3
  0000000000000C45: 0F 11 16           movups      xmmword ptr [rsi],xmm2
  0000000000000C48: 66 0F EF D2        pxor        xmm2,xmm2
  0000000000000C4C: 0F 11 5E 10        movups      xmmword ptr [rsi+10h],xmm3
  0000000000000C50: 66 0F EF DB        pxor        xmm3,xmm3
  0000000000000C54: 0F 11 66 20        movups      xmmword ptr [rsi+20h],xmm4
  0000000000000C58: 66 0F EF E4        pxor        xmm4,xmm4
  0000000000000C5C: E9 B3 00 00 00     jmp         L$ecb_ret
  0000000000000C61: 90                 nop
  0000000000000C62: 90                 nop
  0000000000000C63: 90                 nop
  0000000000000C64: 90                 nop
  0000000000000C65: 90                 nop
  0000000000000C66: 90                 nop
  0000000000000C67: 90                 nop
  0000000000000C68: 90                 nop
  0000000000000C69: 90                 nop
  0000000000000C6A: 90                 nop
  0000000000000C6B: 90                 nop
  0000000000000C6C: 90                 nop
  0000000000000C6D: 90                 nop
  0000000000000C6E: 90                 nop
  0000000000000C6F: 90                 nop
L$ecb_dec_four:
  0000000000000C70: E8 7B F6 FF FF     call        _aesni_decrypt4
  0000000000000C75: 0F 11 16           movups      xmmword ptr [rsi],xmm2
  0000000000000C78: 66 0F EF D2        pxor        xmm2,xmm2
  0000000000000C7C: 0F 11 5E 10        movups      xmmword ptr [rsi+10h],xmm3
  0000000000000C80: 66 0F EF DB        pxor        xmm3,xmm3
  0000000000000C84: 0F 11 66 20        movups      xmmword ptr [rsi+20h],xmm4
  0000000000000C88: 66 0F EF E4        pxor        xmm4,xmm4
  0000000000000C8C: 0F 11 6E 30        movups      xmmword ptr [rsi+30h],xmm5
  0000000000000C90: 66 0F EF ED        pxor        xmm5,xmm5
  0000000000000C94: E9 7B 00 00 00     jmp         L$ecb_ret
  0000000000000C99: 90                 nop
  0000000000000C9A: 90                 nop
  0000000000000C9B: 90                 nop
  0000000000000C9C: 90                 nop
  0000000000000C9D: 90                 nop
  0000000000000C9E: 90                 nop
  0000000000000C9F: 90                 nop
L$ecb_dec_five:
  0000000000000CA0: 0F 57 FF           xorps       xmm7,xmm7
  0000000000000CA3: E8 B8 F7 FF FF     call        _aesni_decrypt6
  0000000000000CA8: 0F 11 16           movups      xmmword ptr [rsi],xmm2
  0000000000000CAB: 66 0F EF D2        pxor        xmm2,xmm2
  0000000000000CAF: 0F 11 5E 10        movups      xmmword ptr [rsi+10h],xmm3
  0000000000000CB3: 66 0F EF DB        pxor        xmm3,xmm3
  0000000000000CB7: 0F 11 66 20        movups      xmmword ptr [rsi+20h],xmm4
  0000000000000CBB: 66 0F EF E4        pxor        xmm4,xmm4
  0000000000000CBF: 0F 11 6E 30        movups      xmmword ptr [rsi+30h],xmm5
  0000000000000CC3: 66 0F EF ED        pxor        xmm5,xmm5
  0000000000000CC7: 0F 11 76 40        movups      xmmword ptr [rsi+40h],xmm6
  0000000000000CCB: 66 0F EF F6        pxor        xmm6,xmm6
  0000000000000CCF: 66 0F EF FF        pxor        xmm7,xmm7
  0000000000000CD3: E9 3C 00 00 00     jmp         L$ecb_ret
  0000000000000CD8: 90                 nop
  0000000000000CD9: 90                 nop
  0000000000000CDA: 90                 nop
  0000000000000CDB: 90                 nop
  0000000000000CDC: 90                 nop
  0000000000000CDD: 90                 nop
  0000000000000CDE: 90                 nop
  0000000000000CDF: 90                 nop
L$ecb_dec_six:
  0000000000000CE0: E8 7B F7 FF FF     call        _aesni_decrypt6
  0000000000000CE5: 0F 11 16           movups      xmmword ptr [rsi],xmm2
  0000000000000CE8: 66 0F EF D2        pxor        xmm2,xmm2
  0000000000000CEC: 0F 11 5E 10        movups      xmmword ptr [rsi+10h],xmm3
  0000000000000CF0: 66 0F EF DB        pxor        xmm3,xmm3
  0000000000000CF4: 0F 11 66 20        movups      xmmword ptr [rsi+20h],xmm4
  0000000000000CF8: 66 0F EF E4        pxor        xmm4,xmm4
  0000000000000CFC: 0F 11 6E 30        movups      xmmword ptr [rsi+30h],xmm5
  0000000000000D00: 66 0F EF ED        pxor        xmm5,xmm5
  0000000000000D04: 0F 11 76 40        movups      xmmword ptr [rsi+40h],xmm6
  0000000000000D08: 66 0F EF F6        pxor        xmm6,xmm6
  0000000000000D0C: 0F 11 7E 50        movups      xmmword ptr [rsi+50h],xmm7
  0000000000000D10: 66 0F EF FF        pxor        xmm7,xmm7
L$ecb_ret:
  0000000000000D14: 0F 57 C0           xorps       xmm0,xmm0
  0000000000000D17: 66 0F EF C9        pxor        xmm1,xmm1
  0000000000000D1B: 0F 28 34 24        movaps      xmm6,xmmword ptr [rsp]
  0000000000000D1F: 0F 29 04 24        movaps      xmmword ptr [rsp],xmm0
  0000000000000D23: 0F 28 7C 24 10     movaps      xmm7,xmmword ptr [rsp+10h]
  0000000000000D28: 0F 29 44 24 10     movaps      xmmword ptr [rsp+10h],xmm0
  0000000000000D2D: 44 0F 28 44 24 20  movaps      xmm8,xmmword ptr [rsp+20h]
  0000000000000D33: 0F 29 44 24 20     movaps      xmmword ptr [rsp+20h],xmm0
  0000000000000D38: 44 0F 28 4C 24 30  movaps      xmm9,xmmword ptr [rsp+30h]
  0000000000000D3E: 0F 29 44 24 30     movaps      xmmword ptr [rsp+30h],xmm0
  0000000000000D43: 48 8D 64 24 58     lea         rsp,[rsp+58h]
L$ecb_enc_ret:
  0000000000000D48: 48 8B 7C 24 08     mov         rdi,qword ptr [rsp+8]
  0000000000000D4D: 48 8B 74 24 10     mov         rsi,qword ptr [rsp+10h]
  0000000000000D52: F3 C3              rep ret
L$SEH_end_aes_hw_ecb_encrypt:
  0000000000000D54: 90                 nop
  0000000000000D55: 90                 nop
  0000000000000D56: 90                 nop
  0000000000000D57: 90                 nop
  0000000000000D58: 90                 nop
  0000000000000D59: 90                 nop
  0000000000000D5A: 90                 nop
  0000000000000D5B: 90                 nop
  0000000000000D5C: 90                 nop
  0000000000000D5D: 90                 nop
  0000000000000D5E: 90                 nop
  0000000000000D5F: 90                 nop
aws_lc_0_21_0_aes_hw_ctr32_encrypt_blocks:
  0000000000000D60: 48 89 7C 24 08     mov         qword ptr [rsp+8],rdi
  0000000000000D65: 48 89 74 24 10     mov         qword ptr [rsp+10h],rsi
  0000000000000D6A: 48 89 E0           mov         rax,rsp
L$SEH_begin_aes_hw_ctr32_encrypt_blocks:
  0000000000000D6D: 48 89 CF           mov         rdi,rcx
  0000000000000D70: 48 89 D6           mov         rsi,rdx
  0000000000000D73: 4C 89 C2           mov         rdx,r8
  0000000000000D76: 4C 89 C9           mov         rcx,r9
  0000000000000D79: 4C 8B 44 24 28     mov         r8,qword ptr [rsp+28h]
  0000000000000D7E: 48 83 FA 01        cmp         rdx,1
  0000000000000D82: 0F 82 37 08 00 00  jb          L$ctr32_epilogue
  0000000000000D88: 0F 85 52 00 00 00  jne         L$ctr32_bulk
  0000000000000D8E: 41 0F 10 10        movups      xmm2,xmmword ptr [r8]
  0000000000000D92: 0F 10 1F           movups      xmm3,xmmword ptr [rdi]
  0000000000000D95: 8B 91 F0 00 00 00  mov         edx,dword ptr [rcx+0F0h]
  0000000000000D9B: 0F 10 01           movups      xmm0,xmmword ptr [rcx]
  0000000000000D9E: 0F 10 49 10        movups      xmm1,xmmword ptr [rcx+10h]
  0000000000000DA2: 48 8D 49 20        lea         rcx,[rcx+20h]
  0000000000000DA6: 0F 57 D0           xorps       xmm2,xmm0
L$oop_enc1_5:
  0000000000000DA9: 66 0F 38 DC D1     aesenc      xmm2,xmm1
  0000000000000DAE: FF CA              dec         edx
  0000000000000DB0: 0F 10 09           movups      xmm1,xmmword ptr [rcx]
  0000000000000DB3: 48 8D 49 10        lea         rcx,[rcx+10h]
  0000000000000DB7: 0F 85 EC FF FF FF  jne         L$oop_enc1_5
  0000000000000DBD: 66 0F 38 DD D1     aesenclast  xmm2,xmm1
  0000000000000DC2: 66 0F EF C0        pxor        xmm0,xmm0
  0000000000000DC6: 66 0F EF C9        pxor        xmm1,xmm1
  0000000000000DCA: 0F 57 D3           xorps       xmm2,xmm3
  0000000000000DCD: 66 0F EF DB        pxor        xmm3,xmm3
  0000000000000DD1: 0F 11 16           movups      xmmword ptr [rsi],xmm2
  0000000000000DD4: 0F 57 D2           xorps       xmm2,xmm2
  0000000000000DD7: E9 E3 07 00 00     jmp         L$ctr32_epilogue
  0000000000000DDC: 90                 nop
  0000000000000DDD: 90                 nop
  0000000000000DDE: 90                 nop
  0000000000000DDF: 90                 nop
L$ctr32_bulk:
  0000000000000DE0: 4C 8D 1C 24        lea         r11,[rsp]
  0000000000000DE4: 55                 push        rbp
  0000000000000DE5: 48 81 EC 20 01 00  sub         rsp,120h
                    00
  0000000000000DEC: 48 83 E4 F0        and         rsp,0FFFFFFFFFFFFFFF0h
  0000000000000DF0: 41 0F 29 B3 58 FF  movaps      xmmword ptr [r11-0A8h],xmm6
                    FF FF
  0000000000000DF8: 41 0F 29 BB 68 FF  movaps      xmmword ptr [r11-98h],xmm7
                    FF FF
  0000000000000E00: 45 0F 29 83 78 FF  movaps      xmmword ptr [r11-88h],xmm8
                    FF FF
  0000000000000E08: 45 0F 29 4B 88     movaps      xmmword ptr [r11-78h],xmm9
  0000000000000E0D: 45 0F 29 53 98     movaps      xmmword ptr [r11-68h],xmm10
  0000000000000E12: 45 0F 29 5B A8     movaps      xmmword ptr [r11-58h],xmm11
  0000000000000E17: 45 0F 29 63 B8     movaps      xmmword ptr [r11-48h],xmm12
  0000000000000E1C: 45 0F 29 6B C8     movaps      xmmword ptr [r11-38h],xmm13
  0000000000000E21: 45 0F 29 73 D8     movaps      xmmword ptr [r11-28h],xmm14
  0000000000000E26: 45 0F 29 7B E8     movaps      xmmword ptr [r11-18h],xmm15
L$ctr32_body:
  0000000000000E2B: F3 41 0F 6F 10     movdqu      xmm2,xmmword ptr [r8]
  0000000000000E30: F3 0F 6F 01        movdqu      xmm0,xmmword ptr [rcx]
  0000000000000E34: 45 8B 40 0C        mov         r8d,dword ptr [r8+0Ch]
  0000000000000E38: 66 0F EF D0        pxor        xmm2,xmm0
  0000000000000E3C: 8B 69 0C           mov         ebp,dword ptr [rcx+0Ch]
  0000000000000E3F: 66 0F 7F 14 24     movdqa      xmmword ptr [rsp],xmm2
  0000000000000E44: 41 0F C8           bswap       r8d
  0000000000000E47: 66 0F 6F DA        movdqa      xmm3,xmm2
  0000000000000E4B: 66 0F 6F E2        movdqa      xmm4,xmm2
  0000000000000E4F: 66 0F 6F EA        movdqa      xmm5,xmm2
  0000000000000E53: 66 0F 7F 54 24 40  movdqa      xmmword ptr [rsp+40h],xmm2
  0000000000000E59: 66 0F 7F 54 24 50  movdqa      xmmword ptr [rsp+50h],xmm2
  0000000000000E5F: 66 0F 7F 54 24 60  movdqa      xmmword ptr [rsp+60h],xmm2
  0000000000000E65: 49 89 D2           mov         r10,rdx
  0000000000000E68: 66 0F 7F 54 24 70  movdqa      xmmword ptr [rsp+70h],xmm2
  0000000000000E6E: 49 8D 40 01        lea         rax,[r8+1]
  0000000000000E72: 49 8D 50 02        lea         rdx,[r8+2]
  0000000000000E76: 0F C8              bswap       eax
  0000000000000E78: 0F CA              bswap       edx
  0000000000000E7A: 31 E8              xor         eax,ebp
  0000000000000E7C: 31 EA              xor         edx,ebp
  0000000000000E7E: 66 0F 3A 22 D8 03  pinsrd      xmm3,eax,3
  0000000000000E84: 49 8D 40 03        lea         rax,[r8+3]
  0000000000000E88: 66 0F 7F 5C 24 10  movdqa      xmmword ptr [rsp+10h],xmm3
  0000000000000E8E: 66 0F 3A 22 E2 03  pinsrd      xmm4,edx,3
  0000000000000E94: 0F C8              bswap       eax
  0000000000000E96: 4C 89 D2           mov         rdx,r10
  0000000000000E99: 4D 8D 50 04        lea         r10,[r8+4]
  0000000000000E9D: 66 0F 7F 64 24 20  movdqa      xmmword ptr [rsp+20h],xmm4
  0000000000000EA3: 31 E8              xor         eax,ebp
  0000000000000EA5: 41 0F CA           bswap       r10d
  0000000000000EA8: 66 0F 3A 22 E8 03  pinsrd      xmm5,eax,3
  0000000000000EAE: 41 31 EA           xor         r10d,ebp
  0000000000000EB1: 66 0F 7F 6C 24 30  movdqa      xmmword ptr [rsp+30h],xmm5
  0000000000000EB7: 4D 8D 48 05        lea         r9,[r8+5]
  0000000000000EBB: 44 89 54 24 4C     mov         dword ptr [rsp+4Ch],r10d
  0000000000000EC0: 41 0F C9           bswap       r9d
  0000000000000EC3: 4D 8D 50 06        lea         r10,[r8+6]
  0000000000000EC7: 8B 81 F0 00 00 00  mov         eax,dword ptr [rcx+0F0h]
  0000000000000ECD: 41 31 E9           xor         r9d,ebp
  0000000000000ED0: 41 0F CA           bswap       r10d
  0000000000000ED3: 44 89 4C 24 5C     mov         dword ptr [rsp+5Ch],r9d
  0000000000000ED8: 41 31 EA           xor         r10d,ebp
  0000000000000EDB: 4D 8D 48 07        lea         r9,[r8+7]
  0000000000000EDF: 44 89 54 24 6C     mov         dword ptr [rsp+6Ch],r10d
  0000000000000EE4: 41 0F C9           bswap       r9d
  0000000000000EE7: 41 31 E9           xor         r9d,ebp
  0000000000000EEA: 44 89 4C 24 7C     mov         dword ptr [rsp+7Ch],r9d
  0000000000000EEF: 0F 10 49 10        movups      xmm1,xmmword ptr [rcx+10h]
  0000000000000EF3: 66 0F 6F 74 24 40  movdqa      xmm6,xmmword ptr [rsp+40h]
  0000000000000EF9: 66 0F 6F 7C 24 50  movdqa      xmm7,xmmword ptr [rsp+50h]
  0000000000000EFF: 48 83 FA 08        cmp         rdx,8
  0000000000000F03: 0F 82 3F 04 00 00  jb          L$ctr32_tail
  0000000000000F09: 48 8D 89 80 00 00  lea         rcx,[rcx+80h]
                    00
  0000000000000F10: 48 83 EA 08        sub         rdx,8
  0000000000000F14: E9 07 00 00 00     jmp         L$ctr32_loop8
  0000000000000F19: 90                 nop
  0000000000000F1A: 90                 nop
  0000000000000F1B: 90                 nop
  0000000000000F1C: 90                 nop
  0000000000000F1D: 90                 nop
  0000000000000F1E: 90                 nop
  0000000000000F1F: 90                 nop
L$ctr32_loop8:
  0000000000000F20: 41 83 C0 08        add         r8d,8
  0000000000000F24: 66 44 0F 6F 44 24  movdqa      xmm8,xmmword ptr [rsp+60h]
                    60
  0000000000000F2B: 66 0F 38 DC D1     aesenc      xmm2,xmm1
  0000000000000F30: 45 89 C1           mov         r9d,r8d
  0000000000000F33: 66 44 0F 6F 4C 24  movdqa      xmm9,xmmword ptr [rsp+70h]
                    70
  0000000000000F3A: 66 0F 38 DC D9     aesenc      xmm3,xmm1
  0000000000000F3F: 41 0F C9           bswap       r9d
  0000000000000F42: 0F 10 41 A0        movups      xmm0,xmmword ptr [rcx-60h]
  0000000000000F46: 66 0F 38 DC E1     aesenc      xmm4,xmm1
  0000000000000F4B: 41 31 E9           xor         r9d,ebp
  0000000000000F4E: 90                 nop
  0000000000000F4F: 66 0F 38 DC E9     aesenc      xmm5,xmm1
  0000000000000F54: 44 89 4C 24 0C     mov         dword ptr [rsp+0Ch],r9d
  0000000000000F59: 4D 8D 48 01        lea         r9,[r8+1]
  0000000000000F5D: 66 0F 38 DC F1     aesenc      xmm6,xmm1
  0000000000000F62: 66 0F 38 DC F9     aesenc      xmm7,xmm1
  0000000000000F67: 66 44 0F 38 DC C1  aesenc      xmm8,xmm1
  0000000000000F6D: 66 44 0F 38 DC C9  aesenc      xmm9,xmm1
  0000000000000F73: 0F 10 49 B0        movups      xmm1,xmmword ptr [rcx-50h]
  0000000000000F77: 41 0F C9           bswap       r9d
  0000000000000F7A: 66 0F 38 DC D0     aesenc      xmm2,xmm0
  0000000000000F7F: 66 0F 38 DC D8     aesenc      xmm3,xmm0
  0000000000000F84: 41 31 E9           xor         r9d,ebp
  0000000000000F87: 66 90              nop
  0000000000000F89: 66 0F 38 DC E0     aesenc      xmm4,xmm0
  0000000000000F8E: 66 0F 38 DC E8     aesenc      xmm5,xmm0
  0000000000000F93: 44 89 4C 24 1C     mov         dword ptr [rsp+1Ch],r9d
  0000000000000F98: 4D 8D 48 02        lea         r9,[r8+2]
  0000000000000F9C: 66 0F 38 DC F0     aesenc      xmm6,xmm0
  0000000000000FA1: 66 0F 38 DC F8     aesenc      xmm7,xmm0
  0000000000000FA6: 66 44 0F 38 DC C0  aesenc      xmm8,xmm0
  0000000000000FAC: 66 44 0F 38 DC C8  aesenc      xmm9,xmm0
  0000000000000FB2: 0F 10 41 C0        movups      xmm0,xmmword ptr [rcx-40h]
  0000000000000FB6: 41 0F C9           bswap       r9d
  0000000000000FB9: 66 0F 38 DC D1     aesenc      xmm2,xmm1
  0000000000000FBE: 66 0F 38 DC D9     aesenc      xmm3,xmm1
  0000000000000FC3: 41 31 E9           xor         r9d,ebp
  0000000000000FC6: 66 90              nop
  0000000000000FC8: 66 0F 38 DC E1     aesenc      xmm4,xmm1
  0000000000000FCD: 66 0F 38 DC E9     aesenc      xmm5,xmm1
  0000000000000FD2: 44 89 4C 24 2C     mov         dword ptr [rsp+2Ch],r9d
  0000000000000FD7: 4D 8D 48 03        lea         r9,[r8+3]
  0000000000000FDB: 66 0F 38 DC F1     aesenc      xmm6,xmm1
  0000000000000FE0: 66 0F 38 DC F9     aesenc      xmm7,xmm1
  0000000000000FE5: 66 44 0F 38 DC C1  aesenc      xmm8,xmm1
  0000000000000FEB: 66 44 0F 38 DC C9  aesenc      xmm9,xmm1
  0000000000000FF1: 0F 10 49 D0        movups      xmm1,xmmword ptr [rcx-30h]
  0000000000000FF5: 41 0F C9           bswap       r9d
  0000000000000FF8: 66 0F 38 DC D0     aesenc      xmm2,xmm0
  0000000000000FFD: 66 0F 38 DC D8     aesenc      xmm3,xmm0
  0000000000001002: 41 31 E9           xor         r9d,ebp
  0000000000001005: 66 90              nop
  0000000000001007: 66 0F 38 DC E0     aesenc      xmm4,xmm0
  000000000000100C: 66 0F 38 DC E8     aesenc      xmm5,xmm0
  0000000000001011: 44 89 4C 24 3C     mov         dword ptr [rsp+3Ch],r9d
  0000000000001016: 4D 8D 48 04        lea         r9,[r8+4]
  000000000000101A: 66 0F 38 DC F0     aesenc      xmm6,xmm0
  000000000000101F: 66 0F 38 DC F8     aesenc      xmm7,xmm0
  0000000000001024: 66 44 0F 38 DC C0  aesenc      xmm8,xmm0
  000000000000102A: 66 44 0F 38 DC C8  aesenc      xmm9,xmm0
  0000000000001030: 0F 10 41 E0        movups      xmm0,xmmword ptr [rcx-20h]
  0000000000001034: 41 0F C9           bswap       r9d
  0000000000001037: 66 0F 38 DC D1     aesenc      xmm2,xmm1
  000000000000103C: 66 0F 38 DC D9     aesenc      xmm3,xmm1
  0000000000001041: 41 31 E9           xor         r9d,ebp
  0000000000001044: 66 90              nop
  0000000000001046: 66 0F 38 DC E1     aesenc      xmm4,xmm1
  000000000000104B: 66 0F 38 DC E9     aesenc      xmm5,xmm1
  0000000000001050: 44 89 4C 24 4C     mov         dword ptr [rsp+4Ch],r9d
  0000000000001055: 4D 8D 48 05        lea         r9,[r8+5]
  0000000000001059: 66 0F 38 DC F1     aesenc      xmm6,xmm1
  000000000000105E: 66 0F 38 DC F9     aesenc      xmm7,xmm1
  0000000000001063: 66 44 0F 38 DC C1  aesenc      xmm8,xmm1
  0000000000001069: 66 44 0F 38 DC C9  aesenc      xmm9,xmm1
  000000000000106F: 0F 10 49 F0        movups      xmm1,xmmword ptr [rcx-10h]
  0000000000001073: 41 0F C9           bswap       r9d
  0000000000001076: 66 0F 38 DC D0     aesenc      xmm2,xmm0
  000000000000107B: 66 0F 38 DC D8     aesenc      xmm3,xmm0
  0000000000001080: 41 31 E9           xor         r9d,ebp
  0000000000001083: 66 90              nop
  0000000000001085: 66 0F 38 DC E0     aesenc      xmm4,xmm0
  000000000000108A: 66 0F 38 DC E8     aesenc      xmm5,xmm0
  000000000000108F: 44 89 4C 24 5C     mov         dword ptr [rsp+5Ch],r9d
  0000000000001094: 4D 8D 48 06        lea         r9,[r8+6]
  0000000000001098: 66 0F 38 DC F0     aesenc      xmm6,xmm0
  000000000000109D: 66 0F 38 DC F8     aesenc      xmm7,xmm0
  00000000000010A2: 66 44 0F 38 DC C0  aesenc      xmm8,xmm0
  00000000000010A8: 66 44 0F 38 DC C8  aesenc      xmm9,xmm0
  00000000000010AE: 0F 10 01           movups      xmm0,xmmword ptr [rcx]
  00000000000010B1: 41 0F C9           bswap       r9d
  00000000000010B4: 66 0F 38 DC D1     aesenc      xmm2,xmm1
  00000000000010B9: 66 0F 38 DC D9     aesenc      xmm3,xmm1
  00000000000010BE: 41 31 E9           xor         r9d,ebp
  00000000000010C1: 66 90              nop
  00000000000010C3: 66 0F 38 DC E1     aesenc      xmm4,xmm1
  00000000000010C8: 66 0F 38 DC E9     aesenc      xmm5,xmm1
  00000000000010CD: 44 89 4C 24 6C     mov         dword ptr [rsp+6Ch],r9d
  00000000000010D2: 4D 8D 48 07        lea         r9,[r8+7]
  00000000000010D6: 66 0F 38 DC F1     aesenc      xmm6,xmm1
  00000000000010DB: 66 0F 38 DC F9     aesenc      xmm7,xmm1
  00000000000010E0: 66 44 0F 38 DC C1  aesenc      xmm8,xmm1
  00000000000010E6: 66 44 0F 38 DC C9  aesenc      xmm9,xmm1
  00000000000010EC: 0F 10 49 10        movups      xmm1,xmmword ptr [rcx+10h]
  00000000000010F0: 41 0F C9           bswap       r9d
  00000000000010F3: 66 0F 38 DC D0     aesenc      xmm2,xmm0
  00000000000010F8: 66 0F 38 DC D8     aesenc      xmm3,xmm0
  00000000000010FD: 66 0F 38 DC E0     aesenc      xmm4,xmm0
  0000000000001102: 41 31 E9           xor         r9d,ebp
  0000000000001105: F3 44 0F 6F 17     movdqu      xmm10,xmmword ptr [rdi]
  000000000000110A: 66 0F 38 DC E8     aesenc      xmm5,xmm0
  000000000000110F: 44 89 4C 24 7C     mov         dword ptr [rsp+7Ch],r9d
  0000000000001114: 83 F8 0B           cmp         eax,0Bh
  0000000000001117: 66 0F 38 DC F0     aesenc      xmm6,xmm0
  000000000000111C: 66 0F 38 DC F8     aesenc      xmm7,xmm0
  0000000000001121: 66 44 0F 38 DC C0  aesenc      xmm8,xmm0
  0000000000001127: 66 44 0F 38 DC C8  aesenc      xmm9,xmm0
  000000000000112D: 0F 10 41 20        movups      xmm0,xmmword ptr [rcx+20h]
  0000000000001131: 0F 82 C9 00 00 00  jb          L$ctr32_enc_done
  0000000000001137: 66 0F 38 DC D1     aesenc      xmm2,xmm1
  000000000000113C: 66 0F 38 DC D9     aesenc      xmm3,xmm1
  0000000000001141: 66 0F 38 DC E1     aesenc      xmm4,xmm1
  0000000000001146: 66 0F 38 DC E9     aesenc      xmm5,xmm1
  000000000000114B: 66 0F 38 DC F1     aesenc      xmm6,xmm1
  0000000000001150: 66 0F 38 DC F9     aesenc      xmm7,xmm1
  0000000000001155: 66 44 0F 38 DC C1  aesenc      xmm8,xmm1
  000000000000115B: 66 44 0F 38 DC C9  aesenc      xmm9,xmm1
  0000000000001161: 0F 10 49 30        movups      xmm1,xmmword ptr [rcx+30h]
  0000000000001165: 66 0F 38 DC D0     aesenc      xmm2,xmm0
  000000000000116A: 66 0F 38 DC D8     aesenc      xmm3,xmm0
  000000000000116F: 66 0F 38 DC E0     aesenc      xmm4,xmm0
  0000000000001174: 66 0F 38 DC E8     aesenc      xmm5,xmm0
  0000000000001179: 66 0F 38 DC F0     aesenc      xmm6,xmm0
  000000000000117E: 66 0F 38 DC F8     aesenc      xmm7,xmm0
  0000000000001183: 66 44 0F 38 DC C0  aesenc      xmm8,xmm0
  0000000000001189: 66 44 0F 38 DC C8  aesenc      xmm9,xmm0
  000000000000118F: 0F 10 41 40        movups      xmm0,xmmword ptr [rcx+40h]
  0000000000001193: 0F 84 67 00 00 00  je          L$ctr32_enc_done
  0000000000001199: 66 0F 38 DC D1     aesenc      xmm2,xmm1
  000000000000119E: 66 0F 38 DC D9     aesenc      xmm3,xmm1
  00000000000011A3: 66 0F 38 DC E1     aesenc      xmm4,xmm1
  00000000000011A8: 66 0F 38 DC E9     aesenc      xmm5,xmm1
  00000000000011AD: 66 0F 38 DC F1     aesenc      xmm6,xmm1
  00000000000011B2: 66 0F 38 DC F9     aesenc      xmm7,xmm1
  00000000000011B7: 66 44 0F 38 DC C1  aesenc      xmm8,xmm1
  00000000000011BD: 66 44 0F 38 DC C9  aesenc      xmm9,xmm1
  00000000000011C3: 0F 10 49 50        movups      xmm1,xmmword ptr [rcx+50h]
  00000000000011C7: 66 0F 38 DC D0     aesenc      xmm2,xmm0
  00000000000011CC: 66 0F 38 DC D8     aesenc      xmm3,xmm0
  00000000000011D1: 66 0F 38 DC E0     aesenc      xmm4,xmm0
  00000000000011D6: 66 0F 38 DC E8     aesenc      xmm5,xmm0
  00000000000011DB: 66 0F 38 DC F0     aesenc      xmm6,xmm0
  00000000000011E0: 66 0F 38 DC F8     aesenc      xmm7,xmm0
  00000000000011E5: 66 44 0F 38 DC C0  aesenc      xmm8,xmm0
  00000000000011EB: 66 44 0F 38 DC C8  aesenc      xmm9,xmm0
  00000000000011F1: 0F 10 41 60        movups      xmm0,xmmword ptr [rcx+60h]
  00000000000011F5: E9 06 00 00 00     jmp         L$ctr32_enc_done
  00000000000011FA: 90                 nop
  00000000000011FB: 90                 nop
  00000000000011FC: 90                 nop
  00000000000011FD: 90                 nop
  00000000000011FE: 90                 nop
  00000000000011FF: 90                 nop
L$ctr32_enc_done:
  0000000000001200: F3 44 0F 6F 5F 10  movdqu      xmm11,xmmword ptr [rdi+10h]
  0000000000001206: 66 44 0F EF D0     pxor        xmm10,xmm0
  000000000000120B: F3 44 0F 6F 67 20  movdqu      xmm12,xmmword ptr [rdi+20h]
  0000000000001211: 66 44 0F EF D8     pxor        xmm11,xmm0
  0000000000001216: F3 44 0F 6F 6F 30  movdqu      xmm13,xmmword ptr [rdi+30h]
  000000000000121C: 66 44 0F EF E0     pxor        xmm12,xmm0
  0000000000001221: F3 44 0F 6F 77 40  movdqu      xmm14,xmmword ptr [rdi+40h]
  0000000000001227: 66 44 0F EF E8     pxor        xmm13,xmm0
  000000000000122C: F3 44 0F 6F 7F 50  movdqu      xmm15,xmmword ptr [rdi+50h]
  0000000000001232: 66 44 0F EF F0     pxor        xmm14,xmm0
  0000000000001237: 0F 18 8F C0 01 00  prefetcht0  [rdi+1C0h]
                    00
  000000000000123E: 0F 18 8F 00 02 00  prefetcht0  [rdi+200h]
                    00
  0000000000001245: 66 44 0F EF F8     pxor        xmm15,xmm0
  000000000000124A: 66 0F 38 DC D1     aesenc      xmm2,xmm1
  000000000000124F: 66 0F 38 DC D9     aesenc      xmm3,xmm1
  0000000000001254: 66 0F 38 DC E1     aesenc      xmm4,xmm1
  0000000000001259: 66 0F 38 DC E9     aesenc      xmm5,xmm1
  000000000000125E: 66 0F 38 DC F1     aesenc      xmm6,xmm1
  0000000000001263: 66 0F 38 DC F9     aesenc      xmm7,xmm1
  0000000000001268: 66 44 0F 38 DC C1  aesenc      xmm8,xmm1
  000000000000126E: 66 44 0F 38 DC C9  aesenc      xmm9,xmm1
  0000000000001274: F3 0F 6F 4F 60     movdqu      xmm1,xmmword ptr [rdi+60h]
  0000000000001279: 48 8D BF 80 00 00  lea         rdi,[rdi+80h]
                    00
  0000000000001280: 66 41 0F 38 DD D2  aesenclast  xmm2,xmm10
  0000000000001286: 66 0F EF C8        pxor        xmm1,xmm0
  000000000000128A: F3 44 0F 6F 57 F0  movdqu      xmm10,xmmword ptr [rdi-10h]
  0000000000001290: 66 41 0F 38 DD DB  aesenclast  xmm3,xmm11
  0000000000001296: 66 44 0F EF D0     pxor        xmm10,xmm0
  000000000000129B: 66 44 0F 6F 1C 24  movdqa      xmm11,xmmword ptr [rsp]
  00000000000012A1: 66 41 0F 38 DD E4  aesenclast  xmm4,xmm12
  00000000000012A7: 66 41 0F 38 DD ED  aesenclast  xmm5,xmm13
  00000000000012AD: 66 44 0F 6F 64 24  movdqa      xmm12,xmmword ptr [rsp+10h]
                    10
  00000000000012B4: 66 44 0F 6F 6C 24  movdqa      xmm13,xmmword ptr [rsp+20h]
                    20
  00000000000012BB: 66 41 0F 38 DD F6  aesenclast  xmm6,xmm14
  00000000000012C1: 66 41 0F 38 DD FF  aesenclast  xmm7,xmm15
  00000000000012C7: 66 44 0F 6F 74 24  movdqa      xmm14,xmmword ptr [rsp+30h]
                    30
  00000000000012CE: 66 44 0F 6F 7C 24  movdqa      xmm15,xmmword ptr [rsp+40h]
                    40
  00000000000012D5: 66 44 0F 38 DD C1  aesenclast  xmm8,xmm1
  00000000000012DB: 66 0F 6F 44 24 50  movdqa      xmm0,xmmword ptr [rsp+50h]
  00000000000012E1: 0F 10 49 90        movups      xmm1,xmmword ptr [rcx-70h]
  00000000000012E5: 66 45 0F 38 DD CA  aesenclast  xmm9,xmm10
  00000000000012EB: 0F 11 16           movups      xmmword ptr [rsi],xmm2
  00000000000012EE: 66 41 0F 6F D3     movdqa      xmm2,xmm11
  00000000000012F3: 0F 11 5E 10        movups      xmmword ptr [rsi+10h],xmm3
  00000000000012F7: 66 41 0F 6F DC     movdqa      xmm3,xmm12
  00000000000012FC: 0F 11 66 20        movups      xmmword ptr [rsi+20h],xmm4
  0000000000001300: 66 41 0F 6F E5     movdqa      xmm4,xmm13
  0000000000001305: 0F 11 6E 30        movups      xmmword ptr [rsi+30h],xmm5
  0000000000001309: 66 41 0F 6F EE     movdqa      xmm5,xmm14
  000000000000130E: 0F 11 76 40        movups      xmmword ptr [rsi+40h],xmm6
  0000000000001312: 66 41 0F 6F F7     movdqa      xmm6,xmm15
  0000000000001317: 0F 11 7E 50        movups      xmmword ptr [rsi+50h],xmm7
  000000000000131B: 66 0F 6F F8        movdqa      xmm7,xmm0
  000000000000131F: 44 0F 11 46 60     movups      xmmword ptr [rsi+60h],xmm8
  0000000000001324: 44 0F 11 4E 70     movups      xmmword ptr [rsi+70h],xmm9
  0000000000001329: 48 8D B6 80 00 00  lea         rsi,[rsi+80h]
                    00
  0000000000001330: 48 83 EA 08        sub         rdx,8
  0000000000001334: 0F 83 E6 FB FF FF  jae         L$ctr32_loop8
  000000000000133A: 48 83 C2 08        add         rdx,8
  000000000000133E: 0F 84 BE 01 00 00  je          L$ctr32_done
  0000000000001344: 48 8D 49 80        lea         rcx,[rcx-80h]
L$ctr32_tail:
  0000000000001348: 48 8D 49 10        lea         rcx,[rcx+10h]
  000000000000134C: 48 83 FA 04        cmp         rdx,4
  0000000000001350: 0F 82 4A 01 00 00  jb          L$ctr32_loop3
  0000000000001356: 0F 84 C4 00 00 00  je          L$ctr32_loop4
  000000000000135C: C1 E0 04           shl         eax,4
  000000000000135F: 66 44 0F 6F 44 24  movdqa      xmm8,xmmword ptr [rsp+60h]
                    60
  0000000000001366: 66 45 0F EF C9     pxor        xmm9,xmm9
  000000000000136B: 0F 10 41 10        movups      xmm0,xmmword ptr [rcx+10h]
  000000000000136F: 66 0F 38 DC D1     aesenc      xmm2,xmm1
  0000000000001374: 66 0F 38 DC D9     aesenc      xmm3,xmm1
  0000000000001379: 48 8D 4C 08 10     lea         rcx,[rax+rcx+10h]
  000000000000137E: 48 F7 D8           neg         rax
  0000000000001381: 66 0F 38 DC E1     aesenc      xmm4,xmm1
  0000000000001386: 48 83 C0 10        add         rax,10h
  000000000000138A: 44 0F 10 17        movups      xmm10,xmmword ptr [rdi]
  000000000000138E: 66 0F 38 DC E9     aesenc      xmm5,xmm1
  0000000000001393: 66 0F 38 DC F1     aesenc      xmm6,xmm1
  0000000000001398: 44 0F 10 5F 10     movups      xmm11,xmmword ptr [rdi+10h]
  000000000000139D: 44 0F 10 67 20     movups      xmm12,xmmword ptr [rdi+20h]
  00000000000013A2: 66 0F 38 DC F9     aesenc      xmm7,xmm1
  00000000000013A7: 66 44 0F 38 DC C1  aesenc      xmm8,xmm1
  00000000000013AD: E8 08 F2 FF FF     call        L$enc_loop8_enter
  00000000000013B2: F3 44 0F 6F 6F 30  movdqu      xmm13,xmmword ptr [rdi+30h]
  00000000000013B8: 66 41 0F EF D2     pxor        xmm2,xmm10
  00000000000013BD: F3 44 0F 6F 57 40  movdqu      xmm10,xmmword ptr [rdi+40h]
  00000000000013C3: 66 41 0F EF DB     pxor        xmm3,xmm11
  00000000000013C8: F3 0F 7F 16        movdqu      xmmword ptr [rsi],xmm2
  00000000000013CC: 66 41 0F EF E4     pxor        xmm4,xmm12
  00000000000013D1: F3 0F 7F 5E 10     movdqu      xmmword ptr [rsi+10h],xmm3
  00000000000013D6: 66 41 0F EF ED     pxor        xmm5,xmm13
  00000000000013DB: F3 0F 7F 66 20     movdqu      xmmword ptr [rsi+20h],xmm4
  00000000000013E0: 66 41 0F EF F2     pxor        xmm6,xmm10
  00000000000013E5: F3 0F 7F 6E 30     movdqu      xmmword ptr [rsi+30h],xmm5
  00000000000013EA: F3 0F 7F 76 40     movdqu      xmmword ptr [rsi+40h],xmm6
  00000000000013EF: 48 83 FA 06        cmp         rdx,6
  00000000000013F3: 0F 82 09 01 00 00  jb          L$ctr32_done
  00000000000013F9: 44 0F 10 5F 50     movups      xmm11,xmmword ptr [rdi+50h]
  00000000000013FE: 41 0F 57 FB        xorps       xmm7,xmm11
  0000000000001402: 0F 11 7E 50        movups      xmmword ptr [rsi+50h],xmm7
  0000000000001406: 0F 84 F6 00 00 00  je          L$ctr32_done
  000000000000140C: 44 0F 10 67 60     movups      xmm12,xmmword ptr [rdi+60h]
  0000000000001411: 45 0F 57 C4        xorps       xmm8,xmm12
  0000000000001415: 44 0F 11 46 60     movups      xmmword ptr [rsi+60h],xmm8
  000000000000141A: E9 E3 00 00 00     jmp         L$ctr32_done
  000000000000141F: 90                 nop
L$ctr32_loop4:
  0000000000001420: 66 0F 38 DC D1     aesenc      xmm2,xmm1
  0000000000001425: 48 8D 49 10        lea         rcx,[rcx+10h]
  0000000000001429: FF C8              dec         eax
  000000000000142B: 66 0F 38 DC D9     aesenc      xmm3,xmm1
  0000000000001430: 66 0F 38 DC E1     aesenc      xmm4,xmm1
  0000000000001435: 66 0F 38 DC E9     aesenc      xmm5,xmm1
  000000000000143A: 0F 10 09           movups      xmm1,xmmword ptr [rcx]
  000000000000143D: 0F 85 DD FF FF FF  jne         L$ctr32_loop4
  0000000000001443: 66 0F 38 DD D1     aesenclast  xmm2,xmm1
  0000000000001448: 66 0F 38 DD D9     aesenclast  xmm3,xmm1
  000000000000144D: 44 0F 10 17        movups      xmm10,xmmword ptr [rdi]
  0000000000001451: 44 0F 10 5F 10     movups      xmm11,xmmword ptr [rdi+10h]
  0000000000001456: 66 0F 38 DD E1     aesenclast  xmm4,xmm1
  000000000000145B: 66 0F 38 DD E9     aesenclast  xmm5,xmm1
  0000000000001460: 44 0F 10 67 20     movups      xmm12,xmmword ptr [rdi+20h]
  0000000000001465: 44 0F 10 6F 30     movups      xmm13,xmmword ptr [rdi+30h]
  000000000000146A: 41 0F 57 D2        xorps       xmm2,xmm10
  000000000000146E: 0F 11 16           movups      xmmword ptr [rsi],xmm2
  0000000000001471: 41 0F 57 DB        xorps       xmm3,xmm11
  0000000000001475: 0F 11 5E 10        movups      xmmword ptr [rsi+10h],xmm3
  0000000000001479: 66 41 0F EF E4     pxor        xmm4,xmm12
  000000000000147E: F3 0F 7F 66 20     movdqu      xmmword ptr [rsi+20h],xmm4
  0000000000001483: 66 41 0F EF ED     pxor        xmm5,xmm13
  0000000000001488: F3 0F 7F 6E 30     movdqu      xmmword ptr [rsi+30h],xmm5
  000000000000148D: E9 70 00 00 00     jmp         L$ctr32_done
  0000000000001492: 90                 nop
  0000000000001493: 90                 nop
  0000000000001494: 90                 nop
  0000000000001495: 90                 nop
  0000000000001496: 90                 nop
  0000000000001497: 90                 nop
  0000000000001498: 90                 nop
  0000000000001499: 90                 nop
  000000000000149A: 90                 nop
  000000000000149B: 90                 nop
  000000000000149C: 90                 nop
  000000000000149D: 90                 nop
  000000000000149E: 90                 nop
  000000000000149F: 90                 nop
L$ctr32_loop3:
  00000000000014A0: 66 0F 38 DC D1     aesenc      xmm2,xmm1
  00000000000014A5: 48 8D 49 10        lea         rcx,[rcx+10h]
  00000000000014A9: FF C8              dec         eax
  00000000000014AB: 66 0F 38 DC D9     aesenc      xmm3,xmm1
  00000000000014B0: 66 0F 38 DC E1     aesenc      xmm4,xmm1
  00000000000014B5: 0F 10 09           movups      xmm1,xmmword ptr [rcx]
  00000000000014B8: 0F 85 E2 FF FF FF  jne         L$ctr32_loop3
  00000000000014BE: 66 0F 38 DD D1     aesenclast  xmm2,xmm1
  00000000000014C3: 66 0F 38 DD D9     aesenclast  xmm3,xmm1
  00000000000014C8: 66 0F 38 DD E1     aesenclast  xmm4,xmm1
  00000000000014CD: 44 0F 10 17        movups      xmm10,xmmword ptr [rdi]
  00000000000014D1: 41 0F 57 D2        xorps       xmm2,xmm10
  00000000000014D5: 0F 11 16           movups      xmmword ptr [rsi],xmm2
  00000000000014D8: 48 83 FA 02        cmp         rdx,2
  00000000000014DC: 0F 82 20 00 00 00  jb          L$ctr32_done
  00000000000014E2: 44 0F 10 5F 10     movups      xmm11,xmmword ptr [rdi+10h]
  00000000000014E7: 41 0F 57 DB        xorps       xmm3,xmm11
  00000000000014EB: 0F 11 5E 10        movups      xmmword ptr [rsi+10h],xmm3
  00000000000014EF: 0F 84 0D 00 00 00  je          L$ctr32_done
  00000000000014F5: 44 0F 10 67 20     movups      xmm12,xmmword ptr [rdi+20h]
  00000000000014FA: 41 0F 57 E4        xorps       xmm4,xmm12
  00000000000014FE: 0F 11 66 20        movups      xmmword ptr [rsi+20h],xmm4
L$ctr32_done:
  0000000000001502: 0F 57 C0           xorps       xmm0,xmm0
  0000000000001505: 31 ED              xor         ebp,ebp
  0000000000001507: 66 0F EF C9        pxor        xmm1,xmm1
  000000000000150B: 66 0F EF D2        pxor        xmm2,xmm2
  000000000000150F: 66 0F EF DB        pxor        xmm3,xmm3
  0000000000001513: 66 0F EF E4        pxor        xmm4,xmm4
  0000000000001517: 66 0F EF ED        pxor        xmm5,xmm5
  000000000000151B: 41 0F 28 B3 58 FF  movaps      xmm6,xmmword ptr [r11-0A8h]
                    FF FF
  0000000000001523: 41 0F 29 83 58 FF  movaps      xmmword ptr [r11-0A8h],xmm0
                    FF FF
  000000000000152B: 41 0F 28 BB 68 FF  movaps      xmm7,xmmword ptr [r11-98h]
                    FF FF
  0000000000001533: 41 0F 29 83 68 FF  movaps      xmmword ptr [r11-98h],xmm0
                    FF FF
  000000000000153B: 45 0F 28 83 78 FF  movaps      xmm8,xmmword ptr [r11-88h]
                    FF FF
  0000000000001543: 41 0F 29 83 78 FF  movaps      xmmword ptr [r11-88h],xmm0
                    FF FF
  000000000000154B: 45 0F 28 4B 88     movaps      xmm9,xmmword ptr [r11-78h]
  0000000000001550: 41 0F 29 43 88     movaps      xmmword ptr [r11-78h],xmm0
  0000000000001555: 45 0F 28 53 98     movaps      xmm10,xmmword ptr [r11-68h]
  000000000000155A: 41 0F 29 43 98     movaps      xmmword ptr [r11-68h],xmm0
  000000000000155F: 45 0F 28 5B A8     movaps      xmm11,xmmword ptr [r11-58h]
  0000000000001564: 41 0F 29 43 A8     movaps      xmmword ptr [r11-58h],xmm0
  0000000000001569: 45 0F 28 63 B8     movaps      xmm12,xmmword ptr [r11-48h]
  000000000000156E: 41 0F 29 43 B8     movaps      xmmword ptr [r11-48h],xmm0
  0000000000001573: 45 0F 28 6B C8     movaps      xmm13,xmmword ptr [r11-38h]
  0000000000001578: 41 0F 29 43 C8     movaps      xmmword ptr [r11-38h],xmm0
  000000000000157D: 45 0F 28 73 D8     movaps      xmm14,xmmword ptr [r11-28h]
  0000000000001582: 41 0F 29 43 D8     movaps      xmmword ptr [r11-28h],xmm0
  0000000000001587: 45 0F 28 7B E8     movaps      xmm15,xmmword ptr [r11-18h]
  000000000000158C: 41 0F 29 43 E8     movaps      xmmword ptr [r11-18h],xmm0
  0000000000001591: 0F 29 04 24        movaps      xmmword ptr [rsp],xmm0
  0000000000001595: 0F 29 44 24 10     movaps      xmmword ptr [rsp+10h],xmm0
  000000000000159A: 0F 29 44 24 20     movaps      xmmword ptr [rsp+20h],xmm0
  000000000000159F: 0F 29 44 24 30     movaps      xmmword ptr [rsp+30h],xmm0
  00000000000015A4: 0F 29 44 24 40     movaps      xmmword ptr [rsp+40h],xmm0
  00000000000015A9: 0F 29 44 24 50     movaps      xmmword ptr [rsp+50h],xmm0
  00000000000015AE: 0F 29 44 24 60     movaps      xmmword ptr [rsp+60h],xmm0
  00000000000015B3: 0F 29 44 24 70     movaps      xmmword ptr [rsp+70h],xmm0
  00000000000015B8: 49 8B 6B F8        mov         rbp,qword ptr [r11-8]
  00000000000015BC: 49 8D 23           lea         rsp,[r11]
L$ctr32_epilogue:
  00000000000015BF: 48 8B 7C 24 08     mov         rdi,qword ptr [rsp+8]
  00000000000015C4: 48 8B 74 24 10     mov         rsi,qword ptr [rsp+10h]
  00000000000015C9: F3 C3              rep ret
L$SEH_end_aes_hw_ctr32_encrypt_blocks:
  00000000000015CB: 90                 nop
  00000000000015CC: 90                 nop
  00000000000015CD: 90                 nop
  00000000000015CE: 90                 nop
  00000000000015CF: 90                 nop
aws_lc_0_21_0_aes_hw_xts_encrypt:
  00000000000015D0: 48 89 7C 24 08     mov         qword ptr [rsp+8],rdi
  00000000000015D5: 48 89 74 24 10     mov         qword ptr [rsp+10h],rsi
  00000000000015DA: 48 89 E0           mov         rax,rsp
L$SEH_begin_aes_hw_xts_encrypt:
  00000000000015DD: 48 89 CF           mov         rdi,rcx
  00000000000015E0: 48 89 D6           mov         rsi,rdx
  00000000000015E3: 4C 89 C2           mov         rdx,r8
  00000000000015E6: 4C 89 C9           mov         rcx,r9
  00000000000015E9: 4C 8B 44 24 28     mov         r8,qword ptr [rsp+28h]
  00000000000015EE: 4C 8B 4C 24 30     mov         r9,qword ptr [rsp+30h]
  00000000000015F3: 4C 8D 1C 24        lea         r11,[rsp]
  00000000000015F7: 55                 push        rbp
  00000000000015F8: 48 81 EC 10 01 00  sub         rsp,110h
                    00
  00000000000015FF: 48 83 E4 F0        and         rsp,0FFFFFFFFFFFFFFF0h
  0000000000001603: 41 0F 29 B3 58 FF  movaps      xmmword ptr [r11-0A8h],xmm6
                    FF FF
  000000000000160B: 41 0F 29 BB 68 FF  movaps      xmmword ptr [r11-98h],xmm7
                    FF FF
  0000000000001613: 45 0F 29 83 78 FF  movaps      xmmword ptr [r11-88h],xmm8
                    FF FF
  000000000000161B: 45 0F 29 4B 88     movaps      xmmword ptr [r11-78h],xmm9
  0000000000001620: 45 0F 29 53 98     movaps      xmmword ptr [r11-68h],xmm10
  0000000000001625: 45 0F 29 5B A8     movaps      xmmword ptr [r11-58h],xmm11
  000000000000162A: 45 0F 29 63 B8     movaps      xmmword ptr [r11-48h],xmm12
  000000000000162F: 45 0F 29 6B C8     movaps      xmmword ptr [r11-38h],xmm13
  0000000000001634: 45 0F 29 73 D8     movaps      xmmword ptr [r11-28h],xmm14
  0000000000001639: 45 0F 29 7B E8     movaps      xmmword ptr [r11-18h],xmm15
L$xts_enc_body:
  000000000000163E: 41 0F 10 11        movups      xmm2,xmmword ptr [r9]
  0000000000001642: 41 8B 80 F0 00 00  mov         eax,dword ptr [r8+0F0h]
                    00
  0000000000001649: 44 8B 91 F0 00 00  mov         r10d,dword ptr [rcx+0F0h]
                    00
  0000000000001650: 41 0F 10 00        movups      xmm0,xmmword ptr [r8]
  0000000000001654: 41 0F 10 48 10     movups      xmm1,xmmword ptr [r8+10h]
  0000000000001659: 4D 8D 40 20        lea         r8,[r8+20h]
  000000000000165D: 0F 57 D0           xorps       xmm2,xmm0
L$oop_enc1_6:
  0000000000001660: 66 0F 38 DC D1     aesenc      xmm2,xmm1
  0000000000001665: FF C8              dec         eax
  0000000000001667: 41 0F 10 08        movups      xmm1,xmmword ptr [r8]
  000000000000166B: 4D 8D 40 10        lea         r8,[r8+10h]
  000000000000166F: 0F 85 EB FF FF FF  jne         L$oop_enc1_6
  0000000000001675: 66 0F 38 DD D1     aesenclast  xmm2,xmm1
  000000000000167A: 0F 10 01           movups      xmm0,xmmword ptr [rcx]
  000000000000167D: 48 89 CD           mov         rbp,rcx
  0000000000001680: 44 89 D0           mov         eax,r10d
  0000000000001683: 41 C1 E2 04        shl         r10d,4
  0000000000001687: 49 89 D1           mov         r9,rdx
  000000000000168A: 48 83 E2 F0        and         rdx,0FFFFFFFFFFFFFFF0h
  000000000000168E: 42 0F 10 4C 11 10  movups      xmm1,xmmword ptr [rcx+r10+10h]
  0000000000001694: 66 44 0F 6F 05 30  movdqa      xmm8,xmmword ptr [.rdata+30h]
                    00 00 00
  000000000000169D: 66 44 0F 6F FA     movdqa      xmm15,xmm2
  00000000000016A2: 66 44 0F 70 CA 5F  pshufd      xmm9,xmm2,5Fh
  00000000000016A8: 66 0F EF C8        pxor        xmm1,xmm0
  00000000000016AC: 66 45 0F 6F F1     movdqa      xmm14,xmm9
  00000000000016B1: 66 45 0F FE C9     paddd       xmm9,xmm9
  00000000000016B6: 66 45 0F 6F D7     movdqa      xmm10,xmm15
  00000000000016BB: 66 41 0F 72 E6 1F  psrad       xmm14,1Fh
  00000000000016C1: 66 45 0F D4 FF     paddq       xmm15,xmm15
  00000000000016C6: 66 45 0F DB F0     pand        xmm14,xmm8
  00000000000016CB: 66 44 0F EF D0     pxor        xmm10,xmm0
  00000000000016D0: 66 45 0F EF FE     pxor        xmm15,xmm14
  00000000000016D5: 66 45 0F 6F F1     movdqa      xmm14,xmm9
  00000000000016DA: 66 45 0F FE C9     paddd       xmm9,xmm9
  00000000000016DF: 66 45 0F 6F DF     movdqa      xmm11,xmm15
  00000000000016E4: 66 41 0F 72 E6 1F  psrad       xmm14,1Fh
  00000000000016EA: 66 45 0F D4 FF     paddq       xmm15,xmm15
  00000000000016EF: 66 45 0F DB F0     pand        xmm14,xmm8
  00000000000016F4: 66 44 0F EF D8     pxor        xmm11,xmm0
  00000000000016F9: 66 45 0F EF FE     pxor        xmm15,xmm14
  00000000000016FE: 66 45 0F 6F F1     movdqa      xmm14,xmm9
  0000000000001703: 66 45 0F FE C9     paddd       xmm9,xmm9
  0000000000001708: 66 45 0F 6F E7     movdqa      xmm12,xmm15
  000000000000170D: 66 41 0F 72 E6 1F  psrad       xmm14,1Fh
  0000000000001713: 66 45 0F D4 FF     paddq       xmm15,xmm15
  0000000000001718: 66 45 0F DB F0     pand        xmm14,xmm8
  000000000000171D: 66 44 0F EF E0     pxor        xmm12,xmm0
  0000000000001722: 66 45 0F EF FE     pxor        xmm15,xmm14
  0000000000001727: 66 45 0F 6F F1     movdqa      xmm14,xmm9
  000000000000172C: 66 45 0F FE C9     paddd       xmm9,xmm9
  0000000000001731: 66 45 0F 6F EF     movdqa      xmm13,xmm15
  0000000000001736: 66 41 0F 72 E6 1F  psrad       xmm14,1Fh
  000000000000173C: 66 45 0F D4 FF     paddq       xmm15,xmm15
  0000000000001741: 66 45 0F DB F0     pand        xmm14,xmm8
  0000000000001746: 66 44 0F EF E8     pxor        xmm13,xmm0
  000000000000174B: 66 45 0F EF FE     pxor        xmm15,xmm14
  0000000000001750: 66 45 0F 6F F7     movdqa      xmm14,xmm15
  0000000000001755: 66 41 0F 72 E1 1F  psrad       xmm9,1Fh
  000000000000175B: 66 45 0F D4 FF     paddq       xmm15,xmm15
  0000000000001760: 66 45 0F DB C8     pand        xmm9,xmm8
  0000000000001765: 66 44 0F EF F0     pxor        xmm14,xmm0
  000000000000176A: 66 45 0F EF F9     pxor        xmm15,xmm9
  000000000000176F: 0F 29 4C 24 60     movaps      xmmword ptr [rsp+60h],xmm1
  0000000000001774: 48 83 EA 60        sub         rdx,60h
  0000000000001778: 0F 82 66 03 00 00  jb          L$xts_enc_short
  000000000000177E: B8 70 00 00 00     mov         eax,70h
  0000000000001783: 4A 8D 4C 15 20     lea         rcx,[rbp+r10+20h]
  0000000000001788: 4C 29 D0           sub         rax,r10
  000000000000178B: 0F 10 4D 10        movups      xmm1,xmmword ptr [rbp+10h]
  000000000000178F: 49 89 C2           mov         r10,rax
  0000000000001792: 4C 8D 05 30 00 00  lea         r8,[.rdata+30h]
                    00
  0000000000001799: E9 02 00 00 00     jmp         L$xts_enc_grandloop
  000000000000179E: 90                 nop
  000000000000179F: 90                 nop
L$xts_enc_grandloop:
  00000000000017A0: F3 0F 6F 17        movdqu      xmm2,xmmword ptr [rdi]
  00000000000017A4: 66 44 0F 6F C0     movdqa      xmm8,xmm0
  00000000000017A9: F3 0F 6F 5F 10     movdqu      xmm3,xmmword ptr [rdi+10h]
  00000000000017AE: 66 41 0F EF D2     pxor        xmm2,xmm10
  00000000000017B3: F3 0F 6F 67 20     movdqu      xmm4,xmmword ptr [rdi+20h]
  00000000000017B8: 66 41 0F EF DB     pxor        xmm3,xmm11
  00000000000017BD: 66 0F 38 DC D1     aesenc      xmm2,xmm1
  00000000000017C2: F3 0F 6F 6F 30     movdqu      xmm5,xmmword ptr [rdi+30h]
  00000000000017C7: 66 41 0F EF E4     pxor        xmm4,xmm12
  00000000000017CC: 66 0F 38 DC D9     aesenc      xmm3,xmm1
  00000000000017D1: F3 0F 6F 77 40     movdqu      xmm6,xmmword ptr [rdi+40h]
  00000000000017D6: 66 41 0F EF ED     pxor        xmm5,xmm13
  00000000000017DB: 66 0F 38 DC E1     aesenc      xmm4,xmm1
  00000000000017E0: F3 0F 6F 7F 50     movdqu      xmm7,xmmword ptr [rdi+50h]
  00000000000017E5: 66 45 0F EF C7     pxor        xmm8,xmm15
  00000000000017EA: 66 44 0F 6F 4C 24  movdqa      xmm9,xmmword ptr [rsp+60h]
                    60
  00000000000017F1: 66 41 0F EF F6     pxor        xmm6,xmm14
  00000000000017F6: 66 0F 38 DC E9     aesenc      xmm5,xmm1
  00000000000017FB: 0F 10 45 20        movups      xmm0,xmmword ptr [rbp+20h]
  00000000000017FF: 48 8D 7F 60        lea         rdi,[rdi+60h]
  0000000000001803: 66 41 0F EF F8     pxor        xmm7,xmm8
  0000000000001808: 66 45 0F EF D1     pxor        xmm10,xmm9
  000000000000180D: 66 0F 38 DC F1     aesenc      xmm6,xmm1
  0000000000001812: 66 45 0F EF D9     pxor        xmm11,xmm9
  0000000000001817: 66 44 0F 7F 14 24  movdqa      xmmword ptr [rsp],xmm10
  000000000000181D: 66 0F 38 DC F9     aesenc      xmm7,xmm1
  0000000000001822: 0F 10 4D 30        movups      xmm1,xmmword ptr [rbp+30h]
  0000000000001826: 66 45 0F EF E1     pxor        xmm12,xmm9
  000000000000182B: 66 0F 38 DC D0     aesenc      xmm2,xmm0
  0000000000001830: 66 45 0F EF E9     pxor        xmm13,xmm9
  0000000000001835: 66 44 0F 7F 5C 24  movdqa      xmmword ptr [rsp+10h],xmm11
                    10
  000000000000183C: 66 0F 38 DC D8     aesenc      xmm3,xmm0
  0000000000001841: 66 45 0F EF F1     pxor        xmm14,xmm9
  0000000000001846: 66 44 0F 7F 64 24  movdqa      xmmword ptr [rsp+20h],xmm12
                    20
  000000000000184D: 66 0F 38 DC E0     aesenc      xmm4,xmm0
  0000000000001852: 66 0F 38 DC E8     aesenc      xmm5,xmm0
  0000000000001857: 66 45 0F EF C1     pxor        xmm8,xmm9
  000000000000185C: 66 44 0F 7F 74 24  movdqa      xmmword ptr [rsp+40h],xmm14
                    40
  0000000000001863: 66 0F 38 DC F0     aesenc      xmm6,xmm0
  0000000000001868: 66 0F 38 DC F8     aesenc      xmm7,xmm0
  000000000000186D: 0F 10 45 40        movups      xmm0,xmmword ptr [rbp+40h]
  0000000000001871: 66 44 0F 7F 44 24  movdqa      xmmword ptr [rsp+50h],xmm8
                    50
  0000000000001878: 66 45 0F 70 CF 5F  pshufd      xmm9,xmm15,5Fh
  000000000000187E: E9 1D 00 00 00     jmp         L$xts_enc_loop6
  0000000000001883: 90                 nop
  0000000000001884: 90                 nop
  0000000000001885: 90                 nop
  0000000000001886: 90                 nop
  0000000000001887: 90                 nop
  0000000000001888: 90                 nop
  0000000000001889: 90                 nop
  000000000000188A: 90                 nop
  000000000000188B: 90                 nop
  000000000000188C: 90                 nop
  000000000000188D: 90                 nop
  000000000000188E: 90                 nop
  000000000000188F: 90                 nop
  0000000000001890: 90                 nop
  0000000000001891: 90                 nop
  0000000000001892: 90                 nop
  0000000000001893: 90                 nop
  0000000000001894: 90                 nop
  0000000000001895: 90                 nop
  0000000000001896: 90                 nop
  0000000000001897: 90                 nop
  0000000000001898: 90                 nop
  0000000000001899: 90                 nop
  000000000000189A: 90                 nop
  000000000000189B: 90                 nop
  000000000000189C: 90                 nop
  000000000000189D: 90                 nop
  000000000000189E: 90                 nop
  000000000000189F: 90                 nop
L$xts_enc_loop6:
  00000000000018A0: 66 0F 38 DC D1     aesenc      xmm2,xmm1
  00000000000018A5: 66 0F 38 DC D9     aesenc      xmm3,xmm1
  00000000000018AA: 66 0F 38 DC E1     aesenc      xmm4,xmm1
  00000000000018AF: 66 0F 38 DC E9     aesenc      xmm5,xmm1
  00000000000018B4: 66 0F 38 DC F1     aesenc      xmm6,xmm1
  00000000000018B9: 66 0F 38 DC F9     aesenc      xmm7,xmm1
  00000000000018BE: 0F 10 4C 01 C0     movups      xmm1,xmmword ptr [rcx+rax-40h]
  00000000000018C3: 48 83 C0 20        add         rax,20h
  00000000000018C7: 66 0F 38 DC D0     aesenc      xmm2,xmm0
  00000000000018CC: 66 0F 38 DC D8     aesenc      xmm3,xmm0
  00000000000018D1: 66 0F 38 DC E0     aesenc      xmm4,xmm0
  00000000000018D6: 66 0F 38 DC E8     aesenc      xmm5,xmm0
  00000000000018DB: 66 0F 38 DC F0     aesenc      xmm6,xmm0
  00000000000018E0: 66 0F 38 DC F8     aesenc      xmm7,xmm0
  00000000000018E5: 0F 10 44 01 B0     movups      xmm0,xmmword ptr [rcx+rax-50h]
  00000000000018EA: 0F 85 B0 FF FF FF  jne         L$xts_enc_loop6
  00000000000018F0: 66 45 0F 6F 00     movdqa      xmm8,xmmword ptr [r8]
  00000000000018F5: 66 45 0F 6F F1     movdqa      xmm14,xmm9
  00000000000018FA: 66 45 0F FE C9     paddd       xmm9,xmm9
  00000000000018FF: 66 0F 38 DC D1     aesenc      xmm2,xmm1
  0000000000001904: 66 45 0F D4 FF     paddq       xmm15,xmm15
  0000000000001909: 66 41 0F 72 E6 1F  psrad       xmm14,1Fh
  000000000000190F: 66 0F 38 DC D9     aesenc      xmm3,xmm1
  0000000000001914: 66 45 0F DB F0     pand        xmm14,xmm8
  0000000000001919: 44 0F 10 55 00     movups      xmm10,xmmword ptr [rbp]
  000000000000191E: 66 0F 38 DC E1     aesenc      xmm4,xmm1
  0000000000001923: 66 0F 38 DC E9     aesenc      xmm5,xmm1
  0000000000001928: 66 0F 38 DC F1     aesenc      xmm6,xmm1
  000000000000192D: 66 45 0F EF FE     pxor        xmm15,xmm14
  0000000000001932: 45 0F 28 DA        movaps      xmm11,xmm10
  0000000000001936: 66 0F 38 DC F9     aesenc      xmm7,xmm1
  000000000000193B: 0F 10 49 C0        movups      xmm1,xmmword ptr [rcx-40h]
  000000000000193F: 66 45 0F 6F F1     movdqa      xmm14,xmm9
  0000000000001944: 66 0F 38 DC D0     aesenc      xmm2,xmm0
  0000000000001949: 66 45 0F FE C9     paddd       xmm9,xmm9
  000000000000194E: 66 45 0F EF D7     pxor        xmm10,xmm15
  0000000000001953: 66 0F 38 DC D8     aesenc      xmm3,xmm0
  0000000000001958: 66 41 0F 72 E6 1F  psrad       xmm14,1Fh
  000000000000195E: 66 45 0F D4 FF     paddq       xmm15,xmm15
  0000000000001963: 66 0F 38 DC E0     aesenc      xmm4,xmm0
  0000000000001968: 66 0F 38 DC E8     aesenc      xmm5,xmm0
  000000000000196D: 66 45 0F DB F0     pand        xmm14,xmm8
  0000000000001972: 45 0F 28 E3        movaps      xmm12,xmm11
  0000000000001976: 66 0F 38 DC F0     aesenc      xmm6,xmm0
  000000000000197B: 66 45 0F EF FE     pxor        xmm15,xmm14
  0000000000001980: 66 45 0F 6F F1     movdqa      xmm14,xmm9
  0000000000001985: 66 0F 38 DC F8     aesenc      xmm7,xmm0
  000000000000198A: 0F 10 41 D0        movups      xmm0,xmmword ptr [rcx-30h]
  000000000000198E: 66 45 0F FE C9     paddd       xmm9,xmm9
  0000000000001993: 66 0F 38 DC D1     aesenc      xmm2,xmm1
  0000000000001998: 66 45 0F EF DF     pxor        xmm11,xmm15
  000000000000199D: 66 41 0F 72 E6 1F  psrad       xmm14,1Fh
  00000000000019A3: 66 0F 38 DC D9     aesenc      xmm3,xmm1
  00000000000019A8: 66 45 0F D4 FF     paddq       xmm15,xmm15
  00000000000019AD: 66 45 0F DB F0     pand        xmm14,xmm8
  00000000000019B2: 66 0F 38 DC E1     aesenc      xmm4,xmm1
  00000000000019B7: 66 0F 38 DC E9     aesenc      xmm5,xmm1
  00000000000019BC: 66 44 0F 7F 6C 24  movdqa      xmmword ptr [rsp+30h],xmm13
                    30
  00000000000019C3: 66 45 0F EF FE     pxor        xmm15,xmm14
  00000000000019C8: 66 0F 38 DC F1     aesenc      xmm6,xmm1
  00000000000019CD: 45 0F 28 EC        movaps      xmm13,xmm12
  00000000000019D1: 66 45 0F 6F F1     movdqa      xmm14,xmm9
  00000000000019D6: 66 0F 38 DC F9     aesenc      xmm7,xmm1
  00000000000019DB: 0F 10 49 E0        movups      xmm1,xmmword ptr [rcx-20h]
  00000000000019DF: 66 45 0F FE C9     paddd       xmm9,xmm9
  00000000000019E4: 66 0F 38 DC D0     aesenc      xmm2,xmm0
  00000000000019E9: 66 45 0F EF E7     pxor        xmm12,xmm15
  00000000000019EE: 66 41 0F 72 E6 1F  psrad       xmm14,1Fh
  00000000000019F4: 66 0F 38 DC D8     aesenc      xmm3,xmm0
  00000000000019F9: 66 45 0F D4 FF     paddq       xmm15,xmm15
  00000000000019FE: 66 45 0F DB F0     pand        xmm14,xmm8
  0000000000001A03: 66 0F 38 DC E0     aesenc      xmm4,xmm0
  0000000000001A08: 66 0F 38 DC E8     aesenc      xmm5,xmm0
  0000000000001A0D: 66 0F 38 DC F0     aesenc      xmm6,xmm0
  0000000000001A12: 66 45 0F EF FE     pxor        xmm15,xmm14
  0000000000001A17: 45 0F 28 F5        movaps      xmm14,xmm13
  0000000000001A1B: 66 0F 38 DC F8     aesenc      xmm7,xmm0
  0000000000001A20: 66 41 0F 6F C1     movdqa      xmm0,xmm9
  0000000000001A25: 66 45 0F FE C9     paddd       xmm9,xmm9
  0000000000001A2A: 66 0F 38 DC D1     aesenc      xmm2,xmm1
  0000000000001A2F: 66 45 0F EF EF     pxor        xmm13,xmm15
  0000000000001A34: 66 0F 72 E0 1F     psrad       xmm0,1Fh
  0000000000001A39: 66 0F 38 DC D9     aesenc      xmm3,xmm1
  0000000000001A3E: 66 45 0F D4 FF     paddq       xmm15,xmm15
  0000000000001A43: 66 41 0F DB C0     pand        xmm0,xmm8
  0000000000001A48: 66 0F 38 DC E1     aesenc      xmm4,xmm1
  0000000000001A4D: 66 0F 38 DC E9     aesenc      xmm5,xmm1
  0000000000001A52: 66 44 0F EF F8     pxor        xmm15,xmm0
  0000000000001A57: 0F 10 45 00        movups      xmm0,xmmword ptr [rbp]
  0000000000001A5B: 66 0F 38 DC F1     aesenc      xmm6,xmm1
  0000000000001A60: 66 0F 38 DC F9     aesenc      xmm7,xmm1
  0000000000001A65: 0F 10 4D 10        movups      xmm1,xmmword ptr [rbp+10h]
  0000000000001A69: 66 45 0F EF F7     pxor        xmm14,xmm15
  0000000000001A6E: 66 0F 38 DD 54 24  aesenclast  xmm2,xmmword ptr [rsp]
                    00
  0000000000001A75: 66 41 0F 72 E1 1F  psrad       xmm9,1Fh
  0000000000001A7B: 66 45 0F D4 FF     paddq       xmm15,xmm15
  0000000000001A80: 66 0F 38 DD 5C 24  aesenclast  xmm3,xmmword ptr [rsp+10h]
                    10
  0000000000001A87: 66 0F 38 DD 64 24  aesenclast  xmm4,xmmword ptr [rsp+20h]
                    20
  0000000000001A8E: 66 45 0F DB C8     pand        xmm9,xmm8
  0000000000001A93: 4C 89 D0           mov         rax,r10
  0000000000001A96: 66 0F 38 DD 6C 24  aesenclast  xmm5,xmmword ptr [rsp+30h]
                    30
  0000000000001A9D: 66 0F 38 DD 74 24  aesenclast  xmm6,xmmword ptr [rsp+40h]
                    40
  0000000000001AA4: 66 0F 38 DD 7C 24  aesenclast  xmm7,xmmword ptr [rsp+50h]
                    50
  0000000000001AAB: 66 45 0F EF F9     pxor        xmm15,xmm9
  0000000000001AB0: 48 8D 76 60        lea         rsi,[rsi+60h]
  0000000000001AB4: 0F 11 56 A0        movups      xmmword ptr [rsi-60h],xmm2
  0000000000001AB8: 0F 11 5E B0        movups      xmmword ptr [rsi-50h],xmm3
  0000000000001ABC: 0F 11 66 C0        movups      xmmword ptr [rsi-40h],xmm4
  0000000000001AC0: 0F 11 6E D0        movups      xmmword ptr [rsi-30h],xmm5
  0000000000001AC4: 0F 11 76 E0        movups      xmmword ptr [rsi-20h],xmm6
  0000000000001AC8: 0F 11 7E F0        movups      xmmword ptr [rsi-10h],xmm7
  0000000000001ACC: 48 83 EA 60        sub         rdx,60h
  0000000000001AD0: 0F 83 CA FC FF FF  jae         L$xts_enc_grandloop
  0000000000001AD6: B8 70 00 00 00     mov         eax,70h
  0000000000001ADB: 44 29 D0           sub         eax,r10d
  0000000000001ADE: 48 89 E9           mov         rcx,rbp
  0000000000001AE1: C1 E8 04           shr         eax,4
L$xts_enc_short:
  0000000000001AE4: 41 89 C2           mov         r10d,eax
  0000000000001AE7: 66 44 0F EF D0     pxor        xmm10,xmm0
  0000000000001AEC: 48 83 C2 60        add         rdx,60h
  0000000000001AF0: 0F 84 FA 01 00 00  je          L$xts_enc_done
  0000000000001AF6: 66 44 0F EF D8     pxor        xmm11,xmm0
  0000000000001AFB: 48 83 FA 20        cmp         rdx,20h
  0000000000001AFF: 0F 82 AB 00 00 00  jb          L$xts_enc_one
  0000000000001B05: 66 44 0F EF E0     pxor        xmm12,xmm0
  0000000000001B0A: 0F 84 F0 00 00 00  je          L$xts_enc_two
  0000000000001B10: 66 44 0F EF E8     pxor        xmm13,xmm0
  0000000000001B15: 48 83 FA 40        cmp         rdx,40h
  0000000000001B19: 0F 82 21 01 00 00  jb          L$xts_enc_three
  0000000000001B1F: 66 44 0F EF F0     pxor        xmm14,xmm0
  0000000000001B24: 0F 84 66 01 00 00  je          L$xts_enc_four
  0000000000001B2A: F3 0F 6F 17        movdqu      xmm2,xmmword ptr [rdi]
  0000000000001B2E: F3 0F 6F 5F 10     movdqu      xmm3,xmmword ptr [rdi+10h]
  0000000000001B33: F3 0F 6F 67 20     movdqu      xmm4,xmmword ptr [rdi+20h]
  0000000000001B38: 66 41 0F EF D2     pxor        xmm2,xmm10
  0000000000001B3D: F3 0F 6F 6F 30     movdqu      xmm5,xmmword ptr [rdi+30h]
  0000000000001B42: 66 41 0F EF DB     pxor        xmm3,xmm11
  0000000000001B47: F3 0F 6F 77 40     movdqu      xmm6,xmmword ptr [rdi+40h]
  0000000000001B4C: 48 8D 7F 50        lea         rdi,[rdi+50h]
  0000000000001B50: 66 41 0F EF E4     pxor        xmm4,xmm12
  0000000000001B55: 66 41 0F EF ED     pxor        xmm5,xmm13
  0000000000001B5A: 66 41 0F EF F6     pxor        xmm6,xmm14
  0000000000001B5F: 66 0F EF FF        pxor        xmm7,xmm7
  0000000000001B63: E8 18 E8 FF FF     call        _aesni_encrypt6
  0000000000001B68: 41 0F 57 D2        xorps       xmm2,xmm10
  0000000000001B6C: 66 45 0F 6F D7     movdqa      xmm10,xmm15
  0000000000001B71: 41 0F 57 DB        xorps       xmm3,xmm11
  0000000000001B75: 41 0F 57 E4        xorps       xmm4,xmm12
  0000000000001B79: F3 0F 7F 16        movdqu      xmmword ptr [rsi],xmm2
  0000000000001B7D: 41 0F 57 ED        xorps       xmm5,xmm13
  0000000000001B81: F3 0F 7F 5E 10     movdqu      xmmword ptr [rsi+10h],xmm3
  0000000000001B86: 41 0F 57 F6        xorps       xmm6,xmm14
  0000000000001B8A: F3 0F 7F 66 20     movdqu      xmmword ptr [rsi+20h],xmm4
  0000000000001B8F: F3 0F 7F 6E 30     movdqu      xmmword ptr [rsi+30h],xmm5
  0000000000001B94: F3 0F 7F 76 40     movdqu      xmmword ptr [rsi+40h],xmm6
  0000000000001B99: 48 8D 76 50        lea         rsi,[rsi+50h]
  0000000000001B9D: E9 4E 01 00 00     jmp         L$xts_enc_done
  0000000000001BA2: 90                 nop
  0000000000001BA3: 90                 nop
  0000000000001BA4: 90                 nop
  0000000000001BA5: 90                 nop
  0000000000001BA6: 90                 nop
  0000000000001BA7: 90                 nop
  0000000000001BA8: 90                 nop
  0000000000001BA9: 90                 nop
  0000000000001BAA: 90                 nop
  0000000000001BAB: 90                 nop
  0000000000001BAC: 90                 nop
  0000000000001BAD: 90                 nop
  0000000000001BAE: 90                 nop
  0000000000001BAF: 90                 nop
L$xts_enc_one:
  0000000000001BB0: 0F 10 17           movups      xmm2,xmmword ptr [rdi]
  0000000000001BB3: 48 8D 7F 10        lea         rdi,[rdi+10h]
  0000000000001BB7: 41 0F 57 D2        xorps       xmm2,xmm10
  0000000000001BBB: 0F 10 01           movups      xmm0,xmmword ptr [rcx]
  0000000000001BBE: 0F 10 49 10        movups      xmm1,xmmword ptr [rcx+10h]
  0000000000001BC2: 48 8D 49 20        lea         rcx,[rcx+20h]
  0000000000001BC6: 0F 57 D0           xorps       xmm2,xmm0
L$oop_enc1_7:
  0000000000001BC9: 66 0F 38 DC D1     aesenc      xmm2,xmm1
  0000000000001BCE: FF C8              dec         eax
  0000000000001BD0: 0F 10 09           movups      xmm1,xmmword ptr [rcx]
  0000000000001BD3: 48 8D 49 10        lea         rcx,[rcx+10h]
  0000000000001BD7: 0F 85 EC FF FF FF  jne         L$oop_enc1_7
  0000000000001BDD: 66 0F 38 DD D1     aesenclast  xmm2,xmm1
  0000000000001BE2: 41 0F 57 D2        xorps       xmm2,xmm10
  0000000000001BE6: 66 45 0F 6F D3     movdqa      xmm10,xmm11
  0000000000001BEB: 0F 11 16           movups      xmmword ptr [rsi],xmm2
  0000000000001BEE: 48 8D 76 10        lea         rsi,[rsi+10h]
  0000000000001BF2: E9 F9 00 00 00     jmp         L$xts_enc_done
  0000000000001BF7: 90                 nop
  0000000000001BF8: 90                 nop
  0000000000001BF9: 90                 nop
  0000000000001BFA: 90                 nop
  0000000000001BFB: 90                 nop
  0000000000001BFC: 90                 nop
  0000000000001BFD: 90                 nop
  0000000000001BFE: 90                 nop
  0000000000001BFF: 90                 nop
L$xts_enc_two:
  0000000000001C00: 0F 10 17           movups      xmm2,xmmword ptr [rdi]
  0000000000001C03: 0F 10 5F 10        movups      xmm3,xmmword ptr [rdi+10h]
  0000000000001C07: 48 8D 7F 20        lea         rdi,[rdi+20h]
  0000000000001C0B: 41 0F 57 D2        xorps       xmm2,xmm10
  0000000000001C0F: 41 0F 57 DB        xorps       xmm3,xmm11
  0000000000001C13: E8 88 E4 FF FF     call        _aesni_encrypt2
  0000000000001C18: 41 0F 57 D2        xorps       xmm2,xmm10
  0000000000001C1C: 66 45 0F 6F D4     movdqa      xmm10,xmm12
  0000000000001C21: 41 0F 57 DB        xorps       xmm3,xmm11
  0000000000001C25: 0F 11 16           movups      xmmword ptr [rsi],xmm2
  0000000000001C28: 0F 11 5E 10        movups      xmmword ptr [rsi+10h],xmm3
  0000000000001C2C: 48 8D 76 20        lea         rsi,[rsi+20h]
  0000000000001C30: E9 BB 00 00 00     jmp         L$xts_enc_done
  0000000000001C35: 90                 nop
  0000000000001C36: 90                 nop
  0000000000001C37: 90                 nop
  0000000000001C38: 90                 nop
  0000000000001C39: 90                 nop
  0000000000001C3A: 90                 nop
  0000000000001C3B: 90                 nop
  0000000000001C3C: 90                 nop
  0000000000001C3D: 90                 nop
  0000000000001C3E: 90                 nop
  0000000000001C3F: 90                 nop
L$xts_enc_three:
  0000000000001C40: 0F 10 17           movups      xmm2,xmmword ptr [rdi]
  0000000000001C43: 0F 10 5F 10        movups      xmm3,xmmword ptr [rdi+10h]
  0000000000001C47: 0F 10 67 20        movups      xmm4,xmmword ptr [rdi+20h]
  0000000000001C4B: 48 8D 7F 30        lea         rdi,[rdi+30h]
  0000000000001C4F: 41 0F 57 D2        xorps       xmm2,xmm10
  0000000000001C53: 41 0F 57 DB        xorps       xmm3,xmm11
  0000000000001C57: 41 0F 57 E4        xorps       xmm4,xmm12
  0000000000001C5B: E8 00 E5 FF FF     call        _aesni_encrypt3
  0000000000001C60: 41 0F 57 D2        xorps       xmm2,xmm10
  0000000000001C64: 66 45 0F 6F D5     movdqa      xmm10,xmm13
  0000000000001C69: 41 0F 57 DB        xorps       xmm3,xmm11
  0000000000001C6D: 41 0F 57 E4        xorps       xmm4,xmm12
  0000000000001C71: 0F 11 16           movups      xmmword ptr [rsi],xmm2
  0000000000001C74: 0F 11 5E 10        movups      xmmword ptr [rsi+10h],xmm3
  0000000000001C78: 0F 11 66 20        movups      xmmword ptr [rsi+20h],xmm4
  0000000000001C7C: 48 8D 76 30        lea         rsi,[rsi+30h]
  0000000000001C80: E9 6B 00 00 00     jmp         L$xts_enc_done
  0000000000001C85: 90                 nop
  0000000000001C86: 90                 nop
  0000000000001C87: 90                 nop
  0000000000001C88: 90                 nop
  0000000000001C89: 90                 nop
  0000000000001C8A: 90                 nop
  0000000000001C8B: 90                 nop
  0000000000001C8C: 90                 nop
  0000000000001C8D: 90                 nop
  0000000000001C8E: 90                 nop
  0000000000001C8F: 90                 nop
L$xts_enc_four:
  0000000000001C90: 0F 10 17           movups      xmm2,xmmword ptr [rdi]
  0000000000001C93: 0F 10 5F 10        movups      xmm3,xmmword ptr [rdi+10h]
  0000000000001C97: 0F 10 67 20        movups      xmm4,xmmword ptr [rdi+20h]
  0000000000001C9B: 41 0F 57 D2        xorps       xmm2,xmm10
  0000000000001C9F: 0F 10 6F 30        movups      xmm5,xmmword ptr [rdi+30h]
  0000000000001CA3: 48 8D 7F 40        lea         rdi,[rdi+40h]
  0000000000001CA7: 41 0F 57 DB        xorps       xmm3,xmm11
  0000000000001CAB: 41 0F 57 E4        xorps       xmm4,xmm12
  0000000000001CAF: 41 0F 57 ED        xorps       xmm5,xmm13
  0000000000001CB3: E8 A8 E5 FF FF     call        _aesni_encrypt4
  0000000000001CB8: 66 41 0F EF D2     pxor        xmm2,xmm10
  0000000000001CBD: 66 45 0F 6F D6     movdqa      xmm10,xmm14
  0000000000001CC2: 66 41 0F EF DB     pxor        xmm3,xmm11
  0000000000001CC7: 66 41 0F EF E4     pxor        xmm4,xmm12
  0000000000001CCC: F3 0F 7F 16        movdqu      xmmword ptr [rsi],xmm2
  0000000000001CD0: 66 41 0F EF ED     pxor        xmm5,xmm13
  0000000000001CD5: F3 0F 7F 5E 10     movdqu      xmmword ptr [rsi+10h],xmm3
  0000000000001CDA: F3 0F 7F 66 20     movdqu      xmmword ptr [rsi+20h],xmm4
  0000000000001CDF: F3 0F 7F 6E 30     movdqu      xmmword ptr [rsi+30h],xmm5
  0000000000001CE4: 48 8D 76 40        lea         rsi,[rsi+40h]
  0000000000001CE8: E9 03 00 00 00     jmp         L$xts_enc_done
  0000000000001CED: 90                 nop
  0000000000001CEE: 90                 nop
  0000000000001CEF: 90                 nop
L$xts_enc_done:
  0000000000001CF0: 49 83 E1 0F        and         r9,0Fh
  0000000000001CF4: 0F 84 61 00 00 00  je          L$xts_enc_ret
  0000000000001CFA: 4C 89 CA           mov         rdx,r9
L$xts_enc_steal:
  0000000000001CFD: 0F B6 07           movzx       eax,byte ptr [rdi]
  0000000000001D00: 0F B6 4E F0        movzx       ecx,byte ptr [rsi-10h]
  0000000000001D04: 48 8D 7F 01        lea         rdi,[rdi+1]
  0000000000001D08: 88 46 F0           mov         byte ptr [rsi-10h],al
  0000000000001D0B: 88 0E              mov         byte ptr [rsi],cl
  0000000000001D0D: 48 8D 76 01        lea         rsi,[rsi+1]
  0000000000001D11: 48 83 EA 01        sub         rdx,1
  0000000000001D15: 0F 85 E2 FF FF FF  jne         L$xts_enc_steal
  0000000000001D1B: 4C 29 CE           sub         rsi,r9
  0000000000001D1E: 48 89 E9           mov         rcx,rbp
  0000000000001D21: 44 89 D0           mov         eax,r10d
  0000000000001D24: 0F 10 56 F0        movups      xmm2,xmmword ptr [rsi-10h]
  0000000000001D28: 41 0F 57 D2        xorps       xmm2,xmm10
  0000000000001D2C: 0F 10 01           movups      xmm0,xmmword ptr [rcx]
  0000000000001D2F: 0F 10 49 10        movups      xmm1,xmmword ptr [rcx+10h]
  0000000000001D33: 48 8D 49 20        lea         rcx,[rcx+20h]
  0000000000001D37: 0F 57 D0           xorps       xmm2,xmm0
L$oop_enc1_8:
  0000000000001D3A: 66 0F 38 DC D1     aesenc      xmm2,xmm1
  0000000000001D3F: FF C8              dec         eax
  0000000000001D41: 0F 10 09           movups      xmm1,xmmword ptr [rcx]
  0000000000001D44: 48 8D 49 10        lea         rcx,[rcx+10h]
  0000000000001D48: 0F 85 EC FF FF FF  jne         L$oop_enc1_8
  0000000000001D4E: 66 0F 38 DD D1     aesenclast  xmm2,xmm1
  0000000000001D53: 41 0F 57 D2        xorps       xmm2,xmm10
  0000000000001D57: 0F 11 56 F0        movups      xmmword ptr [rsi-10h],xmm2
L$xts_enc_ret:
  0000000000001D5B: 0F 57 C0           xorps       xmm0,xmm0
  0000000000001D5E: 66 0F EF C9        pxor        xmm1,xmm1
  0000000000001D62: 66 0F EF D2        pxor        xmm2,xmm2
  0000000000001D66: 66 0F EF DB        pxor        xmm3,xmm3
  0000000000001D6A: 66 0F EF E4        pxor        xmm4,xmm4
  0000000000001D6E: 66 0F EF ED        pxor        xmm5,xmm5
  0000000000001D72: 41 0F 28 B3 58 FF  movaps      xmm6,xmmword ptr [r11-0A8h]
                    FF FF
  0000000000001D7A: 41 0F 29 83 58 FF  movaps      xmmword ptr [r11-0A8h],xmm0
                    FF FF
  0000000000001D82: 41 0F 28 BB 68 FF  movaps      xmm7,xmmword ptr [r11-98h]
                    FF FF
  0000000000001D8A: 41 0F 29 83 68 FF  movaps      xmmword ptr [r11-98h],xmm0
                    FF FF
  0000000000001D92: 45 0F 28 83 78 FF  movaps      xmm8,xmmword ptr [r11-88h]
                    FF FF
  0000000000001D9A: 41 0F 29 83 78 FF  movaps      xmmword ptr [r11-88h],xmm0
                    FF FF
  0000000000001DA2: 45 0F 28 4B 88     movaps      xmm9,xmmword ptr [r11-78h]
  0000000000001DA7: 41 0F 29 43 88     movaps      xmmword ptr [r11-78h],xmm0
  0000000000001DAC: 45 0F 28 53 98     movaps      xmm10,xmmword ptr [r11-68h]
  0000000000001DB1: 41 0F 29 43 98     movaps      xmmword ptr [r11-68h],xmm0
  0000000000001DB6: 45 0F 28 5B A8     movaps      xmm11,xmmword ptr [r11-58h]
  0000000000001DBB: 41 0F 29 43 A8     movaps      xmmword ptr [r11-58h],xmm0
  0000000000001DC0: 45 0F 28 63 B8     movaps      xmm12,xmmword ptr [r11-48h]
  0000000000001DC5: 41 0F 29 43 B8     movaps      xmmword ptr [r11-48h],xmm0
  0000000000001DCA: 45 0F 28 6B C8     movaps      xmm13,xmmword ptr [r11-38h]
  0000000000001DCF: 41 0F 29 43 C8     movaps      xmmword ptr [r11-38h],xmm0
  0000000000001DD4: 45 0F 28 73 D8     movaps      xmm14,xmmword ptr [r11-28h]
  0000000000001DD9: 41 0F 29 43 D8     movaps      xmmword ptr [r11-28h],xmm0
  0000000000001DDE: 45 0F 28 7B E8     movaps      xmm15,xmmword ptr [r11-18h]
  0000000000001DE3: 41 0F 29 43 E8     movaps      xmmword ptr [r11-18h],xmm0
  0000000000001DE8: 0F 29 04 24        movaps      xmmword ptr [rsp],xmm0
  0000000000001DEC: 0F 29 44 24 10     movaps      xmmword ptr [rsp+10h],xmm0
  0000000000001DF1: 0F 29 44 24 20     movaps      xmmword ptr [rsp+20h],xmm0
  0000000000001DF6: 0F 29 44 24 30     movaps      xmmword ptr [rsp+30h],xmm0
  0000000000001DFB: 0F 29 44 24 40     movaps      xmmword ptr [rsp+40h],xmm0
  0000000000001E00: 0F 29 44 24 50     movaps      xmmword ptr [rsp+50h],xmm0
  0000000000001E05: 0F 29 44 24 60     movaps      xmmword ptr [rsp+60h],xmm0
  0000000000001E0A: 49 8B 6B F8        mov         rbp,qword ptr [r11-8]
  0000000000001E0E: 49 8D 23           lea         rsp,[r11]
L$xts_enc_epilogue:
  0000000000001E11: 48 8B 7C 24 08     mov         rdi,qword ptr [rsp+8]
  0000000000001E16: 48 8B 74 24 10     mov         rsi,qword ptr [rsp+10h]
  0000000000001E1B: F3 C3              rep ret
L$SEH_end_aes_hw_xts_encrypt:
  0000000000001E1D: 90                 nop
  0000000000001E1E: 90                 nop
  0000000000001E1F: 90                 nop
aws_lc_0_21_0_aes_hw_xts_decrypt:
  0000000000001E20: 48 89 7C 24 08     mov         qword ptr [rsp+8],rdi
  0000000000001E25: 48 89 74 24 10     mov         qword ptr [rsp+10h],rsi
  0000000000001E2A: 48 89 E0           mov         rax,rsp
L$SEH_begin_aes_hw_xts_decrypt:
  0000000000001E2D: 48 89 CF           mov         rdi,rcx
  0000000000001E30: 48 89 D6           mov         rsi,rdx
  0000000000001E33: 4C 89 C2           mov         rdx,r8
  0000000000001E36: 4C 89 C9           mov         rcx,r9
  0000000000001E39: 4C 8B 44 24 28     mov         r8,qword ptr [rsp+28h]
  0000000000001E3E: 4C 8B 4C 24 30     mov         r9,qword ptr [rsp+30h]
  0000000000001E43: 4C 8D 1C 24        lea         r11,[rsp]
  0000000000001E47: 55                 push        rbp
  0000000000001E48: 48 81 EC 10 01 00  sub         rsp,110h
                    00
  0000000000001E4F: 48 83 E4 F0        and         rsp,0FFFFFFFFFFFFFFF0h
  0000000000001E53: 41 0F 29 B3 58 FF  movaps      xmmword ptr [r11-0A8h],xmm6
                    FF FF
  0000000000001E5B: 41 0F 29 BB 68 FF  movaps      xmmword ptr [r11-98h],xmm7
                    FF FF
  0000000000001E63: 45 0F 29 83 78 FF  movaps      xmmword ptr [r11-88h],xmm8
                    FF FF
  0000000000001E6B: 45 0F 29 4B 88     movaps      xmmword ptr [r11-78h],xmm9
  0000000000001E70: 45 0F 29 53 98     movaps      xmmword ptr [r11-68h],xmm10
  0000000000001E75: 45 0F 29 5B A8     movaps      xmmword ptr [r11-58h],xmm11
  0000000000001E7A: 45 0F 29 63 B8     movaps      xmmword ptr [r11-48h],xmm12
  0000000000001E7F: 45 0F 29 6B C8     movaps      xmmword ptr [r11-38h],xmm13
  0000000000001E84: 45 0F 29 73 D8     movaps      xmmword ptr [r11-28h],xmm14
  0000000000001E89: 45 0F 29 7B E8     movaps      xmmword ptr [r11-18h],xmm15
L$xts_dec_body:
  0000000000001E8E: 41 0F 10 11        movups      xmm2,xmmword ptr [r9]
  0000000000001E92: 41 8B 80 F0 00 00  mov         eax,dword ptr [r8+0F0h]
                    00
  0000000000001E99: 44 8B 91 F0 00 00  mov         r10d,dword ptr [rcx+0F0h]
                    00
  0000000000001EA0: 41 0F 10 00        movups      xmm0,xmmword ptr [r8]
  0000000000001EA4: 41 0F 10 48 10     movups      xmm1,xmmword ptr [r8+10h]
  0000000000001EA9: 4D 8D 40 20        lea         r8,[r8+20h]
  0000000000001EAD: 0F 57 D0           xorps       xmm2,xmm0
L$oop_enc1_9:
  0000000000001EB0: 66 0F 38 DC D1     aesenc      xmm2,xmm1
  0000000000001EB5: FF C8              dec         eax
  0000000000001EB7: 41 0F 10 08        movups      xmm1,xmmword ptr [r8]
  0000000000001EBB: 4D 8D 40 10        lea         r8,[r8+10h]
  0000000000001EBF: 0F 85 EB FF FF FF  jne         L$oop_enc1_9
  0000000000001EC5: 66 0F 38 DD D1     aesenclast  xmm2,xmm1
  0000000000001ECA: 31 C0              xor         eax,eax
  0000000000001ECC: 48 F7 C2 0F 00 00  test        rdx,0Fh
                    00
  0000000000001ED3: 0F 95 C0           setne       al
  0000000000001ED6: 48 C1 E0 04        shl         rax,4
  0000000000001EDA: 48 29 C2           sub         rdx,rax
  0000000000001EDD: 0F 10 01           movups      xmm0,xmmword ptr [rcx]
  0000000000001EE0: 48 89 CD           mov         rbp,rcx
  0000000000001EE3: 44 89 D0           mov         eax,r10d
  0000000000001EE6: 41 C1 E2 04        shl         r10d,4
  0000000000001EEA: 49 89 D1           mov         r9,rdx
  0000000000001EED: 48 83 E2 F0        and         rdx,0FFFFFFFFFFFFFFF0h
  0000000000001EF1: 42 0F 10 4C 11 10  movups      xmm1,xmmword ptr [rcx+r10+10h]
  0000000000001EF7: 66 44 0F 6F 05 30  movdqa      xmm8,xmmword ptr [.rdata+30h]
                    00 00 00
  0000000000001F00: 66 44 0F 6F FA     movdqa      xmm15,xmm2
  0000000000001F05: 66 44 0F 70 CA 5F  pshufd      xmm9,xmm2,5Fh
  0000000000001F0B: 66 0F EF C8        pxor        xmm1,xmm0
  0000000000001F0F: 66 45 0F 6F F1     movdqa      xmm14,xmm9
  0000000000001F14: 66 45 0F FE C9     paddd       xmm9,xmm9
  0000000000001F19: 66 45 0F 6F D7     movdqa      xmm10,xmm15
  0000000000001F1E: 66 41 0F 72 E6 1F  psrad       xmm14,1Fh
  0000000000001F24: 66 45 0F D4 FF     paddq       xmm15,xmm15
  0000000000001F29: 66 45 0F DB F0     pand        xmm14,xmm8
  0000000000001F2E: 66 44 0F EF D0     pxor        xmm10,xmm0
  0000000000001F33: 66 45 0F EF FE     pxor        xmm15,xmm14
  0000000000001F38: 66 45 0F 6F F1     movdqa      xmm14,xmm9
  0000000000001F3D: 66 45 0F FE C9     paddd       xmm9,xmm9
  0000000000001F42: 66 45 0F 6F DF     movdqa      xmm11,xmm15
  0000000000001F47: 66 41 0F 72 E6 1F  psrad       xmm14,1Fh
  0000000000001F4D: 66 45 0F D4 FF     paddq       xmm15,xmm15
  0000000000001F52: 66 45 0F DB F0     pand        xmm14,xmm8
  0000000000001F57: 66 44 0F EF D8     pxor        xmm11,xmm0
  0000000000001F5C: 66 45 0F EF FE     pxor        xmm15,xmm14
  0000000000001F61: 66 45 0F 6F F1     movdqa      xmm14,xmm9
  0000000000001F66: 66 45 0F FE C9     paddd       xmm9,xmm9
  0000000000001F6B: 66 45 0F 6F E7     movdqa      xmm12,xmm15
  0000000000001F70: 66 41 0F 72 E6 1F  psrad       xmm14,1Fh
  0000000000001F76: 66 45 0F D4 FF     paddq       xmm15,xmm15
  0000000000001F7B: 66 45 0F DB F0     pand        xmm14,xmm8
  0000000000001F80: 66 44 0F EF E0     pxor        xmm12,xmm0
  0000000000001F85: 66 45 0F EF FE     pxor        xmm15,xmm14
  0000000000001F8A: 66 45 0F 6F F1     movdqa      xmm14,xmm9
  0000000000001F8F: 66 45 0F FE C9     paddd       xmm9,xmm9
  0000000000001F94: 66 45 0F 6F EF     movdqa      xmm13,xmm15
  0000000000001F99: 66 41 0F 72 E6 1F  psrad       xmm14,1Fh
  0000000000001F9F: 66 45 0F D4 FF     paddq       xmm15,xmm15
  0000000000001FA4: 66 45 0F DB F0     pand        xmm14,xmm8
  0000000000001FA9: 66 44 0F EF E8     pxor        xmm13,xmm0
  0000000000001FAE: 66 45 0F EF FE     pxor        xmm15,xmm14
  0000000000001FB3: 66 45 0F 6F F7     movdqa      xmm14,xmm15
  0000000000001FB8: 66 41 0F 72 E1 1F  psrad       xmm9,1Fh
  0000000000001FBE: 66 45 0F D4 FF     paddq       xmm15,xmm15
  0000000000001FC3: 66 45 0F DB C8     pand        xmm9,xmm8
  0000000000001FC8: 66 44 0F EF F0     pxor        xmm14,xmm0
  0000000000001FCD: 66 45 0F EF F9     pxor        xmm15,xmm9
  0000000000001FD2: 0F 29 4C 24 60     movaps      xmmword ptr [rsp+60h],xmm1
  0000000000001FD7: 48 83 EA 60        sub         rdx,60h
  0000000000001FDB: 0F 82 83 03 00 00  jb          L$xts_dec_short
  0000000000001FE1: B8 70 00 00 00     mov         eax,70h
  0000000000001FE6: 4A 8D 4C 15 20     lea         rcx,[rbp+r10+20h]
  0000000000001FEB: 4C 29 D0           sub         rax,r10
  0000000000001FEE: 0F 10 4D 10        movups      xmm1,xmmword ptr [rbp+10h]
  0000000000001FF2: 49 89 C2           mov         r10,rax
  0000000000001FF5: 4C 8D 05 30 00 00  lea         r8,[.rdata+30h]
                    00
  0000000000001FFC: E9 1F 00 00 00     jmp         L$xts_dec_grandloop
  0000000000002001: 90                 nop
  0000000000002002: 90                 nop
  0000000000002003: 90                 nop
  0000000000002004: 90                 nop
  0000000000002005: 90                 nop
  0000000000002006: 90                 nop
  0000000000002007: 90                 nop
  0000000000002008: 90                 nop
  0000000000002009: 90                 nop
  000000000000200A: 90                 nop
  000000000000200B: 90                 nop
  000000000000200C: 90                 nop
  000000000000200D: 90                 nop
  000000000000200E: 90                 nop
  000000000000200F: 90                 nop
  0000000000002010: 90                 nop
  0000000000002011: 90                 nop
  0000000000002012: 90                 nop
  0000000000002013: 90                 nop
  0000000000002014: 90                 nop
  0000000000002015: 90                 nop
  0000000000002016: 90                 nop
  0000000000002017: 90                 nop
  0000000000002018: 90                 nop
  0000000000002019: 90                 nop
  000000000000201A: 90                 nop
  000000000000201B: 90                 nop
  000000000000201C: 90                 nop
  000000000000201D: 90                 nop
  000000000000201E: 90                 nop
  000000000000201F: 90                 nop
L$xts_dec_grandloop:
  0000000000002020: F3 0F 6F 17        movdqu      xmm2,xmmword ptr [rdi]
  0000000000002024: 66 44 0F 6F C0     movdqa      xmm8,xmm0
  0000000000002029: F3 0F 6F 5F 10     movdqu      xmm3,xmmword ptr [rdi+10h]
  000000000000202E: 66 41 0F EF D2     pxor        xmm2,xmm10
  0000000000002033: F3 0F 6F 67 20     movdqu      xmm4,xmmword ptr [rdi+20h]
  0000000000002038: 66 41 0F EF DB     pxor        xmm3,xmm11
  000000000000203D: 66 0F 38 DE D1     aesdec      xmm2,xmm1
  0000000000002042: F3 0F 6F 6F 30     movdqu      xmm5,xmmword ptr [rdi+30h]
  0000000000002047: 66 41 0F EF E4     pxor        xmm4,xmm12
  000000000000204C: 66 0F 38 DE D9     aesdec      xmm3,xmm1
  0000000000002051: F3 0F 6F 77 40     movdqu      xmm6,xmmword ptr [rdi+40h]
  0000000000002056: 66 41 0F EF ED     pxor        xmm5,xmm13
  000000000000205B: 66 0F 38 DE E1     aesdec      xmm4,xmm1
  0000000000002060: F3 0F 6F 7F 50     movdqu      xmm7,xmmword ptr [rdi+50h]
  0000000000002065: 66 45 0F EF C7     pxor        xmm8,xmm15
  000000000000206A: 66 44 0F 6F 4C 24  movdqa      xmm9,xmmword ptr [rsp+60h]
                    60
  0000000000002071: 66 41 0F EF F6     pxor        xmm6,xmm14
  0000000000002076: 66 0F 38 DE E9     aesdec      xmm5,xmm1
  000000000000207B: 0F 10 45 20        movups      xmm0,xmmword ptr [rbp+20h]
  000000000000207F: 48 8D 7F 60        lea         rdi,[rdi+60h]
  0000000000002083: 66 41 0F EF F8     pxor        xmm7,xmm8
  0000000000002088: 66 45 0F EF D1     pxor        xmm10,xmm9
  000000000000208D: 66 0F 38 DE F1     aesdec      xmm6,xmm1
  0000000000002092: 66 45 0F EF D9     pxor        xmm11,xmm9
  0000000000002097: 66 44 0F 7F 14 24  movdqa      xmmword ptr [rsp],xmm10
  000000000000209D: 66 0F 38 DE F9     aesdec      xmm7,xmm1
  00000000000020A2: 0F 10 4D 30        movups      xmm1,xmmword ptr [rbp+30h]
  00000000000020A6: 66 45 0F EF E1     pxor        xmm12,xmm9
  00000000000020AB: 66 0F 38 DE D0     aesdec      xmm2,xmm0
  00000000000020B0: 66 45 0F EF E9     pxor        xmm13,xmm9
  00000000000020B5: 66 44 0F 7F 5C 24  movdqa      xmmword ptr [rsp+10h],xmm11
                    10
  00000000000020BC: 66 0F 38 DE D8     aesdec      xmm3,xmm0
  00000000000020C1: 66 45 0F EF F1     pxor        xmm14,xmm9
  00000000000020C6: 66 44 0F 7F 64 24  movdqa      xmmword ptr [rsp+20h],xmm12
                    20
  00000000000020CD: 66 0F 38 DE E0     aesdec      xmm4,xmm0
  00000000000020D2: 66 0F 38 DE E8     aesdec      xmm5,xmm0
  00000000000020D7: 66 45 0F EF C1     pxor        xmm8,xmm9
  00000000000020DC: 66 44 0F 7F 74 24  movdqa      xmmword ptr [rsp+40h],xmm14
                    40
  00000000000020E3: 66 0F 38 DE F0     aesdec      xmm6,xmm0
  00000000000020E8: 66 0F 38 DE F8     aesdec      xmm7,xmm0
  00000000000020ED: 0F 10 45 40        movups      xmm0,xmmword ptr [rbp+40h]
  00000000000020F1: 66 44 0F 7F 44 24  movdqa      xmmword ptr [rsp+50h],xmm8
                    50
  00000000000020F8: 66 45 0F 70 CF 5F  pshufd      xmm9,xmm15,5Fh
  00000000000020FE: E9 1D 00 00 00     jmp         L$xts_dec_loop6
  0000000000002103: 90                 nop
  0000000000002104: 90                 nop
  0000000000002105: 90                 nop
  0000000000002106: 90                 nop
  0000000000002107: 90                 nop
  0000000000002108: 90                 nop
  0000000000002109: 90                 nop
  000000000000210A: 90                 nop
  000000000000210B: 90                 nop
  000000000000210C: 90                 nop
  000000000000210D: 90                 nop
  000000000000210E: 90                 nop
  000000000000210F: 90                 nop
  0000000000002110: 90                 nop
  0000000000002111: 90                 nop
  0000000000002112: 90                 nop
  0000000000002113: 90                 nop
  0000000000002114: 90                 nop
  0000000000002115: 90                 nop
  0000000000002116: 90                 nop
  0000000000002117: 90                 nop
  0000000000002118: 90                 nop
  0000000000002119: 90                 nop
  000000000000211A: 90                 nop
  000000000000211B: 90                 nop
  000000000000211C: 90                 nop
  000000000000211D: 90                 nop
  000000000000211E: 90                 nop
  000000000000211F: 90                 nop
L$xts_dec_loop6:
  0000000000002120: 66 0F 38 DE D1     aesdec      xmm2,xmm1
  0000000000002125: 66 0F 38 DE D9     aesdec      xmm3,xmm1
  000000000000212A: 66 0F 38 DE E1     aesdec      xmm4,xmm1
  000000000000212F: 66 0F 38 DE E9     aesdec      xmm5,xmm1
  0000000000002134: 66 0F 38 DE F1     aesdec      xmm6,xmm1
  0000000000002139: 66 0F 38 DE F9     aesdec      xmm7,xmm1
  000000000000213E: 0F 10 4C 01 C0     movups      xmm1,xmmword ptr [rcx+rax-40h]
  0000000000002143: 48 83 C0 20        add         rax,20h
  0000000000002147: 66 0F 38 DE D0     aesdec      xmm2,xmm0
  000000000000214C: 66 0F 38 DE D8     aesdec      xmm3,xmm0
  0000000000002151: 66 0F 38 DE E0     aesdec      xmm4,xmm0
  0000000000002156: 66 0F 38 DE E8     aesdec      xmm5,xmm0
  000000000000215B: 66 0F 38 DE F0     aesdec      xmm6,xmm0
  0000000000002160: 66 0F 38 DE F8     aesdec      xmm7,xmm0
  0000000000002165: 0F 10 44 01 B0     movups      xmm0,xmmword ptr [rcx+rax-50h]
  000000000000216A: 0F 85 B0 FF FF FF  jne         L$xts_dec_loop6
  0000000000002170: 66 45 0F 6F 00     movdqa      xmm8,xmmword ptr [r8]
  0000000000002175: 66 45 0F 6F F1     movdqa      xmm14,xmm9
  000000000000217A: 66 45 0F FE C9     paddd       xmm9,xmm9
  000000000000217F: 66 0F 38 DE D1     aesdec      xmm2,xmm1
  0000000000002184: 66 45 0F D4 FF     paddq       xmm15,xmm15
  0000000000002189: 66 41 0F 72 E6 1F  psrad       xmm14,1Fh
  000000000000218F: 66 0F 38 DE D9     aesdec      xmm3,xmm1
  0000000000002194: 66 45 0F DB F0     pand        xmm14,xmm8
  0000000000002199: 44 0F 10 55 00     movups      xmm10,xmmword ptr [rbp]
  000000000000219E: 66 0F 38 DE E1     aesdec      xmm4,xmm1
  00000000000021A3: 66 0F 38 DE E9     aesdec      xmm5,xmm1
  00000000000021A8: 66 0F 38 DE F1     aesdec      xmm6,xmm1
  00000000000021AD: 66 45 0F EF FE     pxor        xmm15,xmm14
  00000000000021B2: 45 0F 28 DA        movaps      xmm11,xmm10
  00000000000021B6: 66 0F 38 DE F9     aesdec      xmm7,xmm1
  00000000000021BB: 0F 10 49 C0        movups      xmm1,xmmword ptr [rcx-40h]
  00000000000021BF: 66 45 0F 6F F1     movdqa      xmm14,xmm9
  00000000000021C4: 66 0F 38 DE D0     aesdec      xmm2,xmm0
  00000000000021C9: 66 45 0F FE C9     paddd       xmm9,xmm9
  00000000000021CE: 66 45 0F EF D7     pxor        xmm10,xmm15
  00000000000021D3: 66 0F 38 DE D8     aesdec      xmm3,xmm0
  00000000000021D8: 66 41 0F 72 E6 1F  psrad       xmm14,1Fh
  00000000000021DE: 66 45 0F D4 FF     paddq       xmm15,xmm15
  00000000000021E3: 66 0F 38 DE E0     aesdec      xmm4,xmm0
  00000000000021E8: 66 0F 38 DE E8     aesdec      xmm5,xmm0
  00000000000021ED: 66 45 0F DB F0     pand        xmm14,xmm8
  00000000000021F2: 45 0F 28 E3        movaps      xmm12,xmm11
  00000000000021F6: 66 0F 38 DE F0     aesdec      xmm6,xmm0
  00000000000021FB: 66 45 0F EF FE     pxor        xmm15,xmm14
  0000000000002200: 66 45 0F 6F F1     movdqa      xmm14,xmm9
  0000000000002205: 66 0F 38 DE F8     aesdec      xmm7,xmm0
  000000000000220A: 0F 10 41 D0        movups      xmm0,xmmword ptr [rcx-30h]
  000000000000220E: 66 45 0F FE C9     paddd       xmm9,xmm9
  0000000000002213: 66 0F 38 DE D1     aesdec      xmm2,xmm1
  0000000000002218: 66 45 0F EF DF     pxor        xmm11,xmm15
  000000000000221D: 66 41 0F 72 E6 1F  psrad       xmm14,1Fh
  0000000000002223: 66 0F 38 DE D9     aesdec      xmm3,xmm1
  0000000000002228: 66 45 0F D4 FF     paddq       xmm15,xmm15
  000000000000222D: 66 45 0F DB F0     pand        xmm14,xmm8
  0000000000002232: 66 0F 38 DE E1     aesdec      xmm4,xmm1
  0000000000002237: 66 0F 38 DE E9     aesdec      xmm5,xmm1
  000000000000223C: 66 44 0F 7F 6C 24  movdqa      xmmword ptr [rsp+30h],xmm13
                    30
  0000000000002243: 66 45 0F EF FE     pxor        xmm15,xmm14
  0000000000002248: 66 0F 38 DE F1     aesdec      xmm6,xmm1
  000000000000224D: 45 0F 28 EC        movaps      xmm13,xmm12
  0000000000002251: 66 45 0F 6F F1     movdqa      xmm14,xmm9
  0000000000002256: 66 0F 38 DE F9     aesdec      xmm7,xmm1
  000000000000225B: 0F 10 49 E0        movups      xmm1,xmmword ptr [rcx-20h]
  000000000000225F: 66 45 0F FE C9     paddd       xmm9,xmm9
  0000000000002264: 66 0F 38 DE D0     aesdec      xmm2,xmm0
  0000000000002269: 66 45 0F EF E7     pxor        xmm12,xmm15
  000000000000226E: 66 41 0F 72 E6 1F  psrad       xmm14,1Fh
  0000000000002274: 66 0F 38 DE D8     aesdec      xmm3,xmm0
  0000000000002279: 66 45 0F D4 FF     paddq       xmm15,xmm15
  000000000000227E: 66 45 0F DB F0     pand        xmm14,xmm8
  0000000000002283: 66 0F 38 DE E0     aesdec      xmm4,xmm0
  0000000000002288: 66 0F 38 DE E8     aesdec      xmm5,xmm0
  000000000000228D: 66 0F 38 DE F0     aesdec      xmm6,xmm0
  0000000000002292: 66 45 0F EF FE     pxor        xmm15,xmm14
  0000000000002297: 45 0F 28 F5        movaps      xmm14,xmm13
  000000000000229B: 66 0F 38 DE F8     aesdec      xmm7,xmm0
  00000000000022A0: 66 41 0F 6F C1     movdqa      xmm0,xmm9
  00000000000022A5: 66 45 0F FE C9     paddd       xmm9,xmm9
  00000000000022AA: 66 0F 38 DE D1     aesdec      xmm2,xmm1
  00000000000022AF: 66 45 0F EF EF     pxor        xmm13,xmm15
  00000000000022B4: 66 0F 72 E0 1F     psrad       xmm0,1Fh
  00000000000022B9: 66 0F 38 DE D9     aesdec      xmm3,xmm1
  00000000000022BE: 66 45 0F D4 FF     paddq       xmm15,xmm15
  00000000000022C3: 66 41 0F DB C0     pand        xmm0,xmm8
  00000000000022C8: 66 0F 38 DE E1     aesdec      xmm4,xmm1
  00000000000022CD: 66 0F 38 DE E9     aesdec      xmm5,xmm1
  00000000000022D2: 66 44 0F EF F8     pxor        xmm15,xmm0
  00000000000022D7: 0F 10 45 00        movups      xmm0,xmmword ptr [rbp]
  00000000000022DB: 66 0F 38 DE F1     aesdec      xmm6,xmm1
  00000000000022E0: 66 0F 38 DE F9     aesdec      xmm7,xmm1
  00000000000022E5: 0F 10 4D 10        movups      xmm1,xmmword ptr [rbp+10h]
  00000000000022E9: 66 45 0F EF F7     pxor        xmm14,xmm15
  00000000000022EE: 66 0F 38 DF 54 24  aesdeclast  xmm2,xmmword ptr [rsp]
                    00
  00000000000022F5: 66 41 0F 72 E1 1F  psrad       xmm9,1Fh
  00000000000022FB: 66 45 0F D4 FF     paddq       xmm15,xmm15
  0000000000002300: 66 0F 38 DF 5C 24  aesdeclast  xmm3,xmmword ptr [rsp+10h]
                    10
  0000000000002307: 66 0F 38 DF 64 24  aesdeclast  xmm4,xmmword ptr [rsp+20h]
                    20
  000000000000230E: 66 45 0F DB C8     pand        xmm9,xmm8
  0000000000002313: 4C 89 D0           mov         rax,r10
  0000000000002316: 66 0F 38 DF 6C 24  aesdeclast  xmm5,xmmword ptr [rsp+30h]
                    30
  000000000000231D: 66 0F 38 DF 74 24  aesdeclast  xmm6,xmmword ptr [rsp+40h]
                    40
  0000000000002324: 66 0F 38 DF 7C 24  aesdeclast  xmm7,xmmword ptr [rsp+50h]
                    50
  000000000000232B: 66 45 0F EF F9     pxor        xmm15,xmm9
  0000000000002330: 48 8D 76 60        lea         rsi,[rsi+60h]
  0000000000002334: 0F 11 56 A0        movups      xmmword ptr [rsi-60h],xmm2
  0000000000002338: 0F 11 5E B0        movups      xmmword ptr [rsi-50h],xmm3
  000000000000233C: 0F 11 66 C0        movups      xmmword ptr [rsi-40h],xmm4
  0000000000002340: 0F 11 6E D0        movups      xmmword ptr [rsi-30h],xmm5
  0000000000002344: 0F 11 76 E0        movups      xmmword ptr [rsi-20h],xmm6
  0000000000002348: 0F 11 7E F0        movups      xmmword ptr [rsi-10h],xmm7
  000000000000234C: 48 83 EA 60        sub         rdx,60h
  0000000000002350: 0F 83 CA FC FF FF  jae         L$xts_dec_grandloop
  0000000000002356: B8 70 00 00 00     mov         eax,70h
  000000000000235B: 44 29 D0           sub         eax,r10d
  000000000000235E: 48 89 E9           mov         rcx,rbp
  0000000000002361: C1 E8 04           shr         eax,4
L$xts_dec_short:
  0000000000002364: 41 89 C2           mov         r10d,eax
  0000000000002367: 66 44 0F EF D0     pxor        xmm10,xmm0
  000000000000236C: 66 44 0F EF D8     pxor        xmm11,xmm0
  0000000000002371: 48 83 C2 60        add         rdx,60h
  0000000000002375: 0F 84 25 02 00 00  je          L$xts_dec_done
  000000000000237B: 66 44 0F EF E0     pxor        xmm12,xmm0
  0000000000002380: 48 83 FA 20        cmp         rdx,20h
  0000000000002384: 0F 82 C6 00 00 00  jb          L$xts_dec_one
  000000000000238A: 66 44 0F EF E8     pxor        xmm13,xmm0
  000000000000238F: 0F 84 0B 01 00 00  je          L$xts_dec_two
  0000000000002395: 66 44 0F EF F0     pxor        xmm14,xmm0
  000000000000239A: 48 83 FA 40        cmp         rdx,40h
  000000000000239E: 0F 82 3C 01 00 00  jb          L$xts_dec_three
  00000000000023A4: 0F 84 86 01 00 00  je          L$xts_dec_four
  00000000000023AA: F3 0F 6F 17        movdqu      xmm2,xmmword ptr [rdi]
  00000000000023AE: F3 0F 6F 5F 10     movdqu      xmm3,xmmword ptr [rdi+10h]
  00000000000023B3: F3 0F 6F 67 20     movdqu      xmm4,xmmword ptr [rdi+20h]
  00000000000023B8: 66 41 0F EF D2     pxor        xmm2,xmm10
  00000000000023BD: F3 0F 6F 6F 30     movdqu      xmm5,xmmword ptr [rdi+30h]
  00000000000023C2: 66 41 0F EF DB     pxor        xmm3,xmm11
  00000000000023C7: F3 0F 6F 77 40     movdqu      xmm6,xmmword ptr [rdi+40h]
  00000000000023CC: 48 8D 7F 50        lea         rdi,[rdi+50h]
  00000000000023D0: 66 41 0F EF E4     pxor        xmm4,xmm12
  00000000000023D5: 66 41 0F EF ED     pxor        xmm5,xmm13
  00000000000023DA: 66 41 0F EF F6     pxor        xmm6,xmm14
  00000000000023DF: E8 7C E0 FF FF     call        _aesni_decrypt6
  00000000000023E4: 41 0F 57 D2        xorps       xmm2,xmm10
  00000000000023E8: 41 0F 57 DB        xorps       xmm3,xmm11
  00000000000023EC: 41 0F 57 E4        xorps       xmm4,xmm12
  00000000000023F0: F3 0F 7F 16        movdqu      xmmword ptr [rsi],xmm2
  00000000000023F4: 41 0F 57 ED        xorps       xmm5,xmm13
  00000000000023F8: F3 0F 7F 5E 10     movdqu      xmmword ptr [rsi+10h],xmm3
  00000000000023FD: 41 0F 57 F6        xorps       xmm6,xmm14
  0000000000002401: F3 0F 7F 66 20     movdqu      xmmword ptr [rsi+20h],xmm4
  0000000000002406: 66 45 0F EF F6     pxor        xmm14,xmm14
  000000000000240B: F3 0F 7F 6E 30     movdqu      xmmword ptr [rsi+30h],xmm5
  0000000000002410: 66 45 0F 66 F7     pcmpgtd     xmm14,xmm15
  0000000000002415: F3 0F 7F 76 40     movdqu      xmmword ptr [rsi+40h],xmm6
  000000000000241A: 48 8D 76 50        lea         rsi,[rsi+50h]
  000000000000241E: 66 45 0F 70 DE 13  pshufd      xmm11,xmm14,13h
  0000000000002424: 49 83 E1 0F        and         r9,0Fh
  0000000000002428: 0F 84 16 02 00 00  je          L$xts_dec_ret
  000000000000242E: 66 45 0F 6F D7     movdqa      xmm10,xmm15
  0000000000002433: 66 45 0F D4 FF     paddq       xmm15,xmm15
  0000000000002438: 66 45 0F DB D8     pand        xmm11,xmm8
  000000000000243D: 66 45 0F EF DF     pxor        xmm11,xmm15
  0000000000002442: E9 63 01 00 00     jmp         L$xts_dec_done2
  0000000000002447: 90                 nop
  0000000000002448: 90                 nop
  0000000000002449: 90                 nop
  000000000000244A: 90                 nop
  000000000000244B: 90                 nop
  000000000000244C: 90                 nop
  000000000000244D: 90                 nop
  000000000000244E: 90                 nop
  000000000000244F: 90                 nop
L$xts_dec_one:
  0000000000002450: 0F 10 17           movups      xmm2,xmmword ptr [rdi]
  0000000000002453: 48 8D 7F 10        lea         rdi,[rdi+10h]
  0000000000002457: 41 0F 57 D2        xorps       xmm2,xmm10
  000000000000245B: 0F 10 01           movups      xmm0,xmmword ptr [rcx]
  000000000000245E: 0F 10 49 10        movups      xmm1,xmmword ptr [rcx+10h]
  0000000000002462: 48 8D 49 20        lea         rcx,[rcx+20h]
  0000000000002466: 0F 57 D0           xorps       xmm2,xmm0
L$oop_dec1_10:
  0000000000002469: 66 0F 38 DE D1     aesdec      xmm2,xmm1
  000000000000246E: FF C8              dec         eax
  0000000000002470: 0F 10 09           movups      xmm1,xmmword ptr [rcx]
  0000000000002473: 48 8D 49 10        lea         rcx,[rcx+10h]
  0000000000002477: 0F 85 EC FF FF FF  jne         L$oop_dec1_10
  000000000000247D: 66 0F 38 DF D1     aesdeclast  xmm2,xmm1
  0000000000002482: 41 0F 57 D2        xorps       xmm2,xmm10
  0000000000002486: 66 45 0F 6F D3     movdqa      xmm10,xmm11
  000000000000248B: 0F 11 16           movups      xmmword ptr [rsi],xmm2
  000000000000248E: 66 45 0F 6F DC     movdqa      xmm11,xmm12
  0000000000002493: 48 8D 76 10        lea         rsi,[rsi+10h]
  0000000000002497: E9 04 01 00 00     jmp         L$xts_dec_done
  000000000000249C: 90                 nop
  000000000000249D: 90                 nop
  000000000000249E: 90                 nop
  000000000000249F: 90                 nop
L$xts_dec_two:
  00000000000024A0: 0F 10 17           movups      xmm2,xmmword ptr [rdi]
  00000000000024A3: 0F 10 5F 10        movups      xmm3,xmmword ptr [rdi+10h]
  00000000000024A7: 48 8D 7F 20        lea         rdi,[rdi+20h]
  00000000000024AB: 41 0F 57 D2        xorps       xmm2,xmm10
  00000000000024AF: 41 0F 57 DB        xorps       xmm3,xmm11
  00000000000024B3: E8 48 DC FF FF     call        _aesni_decrypt2
  00000000000024B8: 41 0F 57 D2        xorps       xmm2,xmm10
  00000000000024BC: 66 45 0F 6F D4     movdqa      xmm10,xmm12
  00000000000024C1: 41 0F 57 DB        xorps       xmm3,xmm11
  00000000000024C5: 66 45 0F 6F DD     movdqa      xmm11,xmm13
  00000000000024CA: 0F 11 16           movups      xmmword ptr [rsi],xmm2
  00000000000024CD: 0F 11 5E 10        movups      xmmword ptr [rsi+10h],xmm3
  00000000000024D1: 48 8D 76 20        lea         rsi,[rsi+20h]
  00000000000024D5: E9 C6 00 00 00     jmp         L$xts_dec_done
  00000000000024DA: 90                 nop
  00000000000024DB: 90                 nop
  00000000000024DC: 90                 nop
  00000000000024DD: 90                 nop
  00000000000024DE: 90                 nop
  00000000000024DF: 90                 nop
L$xts_dec_three:
  00000000000024E0: 0F 10 17           movups      xmm2,xmmword ptr [rdi]
  00000000000024E3: 0F 10 5F 10        movups      xmm3,xmmword ptr [rdi+10h]
  00000000000024E7: 0F 10 67 20        movups      xmm4,xmmword ptr [rdi+20h]
  00000000000024EB: 48 8D 7F 30        lea         rdi,[rdi+30h]
  00000000000024EF: 41 0F 57 D2        xorps       xmm2,xmm10
  00000000000024F3: 41 0F 57 DB        xorps       xmm3,xmm11
  00000000000024F7: 41 0F 57 E4        xorps       xmm4,xmm12
  00000000000024FB: E8 E0 DC FF FF     call        _aesni_decrypt3
  0000000000002500: 41 0F 57 D2        xorps       xmm2,xmm10
  0000000000002504: 66 45 0F 6F D5     movdqa      xmm10,xmm13
  0000000000002509: 41 0F 57 DB        xorps       xmm3,xmm11
  000000000000250D: 66 45 0F 6F DE     movdqa      xmm11,xmm14
  0000000000002512: 41 0F 57 E4        xorps       xmm4,xmm12
  0000000000002516: 0F 11 16           movups      xmmword ptr [rsi],xmm2
  0000000000002519: 0F 11 5E 10        movups      xmmword ptr [rsi+10h],xmm3
  000000000000251D: 0F 11 66 20        movups      xmmword ptr [rsi+20h],xmm4
  0000000000002521: 48 8D 76 30        lea         rsi,[rsi+30h]
  0000000000002525: E9 76 00 00 00     jmp         L$xts_dec_done
  000000000000252A: 90                 nop
  000000000000252B: 90                 nop
  000000000000252C: 90                 nop
  000000000000252D: 90                 nop
  000000000000252E: 90                 nop
  000000000000252F: 90                 nop
L$xts_dec_four:
  0000000000002530: 0F 10 17           movups      xmm2,xmmword ptr [rdi]
  0000000000002533: 0F 10 5F 10        movups      xmm3,xmmword ptr [rdi+10h]
  0000000000002537: 0F 10 67 20        movups      xmm4,xmmword ptr [rdi+20h]
  000000000000253B: 41 0F 57 D2        xorps       xmm2,xmm10
  000000000000253F: 0F 10 6F 30        movups      xmm5,xmmword ptr [rdi+30h]
  0000000000002543: 48 8D 7F 40        lea         rdi,[rdi+40h]
  0000000000002547: 41 0F 57 DB        xorps       xmm3,xmm11
  000000000000254B: 41 0F 57 E4        xorps       xmm4,xmm12
  000000000000254F: 41 0F 57 ED        xorps       xmm5,xmm13
  0000000000002553: E8 98 DD FF FF     call        _aesni_decrypt4
  0000000000002558: 66 41 0F EF D2     pxor        xmm2,xmm10
  000000000000255D: 66 45 0F 6F D6     movdqa      xmm10,xmm14
  0000000000002562: 66 41 0F EF DB     pxor        xmm3,xmm11
  0000000000002567: 66 45 0F 6F DF     movdqa      xmm11,xmm15
  000000000000256C: 66 41 0F EF E4     pxor        xmm4,xmm12
  0000000000002571: F3 0F 7F 16        movdqu      xmmword ptr [rsi],xmm2
  0000000000002575: 66 41 0F EF ED     pxor        xmm5,xmm13
  000000000000257A: F3 0F 7F 5E 10     movdqu      xmmword ptr [rsi+10h],xmm3
  000000000000257F: F3 0F 7F 66 20     movdqu      xmmword ptr [rsi+20h],xmm4
  0000000000002584: F3 0F 7F 6E 30     movdqu      xmmword ptr [rsi+30h],xmm5
  0000000000002589: 48 8D 76 40        lea         rsi,[rsi+40h]
  000000000000258D: E9 0E 00 00 00     jmp         L$xts_dec_done
  0000000000002592: 90                 nop
  0000000000002593: 90                 nop
  0000000000002594: 90                 nop
  0000000000002595: 90                 nop
  0000000000002596: 90                 nop
  0000000000002597: 90                 nop
  0000000000002598: 90                 nop
  0000000000002599: 90                 nop
  000000000000259A: 90                 nop
  000000000000259B: 90                 nop
  000000000000259C: 90                 nop
  000000000000259D: 90                 nop
  000000000000259E: 90                 nop
  000000000000259F: 90                 nop
L$xts_dec_done:
  00000000000025A0: 49 83 E1 0F        and         r9,0Fh
  00000000000025A4: 0F 84 9A 00 00 00  je          L$xts_dec_ret
L$xts_dec_done2:
  00000000000025AA: 4C 89 CA           mov         rdx,r9
  00000000000025AD: 48 89 E9           mov         rcx,rbp
  00000000000025B0: 44 89 D0           mov         eax,r10d
  00000000000025B3: 0F 10 17           movups      xmm2,xmmword ptr [rdi]
  00000000000025B6: 41 0F 57 D3        xorps       xmm2,xmm11
  00000000000025BA: 0F 10 01           movups      xmm0,xmmword ptr [rcx]
  00000000000025BD: 0F 10 49 10        movups      xmm1,xmmword ptr [rcx+10h]
  00000000000025C1: 48 8D 49 20        lea         rcx,[rcx+20h]
  00000000000025C5: 0F 57 D0           xorps       xmm2,xmm0
L$oop_dec1_11:
  00000000000025C8: 66 0F 38 DE D1     aesdec      xmm2,xmm1
  00000000000025CD: FF C8              dec         eax
  00000000000025CF: 0F 10 09           movups      xmm1,xmmword ptr [rcx]
  00000000000025D2: 48 8D 49 10        lea         rcx,[rcx+10h]
  00000000000025D6: 0F 85 EC FF FF FF  jne         L$oop_dec1_11
  00000000000025DC: 66 0F 38 DF D1     aesdeclast  xmm2,xmm1
  00000000000025E1: 41 0F 57 D3        xorps       xmm2,xmm11
  00000000000025E5: 0F 11 16           movups      xmmword ptr [rsi],xmm2
L$xts_dec_steal:
  00000000000025E8: 0F B6 47 10        movzx       eax,byte ptr [rdi+10h]
  00000000000025EC: 0F B6 0E           movzx       ecx,byte ptr [rsi]
  00000000000025EF: 48 8D 7F 01        lea         rdi,[rdi+1]
  00000000000025F3: 88 06              mov         byte ptr [rsi],al
  00000000000025F5: 88 4E 10           mov         byte ptr [rsi+10h],cl
  00000000000025F8: 48 8D 76 01        lea         rsi,[rsi+1]
  00000000000025FC: 48 83 EA 01        sub         rdx,1
  0000000000002600: 0F 85 E2 FF FF FF  jne         L$xts_dec_steal
  0000000000002606: 4C 29 CE           sub         rsi,r9
  0000000000002609: 48 89 E9           mov         rcx,rbp
  000000000000260C: 44 89 D0           mov         eax,r10d
  000000000000260F: 0F 10 16           movups      xmm2,xmmword ptr [rsi]
  0000000000002612: 41 0F 57 D2        xorps       xmm2,xmm10
  0000000000002616: 0F 10 01           movups      xmm0,xmmword ptr [rcx]
  0000000000002619: 0F 10 49 10        movups      xmm1,xmmword ptr [rcx+10h]
  000000000000261D: 48 8D 49 20        lea         rcx,[rcx+20h]
  0000000000002621: 0F 57 D0           xorps       xmm2,xmm0
L$oop_dec1_12:
  0000000000002624: 66 0F 38 DE D1     aesdec      xmm2,xmm1
  0000000000002629: FF C8              dec         eax
  000000000000262B: 0F 10 09           movups      xmm1,xmmword ptr [rcx]
  000000000000262E: 48 8D 49 10        lea         rcx,[rcx+10h]
  0000000000002632: 0F 85 EC FF FF FF  jne         L$oop_dec1_12
  0000000000002638: 66 0F 38 DF D1     aesdeclast  xmm2,xmm1
  000000000000263D: 41 0F 57 D2        xorps       xmm2,xmm10
  0000000000002641: 0F 11 16           movups      xmmword ptr [rsi],xmm2
L$xts_dec_ret:
  0000000000002644: 0F 57 C0           xorps       xmm0,xmm0
  0000000000002647: 66 0F EF C9        pxor        xmm1,xmm1
  000000000000264B: 66 0F EF D2        pxor        xmm2,xmm2
  000000000000264F: 66 0F EF DB        pxor        xmm3,xmm3
  0000000000002653: 66 0F EF E4        pxor        xmm4,xmm4
  0000000000002657: 66 0F EF ED        pxor        xmm5,xmm5
  000000000000265B: 41 0F 28 B3 58 FF  movaps      xmm6,xmmword ptr [r11-0A8h]
                    FF FF
  0000000000002663: 41 0F 29 83 58 FF  movaps      xmmword ptr [r11-0A8h],xmm0
                    FF FF
  000000000000266B: 41 0F 28 BB 68 FF  movaps      xmm7,xmmword ptr [r11-98h]
                    FF FF
  0000000000002673: 41 0F 29 83 68 FF  movaps      xmmword ptr [r11-98h],xmm0
                    FF FF
  000000000000267B: 45 0F 28 83 78 FF  movaps      xmm8,xmmword ptr [r11-88h]
                    FF FF
  0000000000002683: 41 0F 29 83 78 FF  movaps      xmmword ptr [r11-88h],xmm0
                    FF FF
  000000000000268B: 45 0F 28 4B 88     movaps      xmm9,xmmword ptr [r11-78h]
  0000000000002690: 41 0F 29 43 88     movaps      xmmword ptr [r11-78h],xmm0
  0000000000002695: 45 0F 28 53 98     movaps      xmm10,xmmword ptr [r11-68h]
  000000000000269A: 41 0F 29 43 98     movaps      xmmword ptr [r11-68h],xmm0
  000000000000269F: 45 0F 28 5B A8     movaps      xmm11,xmmword ptr [r11-58h]
  00000000000026A4: 41 0F 29 43 A8     movaps      xmmword ptr [r11-58h],xmm0
  00000000000026A9: 45 0F 28 63 B8     movaps      xmm12,xmmword ptr [r11-48h]
  00000000000026AE: 41 0F 29 43 B8     movaps      xmmword ptr [r11-48h],xmm0
  00000000000026B3: 45 0F 28 6B C8     movaps      xmm13,xmmword ptr [r11-38h]
  00000000000026B8: 41 0F 29 43 C8     movaps      xmmword ptr [r11-38h],xmm0
  00000000000026BD: 45 0F 28 73 D8     movaps      xmm14,xmmword ptr [r11-28h]
  00000000000026C2: 41 0F 29 43 D8     movaps      xmmword ptr [r11-28h],xmm0
  00000000000026C7: 45 0F 28 7B E8     movaps      xmm15,xmmword ptr [r11-18h]
  00000000000026CC: 41 0F 29 43 E8     movaps      xmmword ptr [r11-18h],xmm0
  00000000000026D1: 0F 29 04 24        movaps      xmmword ptr [rsp],xmm0
  00000000000026D5: 0F 29 44 24 10     movaps      xmmword ptr [rsp+10h],xmm0
  00000000000026DA: 0F 29 44 24 20     movaps      xmmword ptr [rsp+20h],xmm0
  00000000000026DF: 0F 29 44 24 30     movaps      xmmword ptr [rsp+30h],xmm0
  00000000000026E4: 0F 29 44 24 40     movaps      xmmword ptr [rsp+40h],xmm0
  00000000000026E9: 0F 29 44 24 50     movaps      xmmword ptr [rsp+50h],xmm0
  00000000000026EE: 0F 29 44 24 60     movaps      xmmword ptr [rsp+60h],xmm0
  00000000000026F3: 49 8B 6B F8        mov         rbp,qword ptr [r11-8]
  00000000000026F7: 49 8D 23           lea         rsp,[r11]
L$xts_dec_epilogue:
  00000000000026FA: 48 8B 7C 24 08     mov         rdi,qword ptr [rsp+8]
  00000000000026FF: 48 8B 74 24 10     mov         rsi,qword ptr [rsp+10h]
  0000000000002704: F3 C3              rep ret
L$SEH_end_aes_hw_xts_decrypt:
  0000000000002706: 90                 nop
  0000000000002707: 90                 nop
  0000000000002708: 90                 nop
  0000000000002709: 90                 nop
  000000000000270A: 90                 nop
  000000000000270B: 90                 nop
  000000000000270C: 90                 nop
  000000000000270D: 90                 nop
  000000000000270E: 90                 nop
  000000000000270F: 90                 nop
aws_lc_0_21_0_aes_hw_cbc_encrypt:
  0000000000002710: 48 89 7C 24 08     mov         qword ptr [rsp+8],rdi
  0000000000002715: 48 89 74 24 10     mov         qword ptr [rsp+10h],rsi
  000000000000271A: 48 89 E0           mov         rax,rsp
L$SEH_begin_aes_hw_cbc_encrypt:
  000000000000271D: 48 89 CF           mov         rdi,rcx
  0000000000002720: 48 89 D6           mov         rsi,rdx
  0000000000002723: 4C 89 C2           mov         rdx,r8
  0000000000002726: 4C 89 C9           mov         rcx,r9
  0000000000002729: 4C 8B 44 24 28     mov         r8,qword ptr [rsp+28h]
  000000000000272E: 4C 8B 4C 24 30     mov         r9,qword ptr [rsp+30h]
  0000000000002733: 48 85 D2           test        rdx,rdx
  0000000000002736: 0F 84 50 09 00 00  je          L$cbc_ret
  000000000000273C: 44 8B 91 F0 00 00  mov         r10d,dword ptr [rcx+0F0h]
                    00
  0000000000002743: 49 89 CB           mov         r11,rcx
  0000000000002746: 45 85 C9           test        r9d,r9d
  0000000000002749: 0F 84 C1 00 00 00  je          L$cbc_decrypt
  000000000000274F: 41 0F 10 10        movups      xmm2,xmmword ptr [r8]
  0000000000002753: 44 89 D0           mov         eax,r10d
  0000000000002756: 48 83 FA 10        cmp         rdx,10h
  000000000000275A: 0F 82 7B 00 00 00  jb          L$cbc_enc_tail
  0000000000002760: 48 83 EA 10        sub         rdx,10h
  0000000000002764: E9 07 00 00 00     jmp         L$cbc_enc_loop
  0000000000002769: 90                 nop
  000000000000276A: 90                 nop
  000000000000276B: 90                 nop
  000000000000276C: 90                 nop
  000000000000276D: 90                 nop
  000000000000276E: 90                 nop
  000000000000276F: 90                 nop
L$cbc_enc_loop:
  0000000000002770: 0F 10 1F           movups      xmm3,xmmword ptr [rdi]
  0000000000002773: 48 8D 7F 10        lea         rdi,[rdi+10h]
  0000000000002777: 0F 10 01           movups      xmm0,xmmword ptr [rcx]
  000000000000277A: 0F 10 49 10        movups      xmm1,xmmword ptr [rcx+10h]
  000000000000277E: 0F 57 D8           xorps       xmm3,xmm0
  0000000000002781: 48 8D 49 20        lea         rcx,[rcx+20h]
  0000000000002785: 0F 57 D3           xorps       xmm2,xmm3
L$oop_enc1_13:
  0000000000002788: 66 0F 38 DC D1     aesenc      xmm2,xmm1
  000000000000278D: FF C8              dec         eax
  000000000000278F: 0F 10 09           movups      xmm1,xmmword ptr [rcx]
  0000000000002792: 48 8D 49 10        lea         rcx,[rcx+10h]
  0000000000002796: 0F 85 EC FF FF FF  jne         L$oop_enc1_13
  000000000000279C: 66 0F 38 DD D1     aesenclast  xmm2,xmm1
  00000000000027A1: 44 89 D0           mov         eax,r10d
  00000000000027A4: 4C 89 D9           mov         rcx,r11
  00000000000027A7: 0F 11 16           movups      xmmword ptr [rsi],xmm2
  00000000000027AA: 48 8D 76 10        lea         rsi,[rsi+10h]
  00000000000027AE: 48 83 EA 10        sub         rdx,10h
  00000000000027B2: 0F 83 B8 FF FF FF  jae         L$cbc_enc_loop
  00000000000027B8: 48 83 C2 10        add         rdx,10h
  00000000000027BC: 0F 85 19 00 00 00  jne         L$cbc_enc_tail
  00000000000027C2: 66 0F EF C0        pxor        xmm0,xmm0
  00000000000027C6: 66 0F EF C9        pxor        xmm1,xmm1
  00000000000027CA: 41 0F 11 10        movups      xmmword ptr [r8],xmm2
  00000000000027CE: 66 0F EF D2        pxor        xmm2,xmm2
  00000000000027D2: 66 0F EF DB        pxor        xmm3,xmm3
  00000000000027D6: E9 B1 08 00 00     jmp         L$cbc_ret
L$cbc_enc_tail:
  00000000000027DB: 48 89 D1           mov         rcx,rdx
  00000000000027DE: 48 87 F7           xchg        rsi,rdi
  00000000000027E1: F3 A4              rep movs    byte ptr [rdi],byte ptr [rsi]
  00000000000027E3: 66 90              nop
  00000000000027E5: B9 10 00 00 00     mov         ecx,10h
  00000000000027EA: 48 29 D1           sub         rcx,rdx
  00000000000027ED: 31 C0              xor         eax,eax
  00000000000027EF: F3 AA              rep stos    byte ptr [rdi]
  00000000000027F1: 66 90              nop
  00000000000027F3: 48 8D 7F F0        lea         rdi,[rdi-10h]
  00000000000027F7: 44 89 D0           mov         eax,r10d
  00000000000027FA: 48 89 FE           mov         rsi,rdi
  00000000000027FD: 4C 89 D9           mov         rcx,r11
  0000000000002800: 48 31 D2           xor         rdx,rdx
  0000000000002803: E9 68 FF FF FF     jmp         L$cbc_enc_loop
  0000000000002808: 90                 nop
  0000000000002809: 90                 nop
  000000000000280A: 90                 nop
  000000000000280B: 90                 nop
  000000000000280C: 90                 nop
  000000000000280D: 90                 nop
  000000000000280E: 90                 nop
  000000000000280F: 90                 nop
L$cbc_decrypt:
  0000000000002810: 48 83 FA 10        cmp         rdx,10h
  0000000000002814: 0F 85 56 00 00 00  jne         L$cbc_decrypt_bulk
  000000000000281A: F3 0F 6F 17        movdqu      xmm2,xmmword ptr [rdi]
  000000000000281E: F3 41 0F 6F 18     movdqu      xmm3,xmmword ptr [r8]
  0000000000002823: 66 0F 6F E2        movdqa      xmm4,xmm2
  0000000000002827: 0F 10 01           movups      xmm0,xmmword ptr [rcx]
  000000000000282A: 0F 10 49 10        movups      xmm1,xmmword ptr [rcx+10h]
  000000000000282E: 48 8D 49 20        lea         rcx,[rcx+20h]
  0000000000002832: 0F 57 D0           xorps       xmm2,xmm0
L$oop_dec1_14:
  0000000000002835: 66 0F 38 DE D1     aesdec      xmm2,xmm1
  000000000000283A: 41 FF CA           dec         r10d
  000000000000283D: 0F 10 09           movups      xmm1,xmmword ptr [rcx]
  0000000000002840: 48 8D 49 10        lea         rcx,[rcx+10h]
  0000000000002844: 0F 85 EB FF FF FF  jne         L$oop_dec1_14
  000000000000284A: 66 0F 38 DF D1     aesdeclast  xmm2,xmm1
  000000000000284F: 66 0F EF C0        pxor        xmm0,xmm0
  0000000000002853: 66 0F EF C9        pxor        xmm1,xmm1
  0000000000002857: F3 41 0F 7F 20     movdqu      xmmword ptr [r8],xmm4
  000000000000285C: 0F 57 D3           xorps       xmm2,xmm3
  000000000000285F: 66 0F EF DB        pxor        xmm3,xmm3
  0000000000002863: 0F 11 16           movups      xmmword ptr [rsi],xmm2
  0000000000002866: 66 0F EF D2        pxor        xmm2,xmm2
  000000000000286A: E9 1D 08 00 00     jmp         L$cbc_ret
  000000000000286F: 90                 nop
L$cbc_decrypt_bulk:
  0000000000002870: 4C 8D 1C 24        lea         r11,[rsp]
  0000000000002874: 55                 push        rbp
  0000000000002875: 48 81 EC B0 00 00  sub         rsp,0B0h
                    00
  000000000000287C: 48 83 E4 F0        and         rsp,0FFFFFFFFFFFFFFF0h
  0000000000002880: 0F 29 74 24 10     movaps      xmmword ptr [rsp+10h],xmm6
  0000000000002885: 0F 29 7C 24 20     movaps      xmmword ptr [rsp+20h],xmm7
  000000000000288A: 44 0F 29 44 24 30  movaps      xmmword ptr [rsp+30h],xmm8
  0000000000002890: 44 0F 29 4C 24 40  movaps      xmmword ptr [rsp+40h],xmm9
  0000000000002896: 44 0F 29 54 24 50  movaps      xmmword ptr [rsp+50h],xmm10
  000000000000289C: 44 0F 29 5C 24 60  movaps      xmmword ptr [rsp+60h],xmm11
  00000000000028A2: 44 0F 29 64 24 70  movaps      xmmword ptr [rsp+70h],xmm12
  00000000000028A8: 44 0F 29 AC 24 80  movaps      xmmword ptr [rsp+80h],xmm13
                    00 00 00
  00000000000028B1: 44 0F 29 B4 24 90  movaps      xmmword ptr [rsp+90h],xmm14
                    00 00 00
  00000000000028BA: 44 0F 29 BC 24 A0  movaps      xmmword ptr [rsp+0A0h],xmm15
                    00 00 00
L$cbc_decrypt_body:
  00000000000028C3: 48 89 CD           mov         rbp,rcx
  00000000000028C6: 45 0F 10 10        movups      xmm10,xmmword ptr [r8]
  00000000000028CA: 44 89 D0           mov         eax,r10d
  00000000000028CD: 48 83 FA 50        cmp         rdx,50h
  00000000000028D1: 0F 86 2D 05 00 00  jbe         L$cbc_dec_tail
  00000000000028D7: 0F 10 01           movups      xmm0,xmmword ptr [rcx]
  00000000000028DA: F3 0F 6F 17        movdqu      xmm2,xmmword ptr [rdi]
  00000000000028DE: F3 0F 6F 5F 10     movdqu      xmm3,xmmword ptr [rdi+10h]
  00000000000028E3: 66 44 0F 6F DA     movdqa      xmm11,xmm2
  00000000000028E8: F3 0F 6F 67 20     movdqu      xmm4,xmmword ptr [rdi+20h]
  00000000000028ED: 66 44 0F 6F E3     movdqa      xmm12,xmm3
  00000000000028F2: F3 0F 6F 6F 30     movdqu      xmm5,xmmword ptr [rdi+30h]
  00000000000028F7: 66 44 0F 6F EC     movdqa      xmm13,xmm4
  00000000000028FC: F3 0F 6F 77 40     movdqu      xmm6,xmmword ptr [rdi+40h]
  0000000000002901: 66 44 0F 6F F5     movdqa      xmm14,xmm5
  0000000000002906: F3 0F 6F 7F 50     movdqu      xmm7,xmmword ptr [rdi+50h]
  000000000000290B: 66 44 0F 6F FE     movdqa      xmm15,xmm6
  0000000000002910: 48 83 FA 70        cmp         rdx,70h
  0000000000002914: 0F 86 EC 03 00 00  jbe         L$cbc_dec_six_or_seven
  000000000000291A: 48 83 EA 70        sub         rdx,70h
  000000000000291E: 48 8D 49 70        lea         rcx,[rcx+70h]
  0000000000002922: E9 11 00 00 00     jmp         L$cbc_dec_loop8_enter
  0000000000002927: 90                 nop
  0000000000002928: 90                 nop
  0000000000002929: 90                 nop
  000000000000292A: 90                 nop
  000000000000292B: 90                 nop
  000000000000292C: 90                 nop
  000000000000292D: 90                 nop
  000000000000292E: 90                 nop
  000000000000292F: 90                 nop
L$cbc_dec_loop8:
  0000000000002930: 44 0F 11 0E        movups      xmmword ptr [rsi],xmm9
  0000000000002934: 48 8D 76 10        lea         rsi,[rsi+10h]
L$cbc_dec_loop8_enter:
  0000000000002938: F3 44 0F 6F 47 60  movdqu      xmm8,xmmword ptr [rdi+60h]
  000000000000293E: 66 0F EF D0        pxor        xmm2,xmm0
  0000000000002942: F3 44 0F 6F 4F 70  movdqu      xmm9,xmmword ptr [rdi+70h]
  0000000000002948: 66 0F EF D8        pxor        xmm3,xmm0
  000000000000294C: 0F 10 49 A0        movups      xmm1,xmmword ptr [rcx-60h]
  0000000000002950: 66 0F EF E0        pxor        xmm4,xmm0
  0000000000002954: 48 C7 C5 FF FF FF  mov         rbp,0FFFFFFFFFFFFFFFFh
                    FF
  000000000000295B: 48 83 FA 70        cmp         rdx,70h
  000000000000295F: 66 0F EF E8        pxor        xmm5,xmm0
  0000000000002963: 66 0F EF F0        pxor        xmm6,xmm0
  0000000000002967: 66 0F EF F8        pxor        xmm7,xmm0
  000000000000296B: 66 44 0F EF C0     pxor        xmm8,xmm0
  0000000000002970: 66 0F 38 DE D1     aesdec      xmm2,xmm1
  0000000000002975: 66 44 0F EF C8     pxor        xmm9,xmm0
  000000000000297A: 0F 10 41 B0        movups      xmm0,xmmword ptr [rcx-50h]
  000000000000297E: 66 0F 38 DE D9     aesdec      xmm3,xmm1
  0000000000002983: 66 0F 38 DE E1     aesdec      xmm4,xmm1
  0000000000002988: 66 0F 38 DE E9     aesdec      xmm5,xmm1
  000000000000298D: 66 0F 38 DE F1     aesdec      xmm6,xmm1
  0000000000002992: 66 0F 38 DE F9     aesdec      xmm7,xmm1
  0000000000002997: 66 44 0F 38 DE C1  aesdec      xmm8,xmm1
  000000000000299D: 48 83 D5 00        adc         rbp,0
  00000000000029A1: 48 81 E5 80 00 00  and         rbp,80h
                    00
  00000000000029A8: 66 44 0F 38 DE C9  aesdec      xmm9,xmm1
  00000000000029AE: 48 01 FD           add         rbp,rdi
  00000000000029B1: 0F 10 49 C0        movups      xmm1,xmmword ptr [rcx-40h]
  00000000000029B5: 66 0F 38 DE D0     aesdec      xmm2,xmm0
  00000000000029BA: 66 0F 38 DE D8     aesdec      xmm3,xmm0
  00000000000029BF: 66 0F 38 DE E0     aesdec      xmm4,xmm0
  00000000000029C4: 66 0F 38 DE E8     aesdec      xmm5,xmm0
  00000000000029C9: 66 0F 38 DE F0     aesdec      xmm6,xmm0
  00000000000029CE: 66 0F 38 DE F8     aesdec      xmm7,xmm0
  00000000000029D3: 66 44 0F 38 DE C0  aesdec      xmm8,xmm0
  00000000000029D9: 66 44 0F 38 DE C8  aesdec      xmm9,xmm0
  00000000000029DF: 0F 10 41 D0        movups      xmm0,xmmword ptr [rcx-30h]
  00000000000029E3: 90                 nop
  00000000000029E4: 66 0F 38 DE D1     aesdec      xmm2,xmm1
  00000000000029E9: 66 0F 38 DE D9     aesdec      xmm3,xmm1
  00000000000029EE: 66 0F 38 DE E1     aesdec      xmm4,xmm1
  00000000000029F3: 66 0F 38 DE E9     aesdec      xmm5,xmm1
  00000000000029F8: 66 0F 38 DE F1     aesdec      xmm6,xmm1
  00000000000029FD: 66 0F 38 DE F9     aesdec      xmm7,xmm1
  0000000000002A02: 66 44 0F 38 DE C1  aesdec      xmm8,xmm1
  0000000000002A08: 66 44 0F 38 DE C9  aesdec      xmm9,xmm1
  0000000000002A0E: 0F 10 49 E0        movups      xmm1,xmmword ptr [rcx-20h]
  0000000000002A12: 90                 nop
  0000000000002A13: 66 0F 38 DE D0     aesdec      xmm2,xmm0
  0000000000002A18: 66 0F 38 DE D8     aesdec      xmm3,xmm0
  0000000000002A1D: 66 0F 38 DE E0     aesdec      xmm4,xmm0
  0000000000002A22: 66 0F 38 DE E8     aesdec      xmm5,xmm0
  0000000000002A27: 66 0F 38 DE F0     aesdec      xmm6,xmm0
  0000000000002A2C: 66 0F 38 DE F8     aesdec      xmm7,xmm0
  0000000000002A31: 66 44 0F 38 DE C0  aesdec      xmm8,xmm0
  0000000000002A37: 66 44 0F 38 DE C8  aesdec      xmm9,xmm0
  0000000000002A3D: 0F 10 41 F0        movups      xmm0,xmmword ptr [rcx-10h]
  0000000000002A41: 90                 nop
  0000000000002A42: 66 0F 38 DE D1     aesdec      xmm2,xmm1
  0000000000002A47: 66 0F 38 DE D9     aesdec      xmm3,xmm1
  0000000000002A4C: 66 0F 38 DE E1     aesdec      xmm4,xmm1
  0000000000002A51: 66 0F 38 DE E9     aesdec      xmm5,xmm1
  0000000000002A56: 66 0F 38 DE F1     aesdec      xmm6,xmm1
  0000000000002A5B: 66 0F 38 DE F9     aesdec      xmm7,xmm1
  0000000000002A60: 66 44 0F 38 DE C1  aesdec      xmm8,xmm1
  0000000000002A66: 66 44 0F 38 DE C9  aesdec      xmm9,xmm1
  0000000000002A6C: 0F 10 09           movups      xmm1,xmmword ptr [rcx]
  0000000000002A6F: 90                 nop
  0000000000002A70: 66 0F 38 DE D0     aesdec      xmm2,xmm0
  0000000000002A75: 66 0F 38 DE D8     aesdec      xmm3,xmm0
  0000000000002A7A: 66 0F 38 DE E0     aesdec      xmm4,xmm0
  0000000000002A7F: 66 0F 38 DE E8     aesdec      xmm5,xmm0
  0000000000002A84: 66 0F 38 DE F0     aesdec      xmm6,xmm0
  0000000000002A89: 66 0F 38 DE F8     aesdec      xmm7,xmm0
  0000000000002A8E: 66 44 0F 38 DE C0  aesdec      xmm8,xmm0
  0000000000002A94: 66 44 0F 38 DE C8  aesdec      xmm9,xmm0
  0000000000002A9A: 0F 10 41 10        movups      xmm0,xmmword ptr [rcx+10h]
  0000000000002A9E: 90                 nop
  0000000000002A9F: 66 0F 38 DE D1     aesdec      xmm2,xmm1
  0000000000002AA4: 66 0F 38 DE D9     aesdec      xmm3,xmm1
  0000000000002AA9: 66 0F 38 DE E1     aesdec      xmm4,xmm1
  0000000000002AAE: 66 0F 38 DE E9     aesdec      xmm5,xmm1
  0000000000002AB3: 66 0F 38 DE F1     aesdec      xmm6,xmm1
  0000000000002AB8: 66 0F 38 DE F9     aesdec      xmm7,xmm1
  0000000000002ABD: 66 44 0F 38 DE C1  aesdec      xmm8,xmm1
  0000000000002AC3: 66 44 0F 38 DE C9  aesdec      xmm9,xmm1
  0000000000002AC9: 0F 10 49 20        movups      xmm1,xmmword ptr [rcx+20h]
  0000000000002ACD: 83 F8 0B           cmp         eax,0Bh
  0000000000002AD0: 66 0F 38 DE D0     aesdec      xmm2,xmm0
  0000000000002AD5: 66 0F 38 DE D8     aesdec      xmm3,xmm0
  0000000000002ADA: 66 0F 38 DE E0     aesdec      xmm4,xmm0
  0000000000002ADF: 66 0F 38 DE E8     aesdec      xmm5,xmm0
  0000000000002AE4: 66 0F 38 DE F0     aesdec      xmm6,xmm0
  0000000000002AE9: 66 0F 38 DE F8     aesdec      xmm7,xmm0
  0000000000002AEE: 66 44 0F 38 DE C0  aesdec      xmm8,xmm0
  0000000000002AF4: 66 44 0F 38 DE C8  aesdec      xmm9,xmm0
  0000000000002AFA: 0F 10 41 30        movups      xmm0,xmmword ptr [rcx+30h]
  0000000000002AFE: 0F 82 CC 00 00 00  jb          L$cbc_dec_done
  0000000000002B04: 66 0F 38 DE D1     aesdec      xmm2,xmm1
  0000000000002B09: 66 0F 38 DE D9     aesdec      xmm3,xmm1
  0000000000002B0E: 66 0F 38 DE E1     aesdec      xmm4,xmm1
  0000000000002B13: 66 0F 38 DE E9     aesdec      xmm5,xmm1
  0000000000002B18: 66 0F 38 DE F1     aesdec      xmm6,xmm1
  0000000000002B1D: 66 0F 38 DE F9     aesdec      xmm7,xmm1
  0000000000002B22: 66 44 0F 38 DE C1  aesdec      xmm8,xmm1
  0000000000002B28: 66 44 0F 38 DE C9  aesdec      xmm9,xmm1
  0000000000002B2E: 0F 10 49 40        movups      xmm1,xmmword ptr [rcx+40h]
  0000000000002B32: 90                 nop
  0000000000002B33: 66 0F 38 DE D0     aesdec      xmm2,xmm0
  0000000000002B38: 66 0F 38 DE D8     aesdec      xmm3,xmm0
  0000000000002B3D: 66 0F 38 DE E0     aesdec      xmm4,xmm0
  0000000000002B42: 66 0F 38 DE E8     aesdec      xmm5,xmm0
  0000000000002B47: 66 0F 38 DE F0     aesdec      xmm6,xmm0
  0000000000002B4C: 66 0F 38 DE F8     aesdec      xmm7,xmm0
  0000000000002B51: 66 44 0F 38 DE C0  aesdec      xmm8,xmm0
  0000000000002B57: 66 44 0F 38 DE C8  aesdec      xmm9,xmm0
  0000000000002B5D: 0F 10 41 50        movups      xmm0,xmmword ptr [rcx+50h]
  0000000000002B61: 0F 84 69 00 00 00  je          L$cbc_dec_done
  0000000000002B67: 66 0F 38 DE D1     aesdec      xmm2,xmm1
  0000000000002B6C: 66 0F 38 DE D9     aesdec      xmm3,xmm1
  0000000000002B71: 66 0F 38 DE E1     aesdec      xmm4,xmm1
  0000000000002B76: 66 0F 38 DE E9     aesdec      xmm5,xmm1
  0000000000002B7B: 66 0F 38 DE F1     aesdec      xmm6,xmm1
  0000000000002B80: 66 0F 38 DE F9     aesdec      xmm7,xmm1
  0000000000002B85: 66 44 0F 38 DE C1  aesdec      xmm8,xmm1
  0000000000002B8B: 66 44 0F 38 DE C9  aesdec      xmm9,xmm1
  0000000000002B91: 0F 10 49 60        movups      xmm1,xmmword ptr [rcx+60h]
  0000000000002B95: 90                 nop
  0000000000002B96: 66 0F 38 DE D0     aesdec      xmm2,xmm0
  0000000000002B9B: 66 0F 38 DE D8     aesdec      xmm3,xmm0
  0000000000002BA0: 66 0F 38 DE E0     aesdec      xmm4,xmm0
  0000000000002BA5: 66 0F 38 DE E8     aesdec      xmm5,xmm0
  0000000000002BAA: 66 0F 38 DE F0     aesdec      xmm6,xmm0
  0000000000002BAF: 66 0F 38 DE F8     aesdec      xmm7,xmm0
  0000000000002BB4: 66 44 0F 38 DE C0  aesdec      xmm8,xmm0
  0000000000002BBA: 66 44 0F 38 DE C8  aesdec      xmm9,xmm0
  0000000000002BC0: 0F 10 41 70        movups      xmm0,xmmword ptr [rcx+70h]
  0000000000002BC4: E9 07 00 00 00     jmp         L$cbc_dec_done
  0000000000002BC9: 90                 nop
  0000000000002BCA: 90                 nop
  0000000000002BCB: 90                 nop
  0000000000002BCC: 90                 nop
  0000000000002BCD: 90                 nop
  0000000000002BCE: 90                 nop
  0000000000002BCF: 90                 nop
L$cbc_dec_done:
  0000000000002BD0: 66 0F 38 DE D1     aesdec      xmm2,xmm1
  0000000000002BD5: 66 0F 38 DE D9     aesdec      xmm3,xmm1
  0000000000002BDA: 66 44 0F EF D0     pxor        xmm10,xmm0
  0000000000002BDF: 66 44 0F EF D8     pxor        xmm11,xmm0
  0000000000002BE4: 66 0F 38 DE E1     aesdec      xmm4,xmm1
  0000000000002BE9: 66 0F 38 DE E9     aesdec      xmm5,xmm1
  0000000000002BEE: 66 44 0F EF E0     pxor        xmm12,xmm0
  0000000000002BF3: 66 44 0F EF E8     pxor        xmm13,xmm0
  0000000000002BF8: 66 0F 38 DE F1     aesdec      xmm6,xmm1
  0000000000002BFD: 66 0F 38 DE F9     aesdec      xmm7,xmm1
  0000000000002C02: 66 44 0F EF F0     pxor        xmm14,xmm0
  0000000000002C07: 66 44 0F EF F8     pxor        xmm15,xmm0
  0000000000002C0C: 66 44 0F 38 DE C1  aesdec      xmm8,xmm1
  0000000000002C12: 66 44 0F 38 DE C9  aesdec      xmm9,xmm1
  0000000000002C18: F3 0F 6F 4F 50     movdqu      xmm1,xmmword ptr [rdi+50h]
  0000000000002C1D: 66 41 0F 38 DF D2  aesdeclast  xmm2,xmm10
  0000000000002C23: F3 44 0F 6F 57 60  movdqu      xmm10,xmmword ptr [rdi+60h]
  0000000000002C29: 66 0F EF C8        pxor        xmm1,xmm0
  0000000000002C2D: 66 41 0F 38 DF DB  aesdeclast  xmm3,xmm11
  0000000000002C33: 66 44 0F EF D0     pxor        xmm10,xmm0
  0000000000002C38: F3 0F 6F 47 70     movdqu      xmm0,xmmword ptr [rdi+70h]
  0000000000002C3D: 66 41 0F 38 DF E4  aesdeclast  xmm4,xmm12
  0000000000002C43: 48 8D BF 80 00 00  lea         rdi,[rdi+80h]
                    00
  0000000000002C4A: F3 44 0F 6F 5D 00  movdqu      xmm11,xmmword ptr [rbp]
  0000000000002C50: 66 41 0F 38 DF ED  aesdeclast  xmm5,xmm13
  0000000000002C56: 66 41 0F 38 DF F6  aesdeclast  xmm6,xmm14
  0000000000002C5C: F3 44 0F 6F 65 10  movdqu      xmm12,xmmword ptr [rbp+10h]
  0000000000002C62: F3 44 0F 6F 6D 20  movdqu      xmm13,xmmword ptr [rbp+20h]
  0000000000002C68: 66 41 0F 38 DF FF  aesdeclast  xmm7,xmm15
  0000000000002C6E: 66 44 0F 38 DF C1  aesdeclast  xmm8,xmm1
  0000000000002C74: F3 44 0F 6F 75 30  movdqu      xmm14,xmmword ptr [rbp+30h]
  0000000000002C7A: F3 44 0F 6F 7D 40  movdqu      xmm15,xmmword ptr [rbp+40h]
  0000000000002C80: 66 45 0F 38 DF CA  aesdeclast  xmm9,xmm10
  0000000000002C86: 66 44 0F 6F D0     movdqa      xmm10,xmm0
  0000000000002C8B: F3 0F 6F 4D 50     movdqu      xmm1,xmmword ptr [rbp+50h]
  0000000000002C90: 0F 10 41 90        movups      xmm0,xmmword ptr [rcx-70h]
  0000000000002C94: 0F 11 16           movups      xmmword ptr [rsi],xmm2
  0000000000002C97: 66 41 0F 6F D3     movdqa      xmm2,xmm11
  0000000000002C9C: 0F 11 5E 10        movups      xmmword ptr [rsi+10h],xmm3
  0000000000002CA0: 66 41 0F 6F DC     movdqa      xmm3,xmm12
  0000000000002CA5: 0F 11 66 20        movups      xmmword ptr [rsi+20h],xmm4
  0000000000002CA9: 66 41 0F 6F E5     movdqa      xmm4,xmm13
  0000000000002CAE: 0F 11 6E 30        movups      xmmword ptr [rsi+30h],xmm5
  0000000000002CB2: 66 41 0F 6F EE     movdqa      xmm5,xmm14
  0000000000002CB7: 0F 11 76 40        movups      xmmword ptr [rsi+40h],xmm6
  0000000000002CBB: 66 41 0F 6F F7     movdqa      xmm6,xmm15
  0000000000002CC0: 0F 11 7E 50        movups      xmmword ptr [rsi+50h],xmm7
  0000000000002CC4: 66 0F 6F F9        movdqa      xmm7,xmm1
  0000000000002CC8: 44 0F 11 46 60     movups      xmmword ptr [rsi+60h],xmm8
  0000000000002CCD: 48 8D 76 70        lea         rsi,[rsi+70h]
  0000000000002CD1: 48 81 EA 80 00 00  sub         rdx,80h
                    00
  0000000000002CD8: 0F 87 52 FC FF FF  ja          L$cbc_dec_loop8
  0000000000002CDE: 41 0F 28 D1        movaps      xmm2,xmm9
  0000000000002CE2: 48 8D 49 90        lea         rcx,[rcx-70h]
  0000000000002CE6: 48 83 C2 70        add         rdx,70h
  0000000000002CEA: 0F 8E C0 02 00 00  jle         L$cbc_dec_clear_tail_collected
  0000000000002CF0: 44 0F 11 0E        movups      xmmword ptr [rsi],xmm9
  0000000000002CF4: 48 8D 76 10        lea         rsi,[rsi+10h]
  0000000000002CF8: 48 83 FA 50        cmp         rdx,50h
  0000000000002CFC: 0F 86 02 01 00 00  jbe         L$cbc_dec_tail
  0000000000002D02: 41 0F 28 D3        movaps      xmm2,xmm11
L$cbc_dec_six_or_seven:
  0000000000002D06: 48 83 FA 60        cmp         rdx,60h
  0000000000002D0A: 0F 87 70 00 00 00  ja          L$cbc_dec_seven
  0000000000002D10: 44 0F 28 C7        movaps      xmm8,xmm7
  0000000000002D14: E8 47 D7 FF FF     call        _aesni_decrypt6
  0000000000002D19: 66 41 0F EF D2     pxor        xmm2,xmm10
  0000000000002D1E: 45 0F 28 D0        movaps      xmm10,xmm8
  0000000000002D22: 66 41 0F EF DB     pxor        xmm3,xmm11
  0000000000002D27: F3 0F 7F 16        movdqu      xmmword ptr [rsi],xmm2
  0000000000002D2B: 66 41 0F EF E4     pxor        xmm4,xmm12
  0000000000002D30: F3 0F 7F 5E 10     movdqu      xmmword ptr [rsi+10h],xmm3
  0000000000002D35: 66 0F EF DB        pxor        xmm3,xmm3
  0000000000002D39: 66 41 0F EF ED     pxor        xmm5,xmm13
  0000000000002D3E: F3 0F 7F 66 20     movdqu      xmmword ptr [rsi+20h],xmm4
  0000000000002D43: 66 0F EF E4        pxor        xmm4,xmm4
  0000000000002D47: 66 41 0F EF F6     pxor        xmm6,xmm14
  0000000000002D4C: F3 0F 7F 6E 30     movdqu      xmmword ptr [rsi+30h],xmm5
  0000000000002D51: 66 0F EF ED        pxor        xmm5,xmm5
  0000000000002D55: 66 41 0F EF FF     pxor        xmm7,xmm15
  0000000000002D5A: F3 0F 7F 76 40     movdqu      xmmword ptr [rsi+40h],xmm6
  0000000000002D5F: 66 0F EF F6        pxor        xmm6,xmm6
  0000000000002D63: 48 8D 76 50        lea         rsi,[rsi+50h]
  0000000000002D67: 66 0F 6F D7        movdqa      xmm2,xmm7
  0000000000002D6B: 66 0F EF FF        pxor        xmm7,xmm7
  0000000000002D6F: E9 48 02 00 00     jmp         L$cbc_dec_tail_collected
  0000000000002D74: 90                 nop
  0000000000002D75: 90                 nop
  0000000000002D76: 90                 nop
  0000000000002D77: 90                 nop
  0000000000002D78: 90                 nop
  0000000000002D79: 90                 nop
  0000000000002D7A: 90                 nop
  0000000000002D7B: 90                 nop
  0000000000002D7C: 90                 nop
  0000000000002D7D: 90                 nop
  0000000000002D7E: 90                 nop
  0000000000002D7F: 90                 nop
L$cbc_dec_seven:
  0000000000002D80: 44 0F 10 47 60     movups      xmm8,xmmword ptr [rdi+60h]
  0000000000002D85: 45 0F 57 C9        xorps       xmm9,xmm9
  0000000000002D89: E8 C2 D8 FF FF     call        _aesni_decrypt8
  0000000000002D8E: 44 0F 10 4F 50     movups      xmm9,xmmword ptr [rdi+50h]
  0000000000002D93: 66 41 0F EF D2     pxor        xmm2,xmm10
  0000000000002D98: 44 0F 10 57 60     movups      xmm10,xmmword ptr [rdi+60h]
  0000000000002D9D: 66 41 0F EF DB     pxor        xmm3,xmm11
  0000000000002DA2: F3 0F 7F 16        movdqu      xmmword ptr [rsi],xmm2
  0000000000002DA6: 66 41 0F EF E4     pxor        xmm4,xmm12
  0000000000002DAB: F3 0F 7F 5E 10     movdqu      xmmword ptr [rsi+10h],xmm3
  0000000000002DB0: 66 0F EF DB        pxor        xmm3,xmm3
  0000000000002DB4: 66 41 0F EF ED     pxor        xmm5,xmm13
  0000000000002DB9: F3 0F 7F 66 20     movdqu      xmmword ptr [rsi+20h],xmm4
  0000000000002DBE: 66 0F EF E4        pxor        xmm4,xmm4
  0000000000002DC2: 66 41 0F EF F6     pxor        xmm6,xmm14
  0000000000002DC7: F3 0F 7F 6E 30     movdqu      xmmword ptr [rsi+30h],xmm5
  0000000000002DCC: 66 0F EF ED        pxor        xmm5,xmm5
  0000000000002DD0: 66 41 0F EF FF     pxor        xmm7,xmm15
  0000000000002DD5: F3 0F 7F 76 40     movdqu      xmmword ptr [rsi+40h],xmm6
  0000000000002DDA: 66 0F EF F6        pxor        xmm6,xmm6
  0000000000002DDE: 66 45 0F EF C1     pxor        xmm8,xmm9
  0000000000002DE3: F3 0F 7F 7E 50     movdqu      xmmword ptr [rsi+50h],xmm7
  0000000000002DE8: 66 0F EF FF        pxor        xmm7,xmm7
  0000000000002DEC: 48 8D 76 60        lea         rsi,[rsi+60h]
  0000000000002DF0: 66 41 0F 6F D0     movdqa      xmm2,xmm8
  0000000000002DF5: 66 45 0F EF C0     pxor        xmm8,xmm8
  0000000000002DFA: 66 45 0F EF C9     pxor        xmm9,xmm9
  0000000000002DFF: E9 B8 01 00 00     jmp         L$cbc_dec_tail_collected
L$cbc_dec_tail:
  0000000000002E04: 0F 10 17           movups      xmm2,xmmword ptr [rdi]
  0000000000002E07: 48 83 EA 10        sub         rdx,10h
  0000000000002E0B: 0F 86 9F 00 00 00  jbe         L$cbc_dec_one
  0000000000002E11: 0F 10 5F 10        movups      xmm3,xmmword ptr [rdi+10h]
  0000000000002E15: 44 0F 28 DA        movaps      xmm11,xmm2
  0000000000002E19: 48 83 EA 10        sub         rdx,10h
  0000000000002E1D: 0F 86 CD 00 00 00  jbe         L$cbc_dec_two
  0000000000002E23: 0F 10 67 20        movups      xmm4,xmmword ptr [rdi+20h]
  0000000000002E27: 44 0F 28 E3        movaps      xmm12,xmm3
  0000000000002E2B: 48 83 EA 10        sub         rdx,10h
  0000000000002E2F: 0F 86 EB 00 00 00  jbe         L$cbc_dec_three
  0000000000002E35: 0F 10 6F 30        movups      xmm5,xmmword ptr [rdi+30h]
  0000000000002E39: 44 0F 28 EC        movaps      xmm13,xmm4
  0000000000002E3D: 48 83 EA 10        sub         rdx,10h
  0000000000002E41: 0F 86 19 01 00 00  jbe         L$cbc_dec_four
  0000000000002E47: 0F 10 77 40        movups      xmm6,xmmword ptr [rdi+40h]
  0000000000002E4B: 44 0F 28 F5        movaps      xmm14,xmm5
  0000000000002E4F: 44 0F 28 FE        movaps      xmm15,xmm6
  0000000000002E53: 0F 57 FF           xorps       xmm7,xmm7
  0000000000002E56: E8 05 D6 FF FF     call        _aesni_decrypt6
  0000000000002E5B: 66 41 0F EF D2     pxor        xmm2,xmm10
  0000000000002E60: 45 0F 28 D7        movaps      xmm10,xmm15
  0000000000002E64: 66 41 0F EF DB     pxor        xmm3,xmm11
  0000000000002E69: F3 0F 7F 16        movdqu      xmmword ptr [rsi],xmm2
  0000000000002E6D: 66 41 0F EF E4     pxor        xmm4,xmm12
  0000000000002E72: F3 0F 7F 5E 10     movdqu      xmmword ptr [rsi+10h],xmm3
  0000000000002E77: 66 0F EF DB        pxor        xmm3,xmm3
  0000000000002E7B: 66 41 0F EF ED     pxor        xmm5,xmm13
  0000000000002E80: F3 0F 7F 66 20     movdqu      xmmword ptr [rsi+20h],xmm4
  0000000000002E85: 66 0F EF E4        pxor        xmm4,xmm4
  0000000000002E89: 66 41 0F EF F6     pxor        xmm6,xmm14
  0000000000002E8E: F3 0F 7F 6E 30     movdqu      xmmword ptr [rsi+30h],xmm5
  0000000000002E93: 66 0F EF ED        pxor        xmm5,xmm5
  0000000000002E97: 48 8D 76 40        lea         rsi,[rsi+40h]
  0000000000002E9B: 66 0F 6F D6        movdqa      xmm2,xmm6
  0000000000002E9F: 66 0F EF F6        pxor        xmm6,xmm6
  0000000000002EA3: 66 0F EF FF        pxor        xmm7,xmm7
  0000000000002EA7: 48 83 EA 10        sub         rdx,10h
  0000000000002EAB: E9 0C 01 00 00     jmp         L$cbc_dec_tail_collected
L$cbc_dec_one:
  0000000000002EB0: 44 0F 28 DA        movaps      xmm11,xmm2
  0000000000002EB4: 0F 10 01           movups      xmm0,xmmword ptr [rcx]
  0000000000002EB7: 0F 10 49 10        movups      xmm1,xmmword ptr [rcx+10h]
  0000000000002EBB: 48 8D 49 20        lea         rcx,[rcx+20h]
  0000000000002EBF: 0F 57 D0           xorps       xmm2,xmm0
L$oop_dec1_15:
  0000000000002EC2: 66 0F 38 DE D1     aesdec      xmm2,xmm1
  0000000000002EC7: FF C8              dec         eax
  0000000000002EC9: 0F 10 09           movups      xmm1,xmmword ptr [rcx]
  0000000000002ECC: 48 8D 49 10        lea         rcx,[rcx+10h]
  0000000000002ED0: 0F 85 EC FF FF FF  jne         L$oop_dec1_15
  0000000000002ED6: 66 0F 38 DF D1     aesdeclast  xmm2,xmm1
  0000000000002EDB: 41 0F 57 D2        xorps       xmm2,xmm10
  0000000000002EDF: 45 0F 28 D3        movaps      xmm10,xmm11
  0000000000002EE3: E9 D4 00 00 00     jmp         L$cbc_dec_tail_collected
  0000000000002EE8: 90                 nop
  0000000000002EE9: 90                 nop
  0000000000002EEA: 90                 nop
  0000000000002EEB: 90                 nop
  0000000000002EEC: 90                 nop
  0000000000002EED: 90                 nop
  0000000000002EEE: 90                 nop
  0000000000002EEF: 90                 nop
L$cbc_dec_two:
  0000000000002EF0: 44 0F 28 E3        movaps      xmm12,xmm3
  0000000000002EF4: E8 07 D2 FF FF     call        _aesni_decrypt2
  0000000000002EF9: 66 41 0F EF D2     pxor        xmm2,xmm10
  0000000000002EFE: 45 0F 28 D4        movaps      xmm10,xmm12
  0000000000002F02: 66 41 0F EF DB     pxor        xmm3,xmm11
  0000000000002F07: F3 0F 7F 16        movdqu      xmmword ptr [rsi],xmm2
  0000000000002F0B: 66 0F 6F D3        movdqa      xmm2,xmm3
  0000000000002F0F: 66 0F EF DB        pxor        xmm3,xmm3
  0000000000002F13: 48 8D 76 10        lea         rsi,[rsi+10h]
  0000000000002F17: E9 A0 00 00 00     jmp         L$cbc_dec_tail_collected
  0000000000002F1C: 90                 nop
  0000000000002F1D: 90                 nop
  0000000000002F1E: 90                 nop
  0000000000002F1F: 90                 nop
L$cbc_dec_three:
  0000000000002F20: 44 0F 28 EC        movaps      xmm13,xmm4
  0000000000002F24: E8 B7 D2 FF FF     call        _aesni_decrypt3
  0000000000002F29: 66 41 0F EF D2     pxor        xmm2,xmm10
  0000000000002F2E: 45 0F 28 D5        movaps      xmm10,xmm13
  0000000000002F32: 66 41 0F EF DB     pxor        xmm3,xmm11
  0000000000002F37: F3 0F 7F 16        movdqu      xmmword ptr [rsi],xmm2
  0000000000002F3B: 66 41 0F EF E4     pxor        xmm4,xmm12
  0000000000002F40: F3 0F 7F 5E 10     movdqu      xmmword ptr [rsi+10h],xmm3
  0000000000002F45: 66 0F EF DB        pxor        xmm3,xmm3
  0000000000002F49: 66 0F 6F D4        movdqa      xmm2,xmm4
  0000000000002F4D: 66 0F EF E4        pxor        xmm4,xmm4
  0000000000002F51: 48 8D 76 20        lea         rsi,[rsi+20h]
  0000000000002F55: E9 62 00 00 00     jmp         L$cbc_dec_tail_collected
  0000000000002F5A: 90                 nop
  0000000000002F5B: 90                 nop
  0000000000002F5C: 90                 nop
  0000000000002F5D: 90                 nop
  0000000000002F5E: 90                 nop
  0000000000002F5F: 90                 nop
L$cbc_dec_four:
  0000000000002F60: 44 0F 28 F5        movaps      xmm14,xmm5
  0000000000002F64: E8 87 D3 FF FF     call        _aesni_decrypt4
  0000000000002F69: 66 41 0F EF D2     pxor        xmm2,xmm10
  0000000000002F6E: 45 0F 28 D6        movaps      xmm10,xmm14
  0000000000002F72: 66 41 0F EF DB     pxor        xmm3,xmm11
  0000000000002F77: F3 0F 7F 16        movdqu      xmmword ptr [rsi],xmm2
  0000000000002F7B: 66 41 0F EF E4     pxor        xmm4,xmm12
  0000000000002F80: F3 0F 7F 5E 10     movdqu      xmmword ptr [rsi+10h],xmm3
  0000000000002F85: 66 0F EF DB        pxor        xmm3,xmm3
  0000000000002F89: 66 41 0F EF ED     pxor        xmm5,xmm13
  0000000000002F8E: F3 0F 7F 66 20     movdqu      xmmword ptr [rsi+20h],xmm4
  0000000000002F93: 66 0F EF E4        pxor        xmm4,xmm4
  0000000000002F97: 66 0F 6F D5        movdqa      xmm2,xmm5
  0000000000002F9B: 66 0F EF ED        pxor        xmm5,xmm5
  0000000000002F9F: 48 8D 76 30        lea         rsi,[rsi+30h]
  0000000000002FA3: E9 14 00 00 00     jmp         L$cbc_dec_tail_collected
  0000000000002FA8: 90                 nop
  0000000000002FA9: 90                 nop
  0000000000002FAA: 90                 nop
  0000000000002FAB: 90                 nop
  0000000000002FAC: 90                 nop
  0000000000002FAD: 90                 nop
  0000000000002FAE: 90                 nop
  0000000000002FAF: 90                 nop
L$cbc_dec_clear_tail_collected:
  0000000000002FB0: 66 0F EF DB        pxor        xmm3,xmm3
  0000000000002FB4: 66 0F EF E4        pxor        xmm4,xmm4
  0000000000002FB8: 66 0F EF ED        pxor        xmm5,xmm5
L$cbc_dec_tail_collected:
  0000000000002FBC: 45 0F 11 10        movups      xmmword ptr [r8],xmm10
  0000000000002FC0: 48 83 E2 0F        and         rdx,0Fh
  0000000000002FC4: 0F 85 16 00 00 00  jne         L$cbc_dec_tail_partial
  0000000000002FCA: 0F 11 16           movups      xmmword ptr [rsi],xmm2
  0000000000002FCD: 66 0F EF D2        pxor        xmm2,xmm2
  0000000000002FD1: E9 2A 00 00 00     jmp         L$cbc_dec_ret
  0000000000002FD6: 90                 nop
  0000000000002FD7: 90                 nop
  0000000000002FD8: 90                 nop
  0000000000002FD9: 90                 nop
  0000000000002FDA: 90                 nop
  0000000000002FDB: 90                 nop
  0000000000002FDC: 90                 nop
  0000000000002FDD: 90                 nop
  0000000000002FDE: 90                 nop
  0000000000002FDF: 90                 nop
L$cbc_dec_tail_partial:
  0000000000002FE0: 0F 29 14 24        movaps      xmmword ptr [rsp],xmm2
  0000000000002FE4: 66 0F EF D2        pxor        xmm2,xmm2
  0000000000002FE8: B9 10 00 00 00     mov         ecx,10h
  0000000000002FED: 48 89 F7           mov         rdi,rsi
  0000000000002FF0: 48 29 D1           sub         rcx,rdx
  0000000000002FF3: 48 8D 34 24        lea         rsi,[rsp]
  0000000000002FF7: F3 A4              rep movs    byte ptr [rdi],byte ptr [rsi]
  0000000000002FF9: 66 90              nop
  0000000000002FFB: 66 0F 7F 14 24     movdqa      xmmword ptr [rsp],xmm2
L$cbc_dec_ret:
  0000000000003000: 0F 57 C0           xorps       xmm0,xmm0
  0000000000003003: 66 0F EF C9        pxor        xmm1,xmm1
  0000000000003007: 0F 28 74 24 10     movaps      xmm6,xmmword ptr [rsp+10h]
  000000000000300C: 0F 29 44 24 10     movaps      xmmword ptr [rsp+10h],xmm0
  0000000000003011: 0F 28 7C 24 20     movaps      xmm7,xmmword ptr [rsp+20h]
  0000000000003016: 0F 29 44 24 20     movaps      xmmword ptr [rsp+20h],xmm0
  000000000000301B: 44 0F 28 44 24 30  movaps      xmm8,xmmword ptr [rsp+30h]
  0000000000003021: 0F 29 44 24 30     movaps      xmmword ptr [rsp+30h],xmm0
  0000000000003026: 44 0F 28 4C 24 40  movaps      xmm9,xmmword ptr [rsp+40h]
  000000000000302C: 0F 29 44 24 40     movaps      xmmword ptr [rsp+40h],xmm0
  0000000000003031: 44 0F 28 54 24 50  movaps      xmm10,xmmword ptr [rsp+50h]
  0000000000003037: 0F 29 44 24 50     movaps      xmmword ptr [rsp+50h],xmm0
  000000000000303C: 44 0F 28 5C 24 60  movaps      xmm11,xmmword ptr [rsp+60h]
  0000000000003042: 0F 29 44 24 60     movaps      xmmword ptr [rsp+60h],xmm0
  0000000000003047: 44 0F 28 64 24 70  movaps      xmm12,xmmword ptr [rsp+70h]
  000000000000304D: 0F 29 44 24 70     movaps      xmmword ptr [rsp+70h],xmm0
  0000000000003052: 44 0F 28 AC 24 80  movaps      xmm13,xmmword ptr [rsp+80h]
                    00 00 00
  000000000000305B: 0F 29 84 24 80 00  movaps      xmmword ptr [rsp+80h],xmm0
                    00 00
  0000000000003063: 44 0F 28 B4 24 90  movaps      xmm14,xmmword ptr [rsp+90h]
                    00 00 00
  000000000000306C: 0F 29 84 24 90 00  movaps      xmmword ptr [rsp+90h],xmm0
                    00 00
  0000000000003074: 44 0F 28 BC 24 A0  movaps      xmm15,xmmword ptr [rsp+0A0h]
                    00 00 00
  000000000000307D: 0F 29 84 24 A0 00  movaps      xmmword ptr [rsp+0A0h],xmm0
                    00 00
  0000000000003085: 49 8B 6B F8        mov         rbp,qword ptr [r11-8]
  0000000000003089: 49 8D 23           lea         rsp,[r11]
L$cbc_ret:
  000000000000308C: 48 8B 7C 24 08     mov         rdi,qword ptr [rsp+8]
  0000000000003091: 48 8B 74 24 10     mov         rsi,qword ptr [rsp+10h]
  0000000000003096: F3 C3              rep ret
L$SEH_end_aes_hw_cbc_encrypt:
  0000000000003098: 90                 nop
  0000000000003099: 90                 nop
  000000000000309A: 90                 nop
  000000000000309B: 90                 nop
  000000000000309C: 90                 nop
  000000000000309D: 90                 nop
  000000000000309E: 90                 nop
  000000000000309F: 90                 nop
aws_lc_0_21_0_aes_hw_set_decrypt_key:
  00000000000030A0: 48 83 EC 08        sub         rsp,8
  00000000000030A4: E8 77 00 00 00     call        aws_lc_0_21_0_aes_hw_set_encrypt_key
  00000000000030A9: C1 E2 04           shl         edx,4
  00000000000030AC: 85 C0              test        eax,eax
  00000000000030AE: 0F 85 5A 00 00 00  jne         L$dec_key_ret
  00000000000030B4: 49 8D 4C 10 10     lea         rcx,[r8+rdx+10h]
  00000000000030B9: 41 0F 10 00        movups      xmm0,xmmword ptr [r8]
  00000000000030BD: 0F 10 09           movups      xmm1,xmmword ptr [rcx]
  00000000000030C0: 0F 11 01           movups      xmmword ptr [rcx],xmm0
  00000000000030C3: 41 0F 11 08        movups      xmmword ptr [r8],xmm1
  00000000000030C7: 4D 8D 40 10        lea         r8,[r8+10h]
  00000000000030CB: 48 8D 49 F0        lea         rcx,[rcx-10h]
L$dec_key_inverse:
  00000000000030CF: 41 0F 10 00        movups      xmm0,xmmword ptr [r8]
  00000000000030D3: 0F 10 09           movups      xmm1,xmmword ptr [rcx]
  00000000000030D6: 66 0F 38 DB C0     aesimc      xmm0,xmm0
  00000000000030DB: 66 0F 38 DB C9     aesimc      xmm1,xmm1
  00000000000030E0: 4D 8D 40 10        lea         r8,[r8+10h]
  00000000000030E4: 48 8D 49 F0        lea         rcx,[rcx-10h]
  00000000000030E8: 0F 11 41 10        movups      xmmword ptr [rcx+10h],xmm0
  00000000000030EC: 41 0F 11 48 F0     movups      xmmword ptr [r8-10h],xmm1
  00000000000030F1: 4C 39 C1           cmp         rcx,r8
  00000000000030F4: 0F 87 D5 FF FF FF  ja          L$dec_key_inverse
  00000000000030FA: 41 0F 10 00        movups      xmm0,xmmword ptr [r8]
  00000000000030FE: 66 0F 38 DB C0     aesimc      xmm0,xmm0
  0000000000003103: 66 0F EF C9        pxor        xmm1,xmm1
  0000000000003107: 0F 11 01           movups      xmmword ptr [rcx],xmm0
  000000000000310A: 66 0F EF C0        pxor        xmm0,xmm0
L$dec_key_ret:
  000000000000310E: 48 83 C4 08        add         rsp,8
  0000000000003112: F3 C3              rep ret
L$SEH_end_set_decrypt_key:
  0000000000003114: 90                 nop
  0000000000003115: 90                 nop
  0000000000003116: 90                 nop
  0000000000003117: 90                 nop
  0000000000003118: 90                 nop
  0000000000003119: 90                 nop
  000000000000311A: 90                 nop
  000000000000311B: 90                 nop
  000000000000311C: 90                 nop
  000000000000311D: 90                 nop
  000000000000311E: 90                 nop
  000000000000311F: 90                 nop
aws_lc_0_21_0_aes_hw_set_encrypt_key:
  0000000000003120: 48 83 EC 08        sub         rsp,8
  0000000000003124: 48 C7 C0 FF FF FF  mov         rax,0FFFFFFFFFFFFFFFFh
                    FF
  000000000000312B: 48 85 C9           test        rcx,rcx
  000000000000312E: 0F 84 83 04 00 00  je          L$enc_key_ret
  0000000000003134: 4D 85 C0           test        r8,r8
  0000000000003137: 0F 84 7A 04 00 00  je          L$enc_key_ret
  000000000000313D: 0F 10 01           movups      xmm0,xmmword ptr [rcx]
  0000000000003140: 0F 57 E4           xorps       xmm4,xmm4
  0000000000003143: 4C 8D 15 00 00 00  lea         r10,[aws_lc_0_21_0_OPENSSL_ia32cap_P]
                    00
  000000000000314A: 45 8B 52 04        mov         r10d,dword ptr [r10+4]
  000000000000314E: 41 81 E2 00 08 00  and         r10d,10000800h
                    10
  0000000000003155: 49 8D 40 10        lea         rax,[r8+10h]
  0000000000003159: 81 FA 00 01 00 00  cmp         edx,100h
  000000000000315F: 0F 84 CB 02 00 00  je          L$14rounds
  0000000000003165: 81 FA C0 00 00 00  cmp         edx,0C0h
  000000000000316B: 0F 84 9F 01 00 00  je          L$12rounds
  0000000000003171: 81 FA 80 00 00 00  cmp         edx,80h
  0000000000003177: 0F 85 33 04 00 00  jne         L$bad_keybits
L$10rounds:
  000000000000317D: BA 09 00 00 00     mov         edx,9
  0000000000003182: 41 81 FA 00 00 00  cmp         r10d,10000000h
                    10
  0000000000003189: 0F 84 81 00 00 00  je          L$10rounds_alt
  000000000000318F: 41 0F 11 00        movups      xmmword ptr [r8],xmm0
  0000000000003193: 66 0F 3A DF C8 01  aeskeygenassist xmm1,xmm0,1
  0000000000003199: E8 49 04 00 00     call        L$key_expansion_128_cold
  000000000000319E: 66 0F 3A DF C8 02  aeskeygenassist xmm1,xmm0,2
  00000000000031A4: E8 37 04 00 00     call        L$key_expansion_128
  00000000000031A9: 66 0F 3A DF C8 04  aeskeygenassist xmm1,xmm0,4
  00000000000031AF: E8 2C 04 00 00     call        L$key_expansion_128
  00000000000031B4: 66 0F 3A DF C8 08  aeskeygenassist xmm1,xmm0,8
  00000000000031BA: E8 21 04 00 00     call        L$key_expansion_128
  00000000000031BF: 66 0F 3A DF C8 10  aeskeygenassist xmm1,xmm0,10h
  00000000000031C5: E8 16 04 00 00     call        L$key_expansion_128
  00000000000031CA: 66 0F 3A DF C8 20  aeskeygenassist xmm1,xmm0,20h
  00000000000031D0: E8 0B 04 00 00     call        L$key_expansion_128
  00000000000031D5: 66 0F 3A DF C8 40  aeskeygenassist xmm1,xmm0,40h
  00000000000031DB: E8 00 04 00 00     call        L$key_expansion_128
  00000000000031E0: 66 0F 3A DF C8 80  aeskeygenassist xmm1,xmm0,80h
  00000000000031E6: E8 F5 03 00 00     call        L$key_expansion_128
  00000000000031EB: 66 0F 3A DF C8 1B  aeskeygenassist xmm1,xmm0,1Bh
  00000000000031F1: E8 EA 03 00 00     call        L$key_expansion_128
  00000000000031F6: 66 0F 3A DF C8 36  aeskeygenassist xmm1,xmm0,36h
  00000000000031FC: E8 DF 03 00 00     call        L$key_expansion_128
  0000000000003201: 0F 11 00           movups      xmmword ptr [rax],xmm0
  0000000000003204: 89 50 50           mov         dword ptr [rax+50h],edx
  0000000000003207: 31 C0              xor         eax,eax
  0000000000003209: E9 A9 03 00 00     jmp         L$enc_key_ret
  000000000000320E: 90                 nop
  000000000000320F: 90                 nop
L$10rounds_alt:
  0000000000003210: 66 0F 6F 2D 50 00  movdqa      xmm5,xmmword ptr [.rdata+50h]
                    00 00
  0000000000003218: 41 BA 08 00 00 00  mov         r10d,8
  000000000000321E: 66 0F 6F 25 70 00  movdqa      xmm4,xmmword ptr [.rdata+70h]
                    00 00
  0000000000003226: 66 0F 6F D0        movdqa      xmm2,xmm0
  000000000000322A: F3 41 0F 7F 00     movdqu      xmmword ptr [r8],xmm0
  000000000000322F: E9 0C 00 00 00     jmp         L$oop_key128
  0000000000003234: 90                 nop
  0000000000003235: 90                 nop
  0000000000003236: 90                 nop
  0000000000003237: 90                 nop
  0000000000003238: 90                 nop
  0000000000003239: 90                 nop
  000000000000323A: 90                 nop
  000000000000323B: 90                 nop
  000000000000323C: 90                 nop
  000000000000323D: 90                 nop
  000000000000323E: 90                 nop
  000000000000323F: 90                 nop
L$oop_key128:
  0000000000003240: 66 0F 38 00 C5     pshufb      xmm0,xmm5
  0000000000003245: 66 0F 38 DD C4     aesenclast  xmm0,xmm4
  000000000000324A: 66 0F 72 F4 01     pslld       xmm4,1
  000000000000324F: 48 8D 40 10        lea         rax,[rax+10h]
  0000000000003253: 66 0F 6F DA        movdqa      xmm3,xmm2
  0000000000003257: 66 0F 73 FA 04     pslldq      xmm2,4
  000000000000325C: 66 0F EF DA        pxor        xmm3,xmm2
  0000000000003260: 66 0F 73 FA 04     pslldq      xmm2,4
  0000000000003265: 66 0F EF DA        pxor        xmm3,xmm2
  0000000000003269: 66 0F 73 FA 04     pslldq      xmm2,4
  000000000000326E: 66 0F EF D3        pxor        xmm2,xmm3
  0000000000003272: 66 0F EF C2        pxor        xmm0,xmm2
  0000000000003276: F3 0F 7F 40 F0     movdqu      xmmword ptr [rax-10h],xmm0
  000000000000327B: 66 0F 6F D0        movdqa      xmm2,xmm0
  000000000000327F: 41 FF CA           dec         r10d
  0000000000003282: 0F 85 B8 FF FF FF  jne         L$oop_key128
  0000000000003288: 66 0F 6F 25 80 00  movdqa      xmm4,xmmword ptr [.rdata+80h]
                    00 00
  0000000000003290: 66 0F 38 00 C5     pshufb      xmm0,xmm5
  0000000000003295: 66 0F 38 DD C4     aesenclast  xmm0,xmm4
  000000000000329A: 66 0F 72 F4 01     pslld       xmm4,1
  000000000000329F: 66 0F 6F DA        movdqa      xmm3,xmm2
  00000000000032A3: 66 0F 73 FA 04     pslldq      xmm2,4
  00000000000032A8: 66 0F EF DA        pxor        xmm3,xmm2
  00000000000032AC: 66 0F 73 FA 04     pslldq      xmm2,4
  00000000000032B1: 66 0F EF DA        pxor        xmm3,xmm2
  00000000000032B5: 66 0F 73 FA 04     pslldq      xmm2,4
  00000000000032BA: 66 0F EF D3        pxor        xmm2,xmm3
  00000000000032BE: 66 0F EF C2        pxor        xmm0,xmm2
  00000000000032C2: F3 0F 7F 00        movdqu      xmmword ptr [rax],xmm0
  00000000000032C6: 66 0F 6F D0        movdqa      xmm2,xmm0
  00000000000032CA: 66 0F 38 00 C5     pshufb      xmm0,xmm5
  00000000000032CF: 66 0F 38 DD C4     aesenclast  xmm0,xmm4
  00000000000032D4: 66 0F 6F DA        movdqa      xmm3,xmm2
  00000000000032D8: 66 0F 73 FA 04     pslldq      xmm2,4
  00000000000032DD: 66 0F EF DA        pxor        xmm3,xmm2
  00000000000032E1: 66 0F 73 FA 04     pslldq      xmm2,4
  00000000000032E6: 66 0F EF DA        pxor        xmm3,xmm2
  00000000000032EA: 66 0F 73 FA 04     pslldq      xmm2,4
  00000000000032EF: 66 0F EF D3        pxor        xmm2,xmm3
  00000000000032F3: 66 0F EF C2        pxor        xmm0,xmm2
  00000000000032F7: F3 0F 7F 40 10     movdqu      xmmword ptr [rax+10h],xmm0
  00000000000032FC: 89 50 60           mov         dword ptr [rax+60h],edx
  00000000000032FF: 31 C0              xor         eax,eax
  0000000000003301: E9 B1 02 00 00     jmp         L$enc_key_ret
  0000000000003306: 90                 nop
  0000000000003307: 90                 nop
  0000000000003308: 90                 nop
  0000000000003309: 90                 nop
  000000000000330A: 90                 nop
  000000000000330B: 90                 nop
  000000000000330C: 90                 nop
  000000000000330D: 90                 nop
  000000000000330E: 90                 nop
  000000000000330F: 90                 nop
L$12rounds:
  0000000000003310: F3 0F 7E 51 10     movq        xmm2,mmword ptr [rcx+10h]
  0000000000003315: BA 0B 00 00 00     mov         edx,0Bh
  000000000000331A: 41 81 FA 00 00 00  cmp         r10d,10000000h
                    10
  0000000000003321: 0F 84 79 00 00 00  je          L$12rounds_alt
  0000000000003327: 41 0F 11 00        movups      xmmword ptr [r8],xmm0
  000000000000332B: 66 0F 3A DF CA 01  aeskeygenassist xmm1,xmm2,1
  0000000000003331: E8 D1 02 00 00     call        L$key_expansion_192a_cold
  0000000000003336: 66 0F 3A DF CA 02  aeskeygenassist xmm1,xmm2,2
  000000000000333C: E8 FF 02 00 00     call        L$key_expansion_192b
  0000000000003341: 66 0F 3A DF CA 04  aeskeygenassist xmm1,xmm2,4
  0000000000003347: E8 B4 02 00 00     call        L$key_expansion_192a
  000000000000334C: 66 0F 3A DF CA 08  aeskeygenassist xmm1,xmm2,8
  0000000000003352: E8 E9 02 00 00     call        L$key_expansion_192b
  0000000000003357: 66 0F 3A DF CA 10  aeskeygenassist xmm1,xmm2,10h
  000000000000335D: E8 9E 02 00 00     call        L$key_expansion_192a
  0000000000003362: 66 0F 3A DF CA 20  aeskeygenassist xmm1,xmm2,20h
  0000000000003368: E8 D3 02 00 00     call        L$key_expansion_192b
  000000000000336D: 66 0F 3A DF CA 40  aeskeygenassist xmm1,xmm2,40h
  0000000000003373: E8 88 02 00 00     call        L$key_expansion_192a
  0000000000003378: 66 0F 3A DF CA 80  aeskeygenassist xmm1,xmm2,80h
  000000000000337E: E8 BD 02 00 00     call        L$key_expansion_192b
  0000000000003383: 0F 11 00           movups      xmmword ptr [rax],xmm0
  0000000000003386: 89 50 30           mov         dword ptr [rax+30h],edx
  0000000000003389: 48 31 C0           xor         rax,rax
  000000000000338C: E9 26 02 00 00     jmp         L$enc_key_ret
  0000000000003391: 90                 nop
  0000000000003392: 90                 nop
  0000000000003393: 90                 nop
  0000000000003394: 90                 nop
  0000000000003395: 90                 nop
  0000000000003396: 90                 nop
  0000000000003397: 90                 nop
  0000000000003398: 90                 nop
  0000000000003399: 90                 nop
  000000000000339A: 90                 nop
  000000000000339B: 90                 nop
  000000000000339C: 90                 nop
  000000000000339D: 90                 nop
  000000000000339E: 90                 nop
  000000000000339F: 90                 nop
L$12rounds_alt:
  00000000000033A0: 66 0F 6F 2D 60 00  movdqa      xmm5,xmmword ptr [.rdata+60h]
                    00 00
  00000000000033A8: 66 0F 6F 25 70 00  movdqa      xmm4,xmmword ptr [.rdata+70h]
                    00 00
  00000000000033B0: 41 BA 08 00 00 00  mov         r10d,8
  00000000000033B6: F3 41 0F 7F 00     movdqu      xmmword ptr [r8],xmm0
  00000000000033BB: E9 00 00 00 00     jmp         L$oop_key192
L$oop_key192:
  00000000000033C0: 66 0F D6 10        movq        mmword ptr [rax],xmm2
  00000000000033C4: 66 0F 6F CA        movdqa      xmm1,xmm2
  00000000000033C8: 66 0F 38 00 D5     pshufb      xmm2,xmm5
  00000000000033CD: 66 0F 38 DD D4     aesenclast  xmm2,xmm4
  00000000000033D2: 66 0F 72 F4 01     pslld       xmm4,1
  00000000000033D7: 48 8D 40 18        lea         rax,[rax+18h]
  00000000000033DB: 66 0F 6F D8        movdqa      xmm3,xmm0
  00000000000033DF: 66 0F 73 F8 04     pslldq      xmm0,4
  00000000000033E4: 66 0F EF D8        pxor        xmm3,xmm0
  00000000000033E8: 66 0F 73 F8 04     pslldq      xmm0,4
  00000000000033ED: 66 0F EF D8        pxor        xmm3,xmm0
  00000000000033F1: 66 0F 73 F8 04     pslldq      xmm0,4
  00000000000033F6: 66 0F EF C3        pxor        xmm0,xmm3
  00000000000033FA: 66 0F 70 D8 FF     pshufd      xmm3,xmm0,0FFh
  00000000000033FF: 66 0F EF D9        pxor        xmm3,xmm1
  0000000000003403: 66 0F 73 F9 04     pslldq      xmm1,4
  0000000000003408: 66 0F EF D9        pxor        xmm3,xmm1
  000000000000340C: 66 0F EF C2        pxor        xmm0,xmm2
  0000000000003410: 66 0F EF D3        pxor        xmm2,xmm3
  0000000000003414: F3 0F 7F 40 F0     movdqu      xmmword ptr [rax-10h],xmm0
  0000000000003419: 41 FF CA           dec         r10d
  000000000000341C: 0F 85 9E FF FF FF  jne         L$oop_key192
  0000000000003422: 89 50 20           mov         dword ptr [rax+20h],edx
  0000000000003425: 31 C0              xor         eax,eax
  0000000000003427: E9 8B 01 00 00     jmp         L$enc_key_ret
  000000000000342C: 90                 nop
  000000000000342D: 90                 nop
  000000000000342E: 90                 nop
  000000000000342F: 90                 nop
L$14rounds:
  0000000000003430: 0F 10 51 10        movups      xmm2,xmmword ptr [rcx+10h]
  0000000000003434: BA 0D 00 00 00     mov         edx,0Dh
  0000000000003439: 48 8D 40 10        lea         rax,[rax+10h]
  000000000000343D: 41 81 FA 00 00 00  cmp         r10d,10000000h
                    10
  0000000000003444: 0F 84 A6 00 00 00  je          L$14rounds_alt
  000000000000344A: 41 0F 11 00        movups      xmmword ptr [r8],xmm0
  000000000000344E: 41 0F 11 50 10     movups      xmmword ptr [r8+10h],xmm2
  0000000000003453: 66 0F 3A DF CA 01  aeskeygenassist xmm1,xmm2,1
  0000000000003459: E8 09 02 00 00     call        L$key_expansion_256a_cold
  000000000000345E: 66 0F 3A DF C8 01  aeskeygenassist xmm1,xmm0,1
  0000000000003464: E8 17 02 00 00     call        L$key_expansion_256b
  0000000000003469: 66 0F 3A DF CA 02  aeskeygenassist xmm1,xmm2,2
  000000000000346F: E8 EC 01 00 00     call        L$key_expansion_256a
  0000000000003474: 66 0F 3A DF C8 02  aeskeygenassist xmm1,xmm0,2
  000000000000347A: E8 01 02 00 00     call        L$key_expansion_256b
  000000000000347F: 66 0F 3A DF CA 04  aeskeygenassist xmm1,xmm2,4
  0000000000003485: E8 D6 01 00 00     call        L$key_expansion_256a
  000000000000348A: 66 0F 3A DF C8 04  aeskeygenassist xmm1,xmm0,4
  0000000000003490: E8 EB 01 00 00     call        L$key_expansion_256b
  0000000000003495: 66 0F 3A DF CA 08  aeskeygenassist xmm1,xmm2,8
  000000000000349B: E8 C0 01 00 00     call        L$key_expansion_256a
  00000000000034A0: 66 0F 3A DF C8 08  aeskeygenassist xmm1,xmm0,8
  00000000000034A6: E8 D5 01 00 00     call        L$key_expansion_256b
  00000000000034AB: 66 0F 3A DF CA 10  aeskeygenassist xmm1,xmm2,10h
  00000000000034B1: E8 AA 01 00 00     call        L$key_expansion_256a
  00000000000034B6: 66 0F 3A DF C8 10  aeskeygenassist xmm1,xmm0,10h
  00000000000034BC: E8 BF 01 00 00     call        L$key_expansion_256b
  00000000000034C1: 66 0F 3A DF CA 20  aeskeygenassist xmm1,xmm2,20h
  00000000000034C7: E8 94 01 00 00     call        L$key_expansion_256a
  00000000000034CC: 66 0F 3A DF C8 20  aeskeygenassist xmm1,xmm0,20h
  00000000000034D2: E8 A9 01 00 00     call        L$key_expansion_256b
  00000000000034D7: 66 0F 3A DF CA 40  aeskeygenassist xmm1,xmm2,40h
  00000000000034DD: E8 7E 01 00 00     call        L$key_expansion_256a
  00000000000034E2: 0F 11 00           movups      xmmword ptr [rax],xmm0
  00000000000034E5: 89 50 10           mov         dword ptr [rax+10h],edx
  00000000000034E8: 48 31 C0           xor         rax,rax
  00000000000034EB: E9 C7 00 00 00     jmp         L$enc_key_ret
L$14rounds_alt:
  00000000000034F0: 66 0F 6F 2D 50 00  movdqa      xmm5,xmmword ptr [.rdata+50h]
                    00 00
  00000000000034F8: 66 0F 6F 25 70 00  movdqa      xmm4,xmmword ptr [.rdata+70h]
                    00 00
  0000000000003500: 41 BA 07 00 00 00  mov         r10d,7
  0000000000003506: F3 41 0F 7F 00     movdqu      xmmword ptr [r8],xmm0
  000000000000350B: 66 0F 6F CA        movdqa      xmm1,xmm2
  000000000000350F: F3 41 0F 7F 50 10  movdqu      xmmword ptr [r8+10h],xmm2
  0000000000003515: E9 06 00 00 00     jmp         L$oop_key256
  000000000000351A: 90                 nop
  000000000000351B: 90                 nop
  000000000000351C: 90                 nop
  000000000000351D: 90                 nop
  000000000000351E: 90                 nop
  000000000000351F: 90                 nop
L$oop_key256:
  0000000000003520: 66 0F 38 00 D5     pshufb      xmm2,xmm5
  0000000000003525: 66 0F 38 DD D4     aesenclast  xmm2,xmm4
  000000000000352A: 66 0F 6F D8        movdqa      xmm3,xmm0
  000000000000352E: 66 0F 73 F8 04     pslldq      xmm0,4
  0000000000003533: 66 0F EF D8        pxor        xmm3,xmm0
  0000000000003537: 66 0F 73 F8 04     pslldq      xmm0,4
  000000000000353C: 66 0F EF D8        pxor        xmm3,xmm0
  0000000000003540: 66 0F 73 F8 04     pslldq      xmm0,4
  0000000000003545: 66 0F EF C3        pxor        xmm0,xmm3
  0000000000003549: 66 0F 72 F4 01     pslld       xmm4,1
  000000000000354E: 66 0F EF C2        pxor        xmm0,xmm2
  0000000000003552: F3 0F 7F 00        movdqu      xmmword ptr [rax],xmm0
  0000000000003556: 41 FF CA           dec         r10d
  0000000000003559: 0F 84 43 00 00 00  je          L$done_key256
  000000000000355F: 66 0F 70 D0 FF     pshufd      xmm2,xmm0,0FFh
  0000000000003564: 66 0F EF DB        pxor        xmm3,xmm3
  0000000000003568: 66 0F 38 DD D3     aesenclast  xmm2,xmm3
  000000000000356D: 66 0F 6F D9        movdqa      xmm3,xmm1
  0000000000003571: 66 0F 73 F9 04     pslldq      xmm1,4
  0000000000003576: 66 0F EF D9        pxor        xmm3,xmm1
  000000000000357A: 66 0F 73 F9 04     pslldq      xmm1,4
  000000000000357F: 66 0F EF D9        pxor        xmm3,xmm1
  0000000000003583: 66 0F 73 F9 04     pslldq      xmm1,4
  0000000000003588: 66 0F EF CB        pxor        xmm1,xmm3
  000000000000358C: 66 0F EF D1        pxor        xmm2,xmm1
  0000000000003590: F3 0F 7F 50 10     movdqu      xmmword ptr [rax+10h],xmm2
  0000000000003595: 48 8D 40 20        lea         rax,[rax+20h]
  0000000000003599: 66 0F 6F CA        movdqa      xmm1,xmm2
  000000000000359D: E9 7E FF FF FF     jmp         L$oop_key256
L$done_key256:
  00000000000035A2: 89 50 10           mov         dword ptr [rax+10h],edx
  00000000000035A5: 31 C0              xor         eax,eax
  00000000000035A7: E9 0B 00 00 00     jmp         L$enc_key_ret
  00000000000035AC: 90                 nop
  00000000000035AD: 90                 nop
  00000000000035AE: 90                 nop
  00000000000035AF: 90                 nop
L$bad_keybits:
  00000000000035B0: 48 C7 C0 FE FF FF  mov         rax,0FFFFFFFFFFFFFFFEh
                    FF
L$enc_key_ret:
  00000000000035B7: 66 0F EF C0        pxor        xmm0,xmm0
  00000000000035BB: 66 0F EF C9        pxor        xmm1,xmm1
  00000000000035BF: 66 0F EF D2        pxor        xmm2,xmm2
  00000000000035C3: 66 0F EF DB        pxor        xmm3,xmm3
  00000000000035C7: 66 0F EF E4        pxor        xmm4,xmm4
  00000000000035CB: 66 0F EF ED        pxor        xmm5,xmm5
  00000000000035CF: 48 83 C4 08        add         rsp,8
  00000000000035D3: F3 C3              rep ret
L$SEH_end_set_encrypt_key:
  00000000000035D5: 90                 nop
  00000000000035D6: 90                 nop
  00000000000035D7: 90                 nop
  00000000000035D8: 90                 nop
  00000000000035D9: 90                 nop
  00000000000035DA: 90                 nop
  00000000000035DB: 90                 nop
  00000000000035DC: 90                 nop
  00000000000035DD: 90                 nop
  00000000000035DE: 90                 nop
  00000000000035DF: 90                 nop
L$key_expansion_128:
  00000000000035E0: 0F 11 00           movups      xmmword ptr [rax],xmm0
  00000000000035E3: 48 8D 40 10        lea         rax,[rax+10h]
L$key_expansion_128_cold:
  00000000000035E7: 0F C6 E0 10        shufps      xmm4,xmm0,10h
  00000000000035EB: 0F 57 C4           xorps       xmm0,xmm4
  00000000000035EE: 0F C6 E0 8C        shufps      xmm4,xmm0,8Ch
  00000000000035F2: 0F 57 C4           xorps       xmm0,xmm4
  00000000000035F5: 0F C6 C9 FF        shufps      xmm1,xmm1,0FFh
  00000000000035F9: 0F 57 C1           xorps       xmm0,xmm1
  00000000000035FC: F3 C3              rep ret
  00000000000035FE: 90                 nop
  00000000000035FF: 90                 nop
L$key_expansion_192a:
  0000000000003600: 0F 11 00           movups      xmmword ptr [rax],xmm0
  0000000000003603: 48 8D 40 10        lea         rax,[rax+10h]
L$key_expansion_192a_cold:
  0000000000003607: 0F 28 EA           movaps      xmm5,xmm2
L$key_expansion_192b_warm:
  000000000000360A: 0F C6 E0 10        shufps      xmm4,xmm0,10h
  000000000000360E: 66 0F 6F DA        movdqa      xmm3,xmm2
  0000000000003612: 0F 57 C4           xorps       xmm0,xmm4
  0000000000003615: 0F C6 E0 8C        shufps      xmm4,xmm0,8Ch
  0000000000003619: 66 0F 73 FB 04     pslldq      xmm3,4
  000000000000361E: 0F 57 C4           xorps       xmm0,xmm4
  0000000000003621: 66 0F 70 C9 55     pshufd      xmm1,xmm1,55h
  0000000000003626: 66 0F EF D3        pxor        xmm2,xmm3
  000000000000362A: 66 0F EF C1        pxor        xmm0,xmm1
  000000000000362E: 66 0F 70 D8 FF     pshufd      xmm3,xmm0,0FFh
  0000000000003633: 66 0F EF D3        pxor        xmm2,xmm3
  0000000000003637: F3 C3              rep ret
  0000000000003639: 90                 nop
  000000000000363A: 90                 nop
  000000000000363B: 90                 nop
  000000000000363C: 90                 nop
  000000000000363D: 90                 nop
  000000000000363E: 90                 nop
  000000000000363F: 90                 nop
L$key_expansion_192b:
  0000000000003640: 0F 28 D8           movaps      xmm3,xmm0
  0000000000003643: 0F C6 E8 44        shufps      xmm5,xmm0,44h
  0000000000003647: 0F 11 28           movups      xmmword ptr [rax],xmm5
  000000000000364A: 0F C6 DA 4E        shufps      xmm3,xmm2,4Eh
  000000000000364E: 0F 11 58 10        movups      xmmword ptr [rax+10h],xmm3
  0000000000003652: 48 8D 40 20        lea         rax,[rax+20h]
  0000000000003656: E9 AF FF FF FF     jmp         L$key_expansion_192b_warm
  000000000000365B: 90                 nop
  000000000000365C: 90                 nop
  000000000000365D: 90                 nop
  000000000000365E: 90                 nop
  000000000000365F: 90                 nop
L$key_expansion_256a:
  0000000000003660: 0F 11 10           movups      xmmword ptr [rax],xmm2
  0000000000003663: 48 8D 40 10        lea         rax,[rax+10h]
L$key_expansion_256a_cold:
  0000000000003667: 0F C6 E0 10        shufps      xmm4,xmm0,10h
  000000000000366B: 0F 57 C4           xorps       xmm0,xmm4
  000000000000366E: 0F C6 E0 8C        shufps      xmm4,xmm0,8Ch
  0000000000003672: 0F 57 C4           xorps       xmm0,xmm4
  0000000000003675: 0F C6 C9 FF        shufps      xmm1,xmm1,0FFh
  0000000000003679: 0F 57 C1           xorps       xmm0,xmm1
  000000000000367C: F3 C3              rep ret
  000000000000367E: 90                 nop
  000000000000367F: 90                 nop
L$key_expansion_256b:
  0000000000003680: 0F 11 00           movups      xmmword ptr [rax],xmm0
  0000000000003683: 48 8D 40 10        lea         rax,[rax+10h]
  0000000000003687: 0F C6 E2 10        shufps      xmm4,xmm2,10h
  000000000000368B: 0F 57 D4           xorps       xmm2,xmm4
  000000000000368E: 0F C6 E2 8C        shufps      xmm4,xmm2,8Ch
  0000000000003692: 0F 57 D4           xorps       xmm2,xmm4
  0000000000003695: 0F C6 C9 AA        shufps      xmm1,xmm1,0AAh
  0000000000003699: 0F 57 D1           xorps       xmm2,xmm1
  000000000000369C: F3 C3              rep ret
  000000000000369E: 90                 nop
  000000000000369F: 90                 nop
ecb_ccm64_se_handler:
  00000000000036A0: 56                 push        rsi
  00000000000036A1: 57                 push        rdi
  00000000000036A2: 53                 push        rbx
  00000000000036A3: 55                 push        rbp
  00000000000036A4: 41 54              push        r12
  00000000000036A6: 41 55              push        r13
  00000000000036A8: 41 56              push        r14
  00000000000036AA: 41 57              push        r15
  00000000000036AC: 9C                 pushfq
  00000000000036AD: 48 83 EC 40        sub         rsp,40h
  00000000000036B1: 49 8B 40 78        mov         rax,qword ptr [r8+78h]
  00000000000036B5: 49 8B 98 F8 00 00  mov         rbx,qword ptr [r8+0F8h]
                    00
  00000000000036BC: 49 8B 71 08        mov         rsi,qword ptr [r9+8]
  00000000000036C0: 4D 8B 59 38        mov         r11,qword ptr [r9+38h]
  00000000000036C4: 45 8B 13           mov         r10d,dword ptr [r11]
  00000000000036C7: 4E 8D 14 16        lea         r10,[rsi+r10]
  00000000000036CB: 4C 39 D3           cmp         rbx,r10
  00000000000036CE: 0F 82 3C 01 00 00  jb          L$common_seh_tail
  00000000000036D4: 49 8B 80 98 00 00  mov         rax,qword ptr [r8+98h]
                    00
  00000000000036DB: 45 8B 53 04        mov         r10d,dword ptr [r11+4]
  00000000000036DF: 4E 8D 14 16        lea         r10,[rsi+r10]
  00000000000036E3: 4C 39 D3           cmp         rbx,r10
  00000000000036E6: 0F 83 24 01 00 00  jae         L$common_seh_tail
  00000000000036EC: 48 8D 30           lea         rsi,[rax]
  00000000000036EF: 49 8D B8 00 02 00  lea         rdi,[r8+200h]
                    00
  00000000000036F6: B9 08 00 00 00     mov         ecx,8
  00000000000036FB: FC                 cld
  00000000000036FC: F3 48 A5           rep movs    qword ptr [rdi],qword ptr [rsi]
  00000000000036FF: 48 8D 40 58        lea         rax,[rax+58h]
  0000000000003703: E9 08 01 00 00     jmp         L$common_seh_tail
  0000000000003708: 90                 nop
  0000000000003709: 90                 nop
  000000000000370A: 90                 nop
  000000000000370B: 90                 nop
  000000000000370C: 90                 nop
  000000000000370D: 90                 nop
  000000000000370E: 90                 nop
  000000000000370F: 90                 nop
ctr_xts_se_handler:
  0000000000003710: 56                 push        rsi
  0000000000003711: 57                 push        rdi
  0000000000003712: 53                 push        rbx
  0000000000003713: 55                 push        rbp
  0000000000003714: 41 54              push        r12
  0000000000003716: 41 55              push        r13
  0000000000003718: 41 56              push        r14
  000000000000371A: 41 57              push        r15
  000000000000371C: 9C                 pushfq
  000000000000371D: 48 83 EC 40        sub         rsp,40h
  0000000000003721: 49 8B 40 78        mov         rax,qword ptr [r8+78h]
  0000000000003725: 49 8B 98 F8 00 00  mov         rbx,qword ptr [r8+0F8h]
                    00
  000000000000372C: 49 8B 71 08        mov         rsi,qword ptr [r9+8]
  0000000000003730: 4D 8B 59 38        mov         r11,qword ptr [r9+38h]
  0000000000003734: 45 8B 13           mov         r10d,dword ptr [r11]
  0000000000003737: 4E 8D 14 16        lea         r10,[rsi+r10]
  000000000000373B: 4C 39 D3           cmp         rbx,r10
  000000000000373E: 0F 82 CC 00 00 00  jb          L$common_seh_tail
  0000000000003744: 49 8B 80 98 00 00  mov         rax,qword ptr [r8+98h]
                    00
  000000000000374B: 45 8B 53 04        mov         r10d,dword ptr [r11+4]
  000000000000374F: 4E 8D 14 16        lea         r10,[rsi+r10]
  0000000000003753: 4C 39 D3           cmp         rbx,r10
  0000000000003756: 0F 83 B4 00 00 00  jae         L$common_seh_tail
  000000000000375C: 49 8B 80 D0 00 00  mov         rax,qword ptr [r8+0D0h]
                    00
  0000000000003763: 48 8D B0 58 FF FF  lea         rsi,[rax-0A8h]
                    FF
  000000000000376A: 49 8D B8 00 02 00  lea         rdi,[r8+200h]
                    00
  0000000000003771: B9 14 00 00 00     mov         ecx,14h
  0000000000003776: FC                 cld
  0000000000003777: F3 48 A5           rep movs    qword ptr [rdi],qword ptr [rsi]
  000000000000377A: 48 8B 68 F8        mov         rbp,qword ptr [rax-8]
  000000000000377E: 49 89 A8 A0 00 00  mov         qword ptr [r8+0A0h],rbp
                    00
  0000000000003785: E9 86 00 00 00     jmp         L$common_seh_tail
  000000000000378A: 90                 nop
  000000000000378B: 90                 nop
  000000000000378C: 90                 nop
  000000000000378D: 90                 nop
  000000000000378E: 90                 nop
  000000000000378F: 90                 nop
cbc_se_handler:
  0000000000003790: 56                 push        rsi
  0000000000003791: 57                 push        rdi
  0000000000003792: 53                 push        rbx
  0000000000003793: 55                 push        rbp
  0000000000003794: 41 54              push        r12
  0000000000003796: 41 55              push        r13
  0000000000003798: 41 56              push        r14
  000000000000379A: 41 57              push        r15
  000000000000379C: 9C                 pushfq
  000000000000379D: 48 83 EC 40        sub         rsp,40h
  00000000000037A1: 49 8B 80 98 00 00  mov         rax,qword ptr [r8+98h]
                    00
  00000000000037A8: 49 8B 98 F8 00 00  mov         rbx,qword ptr [r8+0F8h]
                    00
  00000000000037AF: 4C 8D 15 BA F0 FF  lea         r10,[L$cbc_decrypt_bulk]
                    FF
  00000000000037B6: 4C 39 D3           cmp         rbx,r10
  00000000000037B9: 0F 82 51 00 00 00  jb          L$common_seh_tail
  00000000000037BF: 49 8B 40 78        mov         rax,qword ptr [r8+78h]
  00000000000037C3: 4C 8D 15 F9 F0 FF  lea         r10,[L$cbc_decrypt_body]
                    FF
  00000000000037CA: 4C 39 D3           cmp         rbx,r10
  00000000000037CD: 0F 82 3D 00 00 00  jb          L$common_seh_tail
  00000000000037D3: 49 8B 80 98 00 00  mov         rax,qword ptr [r8+98h]
                    00
  00000000000037DA: 4C 8D 15 AB F8 FF  lea         r10,[L$cbc_ret]
                    FF
  00000000000037E1: 4C 39 D3           cmp         rbx,r10
  00000000000037E4: 0F 83 26 00 00 00  jae         L$common_seh_tail
  00000000000037EA: 48 8D 70 10        lea         rsi,[rax+10h]
  00000000000037EE: 49 8D B8 00 02 00  lea         rdi,[r8+200h]
                    00
  00000000000037F5: B9 14 00 00 00     mov         ecx,14h
  00000000000037FA: FC                 cld
  00000000000037FB: F3 48 A5           rep movs    qword ptr [rdi],qword ptr [rsi]
  00000000000037FE: 49 8B 80 D0 00 00  mov         rax,qword ptr [r8+0D0h]
                    00
  0000000000003805: 48 8B 68 F8        mov         rbp,qword ptr [rax-8]
  0000000000003809: 49 89 A8 A0 00 00  mov         qword ptr [r8+0A0h],rbp
                    00
L$common_seh_tail:
  0000000000003810: 48 8B 78 08        mov         rdi,qword ptr [rax+8]
  0000000000003814: 48 8B 70 10        mov         rsi,qword ptr [rax+10h]
  0000000000003818: 49 89 80 98 00 00  mov         qword ptr [r8+98h],rax
                    00
  000000000000381F: 49 89 B0 A8 00 00  mov         qword ptr [r8+0A8h],rsi
                    00
  0000000000003826: 49 89 B8 B0 00 00  mov         qword ptr [r8+0B0h],rdi
                    00
  000000000000382D: 49 8B 79 28        mov         rdi,qword ptr [r9+28h]
  0000000000003831: 4C 89 C6           mov         rsi,r8
  0000000000003834: B9 9A 00 00 00     mov         ecx,9Ah
  0000000000003839: FC                 cld
  000000000000383A: F3 48 A5           rep movs    qword ptr [rdi],qword ptr [rsi]
  000000000000383D: 4C 89 CE           mov         rsi,r9
  0000000000003840: 48 31 C9           xor         rcx,rcx
  0000000000003843: 48 8B 56 08        mov         rdx,qword ptr [rsi+8]
  0000000000003847: 4C 8B 06           mov         r8,qword ptr [rsi]
  000000000000384A: 4C 8B 4E 10        mov         r9,qword ptr [rsi+10h]
  000000000000384E: 4C 8B 56 28        mov         r10,qword ptr [rsi+28h]
  0000000000003852: 4C 8D 5E 38        lea         r11,[rsi+38h]
  0000000000003856: 4C 8D 66 18        lea         r12,[rsi+18h]
  000000000000385A: 4C 89 54 24 20     mov         qword ptr [rsp+20h],r10
  000000000000385F: 4C 89 5C 24 28     mov         qword ptr [rsp+28h],r11
  0000000000003864: 4C 89 64 24 30     mov         qword ptr [rsp+30h],r12
  0000000000003869: 48 89 4C 24 38     mov         qword ptr [rsp+38h],rcx
  000000000000386E: FF 15 00 00 00 00  call        qword ptr [__imp_RtlVirtualUnwind]
  0000000000003874: B8 01 00 00 00     mov         eax,1
  0000000000003879: 48 83 C4 40        add         rsp,40h
  000000000000387D: 9D                 popfq
  000000000000387E: 41 5F              pop         r15
  0000000000003880: 41 5E              pop         r14
  0000000000003882: 41 5D              pop         r13
  0000000000003884: 41 5C              pop         r12
  0000000000003886: 5D                 pop         rbp
  0000000000003887: 5B                 pop         rbx
  0000000000003888: 5F                 pop         rdi
  0000000000003889: 5E                 pop         rsi
  000000000000388A: F3 C3              rep ret

  Summary

          1C .debug$T
          3C .pdata
         100 .rdata
        388C .text
          30 .xdata
