Microsoft (R) COFF/PE Dumper Version 14.40.33813.0
Copyright (C) Microsoft Corporation.  All rights reserved.


Dump of file aesni-sha256-x86_64.obj

File Type: COFF OBJECT

aws_lc_0_21_0_aesni_cbc_sha256_enc:
  0000000000000000: 4C 8D 1D 00 00 00  lea         r11,[aws_lc_0_21_0_OPENSSL_ia32cap_P]
                    00
  0000000000000007: B8 01 00 00 00     mov         eax,1
  000000000000000C: 48 83 F9 00        cmp         rcx,0
  0000000000000010: 0F 84 57 00 00 00  je          L$probe
  0000000000000016: 41 8B 03           mov         eax,dword ptr [r11]
  0000000000000019: 4D 8B 53 04        mov         r10,qword ptr [r11+4]
  000000000000001D: 49 0F BA E2 3D     bt          r10,3Dh
  0000000000000022: 0F 82 D8 3E 00 00  jb          aesni_cbc_sha256_enc_shaext
  0000000000000028: 4D 89 D3           mov         r11,r10
  000000000000002B: 49 C1 EB 20        shr         r11,20h
  000000000000002F: 41 F7 C2 00 08 00  test        r10d,800h
                    00
  0000000000000036: 0F 85 44 00 00 00  jne         aesni_cbc_sha256_enc_xop
  000000000000003C: 41 81 E3 28 01 00  and         r11d,128h
                    00
  0000000000000043: 41 81 FB 28 01 00  cmp         r11d,128h
                    00
  000000000000004A: 0F 84 70 23 00 00  je          aesni_cbc_sha256_enc_avx2
  0000000000000050: 41 81 E2 00 00 00  and         r10d,10000000h
                    10
  0000000000000057: 0F 85 23 11 00 00  jne         aesni_cbc_sha256_enc_avx
  000000000000005D: 0F 0B              ud2
  000000000000005F: 31 C0              xor         eax,eax
  0000000000000061: 48 83 F9 00        cmp         rcx,0
  0000000000000065: 0F 84 02 00 00 00  je          L$probe
  000000000000006B: 0F 0B              ud2
L$probe:
  000000000000006D: F3 C3              rep ret
  000000000000006F: 90                 nop
  0000000000000070: 90                 nop
  0000000000000071: 90                 nop
  0000000000000072: 90                 nop
  0000000000000073: 90                 nop
  0000000000000074: 90                 nop
  0000000000000075: 90                 nop
  0000000000000076: 90                 nop
  0000000000000077: 90                 nop
  0000000000000078: 90                 nop
  0000000000000079: 90                 nop
  000000000000007A: 90                 nop
  000000000000007B: 90                 nop
  000000000000007C: 90                 nop
  000000000000007D: 90                 nop
  000000000000007E: 90                 nop
  000000000000007F: 90                 nop
aesni_cbc_sha256_enc_xop:
  0000000000000080: 48 89 7C 24 08     mov         qword ptr [rsp+8],rdi
  0000000000000085: 48 89 74 24 10     mov         qword ptr [rsp+10h],rsi
  000000000000008A: 48 89 E0           mov         rax,rsp
L$SEH_begin_aesni_cbc_sha256_enc_xop:
  000000000000008D: 48 89 CF           mov         rdi,rcx
  0000000000000090: 48 89 D6           mov         rsi,rdx
  0000000000000093: 4C 89 C2           mov         rdx,r8
  0000000000000096: 4C 89 C9           mov         rcx,r9
  0000000000000099: 4C 8B 44 24 28     mov         r8,qword ptr [rsp+28h]
  000000000000009E: 4C 8B 4C 24 30     mov         r9,qword ptr [rsp+30h]
L$xop_shortcut:
  00000000000000A3: 4C 8B 54 24 38     mov         r10,qword ptr [rsp+38h]
  00000000000000A8: 48 89 E0           mov         rax,rsp
  00000000000000AB: 53                 push        rbx
  00000000000000AC: 55                 push        rbp
  00000000000000AD: 41 54              push        r12
  00000000000000AF: 41 55              push        r13
  00000000000000B1: 41 56              push        r14
  00000000000000B3: 41 57              push        r15
  00000000000000B5: 48 81 EC 20 01 00  sub         rsp,120h
                    00
  00000000000000BC: 48 83 E4 C0        and         rsp,0FFFFFFFFFFFFFFC0h
  00000000000000C0: 48 C1 E2 06        shl         rdx,6
  00000000000000C4: 48 29 FE           sub         rsi,rdi
  00000000000000C7: 49 29 FA           sub         r10,rdi
  00000000000000CA: 48 01 FA           add         rdx,rdi
  00000000000000CD: 48 89 74 24 48     mov         qword ptr [rsp+48h],rsi
  00000000000000D2: 48 89 54 24 50     mov         qword ptr [rsp+50h],rdx
  00000000000000D7: 4C 89 44 24 60     mov         qword ptr [rsp+60h],r8
  00000000000000DC: 4C 89 4C 24 68     mov         qword ptr [rsp+68h],r9
  00000000000000E1: 4C 89 54 24 70     mov         qword ptr [rsp+70h],r10
  00000000000000E6: 48 89 44 24 78     mov         qword ptr [rsp+78h],rax
  00000000000000EB: 0F 29 B4 24 80 00  movaps      xmmword ptr [rsp+80h],xmm6
                    00 00
  00000000000000F3: 0F 29 BC 24 90 00  movaps      xmmword ptr [rsp+90h],xmm7
                    00 00
  00000000000000FB: 44 0F 29 84 24 A0  movaps      xmmword ptr [rsp+0A0h],xmm8
                    00 00 00
  0000000000000104: 44 0F 29 8C 24 B0  movaps      xmmword ptr [rsp+0B0h],xmm9
                    00 00 00
  000000000000010D: 44 0F 29 94 24 C0  movaps      xmmword ptr [rsp+0C0h],xmm10
                    00 00 00
  0000000000000116: 44 0F 29 9C 24 D0  movaps      xmmword ptr [rsp+0D0h],xmm11
                    00 00 00
  000000000000011F: 44 0F 29 A4 24 E0  movaps      xmmword ptr [rsp+0E0h],xmm12
                    00 00 00
  0000000000000128: 44 0F 29 AC 24 F0  movaps      xmmword ptr [rsp+0F0h],xmm13
                    00 00 00
  0000000000000131: 44 0F 29 B4 24 00  movaps      xmmword ptr [rsp+100h],xmm14
                    01 00 00
  000000000000013A: 44 0F 29 BC 24 10  movaps      xmmword ptr [rsp+110h],xmm15
                    01 00 00
L$prologue_xop:
  0000000000000143: C5 FC 77           vzeroall
  0000000000000146: 49 89 FC           mov         r12,rdi
  0000000000000149: 48 8D B9 80 00 00  lea         rdi,[rcx+80h]
                    00
  0000000000000150: 4C 8D 2D 20 02 00  lea         r13,[.rdata+220h]
                    00
  0000000000000157: 44 8B 77 70        mov         r14d,dword ptr [rdi+70h]
  000000000000015B: 4D 89 CF           mov         r15,r9
  000000000000015E: 4C 89 D6           mov         rsi,r10
  0000000000000161: C4 41 7A 6F 00     vmovdqu     xmm8,xmmword ptr [r8]
  0000000000000166: 49 83 EE 09        sub         r14,9
  000000000000016A: 41 8B 07           mov         eax,dword ptr [r15]
  000000000000016D: 41 8B 5F 04        mov         ebx,dword ptr [r15+4]
  0000000000000171: 41 8B 4F 08        mov         ecx,dword ptr [r15+8]
  0000000000000175: 41 8B 57 0C        mov         edx,dword ptr [r15+0Ch]
  0000000000000179: 45 8B 47 10        mov         r8d,dword ptr [r15+10h]
  000000000000017D: 45 8B 4F 14        mov         r9d,dword ptr [r15+14h]
  0000000000000181: 45 8B 57 18        mov         r10d,dword ptr [r15+18h]
  0000000000000185: 45 8B 5F 1C        mov         r11d,dword ptr [r15+1Ch]
  0000000000000189: C4 01 79 6F 74 F5  vmovdqa     xmm14,xmmword ptr [r13+r14*8]
                    00
  0000000000000190: C4 01 79 6F 6C F5  vmovdqa     xmm13,xmmword ptr [r13+r14*8+10h]
                    10
  0000000000000197: C4 01 79 6F 64 F5  vmovdqa     xmm12,xmmword ptr [r13+r14*8+20h]
                    20
  000000000000019E: C5 7A 6F 57 80     vmovdqu     xmm10,xmmword ptr [rdi-80h]
  00000000000001A3: E9 08 00 00 00     jmp         L$loop_xop
  00000000000001A8: 90                 nop
  00000000000001A9: 90                 nop
  00000000000001AA: 90                 nop
  00000000000001AB: 90                 nop
  00000000000001AC: 90                 nop
  00000000000001AD: 90                 nop
  00000000000001AE: 90                 nop
  00000000000001AF: 90                 nop
L$loop_xop:
  00000000000001B0: C5 F9 6F 3D 00 02  vmovdqa     xmm7,xmmword ptr [.rdata+200h]
                    00 00
  00000000000001B8: C4 A1 7A 6F 04 26  vmovdqu     xmm0,xmmword ptr [rsi+r12]
  00000000000001BE: C4 A1 7A 6F 4C 26  vmovdqu     xmm1,xmmword ptr [rsi+r12+10h]
                    10
  00000000000001C5: C4 A1 7A 6F 54 26  vmovdqu     xmm2,xmmword ptr [rsi+r12+20h]
                    20
  00000000000001CC: C4 A1 7A 6F 5C 26  vmovdqu     xmm3,xmmword ptr [rsi+r12+30h]
                    30
  00000000000001D3: C4 E2 79 00 C7     vpshufb     xmm0,xmm0,xmm7
  00000000000001D8: 48 8D 2D 00 00 00  lea         rbp,[.rdata]
                    00
  00000000000001DF: C4 E2 71 00 CF     vpshufb     xmm1,xmm1,xmm7
  00000000000001E4: C4 E2 69 00 D7     vpshufb     xmm2,xmm2,xmm7
  00000000000001E9: C5 F9 FE 65 00     vpaddd      xmm4,xmm0,xmmword ptr [rbp]
  00000000000001EE: C4 E2 61 00 DF     vpshufb     xmm3,xmm3,xmm7
  00000000000001F3: C5 F1 FE 6D 20     vpaddd      xmm5,xmm1,xmmword ptr [rbp+20h]
  00000000000001F8: C5 E9 FE 75 40     vpaddd      xmm6,xmm2,xmmword ptr [rbp+40h]
  00000000000001FD: C5 E1 FE 7D 60     vpaddd      xmm7,xmm3,xmmword ptr [rbp+60h]
  0000000000000202: C5 F9 7F 24 24     vmovdqa     xmmword ptr [rsp],xmm4
  0000000000000207: 41 89 C6           mov         r14d,eax
  000000000000020A: C5 F9 7F 6C 24 10  vmovdqa     xmmword ptr [rsp+10h],xmm5
  0000000000000210: 89 DE              mov         esi,ebx
  0000000000000212: C5 F9 7F 74 24 20  vmovdqa     xmmword ptr [rsp+20h],xmm6
  0000000000000218: 31 CE              xor         esi,ecx
  000000000000021A: C5 F9 7F 7C 24 30  vmovdqa     xmmword ptr [rsp+30h],xmm7
  0000000000000220: 45 89 C5           mov         r13d,r8d
  0000000000000223: E9 08 00 00 00     jmp         L$xop_00_47
  0000000000000228: 90                 nop
  0000000000000229: 90                 nop
  000000000000022A: 90                 nop
  000000000000022B: 90                 nop
  000000000000022C: 90                 nop
  000000000000022D: 90                 nop
  000000000000022E: 90                 nop
  000000000000022F: 90                 nop
L$xop_00_47:
  0000000000000230: 48 83 ED 80        sub         rbp,0FFFFFFFFFFFFFF80h
  0000000000000234: C4 41 7A 6F 0C 24  vmovdqu     xmm9,xmmword ptr [r12]
  000000000000023A: 4C 89 64 24 40     mov         qword ptr [rsp+40h],r12
  000000000000023F: C4 E3 71 0F E0 04  vpalignr    xmm4,xmm1,xmm0,4
  0000000000000245: 41 C1 CD 0E        ror         r13d,0Eh
  0000000000000249: 44 89 F0           mov         eax,r14d
  000000000000024C: C4 E3 61 0F FA 04  vpalignr    xmm7,xmm3,xmm2,4
  0000000000000252: 45 89 CC           mov         r12d,r9d
  0000000000000255: 45 31 C5           xor         r13d,r8d
  0000000000000258: 8F E8 78 C2 EC 0E  vprotd      xmm5,xmm4,0Eh
  000000000000025E: 41 C1 CE 09        ror         r14d,9
  0000000000000262: 45 31 D4           xor         r12d,r10d
  0000000000000265: C5 D9 72 D4 03     vpsrld      xmm4,xmm4,3
  000000000000026A: 41 C1 CD 05        ror         r13d,5
  000000000000026E: 41 31 C6           xor         r14d,eax
  0000000000000271: C5 F9 FE C7        vpaddd      xmm0,xmm0,xmm7
  0000000000000275: 45 21 C4           and         r12d,r8d
  0000000000000278: C4 41 31 EF CA     vpxor       xmm9,xmm9,xmm10
  000000000000027D: C5 7A 6F 57 90     vmovdqu     xmm10,xmmword ptr [rdi-70h]
  0000000000000282: 45 31 C5           xor         r13d,r8d
  0000000000000285: 44 03 1C 24        add         r11d,dword ptr [rsp]
  0000000000000289: 41 89 C7           mov         r15d,eax
  000000000000028C: 8F E8 78 C2 F5 0B  vprotd      xmm6,xmm5,0Bh
  0000000000000292: 41 C1 CE 0B        ror         r14d,0Bh
  0000000000000296: 45 31 D4           xor         r12d,r10d
  0000000000000299: C5 D9 EF E5        vpxor       xmm4,xmm4,xmm5
  000000000000029D: 41 31 DF           xor         r15d,ebx
  00000000000002A0: 41 C1 CD 06        ror         r13d,6
  00000000000002A4: 45 01 E3           add         r11d,r12d
  00000000000002A7: 44 21 FE           and         esi,r15d
  00000000000002AA: 8F E8 78 C2 FB 0D  vprotd      xmm7,xmm3,0Dh
  00000000000002B0: 41 31 C6           xor         r14d,eax
  00000000000002B3: 45 01 EB           add         r11d,r13d
  00000000000002B6: C5 D9 EF E6        vpxor       xmm4,xmm4,xmm6
  00000000000002BA: 31 DE              xor         esi,ebx
  00000000000002BC: 44 01 DA           add         edx,r11d
  00000000000002BF: C5 C9 72 D3 0A     vpsrld      xmm6,xmm3,0Ah
  00000000000002C4: 41 C1 CE 02        ror         r14d,2
  00000000000002C8: 41 01 F3           add         r11d,esi
  00000000000002CB: C5 F9 FE C4        vpaddd      xmm0,xmm0,xmm4
  00000000000002CF: 41 89 D5           mov         r13d,edx
  00000000000002D2: 45 01 DE           add         r14d,r11d
  00000000000002D5: 8F E8 78 C2 EF 02  vprotd      xmm5,xmm7,2
  00000000000002DB: 41 C1 CD 0E        ror         r13d,0Eh
  00000000000002DF: 45 89 F3           mov         r11d,r14d
  00000000000002E2: C5 C1 EF FE        vpxor       xmm7,xmm7,xmm6
  00000000000002E6: 45 89 C4           mov         r12d,r8d
  00000000000002E9: 41 31 D5           xor         r13d,edx
  00000000000002EC: 41 C1 CE 09        ror         r14d,9
  00000000000002F0: 45 31 CC           xor         r12d,r9d
  00000000000002F3: C5 C1 EF FD        vpxor       xmm7,xmm7,xmm5
  00000000000002F7: 41 C1 CD 05        ror         r13d,5
  00000000000002FB: 45 31 DE           xor         r14d,r11d
  00000000000002FE: 41 21 D4           and         r12d,edx
  0000000000000301: C4 41 31 EF C8     vpxor       xmm9,xmm9,xmm8
  0000000000000306: 41 31 D5           xor         r13d,edx
  0000000000000309: C5 C1 73 DF 08     vpsrldq     xmm7,xmm7,8
  000000000000030E: 44 03 54 24 04     add         r10d,dword ptr [rsp+4]
  0000000000000313: 44 89 DE           mov         esi,r11d
  0000000000000316: 41 C1 CE 0B        ror         r14d,0Bh
  000000000000031A: 45 31 CC           xor         r12d,r9d
  000000000000031D: C5 F9 FE C7        vpaddd      xmm0,xmm0,xmm7
  0000000000000321: 31 C6              xor         esi,eax
  0000000000000323: 41 C1 CD 06        ror         r13d,6
  0000000000000327: 45 01 E2           add         r10d,r12d
  000000000000032A: 41 21 F7           and         r15d,esi
  000000000000032D: 8F E8 78 C2 F8 0D  vprotd      xmm7,xmm0,0Dh
  0000000000000333: 45 31 DE           xor         r14d,r11d
  0000000000000336: 45 01 EA           add         r10d,r13d
  0000000000000339: C5 C9 72 D0 0A     vpsrld      xmm6,xmm0,0Ah
  000000000000033E: 41 31 C7           xor         r15d,eax
  0000000000000341: 44 01 D1           add         ecx,r10d
  0000000000000344: 8F E8 78 C2 EF 02  vprotd      xmm5,xmm7,2
  000000000000034A: 41 C1 CE 02        ror         r14d,2
  000000000000034E: 45 01 FA           add         r10d,r15d
  0000000000000351: C5 C1 EF FE        vpxor       xmm7,xmm7,xmm6
  0000000000000355: 41 89 CD           mov         r13d,ecx
  0000000000000358: 45 01 D6           add         r14d,r10d
  000000000000035B: 41 C1 CD 0E        ror         r13d,0Eh
  000000000000035F: 45 89 F2           mov         r10d,r14d
  0000000000000362: C5 C1 EF FD        vpxor       xmm7,xmm7,xmm5
  0000000000000366: 41 89 D4           mov         r12d,edx
  0000000000000369: 41 31 CD           xor         r13d,ecx
  000000000000036C: 41 C1 CE 09        ror         r14d,9
  0000000000000370: 45 31 C4           xor         r12d,r8d
  0000000000000373: C5 C1 73 FF 08     vpslldq     xmm7,xmm7,8
  0000000000000378: 41 C1 CD 05        ror         r13d,5
  000000000000037C: 45 31 D6           xor         r14d,r10d
  000000000000037F: 41 21 CC           and         r12d,ecx
  0000000000000382: C4 42 31 DC CA     vaesenc     xmm9,xmm9,xmm10
  0000000000000387: C5 7A 6F 57 A0     vmovdqu     xmm10,xmmword ptr [rdi-60h]
  000000000000038C: 41 31 CD           xor         r13d,ecx
  000000000000038F: C5 F9 FE C7        vpaddd      xmm0,xmm0,xmm7
  0000000000000393: 44 03 4C 24 08     add         r9d,dword ptr [rsp+8]
  0000000000000398: 45 89 D7           mov         r15d,r10d
  000000000000039B: 41 C1 CE 0B        ror         r14d,0Bh
  000000000000039F: 45 31 C4           xor         r12d,r8d
  00000000000003A2: C5 F9 FE 75 00     vpaddd      xmm6,xmm0,xmmword ptr [rbp]
  00000000000003A7: 45 31 DF           xor         r15d,r11d
  00000000000003AA: 41 C1 CD 06        ror         r13d,6
  00000000000003AE: 45 01 E1           add         r9d,r12d
  00000000000003B1: 44 21 FE           and         esi,r15d
  00000000000003B4: 45 31 D6           xor         r14d,r10d
  00000000000003B7: 45 01 E9           add         r9d,r13d
  00000000000003BA: 44 31 DE           xor         esi,r11d
  00000000000003BD: 44 01 CB           add         ebx,r9d
  00000000000003C0: 41 C1 CE 02        ror         r14d,2
  00000000000003C4: 41 01 F1           add         r9d,esi
  00000000000003C7: 41 89 DD           mov         r13d,ebx
  00000000000003CA: 45 01 CE           add         r14d,r9d
  00000000000003CD: 41 C1 CD 0E        ror         r13d,0Eh
  00000000000003D1: 45 89 F1           mov         r9d,r14d
  00000000000003D4: 41 89 CC           mov         r12d,ecx
  00000000000003D7: 41 31 DD           xor         r13d,ebx
  00000000000003DA: 41 C1 CE 09        ror         r14d,9
  00000000000003DE: 41 31 D4           xor         r12d,edx
  00000000000003E1: 41 C1 CD 05        ror         r13d,5
  00000000000003E5: 45 31 CE           xor         r14d,r9d
  00000000000003E8: 41 21 DC           and         r12d,ebx
  00000000000003EB: C4 42 31 DC CA     vaesenc     xmm9,xmm9,xmm10
  00000000000003F0: C5 7A 6F 57 B0     vmovdqu     xmm10,xmmword ptr [rdi-50h]
  00000000000003F5: 41 31 DD           xor         r13d,ebx
  00000000000003F8: 44 03 44 24 0C     add         r8d,dword ptr [rsp+0Ch]
  00000000000003FD: 44 89 CE           mov         esi,r9d
  0000000000000400: 41 C1 CE 0B        ror         r14d,0Bh
  0000000000000404: 41 31 D4           xor         r12d,edx
  0000000000000407: 44 31 D6           xor         esi,r10d
  000000000000040A: 41 C1 CD 06        ror         r13d,6
  000000000000040E: 45 01 E0           add         r8d,r12d
  0000000000000411: 41 21 F7           and         r15d,esi
  0000000000000414: 45 31 CE           xor         r14d,r9d
  0000000000000417: 45 01 E8           add         r8d,r13d
  000000000000041A: 45 31 D7           xor         r15d,r10d
  000000000000041D: 44 01 C0           add         eax,r8d
  0000000000000420: 41 C1 CE 02        ror         r14d,2
  0000000000000424: 45 01 F8           add         r8d,r15d
  0000000000000427: 41 89 C5           mov         r13d,eax
  000000000000042A: 45 01 C6           add         r14d,r8d
  000000000000042D: C5 F9 7F 34 24     vmovdqa     xmmword ptr [rsp],xmm6
  0000000000000432: C4 E3 69 0F E1 04  vpalignr    xmm4,xmm2,xmm1,4
  0000000000000438: 41 C1 CD 0E        ror         r13d,0Eh
  000000000000043C: 45 89 F0           mov         r8d,r14d
  000000000000043F: C4 E3 79 0F FB 04  vpalignr    xmm7,xmm0,xmm3,4
  0000000000000445: 41 89 DC           mov         r12d,ebx
  0000000000000448: 41 31 C5           xor         r13d,eax
  000000000000044B: 8F E8 78 C2 EC 0E  vprotd      xmm5,xmm4,0Eh
  0000000000000451: 41 C1 CE 09        ror         r14d,9
  0000000000000455: 41 31 CC           xor         r12d,ecx
  0000000000000458: C5 D9 72 D4 03     vpsrld      xmm4,xmm4,3
  000000000000045D: 41 C1 CD 05        ror         r13d,5
  0000000000000461: 45 31 C6           xor         r14d,r8d
  0000000000000464: C5 F1 FE CF        vpaddd      xmm1,xmm1,xmm7
  0000000000000468: 41 21 C4           and         r12d,eax
  000000000000046B: C4 42 31 DC CA     vaesenc     xmm9,xmm9,xmm10
  0000000000000470: C5 7A 6F 57 C0     vmovdqu     xmm10,xmmword ptr [rdi-40h]
  0000000000000475: 41 31 C5           xor         r13d,eax
  0000000000000478: 03 54 24 10        add         edx,dword ptr [rsp+10h]
  000000000000047C: 45 89 C7           mov         r15d,r8d
  000000000000047F: 8F E8 78 C2 F5 0B  vprotd      xmm6,xmm5,0Bh
  0000000000000485: 41 C1 CE 0B        ror         r14d,0Bh
  0000000000000489: 41 31 CC           xor         r12d,ecx
  000000000000048C: C5 D9 EF E5        vpxor       xmm4,xmm4,xmm5
  0000000000000490: 45 31 CF           xor         r15d,r9d
  0000000000000493: 41 C1 CD 06        ror         r13d,6
  0000000000000497: 44 01 E2           add         edx,r12d
  000000000000049A: 44 21 FE           and         esi,r15d
  000000000000049D: 8F E8 78 C2 F8 0D  vprotd      xmm7,xmm0,0Dh
  00000000000004A3: 45 31 C6           xor         r14d,r8d
  00000000000004A6: 44 01 EA           add         edx,r13d
  00000000000004A9: C5 D9 EF E6        vpxor       xmm4,xmm4,xmm6
  00000000000004AD: 44 31 CE           xor         esi,r9d
  00000000000004B0: 41 01 D3           add         r11d,edx
  00000000000004B3: C5 C9 72 D0 0A     vpsrld      xmm6,xmm0,0Ah
  00000000000004B8: 41 C1 CE 02        ror         r14d,2
  00000000000004BC: 01 F2              add         edx,esi
  00000000000004BE: C5 F1 FE CC        vpaddd      xmm1,xmm1,xmm4
  00000000000004C2: 45 89 DD           mov         r13d,r11d
  00000000000004C5: 41 01 D6           add         r14d,edx
  00000000000004C8: 8F E8 78 C2 EF 02  vprotd      xmm5,xmm7,2
  00000000000004CE: 41 C1 CD 0E        ror         r13d,0Eh
  00000000000004D2: 44 89 F2           mov         edx,r14d
  00000000000004D5: C5 C1 EF FE        vpxor       xmm7,xmm7,xmm6
  00000000000004D9: 41 89 C4           mov         r12d,eax
  00000000000004DC: 45 31 DD           xor         r13d,r11d
  00000000000004DF: 41 C1 CE 09        ror         r14d,9
  00000000000004E3: 41 31 DC           xor         r12d,ebx
  00000000000004E6: C5 C1 EF FD        vpxor       xmm7,xmm7,xmm5
  00000000000004EA: 41 C1 CD 05        ror         r13d,5
  00000000000004EE: 41 31 D6           xor         r14d,edx
  00000000000004F1: 45 21 DC           and         r12d,r11d
  00000000000004F4: C4 42 31 DC CA     vaesenc     xmm9,xmm9,xmm10
  00000000000004F9: C5 7A 6F 57 D0     vmovdqu     xmm10,xmmword ptr [rdi-30h]
  00000000000004FE: 45 31 DD           xor         r13d,r11d
  0000000000000501: C5 C1 73 DF 08     vpsrldq     xmm7,xmm7,8
  0000000000000506: 03 4C 24 14        add         ecx,dword ptr [rsp+14h]
  000000000000050A: 89 D6              mov         esi,edx
  000000000000050C: 41 C1 CE 0B        ror         r14d,0Bh
  0000000000000510: 41 31 DC           xor         r12d,ebx
  0000000000000513: C5 F1 FE CF        vpaddd      xmm1,xmm1,xmm7
  0000000000000517: 44 31 C6           xor         esi,r8d
  000000000000051A: 41 C1 CD 06        ror         r13d,6
  000000000000051E: 44 01 E1           add         ecx,r12d
  0000000000000521: 41 21 F7           and         r15d,esi
  0000000000000524: 8F E8 78 C2 F9 0D  vprotd      xmm7,xmm1,0Dh
  000000000000052A: 41 31 D6           xor         r14d,edx
  000000000000052D: 44 01 E9           add         ecx,r13d
  0000000000000530: C5 C9 72 D1 0A     vpsrld      xmm6,xmm1,0Ah
  0000000000000535: 45 31 C7           xor         r15d,r8d
  0000000000000538: 41 01 CA           add         r10d,ecx
  000000000000053B: 8F E8 78 C2 EF 02  vprotd      xmm5,xmm7,2
  0000000000000541: 41 C1 CE 02        ror         r14d,2
  0000000000000545: 44 01 F9           add         ecx,r15d
  0000000000000548: C5 C1 EF FE        vpxor       xmm7,xmm7,xmm6
  000000000000054C: 45 89 D5           mov         r13d,r10d
  000000000000054F: 41 01 CE           add         r14d,ecx
  0000000000000552: 41 C1 CD 0E        ror         r13d,0Eh
  0000000000000556: 44 89 F1           mov         ecx,r14d
  0000000000000559: C5 C1 EF FD        vpxor       xmm7,xmm7,xmm5
  000000000000055D: 45 89 DC           mov         r12d,r11d
  0000000000000560: 45 31 D5           xor         r13d,r10d
  0000000000000563: 41 C1 CE 09        ror         r14d,9
  0000000000000567: 41 31 C4           xor         r12d,eax
  000000000000056A: C5 C1 73 FF 08     vpslldq     xmm7,xmm7,8
  000000000000056F: 41 C1 CD 05        ror         r13d,5
  0000000000000573: 41 31 CE           xor         r14d,ecx
  0000000000000576: 45 21 D4           and         r12d,r10d
  0000000000000579: C4 42 31 DC CA     vaesenc     xmm9,xmm9,xmm10
  000000000000057E: C5 7A 6F 57 E0     vmovdqu     xmm10,xmmword ptr [rdi-20h]
  0000000000000583: 45 31 D5           xor         r13d,r10d
  0000000000000586: C5 F1 FE CF        vpaddd      xmm1,xmm1,xmm7
  000000000000058A: 03 5C 24 18        add         ebx,dword ptr [rsp+18h]
  000000000000058E: 41 89 CF           mov         r15d,ecx
  0000000000000591: 41 C1 CE 0B        ror         r14d,0Bh
  0000000000000595: 41 31 C4           xor         r12d,eax
  0000000000000598: C5 F1 FE 75 20     vpaddd      xmm6,xmm1,xmmword ptr [rbp+20h]
  000000000000059D: 41 31 D7           xor         r15d,edx
  00000000000005A0: 41 C1 CD 06        ror         r13d,6
  00000000000005A4: 44 01 E3           add         ebx,r12d
  00000000000005A7: 44 21 FE           and         esi,r15d
  00000000000005AA: 41 31 CE           xor         r14d,ecx
  00000000000005AD: 44 01 EB           add         ebx,r13d
  00000000000005B0: 31 D6              xor         esi,edx
  00000000000005B2: 41 01 D9           add         r9d,ebx
  00000000000005B5: 41 C1 CE 02        ror         r14d,2
  00000000000005B9: 01 F3              add         ebx,esi
  00000000000005BB: 45 89 CD           mov         r13d,r9d
  00000000000005BE: 41 01 DE           add         r14d,ebx
  00000000000005C1: 41 C1 CD 0E        ror         r13d,0Eh
  00000000000005C5: 44 89 F3           mov         ebx,r14d
  00000000000005C8: 45 89 D4           mov         r12d,r10d
  00000000000005CB: 45 31 CD           xor         r13d,r9d
  00000000000005CE: 41 C1 CE 09        ror         r14d,9
  00000000000005D2: 45 31 DC           xor         r12d,r11d
  00000000000005D5: 41 C1 CD 05        ror         r13d,5
  00000000000005D9: 41 31 DE           xor         r14d,ebx
  00000000000005DC: 45 21 CC           and         r12d,r9d
  00000000000005DF: C4 42 31 DC CA     vaesenc     xmm9,xmm9,xmm10
  00000000000005E4: C5 7A 6F 57 F0     vmovdqu     xmm10,xmmword ptr [rdi-10h]
  00000000000005E9: 45 31 CD           xor         r13d,r9d
  00000000000005EC: 03 44 24 1C        add         eax,dword ptr [rsp+1Ch]
  00000000000005F0: 89 DE              mov         esi,ebx
  00000000000005F2: 41 C1 CE 0B        ror         r14d,0Bh
  00000000000005F6: 45 31 DC           xor         r12d,r11d
  00000000000005F9: 31 CE              xor         esi,ecx
  00000000000005FB: 41 C1 CD 06        ror         r13d,6
  00000000000005FF: 44 01 E0           add         eax,r12d
  0000000000000602: 41 21 F7           and         r15d,esi
  0000000000000605: 41 31 DE           xor         r14d,ebx
  0000000000000608: 44 01 E8           add         eax,r13d
  000000000000060B: 41 31 CF           xor         r15d,ecx
  000000000000060E: 41 01 C0           add         r8d,eax
  0000000000000611: 41 C1 CE 02        ror         r14d,2
  0000000000000615: 44 01 F8           add         eax,r15d
  0000000000000618: 45 89 C5           mov         r13d,r8d
  000000000000061B: 41 01 C6           add         r14d,eax
  000000000000061E: C5 F9 7F 74 24 10  vmovdqa     xmmword ptr [rsp+10h],xmm6
  0000000000000624: C4 E3 61 0F E2 04  vpalignr    xmm4,xmm3,xmm2,4
  000000000000062A: 41 C1 CD 0E        ror         r13d,0Eh
  000000000000062E: 44 89 F0           mov         eax,r14d
  0000000000000631: C4 E3 71 0F F8 04  vpalignr    xmm7,xmm1,xmm0,4
  0000000000000637: 45 89 CC           mov         r12d,r9d
  000000000000063A: 45 31 C5           xor         r13d,r8d
  000000000000063D: 8F E8 78 C2 EC 0E  vprotd      xmm5,xmm4,0Eh
  0000000000000643: 41 C1 CE 09        ror         r14d,9
  0000000000000647: 45 31 D4           xor         r12d,r10d
  000000000000064A: C5 D9 72 D4 03     vpsrld      xmm4,xmm4,3
  000000000000064F: 41 C1 CD 05        ror         r13d,5
  0000000000000653: 41 31 C6           xor         r14d,eax
  0000000000000656: C5 E9 FE D7        vpaddd      xmm2,xmm2,xmm7
  000000000000065A: 45 21 C4           and         r12d,r8d
  000000000000065D: C4 42 31 DC CA     vaesenc     xmm9,xmm9,xmm10
  0000000000000662: C5 7A 6F 17        vmovdqu     xmm10,xmmword ptr [rdi]
  0000000000000666: 45 31 C5           xor         r13d,r8d
  0000000000000669: 44 03 5C 24 20     add         r11d,dword ptr [rsp+20h]
  000000000000066E: 41 89 C7           mov         r15d,eax
  0000000000000671: 8F E8 78 C2 F5 0B  vprotd      xmm6,xmm5,0Bh
  0000000000000677: 41 C1 CE 0B        ror         r14d,0Bh
  000000000000067B: 45 31 D4           xor         r12d,r10d
  000000000000067E: C5 D9 EF E5        vpxor       xmm4,xmm4,xmm5
  0000000000000682: 41 31 DF           xor         r15d,ebx
  0000000000000685: 41 C1 CD 06        ror         r13d,6
  0000000000000689: 45 01 E3           add         r11d,r12d
  000000000000068C: 44 21 FE           and         esi,r15d
  000000000000068F: 8F E8 78 C2 F9 0D  vprotd      xmm7,xmm1,0Dh
  0000000000000695: 41 31 C6           xor         r14d,eax
  0000000000000698: 45 01 EB           add         r11d,r13d
  000000000000069B: C5 D9 EF E6        vpxor       xmm4,xmm4,xmm6
  000000000000069F: 31 DE              xor         esi,ebx
  00000000000006A1: 44 01 DA           add         edx,r11d
  00000000000006A4: C5 C9 72 D1 0A     vpsrld      xmm6,xmm1,0Ah
  00000000000006A9: 41 C1 CE 02        ror         r14d,2
  00000000000006AD: 41 01 F3           add         r11d,esi
  00000000000006B0: C5 E9 FE D4        vpaddd      xmm2,xmm2,xmm4
  00000000000006B4: 41 89 D5           mov         r13d,edx
  00000000000006B7: 45 01 DE           add         r14d,r11d
  00000000000006BA: 8F E8 78 C2 EF 02  vprotd      xmm5,xmm7,2
  00000000000006C0: 41 C1 CD 0E        ror         r13d,0Eh
  00000000000006C4: 45 89 F3           mov         r11d,r14d
  00000000000006C7: C5 C1 EF FE        vpxor       xmm7,xmm7,xmm6
  00000000000006CB: 45 89 C4           mov         r12d,r8d
  00000000000006CE: 41 31 D5           xor         r13d,edx
  00000000000006D1: 41 C1 CE 09        ror         r14d,9
  00000000000006D5: 45 31 CC           xor         r12d,r9d
  00000000000006D8: C5 C1 EF FD        vpxor       xmm7,xmm7,xmm5
  00000000000006DC: 41 C1 CD 05        ror         r13d,5
  00000000000006E0: 45 31 DE           xor         r14d,r11d
  00000000000006E3: 41 21 D4           and         r12d,edx
  00000000000006E6: C4 42 31 DC CA     vaesenc     xmm9,xmm9,xmm10
  00000000000006EB: C5 7A 6F 57 10     vmovdqu     xmm10,xmmword ptr [rdi+10h]
  00000000000006F0: 41 31 D5           xor         r13d,edx
  00000000000006F3: C5 C1 73 DF 08     vpsrldq     xmm7,xmm7,8
  00000000000006F8: 44 03 54 24 24     add         r10d,dword ptr [rsp+24h]
  00000000000006FD: 44 89 DE           mov         esi,r11d
  0000000000000700: 41 C1 CE 0B        ror         r14d,0Bh
  0000000000000704: 45 31 CC           xor         r12d,r9d
  0000000000000707: C5 E9 FE D7        vpaddd      xmm2,xmm2,xmm7
  000000000000070B: 31 C6              xor         esi,eax
  000000000000070D: 41 C1 CD 06        ror         r13d,6
  0000000000000711: 45 01 E2           add         r10d,r12d
  0000000000000714: 41 21 F7           and         r15d,esi
  0000000000000717: 8F E8 78 C2 FA 0D  vprotd      xmm7,xmm2,0Dh
  000000000000071D: 45 31 DE           xor         r14d,r11d
  0000000000000720: 45 01 EA           add         r10d,r13d
  0000000000000723: C5 C9 72 D2 0A     vpsrld      xmm6,xmm2,0Ah
  0000000000000728: 41 31 C7           xor         r15d,eax
  000000000000072B: 44 01 D1           add         ecx,r10d
  000000000000072E: 8F E8 78 C2 EF 02  vprotd      xmm5,xmm7,2
  0000000000000734: 41 C1 CE 02        ror         r14d,2
  0000000000000738: 45 01 FA           add         r10d,r15d
  000000000000073B: C5 C1 EF FE        vpxor       xmm7,xmm7,xmm6
  000000000000073F: 41 89 CD           mov         r13d,ecx
  0000000000000742: 45 01 D6           add         r14d,r10d
  0000000000000745: 41 C1 CD 0E        ror         r13d,0Eh
  0000000000000749: 45 89 F2           mov         r10d,r14d
  000000000000074C: C5 C1 EF FD        vpxor       xmm7,xmm7,xmm5
  0000000000000750: 41 89 D4           mov         r12d,edx
  0000000000000753: 41 31 CD           xor         r13d,ecx
  0000000000000756: 41 C1 CE 09        ror         r14d,9
  000000000000075A: 45 31 C4           xor         r12d,r8d
  000000000000075D: C5 C1 73 FF 08     vpslldq     xmm7,xmm7,8
  0000000000000762: 41 C1 CD 05        ror         r13d,5
  0000000000000766: 45 31 D6           xor         r14d,r10d
  0000000000000769: 41 21 CC           and         r12d,ecx
  000000000000076C: C4 42 31 DC CA     vaesenc     xmm9,xmm9,xmm10
  0000000000000771: C5 7A 6F 57 20     vmovdqu     xmm10,xmmword ptr [rdi+20h]
  0000000000000776: 41 31 CD           xor         r13d,ecx
  0000000000000779: C5 E9 FE D7        vpaddd      xmm2,xmm2,xmm7
  000000000000077D: 44 03 4C 24 28     add         r9d,dword ptr [rsp+28h]
  0000000000000782: 45 89 D7           mov         r15d,r10d
  0000000000000785: 41 C1 CE 0B        ror         r14d,0Bh
  0000000000000789: 45 31 C4           xor         r12d,r8d
  000000000000078C: C5 E9 FE 75 40     vpaddd      xmm6,xmm2,xmmword ptr [rbp+40h]
  0000000000000791: 45 31 DF           xor         r15d,r11d
  0000000000000794: 41 C1 CD 06        ror         r13d,6
  0000000000000798: 45 01 E1           add         r9d,r12d
  000000000000079B: 44 21 FE           and         esi,r15d
  000000000000079E: 45 31 D6           xor         r14d,r10d
  00000000000007A1: 45 01 E9           add         r9d,r13d
  00000000000007A4: 44 31 DE           xor         esi,r11d
  00000000000007A7: 44 01 CB           add         ebx,r9d
  00000000000007AA: 41 C1 CE 02        ror         r14d,2
  00000000000007AE: 41 01 F1           add         r9d,esi
  00000000000007B1: 41 89 DD           mov         r13d,ebx
  00000000000007B4: 45 01 CE           add         r14d,r9d
  00000000000007B7: 41 C1 CD 0E        ror         r13d,0Eh
  00000000000007BB: 45 89 F1           mov         r9d,r14d
  00000000000007BE: 41 89 CC           mov         r12d,ecx
  00000000000007C1: 41 31 DD           xor         r13d,ebx
  00000000000007C4: 41 C1 CE 09        ror         r14d,9
  00000000000007C8: 41 31 D4           xor         r12d,edx
  00000000000007CB: 41 C1 CD 05        ror         r13d,5
  00000000000007CF: 45 31 CE           xor         r14d,r9d
  00000000000007D2: 41 21 DC           and         r12d,ebx
  00000000000007D5: C4 42 31 DD DA     vaesenclast xmm11,xmm9,xmm10
  00000000000007DA: C4 42 31 DC CA     vaesenc     xmm9,xmm9,xmm10
  00000000000007DF: C5 7A 6F 57 30     vmovdqu     xmm10,xmmword ptr [rdi+30h]
  00000000000007E4: 41 31 DD           xor         r13d,ebx
  00000000000007E7: 44 03 44 24 2C     add         r8d,dword ptr [rsp+2Ch]
  00000000000007EC: 44 89 CE           mov         esi,r9d
  00000000000007EF: 41 C1 CE 0B        ror         r14d,0Bh
  00000000000007F3: 41 31 D4           xor         r12d,edx
  00000000000007F6: 44 31 D6           xor         esi,r10d
  00000000000007F9: 41 C1 CD 06        ror         r13d,6
  00000000000007FD: 45 01 E0           add         r8d,r12d
  0000000000000800: 41 21 F7           and         r15d,esi
  0000000000000803: 45 31 CE           xor         r14d,r9d
  0000000000000806: 45 01 E8           add         r8d,r13d
  0000000000000809: 45 31 D7           xor         r15d,r10d
  000000000000080C: 44 01 C0           add         eax,r8d
  000000000000080F: 41 C1 CE 02        ror         r14d,2
  0000000000000813: 45 01 F8           add         r8d,r15d
  0000000000000816: 41 89 C5           mov         r13d,eax
  0000000000000819: 45 01 C6           add         r14d,r8d
  000000000000081C: C5 F9 7F 74 24 20  vmovdqa     xmmword ptr [rsp+20h],xmm6
  0000000000000822: C4 E3 79 0F E3 04  vpalignr    xmm4,xmm0,xmm3,4
  0000000000000828: 41 C1 CD 0E        ror         r13d,0Eh
  000000000000082C: 45 89 F0           mov         r8d,r14d
  000000000000082F: C4 E3 69 0F F9 04  vpalignr    xmm7,xmm2,xmm1,4
  0000000000000835: 41 89 DC           mov         r12d,ebx
  0000000000000838: 41 31 C5           xor         r13d,eax
  000000000000083B: 8F E8 78 C2 EC 0E  vprotd      xmm5,xmm4,0Eh
  0000000000000841: 41 C1 CE 09        ror         r14d,9
  0000000000000845: 41 31 CC           xor         r12d,ecx
  0000000000000848: C5 D9 72 D4 03     vpsrld      xmm4,xmm4,3
  000000000000084D: 41 C1 CD 05        ror         r13d,5
  0000000000000851: 45 31 C6           xor         r14d,r8d
  0000000000000854: C5 E1 FE DF        vpaddd      xmm3,xmm3,xmm7
  0000000000000858: 41 21 C4           and         r12d,eax
  000000000000085B: C4 41 21 DB C4     vpand       xmm8,xmm11,xmm12
  0000000000000860: C4 42 31 DC CA     vaesenc     xmm9,xmm9,xmm10
  0000000000000865: C5 7A 6F 57 40     vmovdqu     xmm10,xmmword ptr [rdi+40h]
  000000000000086A: 41 31 C5           xor         r13d,eax
  000000000000086D: 03 54 24 30        add         edx,dword ptr [rsp+30h]
  0000000000000871: 45 89 C7           mov         r15d,r8d
  0000000000000874: 8F E8 78 C2 F5 0B  vprotd      xmm6,xmm5,0Bh
  000000000000087A: 41 C1 CE 0B        ror         r14d,0Bh
  000000000000087E: 41 31 CC           xor         r12d,ecx
  0000000000000881: C5 D9 EF E5        vpxor       xmm4,xmm4,xmm5
  0000000000000885: 45 31 CF           xor         r15d,r9d
  0000000000000888: 41 C1 CD 06        ror         r13d,6
  000000000000088C: 44 01 E2           add         edx,r12d
  000000000000088F: 44 21 FE           and         esi,r15d
  0000000000000892: 8F E8 78 C2 FA 0D  vprotd      xmm7,xmm2,0Dh
  0000000000000898: 45 31 C6           xor         r14d,r8d
  000000000000089B: 44 01 EA           add         edx,r13d
  000000000000089E: C5 D9 EF E6        vpxor       xmm4,xmm4,xmm6
  00000000000008A2: 44 31 CE           xor         esi,r9d
  00000000000008A5: 41 01 D3           add         r11d,edx
  00000000000008A8: C5 C9 72 D2 0A     vpsrld      xmm6,xmm2,0Ah
  00000000000008AD: 41 C1 CE 02        ror         r14d,2
  00000000000008B1: 01 F2              add         edx,esi
  00000000000008B3: C5 E1 FE DC        vpaddd      xmm3,xmm3,xmm4
  00000000000008B7: 45 89 DD           mov         r13d,r11d
  00000000000008BA: 41 01 D6           add         r14d,edx
  00000000000008BD: 8F E8 78 C2 EF 02  vprotd      xmm5,xmm7,2
  00000000000008C3: 41 C1 CD 0E        ror         r13d,0Eh
  00000000000008C7: 44 89 F2           mov         edx,r14d
  00000000000008CA: C5 C1 EF FE        vpxor       xmm7,xmm7,xmm6
  00000000000008CE: 41 89 C4           mov         r12d,eax
  00000000000008D1: 45 31 DD           xor         r13d,r11d
  00000000000008D4: 41 C1 CE 09        ror         r14d,9
  00000000000008D8: 41 31 DC           xor         r12d,ebx
  00000000000008DB: C5 C1 EF FD        vpxor       xmm7,xmm7,xmm5
  00000000000008DF: 41 C1 CD 05        ror         r13d,5
  00000000000008E3: 41 31 D6           xor         r14d,edx
  00000000000008E6: 45 21 DC           and         r12d,r11d
  00000000000008E9: C4 42 31 DD DA     vaesenclast xmm11,xmm9,xmm10
  00000000000008EE: C4 42 31 DC CA     vaesenc     xmm9,xmm9,xmm10
  00000000000008F3: C5 7A 6F 57 50     vmovdqu     xmm10,xmmword ptr [rdi+50h]
  00000000000008F8: 45 31 DD           xor         r13d,r11d
  00000000000008FB: C5 C1 73 DF 08     vpsrldq     xmm7,xmm7,8
  0000000000000900: 03 4C 24 34        add         ecx,dword ptr [rsp+34h]
  0000000000000904: 89 D6              mov         esi,edx
  0000000000000906: 41 C1 CE 0B        ror         r14d,0Bh
  000000000000090A: 41 31 DC           xor         r12d,ebx
  000000000000090D: C5 E1 FE DF        vpaddd      xmm3,xmm3,xmm7
  0000000000000911: 44 31 C6           xor         esi,r8d
  0000000000000914: 41 C1 CD 06        ror         r13d,6
  0000000000000918: 44 01 E1           add         ecx,r12d
  000000000000091B: 41 21 F7           and         r15d,esi
  000000000000091E: 8F E8 78 C2 FB 0D  vprotd      xmm7,xmm3,0Dh
  0000000000000924: 41 31 D6           xor         r14d,edx
  0000000000000927: 44 01 E9           add         ecx,r13d
  000000000000092A: C5 C9 72 D3 0A     vpsrld      xmm6,xmm3,0Ah
  000000000000092F: 45 31 C7           xor         r15d,r8d
  0000000000000932: 41 01 CA           add         r10d,ecx
  0000000000000935: 8F E8 78 C2 EF 02  vprotd      xmm5,xmm7,2
  000000000000093B: 41 C1 CE 02        ror         r14d,2
  000000000000093F: 44 01 F9           add         ecx,r15d
  0000000000000942: C5 C1 EF FE        vpxor       xmm7,xmm7,xmm6
  0000000000000946: 45 89 D5           mov         r13d,r10d
  0000000000000949: 41 01 CE           add         r14d,ecx
  000000000000094C: 41 C1 CD 0E        ror         r13d,0Eh
  0000000000000950: 44 89 F1           mov         ecx,r14d
  0000000000000953: C5 C1 EF FD        vpxor       xmm7,xmm7,xmm5
  0000000000000957: 45 89 DC           mov         r12d,r11d
  000000000000095A: 45 31 D5           xor         r13d,r10d
  000000000000095D: 41 C1 CE 09        ror         r14d,9
  0000000000000961: 41 31 C4           xor         r12d,eax
  0000000000000964: C5 C1 73 FF 08     vpslldq     xmm7,xmm7,8
  0000000000000969: 41 C1 CD 05        ror         r13d,5
  000000000000096D: 41 31 CE           xor         r14d,ecx
  0000000000000970: 45 21 D4           and         r12d,r10d
  0000000000000973: C4 41 21 DB DD     vpand       xmm11,xmm11,xmm13
  0000000000000978: C4 42 31 DC CA     vaesenc     xmm9,xmm9,xmm10
  000000000000097D: C5 7A 6F 57 60     vmovdqu     xmm10,xmmword ptr [rdi+60h]
  0000000000000982: 45 31 D5           xor         r13d,r10d
  0000000000000985: C5 E1 FE DF        vpaddd      xmm3,xmm3,xmm7
  0000000000000989: 03 5C 24 38        add         ebx,dword ptr [rsp+38h]
  000000000000098D: 41 89 CF           mov         r15d,ecx
  0000000000000990: 41 C1 CE 0B        ror         r14d,0Bh
  0000000000000994: 41 31 C4           xor         r12d,eax
  0000000000000997: C5 E1 FE 75 60     vpaddd      xmm6,xmm3,xmmword ptr [rbp+60h]
  000000000000099C: 41 31 D7           xor         r15d,edx
  000000000000099F: 41 C1 CD 06        ror         r13d,6
  00000000000009A3: 44 01 E3           add         ebx,r12d
  00000000000009A6: 44 21 FE           and         esi,r15d
  00000000000009A9: 41 31 CE           xor         r14d,ecx
  00000000000009AC: 44 01 EB           add         ebx,r13d
  00000000000009AF: 31 D6              xor         esi,edx
  00000000000009B1: 41 01 D9           add         r9d,ebx
  00000000000009B4: 41 C1 CE 02        ror         r14d,2
  00000000000009B8: 01 F3              add         ebx,esi
  00000000000009BA: 45 89 CD           mov         r13d,r9d
  00000000000009BD: 41 01 DE           add         r14d,ebx
  00000000000009C0: 41 C1 CD 0E        ror         r13d,0Eh
  00000000000009C4: 44 89 F3           mov         ebx,r14d
  00000000000009C7: 45 89 D4           mov         r12d,r10d
  00000000000009CA: 45 31 CD           xor         r13d,r9d
  00000000000009CD: 41 C1 CE 09        ror         r14d,9
  00000000000009D1: 45 31 DC           xor         r12d,r11d
  00000000000009D4: 41 C1 CD 05        ror         r13d,5
  00000000000009D8: 41 31 DE           xor         r14d,ebx
  00000000000009DB: 45 21 CC           and         r12d,r9d
  00000000000009DE: C4 41 39 EB C3     vpor        xmm8,xmm8,xmm11
  00000000000009E3: C4 42 31 DD DA     vaesenclast xmm11,xmm9,xmm10
  00000000000009E8: C5 7A 6F 57 80     vmovdqu     xmm10,xmmword ptr [rdi-80h]
  00000000000009ED: 45 31 CD           xor         r13d,r9d
  00000000000009F0: 03 44 24 3C        add         eax,dword ptr [rsp+3Ch]
  00000000000009F4: 89 DE              mov         esi,ebx
  00000000000009F6: 41 C1 CE 0B        ror         r14d,0Bh
  00000000000009FA: 45 31 DC           xor         r12d,r11d
  00000000000009FD: 31 CE              xor         esi,ecx
  00000000000009FF: 41 C1 CD 06        ror         r13d,6
  0000000000000A03: 44 01 E0           add         eax,r12d
  0000000000000A06: 41 21 F7           and         r15d,esi
  0000000000000A09: 41 31 DE           xor         r14d,ebx
  0000000000000A0C: 44 01 E8           add         eax,r13d
  0000000000000A0F: 41 31 CF           xor         r15d,ecx
  0000000000000A12: 41 01 C0           add         r8d,eax
  0000000000000A15: 41 C1 CE 02        ror         r14d,2
  0000000000000A19: 44 01 F8           add         eax,r15d
  0000000000000A1C: 45 89 C5           mov         r13d,r8d
  0000000000000A1F: 41 01 C6           add         r14d,eax
  0000000000000A22: C5 F9 7F 74 24 30  vmovdqa     xmmword ptr [rsp+30h],xmm6
  0000000000000A28: 4C 8B 64 24 40     mov         r12,qword ptr [rsp+40h]
  0000000000000A2D: C4 41 21 DB DE     vpand       xmm11,xmm11,xmm14
  0000000000000A32: 4C 8B 7C 24 48     mov         r15,qword ptr [rsp+48h]
  0000000000000A37: C4 41 39 EB C3     vpor        xmm8,xmm8,xmm11
  0000000000000A3C: C4 01 7A 7F 04 27  vmovdqu     xmmword ptr [r15+r12],xmm8
  0000000000000A42: 4D 8D 64 24 10     lea         r12,[r12+10h]
  0000000000000A47: 80 BD 83 00 00 00  cmp         byte ptr [rbp+83h],0
                    00
  0000000000000A4E: 0F 85 DC F7 FF FF  jne         L$xop_00_47
  0000000000000A54: C4 41 7A 6F 0C 24  vmovdqu     xmm9,xmmword ptr [r12]
  0000000000000A5A: 4C 89 64 24 40     mov         qword ptr [rsp+40h],r12
  0000000000000A5F: 41 C1 CD 0E        ror         r13d,0Eh
  0000000000000A63: 44 89 F0           mov         eax,r14d
  0000000000000A66: 45 89 CC           mov         r12d,r9d
  0000000000000A69: 45 31 C5           xor         r13d,r8d
  0000000000000A6C: 41 C1 CE 09        ror         r14d,9
  0000000000000A70: 45 31 D4           xor         r12d,r10d
  0000000000000A73: 41 C1 CD 05        ror         r13d,5
  0000000000000A77: 41 31 C6           xor         r14d,eax
  0000000000000A7A: 45 21 C4           and         r12d,r8d
  0000000000000A7D: C4 41 31 EF CA     vpxor       xmm9,xmm9,xmm10
  0000000000000A82: C5 7A 6F 57 90     vmovdqu     xmm10,xmmword ptr [rdi-70h]
  0000000000000A87: 45 31 C5           xor         r13d,r8d
  0000000000000A8A: 44 03 1C 24        add         r11d,dword ptr [rsp]
  0000000000000A8E: 41 89 C7           mov         r15d,eax
  0000000000000A91: 41 C1 CE 0B        ror         r14d,0Bh
  0000000000000A95: 45 31 D4           xor         r12d,r10d
  0000000000000A98: 41 31 DF           xor         r15d,ebx
  0000000000000A9B: 41 C1 CD 06        ror         r13d,6
  0000000000000A9F: 45 01 E3           add         r11d,r12d
  0000000000000AA2: 44 21 FE           and         esi,r15d
  0000000000000AA5: 41 31 C6           xor         r14d,eax
  0000000000000AA8: 45 01 EB           add         r11d,r13d
  0000000000000AAB: 31 DE              xor         esi,ebx
  0000000000000AAD: 44 01 DA           add         edx,r11d
  0000000000000AB0: 41 C1 CE 02        ror         r14d,2
  0000000000000AB4: 41 01 F3           add         r11d,esi
  0000000000000AB7: 41 89 D5           mov         r13d,edx
  0000000000000ABA: 45 01 DE           add         r14d,r11d
  0000000000000ABD: 41 C1 CD 0E        ror         r13d,0Eh
  0000000000000AC1: 45 89 F3           mov         r11d,r14d
  0000000000000AC4: 45 89 C4           mov         r12d,r8d
  0000000000000AC7: 41 31 D5           xor         r13d,edx
  0000000000000ACA: 41 C1 CE 09        ror         r14d,9
  0000000000000ACE: 45 31 CC           xor         r12d,r9d
  0000000000000AD1: 41 C1 CD 05        ror         r13d,5
  0000000000000AD5: 45 31 DE           xor         r14d,r11d
  0000000000000AD8: 41 21 D4           and         r12d,edx
  0000000000000ADB: C4 41 31 EF C8     vpxor       xmm9,xmm9,xmm8
  0000000000000AE0: 41 31 D5           xor         r13d,edx
  0000000000000AE3: 44 03 54 24 04     add         r10d,dword ptr [rsp+4]
  0000000000000AE8: 44 89 DE           mov         esi,r11d
  0000000000000AEB: 41 C1 CE 0B        ror         r14d,0Bh
  0000000000000AEF: 45 31 CC           xor         r12d,r9d
  0000000000000AF2: 31 C6              xor         esi,eax
  0000000000000AF4: 41 C1 CD 06        ror         r13d,6
  0000000000000AF8: 45 01 E2           add         r10d,r12d
  0000000000000AFB: 41 21 F7           and         r15d,esi
  0000000000000AFE: 45 31 DE           xor         r14d,r11d
  0000000000000B01: 45 01 EA           add         r10d,r13d
  0000000000000B04: 41 31 C7           xor         r15d,eax
  0000000000000B07: 44 01 D1           add         ecx,r10d
  0000000000000B0A: 41 C1 CE 02        ror         r14d,2
  0000000000000B0E: 45 01 FA           add         r10d,r15d
  0000000000000B11: 41 89 CD           mov         r13d,ecx
  0000000000000B14: 45 01 D6           add         r14d,r10d
  0000000000000B17: 41 C1 CD 0E        ror         r13d,0Eh
  0000000000000B1B: 45 89 F2           mov         r10d,r14d
  0000000000000B1E: 41 89 D4           mov         r12d,edx
  0000000000000B21: 41 31 CD           xor         r13d,ecx
  0000000000000B24: 41 C1 CE 09        ror         r14d,9
  0000000000000B28: 45 31 C4           xor         r12d,r8d
  0000000000000B2B: 41 C1 CD 05        ror         r13d,5
  0000000000000B2F: 45 31 D6           xor         r14d,r10d
  0000000000000B32: 41 21 CC           and         r12d,ecx
  0000000000000B35: C4 42 31 DC CA     vaesenc     xmm9,xmm9,xmm10
  0000000000000B3A: C5 7A 6F 57 A0     vmovdqu     xmm10,xmmword ptr [rdi-60h]
  0000000000000B3F: 41 31 CD           xor         r13d,ecx
  0000000000000B42: 44 03 4C 24 08     add         r9d,dword ptr [rsp+8]
  0000000000000B47: 45 89 D7           mov         r15d,r10d
  0000000000000B4A: 41 C1 CE 0B        ror         r14d,0Bh
  0000000000000B4E: 45 31 C4           xor         r12d,r8d
  0000000000000B51: 45 31 DF           xor         r15d,r11d
  0000000000000B54: 41 C1 CD 06        ror         r13d,6
  0000000000000B58: 45 01 E1           add         r9d,r12d
  0000000000000B5B: 44 21 FE           and         esi,r15d
  0000000000000B5E: 45 31 D6           xor         r14d,r10d
  0000000000000B61: 45 01 E9           add         r9d,r13d
  0000000000000B64: 44 31 DE           xor         esi,r11d
  0000000000000B67: 44 01 CB           add         ebx,r9d
  0000000000000B6A: 41 C1 CE 02        ror         r14d,2
  0000000000000B6E: 41 01 F1           add         r9d,esi
  0000000000000B71: 41 89 DD           mov         r13d,ebx
  0000000000000B74: 45 01 CE           add         r14d,r9d
  0000000000000B77: 41 C1 CD 0E        ror         r13d,0Eh
  0000000000000B7B: 45 89 F1           mov         r9d,r14d
  0000000000000B7E: 41 89 CC           mov         r12d,ecx
  0000000000000B81: 41 31 DD           xor         r13d,ebx
  0000000000000B84: 41 C1 CE 09        ror         r14d,9
  0000000000000B88: 41 31 D4           xor         r12d,edx
  0000000000000B8B: 41 C1 CD 05        ror         r13d,5
  0000000000000B8F: 45 31 CE           xor         r14d,r9d
  0000000000000B92: 41 21 DC           and         r12d,ebx
  0000000000000B95: C4 42 31 DC CA     vaesenc     xmm9,xmm9,xmm10
  0000000000000B9A: C5 7A 6F 57 B0     vmovdqu     xmm10,xmmword ptr [rdi-50h]
  0000000000000B9F: 41 31 DD           xor         r13d,ebx
  0000000000000BA2: 44 03 44 24 0C     add         r8d,dword ptr [rsp+0Ch]
  0000000000000BA7: 44 89 CE           mov         esi,r9d
  0000000000000BAA: 41 C1 CE 0B        ror         r14d,0Bh
  0000000000000BAE: 41 31 D4           xor         r12d,edx
  0000000000000BB1: 44 31 D6           xor         esi,r10d
  0000000000000BB4: 41 C1 CD 06        ror         r13d,6
  0000000000000BB8: 45 01 E0           add         r8d,r12d
  0000000000000BBB: 41 21 F7           and         r15d,esi
  0000000000000BBE: 45 31 CE           xor         r14d,r9d
  0000000000000BC1: 45 01 E8           add         r8d,r13d
  0000000000000BC4: 45 31 D7           xor         r15d,r10d
  0000000000000BC7: 44 01 C0           add         eax,r8d
  0000000000000BCA: 41 C1 CE 02        ror         r14d,2
  0000000000000BCE: 45 01 F8           add         r8d,r15d
  0000000000000BD1: 41 89 C5           mov         r13d,eax
  0000000000000BD4: 45 01 C6           add         r14d,r8d
  0000000000000BD7: 41 C1 CD 0E        ror         r13d,0Eh
  0000000000000BDB: 45 89 F0           mov         r8d,r14d
  0000000000000BDE: 41 89 DC           mov         r12d,ebx
  0000000000000BE1: 41 31 C5           xor         r13d,eax
  0000000000000BE4: 41 C1 CE 09        ror         r14d,9
  0000000000000BE8: 41 31 CC           xor         r12d,ecx
  0000000000000BEB: 41 C1 CD 05        ror         r13d,5
  0000000000000BEF: 45 31 C6           xor         r14d,r8d
  0000000000000BF2: 41 21 C4           and         r12d,eax
  0000000000000BF5: C4 42 31 DC CA     vaesenc     xmm9,xmm9,xmm10
  0000000000000BFA: C5 7A 6F 57 C0     vmovdqu     xmm10,xmmword ptr [rdi-40h]
  0000000000000BFF: 41 31 C5           xor         r13d,eax
  0000000000000C02: 03 54 24 10        add         edx,dword ptr [rsp+10h]
  0000000000000C06: 45 89 C7           mov         r15d,r8d
  0000000000000C09: 41 C1 CE 0B        ror         r14d,0Bh
  0000000000000C0D: 41 31 CC           xor         r12d,ecx
  0000000000000C10: 45 31 CF           xor         r15d,r9d
  0000000000000C13: 41 C1 CD 06        ror         r13d,6
  0000000000000C17: 44 01 E2           add         edx,r12d
  0000000000000C1A: 44 21 FE           and         esi,r15d
  0000000000000C1D: 45 31 C6           xor         r14d,r8d
  0000000000000C20: 44 01 EA           add         edx,r13d
  0000000000000C23: 44 31 CE           xor         esi,r9d
  0000000000000C26: 41 01 D3           add         r11d,edx
  0000000000000C29: 41 C1 CE 02        ror         r14d,2
  0000000000000C2D: 01 F2              add         edx,esi
  0000000000000C2F: 45 89 DD           mov         r13d,r11d
  0000000000000C32: 41 01 D6           add         r14d,edx
  0000000000000C35: 41 C1 CD 0E        ror         r13d,0Eh
  0000000000000C39: 44 89 F2           mov         edx,r14d
  0000000000000C3C: 41 89 C4           mov         r12d,eax
  0000000000000C3F: 45 31 DD           xor         r13d,r11d
  0000000000000C42: 41 C1 CE 09        ror         r14d,9
  0000000000000C46: 41 31 DC           xor         r12d,ebx
  0000000000000C49: 41 C1 CD 05        ror         r13d,5
  0000000000000C4D: 41 31 D6           xor         r14d,edx
  0000000000000C50: 45 21 DC           and         r12d,r11d
  0000000000000C53: C4 42 31 DC CA     vaesenc     xmm9,xmm9,xmm10
  0000000000000C58: C5 7A 6F 57 D0     vmovdqu     xmm10,xmmword ptr [rdi-30h]
  0000000000000C5D: 45 31 DD           xor         r13d,r11d
  0000000000000C60: 03 4C 24 14        add         ecx,dword ptr [rsp+14h]
  0000000000000C64: 89 D6              mov         esi,edx
  0000000000000C66: 41 C1 CE 0B        ror         r14d,0Bh
  0000000000000C6A: 41 31 DC           xor         r12d,ebx
  0000000000000C6D: 44 31 C6           xor         esi,r8d
  0000000000000C70: 41 C1 CD 06        ror         r13d,6
  0000000000000C74: 44 01 E1           add         ecx,r12d
  0000000000000C77: 41 21 F7           and         r15d,esi
  0000000000000C7A: 41 31 D6           xor         r14d,edx
  0000000000000C7D: 44 01 E9           add         ecx,r13d
  0000000000000C80: 45 31 C7           xor         r15d,r8d
  0000000000000C83: 41 01 CA           add         r10d,ecx
  0000000000000C86: 41 C1 CE 02        ror         r14d,2
  0000000000000C8A: 44 01 F9           add         ecx,r15d
  0000000000000C8D: 45 89 D5           mov         r13d,r10d
  0000000000000C90: 41 01 CE           add         r14d,ecx
  0000000000000C93: 41 C1 CD 0E        ror         r13d,0Eh
  0000000000000C97: 44 89 F1           mov         ecx,r14d
  0000000000000C9A: 45 89 DC           mov         r12d,r11d
  0000000000000C9D: 45 31 D5           xor         r13d,r10d
  0000000000000CA0: 41 C1 CE 09        ror         r14d,9
  0000000000000CA4: 41 31 C4           xor         r12d,eax
  0000000000000CA7: 41 C1 CD 05        ror         r13d,5
  0000000000000CAB: 41 31 CE           xor         r14d,ecx
  0000000000000CAE: 45 21 D4           and         r12d,r10d
  0000000000000CB1: C4 42 31 DC CA     vaesenc     xmm9,xmm9,xmm10
  0000000000000CB6: C5 7A 6F 57 E0     vmovdqu     xmm10,xmmword ptr [rdi-20h]
  0000000000000CBB: 45 31 D5           xor         r13d,r10d
  0000000000000CBE: 03 5C 24 18        add         ebx,dword ptr [rsp+18h]
  0000000000000CC2: 41 89 CF           mov         r15d,ecx
  0000000000000CC5: 41 C1 CE 0B        ror         r14d,0Bh
  0000000000000CC9: 41 31 C4           xor         r12d,eax
  0000000000000CCC: 41 31 D7           xor         r15d,edx
  0000000000000CCF: 41 C1 CD 06        ror         r13d,6
  0000000000000CD3: 44 01 E3           add         ebx,r12d
  0000000000000CD6: 44 21 FE           and         esi,r15d
  0000000000000CD9: 41 31 CE           xor         r14d,ecx
  0000000000000CDC: 44 01 EB           add         ebx,r13d
  0000000000000CDF: 31 D6              xor         esi,edx
  0000000000000CE1: 41 01 D9           add         r9d,ebx
  0000000000000CE4: 41 C1 CE 02        ror         r14d,2
  0000000000000CE8: 01 F3              add         ebx,esi
  0000000000000CEA: 45 89 CD           mov         r13d,r9d
  0000000000000CED: 41 01 DE           add         r14d,ebx
  0000000000000CF0: 41 C1 CD 0E        ror         r13d,0Eh
  0000000000000CF4: 44 89 F3           mov         ebx,r14d
  0000000000000CF7: 45 89 D4           mov         r12d,r10d
  0000000000000CFA: 45 31 CD           xor         r13d,r9d
  0000000000000CFD: 41 C1 CE 09        ror         r14d,9
  0000000000000D01: 45 31 DC           xor         r12d,r11d
  0000000000000D04: 41 C1 CD 05        ror         r13d,5
  0000000000000D08: 41 31 DE           xor         r14d,ebx
  0000000000000D0B: 45 21 CC           and         r12d,r9d
  0000000000000D0E: C4 42 31 DC CA     vaesenc     xmm9,xmm9,xmm10
  0000000000000D13: C5 7A 6F 57 F0     vmovdqu     xmm10,xmmword ptr [rdi-10h]
  0000000000000D18: 45 31 CD           xor         r13d,r9d
  0000000000000D1B: 03 44 24 1C        add         eax,dword ptr [rsp+1Ch]
  0000000000000D1F: 89 DE              mov         esi,ebx
  0000000000000D21: 41 C1 CE 0B        ror         r14d,0Bh
  0000000000000D25: 45 31 DC           xor         r12d,r11d
  0000000000000D28: 31 CE              xor         esi,ecx
  0000000000000D2A: 41 C1 CD 06        ror         r13d,6
  0000000000000D2E: 44 01 E0           add         eax,r12d
  0000000000000D31: 41 21 F7           and         r15d,esi
  0000000000000D34: 41 31 DE           xor         r14d,ebx
  0000000000000D37: 44 01 E8           add         eax,r13d
  0000000000000D3A: 41 31 CF           xor         r15d,ecx
  0000000000000D3D: 41 01 C0           add         r8d,eax
  0000000000000D40: 41 C1 CE 02        ror         r14d,2
  0000000000000D44: 44 01 F8           add         eax,r15d
  0000000000000D47: 45 89 C5           mov         r13d,r8d
  0000000000000D4A: 41 01 C6           add         r14d,eax
  0000000000000D4D: 41 C1 CD 0E        ror         r13d,0Eh
  0000000000000D51: 44 89 F0           mov         eax,r14d
  0000000000000D54: 45 89 CC           mov         r12d,r9d
  0000000000000D57: 45 31 C5           xor         r13d,r8d
  0000000000000D5A: 41 C1 CE 09        ror         r14d,9
  0000000000000D5E: 45 31 D4           xor         r12d,r10d
  0000000000000D61: 41 C1 CD 05        ror         r13d,5
  0000000000000D65: 41 31 C6           xor         r14d,eax
  0000000000000D68: 45 21 C4           and         r12d,r8d
  0000000000000D6B: C4 42 31 DC CA     vaesenc     xmm9,xmm9,xmm10
  0000000000000D70: C5 7A 6F 17        vmovdqu     xmm10,xmmword ptr [rdi]
  0000000000000D74: 45 31 C5           xor         r13d,r8d
  0000000000000D77: 44 03 5C 24 20     add         r11d,dword ptr [rsp+20h]
  0000000000000D7C: 41 89 C7           mov         r15d,eax
  0000000000000D7F: 41 C1 CE 0B        ror         r14d,0Bh
  0000000000000D83: 45 31 D4           xor         r12d,r10d
  0000000000000D86: 41 31 DF           xor         r15d,ebx
  0000000000000D89: 41 C1 CD 06        ror         r13d,6
  0000000000000D8D: 45 01 E3           add         r11d,r12d
  0000000000000D90: 44 21 FE           and         esi,r15d
  0000000000000D93: 41 31 C6           xor         r14d,eax
  0000000000000D96: 45 01 EB           add         r11d,r13d
  0000000000000D99: 31 DE              xor         esi,ebx
  0000000000000D9B: 44 01 DA           add         edx,r11d
  0000000000000D9E: 41 C1 CE 02        ror         r14d,2
  0000000000000DA2: 41 01 F3           add         r11d,esi
  0000000000000DA5: 41 89 D5           mov         r13d,edx
  0000000000000DA8: 45 01 DE           add         r14d,r11d
  0000000000000DAB: 41 C1 CD 0E        ror         r13d,0Eh
  0000000000000DAF: 45 89 F3           mov         r11d,r14d
  0000000000000DB2: 45 89 C4           mov         r12d,r8d
  0000000000000DB5: 41 31 D5           xor         r13d,edx
  0000000000000DB8: 41 C1 CE 09        ror         r14d,9
  0000000000000DBC: 45 31 CC           xor         r12d,r9d
  0000000000000DBF: 41 C1 CD 05        ror         r13d,5
  0000000000000DC3: 45 31 DE           xor         r14d,r11d
  0000000000000DC6: 41 21 D4           and         r12d,edx
  0000000000000DC9: C4 42 31 DC CA     vaesenc     xmm9,xmm9,xmm10
  0000000000000DCE: C5 7A 6F 57 10     vmovdqu     xmm10,xmmword ptr [rdi+10h]
  0000000000000DD3: 41 31 D5           xor         r13d,edx
  0000000000000DD6: 44 03 54 24 24     add         r10d,dword ptr [rsp+24h]
  0000000000000DDB: 44 89 DE           mov         esi,r11d
  0000000000000DDE: 41 C1 CE 0B        ror         r14d,0Bh
  0000000000000DE2: 45 31 CC           xor         r12d,r9d
  0000000000000DE5: 31 C6              xor         esi,eax
  0000000000000DE7: 41 C1 CD 06        ror         r13d,6
  0000000000000DEB: 45 01 E2           add         r10d,r12d
  0000000000000DEE: 41 21 F7           and         r15d,esi
  0000000000000DF1: 45 31 DE           xor         r14d,r11d
  0000000000000DF4: 45 01 EA           add         r10d,r13d
  0000000000000DF7: 41 31 C7           xor         r15d,eax
  0000000000000DFA: 44 01 D1           add         ecx,r10d
  0000000000000DFD: 41 C1 CE 02        ror         r14d,2
  0000000000000E01: 45 01 FA           add         r10d,r15d
  0000000000000E04: 41 89 CD           mov         r13d,ecx
  0000000000000E07: 45 01 D6           add         r14d,r10d
  0000000000000E0A: 41 C1 CD 0E        ror         r13d,0Eh
  0000000000000E0E: 45 89 F2           mov         r10d,r14d
  0000000000000E11: 41 89 D4           mov         r12d,edx
  0000000000000E14: 41 31 CD           xor         r13d,ecx
  0000000000000E17: 41 C1 CE 09        ror         r14d,9
  0000000000000E1B: 45 31 C4           xor         r12d,r8d
  0000000000000E1E: 41 C1 CD 05        ror         r13d,5
  0000000000000E22: 45 31 D6           xor         r14d,r10d
  0000000000000E25: 41 21 CC           and         r12d,ecx
  0000000000000E28: C4 42 31 DC CA     vaesenc     xmm9,xmm9,xmm10
  0000000000000E2D: C5 7A 6F 57 20     vmovdqu     xmm10,xmmword ptr [rdi+20h]
  0000000000000E32: 41 31 CD           xor         r13d,ecx
  0000000000000E35: 44 03 4C 24 28     add         r9d,dword ptr [rsp+28h]
  0000000000000E3A: 45 89 D7           mov         r15d,r10d
  0000000000000E3D: 41 C1 CE 0B        ror         r14d,0Bh
  0000000000000E41: 45 31 C4           xor         r12d,r8d
  0000000000000E44: 45 31 DF           xor         r15d,r11d
  0000000000000E47: 41 C1 CD 06        ror         r13d,6
  0000000000000E4B: 45 01 E1           add         r9d,r12d
  0000000000000E4E: 44 21 FE           and         esi,r15d
  0000000000000E51: 45 31 D6           xor         r14d,r10d
  0000000000000E54: 45 01 E9           add         r9d,r13d
  0000000000000E57: 44 31 DE           xor         esi,r11d
  0000000000000E5A: 44 01 CB           add         ebx,r9d
  0000000000000E5D: 41 C1 CE 02        ror         r14d,2
  0000000000000E61: 41 01 F1           add         r9d,esi
  0000000000000E64: 41 89 DD           mov         r13d,ebx
  0000000000000E67: 45 01 CE           add         r14d,r9d
  0000000000000E6A: 41 C1 CD 0E        ror         r13d,0Eh
  0000000000000E6E: 45 89 F1           mov         r9d,r14d
  0000000000000E71: 41 89 CC           mov         r12d,ecx
  0000000000000E74: 41 31 DD           xor         r13d,ebx
  0000000000000E77: 41 C1 CE 09        ror         r14d,9
  0000000000000E7B: 41 31 D4           xor         r12d,edx
  0000000000000E7E: 41 C1 CD 05        ror         r13d,5
  0000000000000E82: 45 31 CE           xor         r14d,r9d
  0000000000000E85: 41 21 DC           and         r12d,ebx
  0000000000000E88: C4 42 31 DD DA     vaesenclast xmm11,xmm9,xmm10
  0000000000000E8D: C4 42 31 DC CA     vaesenc     xmm9,xmm9,xmm10
  0000000000000E92: C5 7A 6F 57 30     vmovdqu     xmm10,xmmword ptr [rdi+30h]
  0000000000000E97: 41 31 DD           xor         r13d,ebx
  0000000000000E9A: 44 03 44 24 2C     add         r8d,dword ptr [rsp+2Ch]
  0000000000000E9F: 44 89 CE           mov         esi,r9d
  0000000000000EA2: 41 C1 CE 0B        ror         r14d,0Bh
  0000000000000EA6: 41 31 D4           xor         r12d,edx
  0000000000000EA9: 44 31 D6           xor         esi,r10d
  0000000000000EAC: 41 C1 CD 06        ror         r13d,6
  0000000000000EB0: 45 01 E0           add         r8d,r12d
  0000000000000EB3: 41 21 F7           and         r15d,esi
  0000000000000EB6: 45 31 CE           xor         r14d,r9d
  0000000000000EB9: 45 01 E8           add         r8d,r13d
  0000000000000EBC: 45 31 D7           xor         r15d,r10d
  0000000000000EBF: 44 01 C0           add         eax,r8d
  0000000000000EC2: 41 C1 CE 02        ror         r14d,2
  0000000000000EC6: 45 01 F8           add         r8d,r15d
  0000000000000EC9: 41 89 C5           mov         r13d,eax
  0000000000000ECC: 45 01 C6           add         r14d,r8d
  0000000000000ECF: 41 C1 CD 0E        ror         r13d,0Eh
  0000000000000ED3: 45 89 F0           mov         r8d,r14d
  0000000000000ED6: 41 89 DC           mov         r12d,ebx
  0000000000000ED9: 41 31 C5           xor         r13d,eax
  0000000000000EDC: 41 C1 CE 09        ror         r14d,9
  0000000000000EE0: 41 31 CC           xor         r12d,ecx
  0000000000000EE3: 41 C1 CD 05        ror         r13d,5
  0000000000000EE7: 45 31 C6           xor         r14d,r8d
  0000000000000EEA: 41 21 C4           and         r12d,eax
  0000000000000EED: C4 41 21 DB C4     vpand       xmm8,xmm11,xmm12
  0000000000000EF2: C4 42 31 DC CA     vaesenc     xmm9,xmm9,xmm10
  0000000000000EF7: C5 7A 6F 57 40     vmovdqu     xmm10,xmmword ptr [rdi+40h]
  0000000000000EFC: 41 31 C5           xor         r13d,eax
  0000000000000EFF: 03 54 24 30        add         edx,dword ptr [rsp+30h]
  0000000000000F03: 45 89 C7           mov         r15d,r8d
  0000000000000F06: 41 C1 CE 0B        ror         r14d,0Bh
  0000000000000F0A: 41 31 CC           xor         r12d,ecx
  0000000000000F0D: 45 31 CF           xor         r15d,r9d
  0000000000000F10: 41 C1 CD 06        ror         r13d,6
  0000000000000F14: 44 01 E2           add         edx,r12d
  0000000000000F17: 44 21 FE           and         esi,r15d
  0000000000000F1A: 45 31 C6           xor         r14d,r8d
  0000000000000F1D: 44 01 EA           add         edx,r13d
  0000000000000F20: 44 31 CE           xor         esi,r9d
  0000000000000F23: 41 01 D3           add         r11d,edx
  0000000000000F26: 41 C1 CE 02        ror         r14d,2
  0000000000000F2A: 01 F2              add         edx,esi
  0000000000000F2C: 45 89 DD           mov         r13d,r11d
  0000000000000F2F: 41 01 D6           add         r14d,edx
  0000000000000F32: 41 C1 CD 0E        ror         r13d,0Eh
  0000000000000F36: 44 89 F2           mov         edx,r14d
  0000000000000F39: 41 89 C4           mov         r12d,eax
  0000000000000F3C: 45 31 DD           xor         r13d,r11d
  0000000000000F3F: 41 C1 CE 09        ror         r14d,9
  0000000000000F43: 41 31 DC           xor         r12d,ebx
  0000000000000F46: 41 C1 CD 05        ror         r13d,5
  0000000000000F4A: 41 31 D6           xor         r14d,edx
  0000000000000F4D: 45 21 DC           and         r12d,r11d
  0000000000000F50: C4 42 31 DD DA     vaesenclast xmm11,xmm9,xmm10
  0000000000000F55: C4 42 31 DC CA     vaesenc     xmm9,xmm9,xmm10
  0000000000000F5A: C5 7A 6F 57 50     vmovdqu     xmm10,xmmword ptr [rdi+50h]
  0000000000000F5F: 45 31 DD           xor         r13d,r11d
  0000000000000F62: 03 4C 24 34        add         ecx,dword ptr [rsp+34h]
  0000000000000F66: 89 D6              mov         esi,edx
  0000000000000F68: 41 C1 CE 0B        ror         r14d,0Bh
  0000000000000F6C: 41 31 DC           xor         r12d,ebx
  0000000000000F6F: 44 31 C6           xor         esi,r8d
  0000000000000F72: 41 C1 CD 06        ror         r13d,6
  0000000000000F76: 44 01 E1           add         ecx,r12d
  0000000000000F79: 41 21 F7           and         r15d,esi
  0000000000000F7C: 41 31 D6           xor         r14d,edx
  0000000000000F7F: 44 01 E9           add         ecx,r13d
  0000000000000F82: 45 31 C7           xor         r15d,r8d
  0000000000000F85: 41 01 CA           add         r10d,ecx
  0000000000000F88: 41 C1 CE 02        ror         r14d,2
  0000000000000F8C: 44 01 F9           add         ecx,r15d
  0000000000000F8F: 45 89 D5           mov         r13d,r10d
  0000000000000F92: 41 01 CE           add         r14d,ecx
  0000000000000F95: 41 C1 CD 0E        ror         r13d,0Eh
  0000000000000F99: 44 89 F1           mov         ecx,r14d
  0000000000000F9C: 45 89 DC           mov         r12d,r11d
  0000000000000F9F: 45 31 D5           xor         r13d,r10d
  0000000000000FA2: 41 C1 CE 09        ror         r14d,9
  0000000000000FA6: 41 31 C4           xor         r12d,eax
  0000000000000FA9: 41 C1 CD 05        ror         r13d,5
  0000000000000FAD: 41 31 CE           xor         r14d,ecx
  0000000000000FB0: 45 21 D4           and         r12d,r10d
  0000000000000FB3: C4 41 21 DB DD     vpand       xmm11,xmm11,xmm13
  0000000000000FB8: C4 42 31 DC CA     vaesenc     xmm9,xmm9,xmm10
  0000000000000FBD: C5 7A 6F 57 60     vmovdqu     xmm10,xmmword ptr [rdi+60h]
  0000000000000FC2: 45 31 D5           xor         r13d,r10d
  0000000000000FC5: 03 5C 24 38        add         ebx,dword ptr [rsp+38h]
  0000000000000FC9: 41 89 CF           mov         r15d,ecx
  0000000000000FCC: 41 C1 CE 0B        ror         r14d,0Bh
  0000000000000FD0: 41 31 C4           xor         r12d,eax
  0000000000000FD3: 41 31 D7           xor         r15d,edx
  0000000000000FD6: 41 C1 CD 06        ror         r13d,6
  0000000000000FDA: 44 01 E3           add         ebx,r12d
  0000000000000FDD: 44 21 FE           and         esi,r15d
  0000000000000FE0: 41 31 CE           xor         r14d,ecx
  0000000000000FE3: 44 01 EB           add         ebx,r13d
  0000000000000FE6: 31 D6              xor         esi,edx
  0000000000000FE8: 41 01 D9           add         r9d,ebx
  0000000000000FEB: 41 C1 CE 02        ror         r14d,2
  0000000000000FEF: 01 F3              add         ebx,esi
  0000000000000FF1: 45 89 CD           mov         r13d,r9d
  0000000000000FF4: 41 01 DE           add         r14d,ebx
  0000000000000FF7: 41 C1 CD 0E        ror         r13d,0Eh
  0000000000000FFB: 44 89 F3           mov         ebx,r14d
  0000000000000FFE: 45 89 D4           mov         r12d,r10d
  0000000000001001: 45 31 CD           xor         r13d,r9d
  0000000000001004: 41 C1 CE 09        ror         r14d,9
  0000000000001008: 45 31 DC           xor         r12d,r11d
  000000000000100B: 41 C1 CD 05        ror         r13d,5
  000000000000100F: 41 31 DE           xor         r14d,ebx
  0000000000001012: 45 21 CC           and         r12d,r9d
  0000000000001015: C4 41 39 EB C3     vpor        xmm8,xmm8,xmm11
  000000000000101A: C4 42 31 DD DA     vaesenclast xmm11,xmm9,xmm10
  000000000000101F: C5 7A 6F 57 80     vmovdqu     xmm10,xmmword ptr [rdi-80h]
  0000000000001024: 45 31 CD           xor         r13d,r9d
  0000000000001027: 03 44 24 3C        add         eax,dword ptr [rsp+3Ch]
  000000000000102B: 89 DE              mov         esi,ebx
  000000000000102D: 41 C1 CE 0B        ror         r14d,0Bh
  0000000000001031: 45 31 DC           xor         r12d,r11d
  0000000000001034: 31 CE              xor         esi,ecx
  0000000000001036: 41 C1 CD 06        ror         r13d,6
  000000000000103A: 44 01 E0           add         eax,r12d
  000000000000103D: 41 21 F7           and         r15d,esi
  0000000000001040: 41 31 DE           xor         r14d,ebx
  0000000000001043: 44 01 E8           add         eax,r13d
  0000000000001046: 41 31 CF           xor         r15d,ecx
  0000000000001049: 41 01 C0           add         r8d,eax
  000000000000104C: 41 C1 CE 02        ror         r14d,2
  0000000000001050: 44 01 F8           add         eax,r15d
  0000000000001053: 45 89 C5           mov         r13d,r8d
  0000000000001056: 41 01 C6           add         r14d,eax
  0000000000001059: 4C 8B 64 24 40     mov         r12,qword ptr [rsp+40h]
  000000000000105E: 4C 8B 6C 24 48     mov         r13,qword ptr [rsp+48h]
  0000000000001063: 4C 8B 7C 24 68     mov         r15,qword ptr [rsp+68h]
  0000000000001068: 48 8B 74 24 70     mov         rsi,qword ptr [rsp+70h]
  000000000000106D: C4 41 21 DB DE     vpand       xmm11,xmm11,xmm14
  0000000000001072: 44 89 F0           mov         eax,r14d
  0000000000001075: C4 41 39 EB C3     vpor        xmm8,xmm8,xmm11
  000000000000107A: C4 01 7A 7F 04 2C  vmovdqu     xmmword ptr [r12+r13],xmm8
  0000000000001080: 4D 8D 64 24 10     lea         r12,[r12+10h]
  0000000000001085: 41 03 07           add         eax,dword ptr [r15]
  0000000000001088: 41 03 5F 04        add         ebx,dword ptr [r15+4]
  000000000000108C: 41 03 4F 08        add         ecx,dword ptr [r15+8]
  0000000000001090: 41 03 57 0C        add         edx,dword ptr [r15+0Ch]
  0000000000001094: 45 03 47 10        add         r8d,dword ptr [r15+10h]
  0000000000001098: 45 03 4F 14        add         r9d,dword ptr [r15+14h]
  000000000000109C: 45 03 57 18        add         r10d,dword ptr [r15+18h]
  00000000000010A0: 45 03 5F 1C        add         r11d,dword ptr [r15+1Ch]
  00000000000010A4: 4C 3B 64 24 50     cmp         r12,qword ptr [rsp+50h]
  00000000000010A9: 41 89 07           mov         dword ptr [r15],eax
  00000000000010AC: 41 89 5F 04        mov         dword ptr [r15+4],ebx
  00000000000010B0: 41 89 4F 08        mov         dword ptr [r15+8],ecx
  00000000000010B4: 41 89 57 0C        mov         dword ptr [r15+0Ch],edx
  00000000000010B8: 45 89 47 10        mov         dword ptr [r15+10h],r8d
  00000000000010BC: 45 89 4F 14        mov         dword ptr [r15+14h],r9d
  00000000000010C0: 45 89 57 18        mov         dword ptr [r15+18h],r10d
  00000000000010C4: 45 89 5F 1C        mov         dword ptr [r15+1Ch],r11d
  00000000000010C8: 0F 82 E2 F0 FF FF  jb          L$loop_xop
  00000000000010CE: 4C 8B 44 24 60     mov         r8,qword ptr [rsp+60h]
  00000000000010D3: 48 8B 74 24 78     mov         rsi,qword ptr [rsp+78h]
  00000000000010D8: C4 41 7A 7F 00     vmovdqu     xmmword ptr [r8],xmm8
  00000000000010DD: C5 FC 77           vzeroall
  00000000000010E0: 0F 28 B4 24 80 00  movaps      xmm6,xmmword ptr [rsp+80h]
                    00 00
  00000000000010E8: 0F 28 BC 24 90 00  movaps      xmm7,xmmword ptr [rsp+90h]
                    00 00
  00000000000010F0: 44 0F 28 84 24 A0  movaps      xmm8,xmmword ptr [rsp+0A0h]
                    00 00 00
  00000000000010F9: 44 0F 28 8C 24 B0  movaps      xmm9,xmmword ptr [rsp+0B0h]
                    00 00 00
  0000000000001102: 44 0F 28 94 24 C0  movaps      xmm10,xmmword ptr [rsp+0C0h]
                    00 00 00
  000000000000110B: 44 0F 28 9C 24 D0  movaps      xmm11,xmmword ptr [rsp+0D0h]
                    00 00 00
  0000000000001114: 44 0F 28 A4 24 E0  movaps      xmm12,xmmword ptr [rsp+0E0h]
                    00 00 00
  000000000000111D: 44 0F 28 AC 24 F0  movaps      xmm13,xmmword ptr [rsp+0F0h]
                    00 00 00
  0000000000001126: 44 0F 28 B4 24 00  movaps      xmm14,xmmword ptr [rsp+100h]
                    01 00 00
  000000000000112F: 44 0F 28 BC 24 10  movaps      xmm15,xmmword ptr [rsp+110h]
                    01 00 00
  0000000000001138: 4C 8B 7E D0        mov         r15,qword ptr [rsi-30h]
  000000000000113C: 4C 8B 76 D8        mov         r14,qword ptr [rsi-28h]
  0000000000001140: 4C 8B 6E E0        mov         r13,qword ptr [rsi-20h]
  0000000000001144: 4C 8B 66 E8        mov         r12,qword ptr [rsi-18h]
  0000000000001148: 48 8B 6E F0        mov         rbp,qword ptr [rsi-10h]
  000000000000114C: 48 8B 5E F8        mov         rbx,qword ptr [rsi-8]
  0000000000001150: 48 8D 26           lea         rsp,[rsi]
L$epilogue_xop:
  0000000000001153: 48 8B 7C 24 08     mov         rdi,qword ptr [rsp+8]
  0000000000001158: 48 8B 74 24 10     mov         rsi,qword ptr [rsp+10h]
  000000000000115D: F3 C3              rep ret
L$SEH_end_aesni_cbc_sha256_enc_xop:
  000000000000115F: 90                 nop
  0000000000001160: 90                 nop
  0000000000001161: 90                 nop
  0000000000001162: 90                 nop
  0000000000001163: 90                 nop
  0000000000001164: 90                 nop
  0000000000001165: 90                 nop
  0000000000001166: 90                 nop
  0000000000001167: 90                 nop
  0000000000001168: 90                 nop
  0000000000001169: 90                 nop
  000000000000116A: 90                 nop
  000000000000116B: 90                 nop
  000000000000116C: 90                 nop
  000000000000116D: 90                 nop
  000000000000116E: 90                 nop
  000000000000116F: 90                 nop
  0000000000001170: 90                 nop
  0000000000001171: 90                 nop
  0000000000001172: 90                 nop
  0000000000001173: 90                 nop
  0000000000001174: 90                 nop
  0000000000001175: 90                 nop
  0000000000001176: 90                 nop
  0000000000001177: 90                 nop
  0000000000001178: 90                 nop
  0000000000001179: 90                 nop
  000000000000117A: 90                 nop
  000000000000117B: 90                 nop
  000000000000117C: 90                 nop
  000000000000117D: 90                 nop
  000000000000117E: 90                 nop
  000000000000117F: 90                 nop
aesni_cbc_sha256_enc_avx:
  0000000000001180: 48 89 7C 24 08     mov         qword ptr [rsp+8],rdi
  0000000000001185: 48 89 74 24 10     mov         qword ptr [rsp+10h],rsi
  000000000000118A: 48 89 E0           mov         rax,rsp
L$SEH_begin_aesni_cbc_sha256_enc_avx:
  000000000000118D: 48 89 CF           mov         rdi,rcx
  0000000000001190: 48 89 D6           mov         rsi,rdx
  0000000000001193: 4C 89 C2           mov         rdx,r8
  0000000000001196: 4C 89 C9           mov         rcx,r9
  0000000000001199: 4C 8B 44 24 28     mov         r8,qword ptr [rsp+28h]
  000000000000119E: 4C 8B 4C 24 30     mov         r9,qword ptr [rsp+30h]
L$avx_shortcut:
  00000000000011A3: 4C 8B 54 24 38     mov         r10,qword ptr [rsp+38h]
  00000000000011A8: 48 89 E0           mov         rax,rsp
  00000000000011AB: 53                 push        rbx
  00000000000011AC: 55                 push        rbp
  00000000000011AD: 41 54              push        r12
  00000000000011AF: 41 55              push        r13
  00000000000011B1: 41 56              push        r14
  00000000000011B3: 41 57              push        r15
  00000000000011B5: 48 81 EC 20 01 00  sub         rsp,120h
                    00
  00000000000011BC: 48 83 E4 C0        and         rsp,0FFFFFFFFFFFFFFC0h
  00000000000011C0: 48 C1 E2 06        shl         rdx,6
  00000000000011C4: 48 29 FE           sub         rsi,rdi
  00000000000011C7: 49 29 FA           sub         r10,rdi
  00000000000011CA: 48 01 FA           add         rdx,rdi
  00000000000011CD: 48 89 74 24 48     mov         qword ptr [rsp+48h],rsi
  00000000000011D2: 48 89 54 24 50     mov         qword ptr [rsp+50h],rdx
  00000000000011D7: 4C 89 44 24 60     mov         qword ptr [rsp+60h],r8
  00000000000011DC: 4C 89 4C 24 68     mov         qword ptr [rsp+68h],r9
  00000000000011E1: 4C 89 54 24 70     mov         qword ptr [rsp+70h],r10
  00000000000011E6: 48 89 44 24 78     mov         qword ptr [rsp+78h],rax
  00000000000011EB: 0F 29 B4 24 80 00  movaps      xmmword ptr [rsp+80h],xmm6
                    00 00
  00000000000011F3: 0F 29 BC 24 90 00  movaps      xmmword ptr [rsp+90h],xmm7
                    00 00
  00000000000011FB: 44 0F 29 84 24 A0  movaps      xmmword ptr [rsp+0A0h],xmm8
                    00 00 00
  0000000000001204: 44 0F 29 8C 24 B0  movaps      xmmword ptr [rsp+0B0h],xmm9
                    00 00 00
  000000000000120D: 44 0F 29 94 24 C0  movaps      xmmword ptr [rsp+0C0h],xmm10
                    00 00 00
  0000000000001216: 44 0F 29 9C 24 D0  movaps      xmmword ptr [rsp+0D0h],xmm11
                    00 00 00
  000000000000121F: 44 0F 29 A4 24 E0  movaps      xmmword ptr [rsp+0E0h],xmm12
                    00 00 00
  0000000000001228: 44 0F 29 AC 24 F0  movaps      xmmword ptr [rsp+0F0h],xmm13
                    00 00 00
  0000000000001231: 44 0F 29 B4 24 00  movaps      xmmword ptr [rsp+100h],xmm14
                    01 00 00
  000000000000123A: 44 0F 29 BC 24 10  movaps      xmmword ptr [rsp+110h],xmm15
                    01 00 00
L$prologue_avx:
  0000000000001243: C5 FC 77           vzeroall
  0000000000001246: 49 89 FC           mov         r12,rdi
  0000000000001249: 48 8D B9 80 00 00  lea         rdi,[rcx+80h]
                    00
  0000000000001250: 4C 8D 2D 20 02 00  lea         r13,[.rdata+220h]
                    00
  0000000000001257: 44 8B 77 70        mov         r14d,dword ptr [rdi+70h]
  000000000000125B: 4D 89 CF           mov         r15,r9
  000000000000125E: 4C 89 D6           mov         rsi,r10
  0000000000001261: C4 41 7A 6F 00     vmovdqu     xmm8,xmmword ptr [r8]
  0000000000001266: 49 83 EE 09        sub         r14,9
  000000000000126A: 41 8B 07           mov         eax,dword ptr [r15]
  000000000000126D: 41 8B 5F 04        mov         ebx,dword ptr [r15+4]
  0000000000001271: 41 8B 4F 08        mov         ecx,dword ptr [r15+8]
  0000000000001275: 41 8B 57 0C        mov         edx,dword ptr [r15+0Ch]
  0000000000001279: 45 8B 47 10        mov         r8d,dword ptr [r15+10h]
  000000000000127D: 45 8B 4F 14        mov         r9d,dword ptr [r15+14h]
  0000000000001281: 45 8B 57 18        mov         r10d,dword ptr [r15+18h]
  0000000000001285: 45 8B 5F 1C        mov         r11d,dword ptr [r15+1Ch]
  0000000000001289: C4 01 79 6F 74 F5  vmovdqa     xmm14,xmmword ptr [r13+r14*8]
                    00
  0000000000001290: C4 01 79 6F 6C F5  vmovdqa     xmm13,xmmword ptr [r13+r14*8+10h]
                    10
  0000000000001297: C4 01 79 6F 64 F5  vmovdqa     xmm12,xmmword ptr [r13+r14*8+20h]
                    20
  000000000000129E: C5 7A 6F 57 80     vmovdqu     xmm10,xmmword ptr [rdi-80h]
  00000000000012A3: E9 08 00 00 00     jmp         L$loop_avx
  00000000000012A8: 90                 nop
  00000000000012A9: 90                 nop
  00000000000012AA: 90                 nop
  00000000000012AB: 90                 nop
  00000000000012AC: 90                 nop
  00000000000012AD: 90                 nop
  00000000000012AE: 90                 nop
  00000000000012AF: 90                 nop
L$loop_avx:
  00000000000012B0: C5 F9 6F 3D 00 02  vmovdqa     xmm7,xmmword ptr [.rdata+200h]
                    00 00
  00000000000012B8: C4 A1 7A 6F 04 26  vmovdqu     xmm0,xmmword ptr [rsi+r12]
  00000000000012BE: C4 A1 7A 6F 4C 26  vmovdqu     xmm1,xmmword ptr [rsi+r12+10h]
                    10
  00000000000012C5: C4 A1 7A 6F 54 26  vmovdqu     xmm2,xmmword ptr [rsi+r12+20h]
                    20
  00000000000012CC: C4 A1 7A 6F 5C 26  vmovdqu     xmm3,xmmword ptr [rsi+r12+30h]
                    30
  00000000000012D3: C4 E2 79 00 C7     vpshufb     xmm0,xmm0,xmm7
  00000000000012D8: 48 8D 2D 00 00 00  lea         rbp,[.rdata]
                    00
  00000000000012DF: C4 E2 71 00 CF     vpshufb     xmm1,xmm1,xmm7
  00000000000012E4: C4 E2 69 00 D7     vpshufb     xmm2,xmm2,xmm7
  00000000000012E9: C5 F9 FE 65 00     vpaddd      xmm4,xmm0,xmmword ptr [rbp]
  00000000000012EE: C4 E2 61 00 DF     vpshufb     xmm3,xmm3,xmm7
  00000000000012F3: C5 F1 FE 6D 20     vpaddd      xmm5,xmm1,xmmword ptr [rbp+20h]
  00000000000012F8: C5 E9 FE 75 40     vpaddd      xmm6,xmm2,xmmword ptr [rbp+40h]
  00000000000012FD: C5 E1 FE 7D 60     vpaddd      xmm7,xmm3,xmmword ptr [rbp+60h]
  0000000000001302: C5 F9 7F 24 24     vmovdqa     xmmword ptr [rsp],xmm4
  0000000000001307: 41 89 C6           mov         r14d,eax
  000000000000130A: C5 F9 7F 6C 24 10  vmovdqa     xmmword ptr [rsp+10h],xmm5
  0000000000001310: 89 DE              mov         esi,ebx
  0000000000001312: C5 F9 7F 74 24 20  vmovdqa     xmmword ptr [rsp+20h],xmm6
  0000000000001318: 31 CE              xor         esi,ecx
  000000000000131A: C5 F9 7F 7C 24 30  vmovdqa     xmmword ptr [rsp+30h],xmm7
  0000000000001320: 45 89 C5           mov         r13d,r8d
  0000000000001323: E9 08 00 00 00     jmp         L$avx_00_47
  0000000000001328: 90                 nop
  0000000000001329: 90                 nop
  000000000000132A: 90                 nop
  000000000000132B: 90                 nop
  000000000000132C: 90                 nop
  000000000000132D: 90                 nop
  000000000000132E: 90                 nop
  000000000000132F: 90                 nop
L$avx_00_47:
  0000000000001330: 48 83 ED 80        sub         rbp,0FFFFFFFFFFFFFF80h
  0000000000001334: C4 41 7A 6F 0C 24  vmovdqu     xmm9,xmmword ptr [r12]
  000000000000133A: 4C 89 64 24 40     mov         qword ptr [rsp+40h],r12
  000000000000133F: C4 E3 71 0F E0 04  vpalignr    xmm4,xmm1,xmm0,4
  0000000000001345: 45 0F AC ED 0E     shrd        r13d,r13d,0Eh
  000000000000134A: 44 89 F0           mov         eax,r14d
  000000000000134D: 45 89 CC           mov         r12d,r9d
  0000000000001350: C4 E3 61 0F FA 04  vpalignr    xmm7,xmm3,xmm2,4
  0000000000001356: 45 31 C5           xor         r13d,r8d
  0000000000001359: 45 0F AC F6 09     shrd        r14d,r14d,9
  000000000000135E: 45 31 D4           xor         r12d,r10d
  0000000000001361: C5 C9 72 D4 07     vpsrld      xmm6,xmm4,7
  0000000000001366: 45 0F AC ED 05     shrd        r13d,r13d,5
  000000000000136B: 41 31 C6           xor         r14d,eax
  000000000000136E: 45 21 C4           and         r12d,r8d
  0000000000001371: C5 F9 FE C7        vpaddd      xmm0,xmm0,xmm7
  0000000000001375: C4 41 31 EF CA     vpxor       xmm9,xmm9,xmm10
  000000000000137A: C5 7A 6F 57 90     vmovdqu     xmm10,xmmword ptr [rdi-70h]
  000000000000137F: 45 31 C5           xor         r13d,r8d
  0000000000001382: 44 03 1C 24        add         r11d,dword ptr [rsp]
  0000000000001386: 41 89 C7           mov         r15d,eax
  0000000000001389: C5 C1 72 D4 03     vpsrld      xmm7,xmm4,3
  000000000000138E: 45 0F AC F6 0B     shrd        r14d,r14d,0Bh
  0000000000001393: 45 31 D4           xor         r12d,r10d
  0000000000001396: 41 31 DF           xor         r15d,ebx
  0000000000001399: C5 D1 72 F4 0E     vpslld      xmm5,xmm4,0Eh
  000000000000139E: 45 0F AC ED 06     shrd        r13d,r13d,6
  00000000000013A3: 45 01 E3           add         r11d,r12d
  00000000000013A6: 44 21 FE           and         esi,r15d
  00000000000013A9: C5 C1 EF E6        vpxor       xmm4,xmm7,xmm6
  00000000000013AD: 41 31 C6           xor         r14d,eax
  00000000000013B0: 45 01 EB           add         r11d,r13d
  00000000000013B3: 31 DE              xor         esi,ebx
  00000000000013B5: C5 F9 70 FB FA     vpshufd     xmm7,xmm3,0FAh
  00000000000013BA: 44 01 DA           add         edx,r11d
  00000000000013BD: 45 0F AC F6 02     shrd        r14d,r14d,2
  00000000000013C2: 41 01 F3           add         r11d,esi
  00000000000013C5: C5 C9 72 D6 0B     vpsrld      xmm6,xmm6,0Bh
  00000000000013CA: 41 89 D5           mov         r13d,edx
  00000000000013CD: 45 01 DE           add         r14d,r11d
  00000000000013D0: 45 0F AC ED 0E     shrd        r13d,r13d,0Eh
  00000000000013D5: C5 D9 EF E5        vpxor       xmm4,xmm4,xmm5
  00000000000013D9: 45 89 F3           mov         r11d,r14d
  00000000000013DC: 45 89 C4           mov         r12d,r8d
  00000000000013DF: 41 31 D5           xor         r13d,edx
  00000000000013E2: C5 D1 72 F5 0B     vpslld      xmm5,xmm5,0Bh
  00000000000013E7: 45 0F AC F6 09     shrd        r14d,r14d,9
  00000000000013EC: 45 31 CC           xor         r12d,r9d
  00000000000013EF: 45 0F AC ED 05     shrd        r13d,r13d,5
  00000000000013F4: C5 D9 EF E6        vpxor       xmm4,xmm4,xmm6
  00000000000013F8: 45 31 DE           xor         r14d,r11d
  00000000000013FB: 41 21 D4           and         r12d,edx
  00000000000013FE: C4 41 31 EF C8     vpxor       xmm9,xmm9,xmm8
  0000000000001403: 41 31 D5           xor         r13d,edx
  0000000000001406: C5 C9 72 D7 0A     vpsrld      xmm6,xmm7,0Ah
  000000000000140B: 44 03 54 24 04     add         r10d,dword ptr [rsp+4]
  0000000000001410: 44 89 DE           mov         esi,r11d
  0000000000001413: 45 0F AC F6 0B     shrd        r14d,r14d,0Bh
  0000000000001418: C5 D9 EF E5        vpxor       xmm4,xmm4,xmm5
  000000000000141C: 45 31 CC           xor         r12d,r9d
  000000000000141F: 31 C6              xor         esi,eax
  0000000000001421: 45 0F AC ED 06     shrd        r13d,r13d,6
  0000000000001426: C5 C1 73 D7 11     vpsrlq      xmm7,xmm7,11h
  000000000000142B: 45 01 E2           add         r10d,r12d
  000000000000142E: 41 21 F7           and         r15d,esi
  0000000000001431: 45 31 DE           xor         r14d,r11d
  0000000000001434: C5 F9 FE C4        vpaddd      xmm0,xmm0,xmm4
  0000000000001438: 45 01 EA           add         r10d,r13d
  000000000000143B: 41 31 C7           xor         r15d,eax
  000000000000143E: 44 01 D1           add         ecx,r10d
  0000000000001441: C5 C9 EF F7        vpxor       xmm6,xmm6,xmm7
  0000000000001445: 45 0F AC F6 02     shrd        r14d,r14d,2
  000000000000144A: 45 01 FA           add         r10d,r15d
  000000000000144D: 41 89 CD           mov         r13d,ecx
  0000000000001450: C5 C1 73 D7 02     vpsrlq      xmm7,xmm7,2
  0000000000001455: 45 01 D6           add         r14d,r10d
  0000000000001458: 45 0F AC ED 0E     shrd        r13d,r13d,0Eh
  000000000000145D: 45 89 F2           mov         r10d,r14d
  0000000000001460: C5 C9 EF F7        vpxor       xmm6,xmm6,xmm7
  0000000000001464: 41 89 D4           mov         r12d,edx
  0000000000001467: 41 31 CD           xor         r13d,ecx
  000000000000146A: 45 0F AC F6 09     shrd        r14d,r14d,9
  000000000000146F: C5 F9 70 F6 84     vpshufd     xmm6,xmm6,84h
  0000000000001474: 45 31 C4           xor         r12d,r8d
  0000000000001477: 45 0F AC ED 05     shrd        r13d,r13d,5
  000000000000147C: 45 31 D6           xor         r14d,r10d
  000000000000147F: C5 C9 73 DE 08     vpsrldq     xmm6,xmm6,8
  0000000000001484: 41 21 CC           and         r12d,ecx
  0000000000001487: C4 42 31 DC CA     vaesenc     xmm9,xmm9,xmm10
  000000000000148C: C5 7A 6F 57 A0     vmovdqu     xmm10,xmmword ptr [rdi-60h]
  0000000000001491: 41 31 CD           xor         r13d,ecx
  0000000000001494: 44 03 4C 24 08     add         r9d,dword ptr [rsp+8]
  0000000000001499: C5 F9 FE C6        vpaddd      xmm0,xmm0,xmm6
  000000000000149D: 45 89 D7           mov         r15d,r10d
  00000000000014A0: 45 0F AC F6 0B     shrd        r14d,r14d,0Bh
  00000000000014A5: 45 31 C4           xor         r12d,r8d
  00000000000014A8: C5 F9 70 F8 50     vpshufd     xmm7,xmm0,50h
  00000000000014AD: 45 31 DF           xor         r15d,r11d
  00000000000014B0: 45 0F AC ED 06     shrd        r13d,r13d,6
  00000000000014B5: 45 01 E1           add         r9d,r12d
  00000000000014B8: C5 C9 72 D7 0A     vpsrld      xmm6,xmm7,0Ah
  00000000000014BD: 44 21 FE           and         esi,r15d
  00000000000014C0: 45 31 D6           xor         r14d,r10d
  00000000000014C3: 45 01 E9           add         r9d,r13d
  00000000000014C6: C5 C1 73 D7 11     vpsrlq      xmm7,xmm7,11h
  00000000000014CB: 44 31 DE           xor         esi,r11d
  00000000000014CE: 44 01 CB           add         ebx,r9d
  00000000000014D1: 45 0F AC F6 02     shrd        r14d,r14d,2
  00000000000014D6: C5 C9 EF F7        vpxor       xmm6,xmm6,xmm7
  00000000000014DA: 41 01 F1           add         r9d,esi
  00000000000014DD: 41 89 DD           mov         r13d,ebx
  00000000000014E0: 45 01 CE           add         r14d,r9d
  00000000000014E3: C5 C1 73 D7 02     vpsrlq      xmm7,xmm7,2
  00000000000014E8: 45 0F AC ED 0E     shrd        r13d,r13d,0Eh
  00000000000014ED: 45 89 F1           mov         r9d,r14d
  00000000000014F0: 41 89 CC           mov         r12d,ecx
  00000000000014F3: C5 C9 EF F7        vpxor       xmm6,xmm6,xmm7
  00000000000014F7: 41 31 DD           xor         r13d,ebx
  00000000000014FA: 45 0F AC F6 09     shrd        r14d,r14d,9
  00000000000014FF: 41 31 D4           xor         r12d,edx
  0000000000001502: C5 F9 70 F6 E8     vpshufd     xmm6,xmm6,0E8h
  0000000000001507: 45 0F AC ED 05     shrd        r13d,r13d,5
  000000000000150C: 45 31 CE           xor         r14d,r9d
  000000000000150F: 41 21 DC           and         r12d,ebx
  0000000000001512: C5 C9 73 FE 08     vpslldq     xmm6,xmm6,8
  0000000000001517: C4 42 31 DC CA     vaesenc     xmm9,xmm9,xmm10
  000000000000151C: C5 7A 6F 57 B0     vmovdqu     xmm10,xmmword ptr [rdi-50h]
  0000000000001521: 41 31 DD           xor         r13d,ebx
  0000000000001524: 44 03 44 24 0C     add         r8d,dword ptr [rsp+0Ch]
  0000000000001529: 44 89 CE           mov         esi,r9d
  000000000000152C: C5 F9 FE C6        vpaddd      xmm0,xmm0,xmm6
  0000000000001530: 45 0F AC F6 0B     shrd        r14d,r14d,0Bh
  0000000000001535: 41 31 D4           xor         r12d,edx
  0000000000001538: 44 31 D6           xor         esi,r10d
  000000000000153B: C5 F9 FE 75 00     vpaddd      xmm6,xmm0,xmmword ptr [rbp]
  0000000000001540: 45 0F AC ED 06     shrd        r13d,r13d,6
  0000000000001545: 45 01 E0           add         r8d,r12d
  0000000000001548: 41 21 F7           and         r15d,esi
  000000000000154B: 45 31 CE           xor         r14d,r9d
  000000000000154E: 45 01 E8           add         r8d,r13d
  0000000000001551: 45 31 D7           xor         r15d,r10d
  0000000000001554: 44 01 C0           add         eax,r8d
  0000000000001557: 45 0F AC F6 02     shrd        r14d,r14d,2
  000000000000155C: 45 01 F8           add         r8d,r15d
  000000000000155F: 41 89 C5           mov         r13d,eax
  0000000000001562: 45 01 C6           add         r14d,r8d
  0000000000001565: C5 F9 7F 34 24     vmovdqa     xmmword ptr [rsp],xmm6
  000000000000156A: C4 E3 69 0F E1 04  vpalignr    xmm4,xmm2,xmm1,4
  0000000000001570: 45 0F AC ED 0E     shrd        r13d,r13d,0Eh
  0000000000001575: 45 89 F0           mov         r8d,r14d
  0000000000001578: 41 89 DC           mov         r12d,ebx
  000000000000157B: C4 E3 79 0F FB 04  vpalignr    xmm7,xmm0,xmm3,4
  0000000000001581: 41 31 C5           xor         r13d,eax
  0000000000001584: 45 0F AC F6 09     shrd        r14d,r14d,9
  0000000000001589: 41 31 CC           xor         r12d,ecx
  000000000000158C: C5 C9 72 D4 07     vpsrld      xmm6,xmm4,7
  0000000000001591: 45 0F AC ED 05     shrd        r13d,r13d,5
  0000000000001596: 45 31 C6           xor         r14d,r8d
  0000000000001599: 41 21 C4           and         r12d,eax
  000000000000159C: C5 F1 FE CF        vpaddd      xmm1,xmm1,xmm7
  00000000000015A0: C4 42 31 DC CA     vaesenc     xmm9,xmm9,xmm10
  00000000000015A5: C5 7A 6F 57 C0     vmovdqu     xmm10,xmmword ptr [rdi-40h]
  00000000000015AA: 41 31 C5           xor         r13d,eax
  00000000000015AD: 03 54 24 10        add         edx,dword ptr [rsp+10h]
  00000000000015B1: 45 89 C7           mov         r15d,r8d
  00000000000015B4: C5 C1 72 D4 03     vpsrld      xmm7,xmm4,3
  00000000000015B9: 45 0F AC F6 0B     shrd        r14d,r14d,0Bh
  00000000000015BE: 41 31 CC           xor         r12d,ecx
  00000000000015C1: 45 31 CF           xor         r15d,r9d
  00000000000015C4: C5 D1 72 F4 0E     vpslld      xmm5,xmm4,0Eh
  00000000000015C9: 45 0F AC ED 06     shrd        r13d,r13d,6
  00000000000015CE: 44 01 E2           add         edx,r12d
  00000000000015D1: 44 21 FE           and         esi,r15d
  00000000000015D4: C5 C1 EF E6        vpxor       xmm4,xmm7,xmm6
  00000000000015D8: 45 31 C6           xor         r14d,r8d
  00000000000015DB: 44 01 EA           add         edx,r13d
  00000000000015DE: 44 31 CE           xor         esi,r9d
  00000000000015E1: C5 F9 70 F8 FA     vpshufd     xmm7,xmm0,0FAh
  00000000000015E6: 41 01 D3           add         r11d,edx
  00000000000015E9: 45 0F AC F6 02     shrd        r14d,r14d,2
  00000000000015EE: 01 F2              add         edx,esi
  00000000000015F0: C5 C9 72 D6 0B     vpsrld      xmm6,xmm6,0Bh
  00000000000015F5: 45 89 DD           mov         r13d,r11d
  00000000000015F8: 41 01 D6           add         r14d,edx
  00000000000015FB: 45 0F AC ED 0E     shrd        r13d,r13d,0Eh
  0000000000001600: C5 D9 EF E5        vpxor       xmm4,xmm4,xmm5
  0000000000001604: 44 89 F2           mov         edx,r14d
  0000000000001607: 41 89 C4           mov         r12d,eax
  000000000000160A: 45 31 DD           xor         r13d,r11d
  000000000000160D: C5 D1 72 F5 0B     vpslld      xmm5,xmm5,0Bh
  0000000000001612: 45 0F AC F6 09     shrd        r14d,r14d,9
  0000000000001617: 41 31 DC           xor         r12d,ebx
  000000000000161A: 45 0F AC ED 05     shrd        r13d,r13d,5
  000000000000161F: C5 D9 EF E6        vpxor       xmm4,xmm4,xmm6
  0000000000001623: 41 31 D6           xor         r14d,edx
  0000000000001626: 45 21 DC           and         r12d,r11d
  0000000000001629: C4 42 31 DC CA     vaesenc     xmm9,xmm9,xmm10
  000000000000162E: C5 7A 6F 57 D0     vmovdqu     xmm10,xmmword ptr [rdi-30h]
  0000000000001633: 45 31 DD           xor         r13d,r11d
  0000000000001636: C5 C9 72 D7 0A     vpsrld      xmm6,xmm7,0Ah
  000000000000163B: 03 4C 24 14        add         ecx,dword ptr [rsp+14h]
  000000000000163F: 89 D6              mov         esi,edx
  0000000000001641: 45 0F AC F6 0B     shrd        r14d,r14d,0Bh
  0000000000001646: C5 D9 EF E5        vpxor       xmm4,xmm4,xmm5
  000000000000164A: 41 31 DC           xor         r12d,ebx
  000000000000164D: 44 31 C6           xor         esi,r8d
  0000000000001650: 45 0F AC ED 06     shrd        r13d,r13d,6
  0000000000001655: C5 C1 73 D7 11     vpsrlq      xmm7,xmm7,11h
  000000000000165A: 44 01 E1           add         ecx,r12d
  000000000000165D: 41 21 F7           and         r15d,esi
  0000000000001660: 41 31 D6           xor         r14d,edx
  0000000000001663: C5 F1 FE CC        vpaddd      xmm1,xmm1,xmm4
  0000000000001667: 44 01 E9           add         ecx,r13d
  000000000000166A: 45 31 C7           xor         r15d,r8d
  000000000000166D: 41 01 CA           add         r10d,ecx
  0000000000001670: C5 C9 EF F7        vpxor       xmm6,xmm6,xmm7
  0000000000001674: 45 0F AC F6 02     shrd        r14d,r14d,2
  0000000000001679: 44 01 F9           add         ecx,r15d
  000000000000167C: 45 89 D5           mov         r13d,r10d
  000000000000167F: C5 C1 73 D7 02     vpsrlq      xmm7,xmm7,2
  0000000000001684: 41 01 CE           add         r14d,ecx
  0000000000001687: 45 0F AC ED 0E     shrd        r13d,r13d,0Eh
  000000000000168C: 44 89 F1           mov         ecx,r14d
  000000000000168F: C5 C9 EF F7        vpxor       xmm6,xmm6,xmm7
  0000000000001693: 45 89 DC           mov         r12d,r11d
  0000000000001696: 45 31 D5           xor         r13d,r10d
  0000000000001699: 45 0F AC F6 09     shrd        r14d,r14d,9
  000000000000169E: C5 F9 70 F6 84     vpshufd     xmm6,xmm6,84h
  00000000000016A3: 41 31 C4           xor         r12d,eax
  00000000000016A6: 45 0F AC ED 05     shrd        r13d,r13d,5
  00000000000016AB: 41 31 CE           xor         r14d,ecx
  00000000000016AE: C5 C9 73 DE 08     vpsrldq     xmm6,xmm6,8
  00000000000016B3: 45 21 D4           and         r12d,r10d
  00000000000016B6: C4 42 31 DC CA     vaesenc     xmm9,xmm9,xmm10
  00000000000016BB: C5 7A 6F 57 E0     vmovdqu     xmm10,xmmword ptr [rdi-20h]
  00000000000016C0: 45 31 D5           xor         r13d,r10d
  00000000000016C3: 03 5C 24 18        add         ebx,dword ptr [rsp+18h]
  00000000000016C7: C5 F1 FE CE        vpaddd      xmm1,xmm1,xmm6
  00000000000016CB: 41 89 CF           mov         r15d,ecx
  00000000000016CE: 45 0F AC F6 0B     shrd        r14d,r14d,0Bh
  00000000000016D3: 41 31 C4           xor         r12d,eax
  00000000000016D6: C5 F9 70 F9 50     vpshufd     xmm7,xmm1,50h
  00000000000016DB: 41 31 D7           xor         r15d,edx
  00000000000016DE: 45 0F AC ED 06     shrd        r13d,r13d,6
  00000000000016E3: 44 01 E3           add         ebx,r12d
  00000000000016E6: C5 C9 72 D7 0A     vpsrld      xmm6,xmm7,0Ah
  00000000000016EB: 44 21 FE           and         esi,r15d
  00000000000016EE: 41 31 CE           xor         r14d,ecx
  00000000000016F1: 44 01 EB           add         ebx,r13d
  00000000000016F4: C5 C1 73 D7 11     vpsrlq      xmm7,xmm7,11h
  00000000000016F9: 31 D6              xor         esi,edx
  00000000000016FB: 41 01 D9           add         r9d,ebx
  00000000000016FE: 45 0F AC F6 02     shrd        r14d,r14d,2
  0000000000001703: C5 C9 EF F7        vpxor       xmm6,xmm6,xmm7
  0000000000001707: 01 F3              add         ebx,esi
  0000000000001709: 45 89 CD           mov         r13d,r9d
  000000000000170C: 41 01 DE           add         r14d,ebx
  000000000000170F: C5 C1 73 D7 02     vpsrlq      xmm7,xmm7,2
  0000000000001714: 45 0F AC ED 0E     shrd        r13d,r13d,0Eh
  0000000000001719: 44 89 F3           mov         ebx,r14d
  000000000000171C: 45 89 D4           mov         r12d,r10d
  000000000000171F: C5 C9 EF F7        vpxor       xmm6,xmm6,xmm7
  0000000000001723: 45 31 CD           xor         r13d,r9d
  0000000000001726: 45 0F AC F6 09     shrd        r14d,r14d,9
  000000000000172B: 45 31 DC           xor         r12d,r11d
  000000000000172E: C5 F9 70 F6 E8     vpshufd     xmm6,xmm6,0E8h
  0000000000001733: 45 0F AC ED 05     shrd        r13d,r13d,5
  0000000000001738: 41 31 DE           xor         r14d,ebx
  000000000000173B: 45 21 CC           and         r12d,r9d
  000000000000173E: C5 C9 73 FE 08     vpslldq     xmm6,xmm6,8
  0000000000001743: C4 42 31 DC CA     vaesenc     xmm9,xmm9,xmm10
  0000000000001748: C5 7A 6F 57 F0     vmovdqu     xmm10,xmmword ptr [rdi-10h]
  000000000000174D: 45 31 CD           xor         r13d,r9d
  0000000000001750: 03 44 24 1C        add         eax,dword ptr [rsp+1Ch]
  0000000000001754: 89 DE              mov         esi,ebx
  0000000000001756: C5 F1 FE CE        vpaddd      xmm1,xmm1,xmm6
  000000000000175A: 45 0F AC F6 0B     shrd        r14d,r14d,0Bh
  000000000000175F: 45 31 DC           xor         r12d,r11d
  0000000000001762: 31 CE              xor         esi,ecx
  0000000000001764: C5 F1 FE 75 20     vpaddd      xmm6,xmm1,xmmword ptr [rbp+20h]
  0000000000001769: 45 0F AC ED 06     shrd        r13d,r13d,6
  000000000000176E: 44 01 E0           add         eax,r12d
  0000000000001771: 41 21 F7           and         r15d,esi
  0000000000001774: 41 31 DE           xor         r14d,ebx
  0000000000001777: 44 01 E8           add         eax,r13d
  000000000000177A: 41 31 CF           xor         r15d,ecx
  000000000000177D: 41 01 C0           add         r8d,eax
  0000000000001780: 45 0F AC F6 02     shrd        r14d,r14d,2
  0000000000001785: 44 01 F8           add         eax,r15d
  0000000000001788: 45 89 C5           mov         r13d,r8d
  000000000000178B: 41 01 C6           add         r14d,eax
  000000000000178E: C5 F9 7F 74 24 10  vmovdqa     xmmword ptr [rsp+10h],xmm6
  0000000000001794: C4 E3 61 0F E2 04  vpalignr    xmm4,xmm3,xmm2,4
  000000000000179A: 45 0F AC ED 0E     shrd        r13d,r13d,0Eh
  000000000000179F: 44 89 F0           mov         eax,r14d
  00000000000017A2: 45 89 CC           mov         r12d,r9d
  00000000000017A5: C4 E3 71 0F F8 04  vpalignr    xmm7,xmm1,xmm0,4
  00000000000017AB: 45 31 C5           xor         r13d,r8d
  00000000000017AE: 45 0F AC F6 09     shrd        r14d,r14d,9
  00000000000017B3: 45 31 D4           xor         r12d,r10d
  00000000000017B6: C5 C9 72 D4 07     vpsrld      xmm6,xmm4,7
  00000000000017BB: 45 0F AC ED 05     shrd        r13d,r13d,5
  00000000000017C0: 41 31 C6           xor         r14d,eax
  00000000000017C3: 45 21 C4           and         r12d,r8d
  00000000000017C6: C5 E9 FE D7        vpaddd      xmm2,xmm2,xmm7
  00000000000017CA: C4 42 31 DC CA     vaesenc     xmm9,xmm9,xmm10
  00000000000017CF: C5 7A 6F 17        vmovdqu     xmm10,xmmword ptr [rdi]
  00000000000017D3: 45 31 C5           xor         r13d,r8d
  00000000000017D6: 44 03 5C 24 20     add         r11d,dword ptr [rsp+20h]
  00000000000017DB: 41 89 C7           mov         r15d,eax
  00000000000017DE: C5 C1 72 D4 03     vpsrld      xmm7,xmm4,3
  00000000000017E3: 45 0F AC F6 0B     shrd        r14d,r14d,0Bh
  00000000000017E8: 45 31 D4           xor         r12d,r10d
  00000000000017EB: 41 31 DF           xor         r15d,ebx
  00000000000017EE: C5 D1 72 F4 0E     vpslld      xmm5,xmm4,0Eh
  00000000000017F3: 45 0F AC ED 06     shrd        r13d,r13d,6
  00000000000017F8: 45 01 E3           add         r11d,r12d
  00000000000017FB: 44 21 FE           and         esi,r15d
  00000000000017FE: C5 C1 EF E6        vpxor       xmm4,xmm7,xmm6
  0000000000001802: 41 31 C6           xor         r14d,eax
  0000000000001805: 45 01 EB           add         r11d,r13d
  0000000000001808: 31 DE              xor         esi,ebx
  000000000000180A: C5 F9 70 F9 FA     vpshufd     xmm7,xmm1,0FAh
  000000000000180F: 44 01 DA           add         edx,r11d
  0000000000001812: 45 0F AC F6 02     shrd        r14d,r14d,2
  0000000000001817: 41 01 F3           add         r11d,esi
  000000000000181A: C5 C9 72 D6 0B     vpsrld      xmm6,xmm6,0Bh
  000000000000181F: 41 89 D5           mov         r13d,edx
  0000000000001822: 45 01 DE           add         r14d,r11d
  0000000000001825: 45 0F AC ED 0E     shrd        r13d,r13d,0Eh
  000000000000182A: C5 D9 EF E5        vpxor       xmm4,xmm4,xmm5
  000000000000182E: 45 89 F3           mov         r11d,r14d
  0000000000001831: 45 89 C4           mov         r12d,r8d
  0000000000001834: 41 31 D5           xor         r13d,edx
  0000000000001837: C5 D1 72 F5 0B     vpslld      xmm5,xmm5,0Bh
  000000000000183C: 45 0F AC F6 09     shrd        r14d,r14d,9
  0000000000001841: 45 31 CC           xor         r12d,r9d
  0000000000001844: 45 0F AC ED 05     shrd        r13d,r13d,5
  0000000000001849: C5 D9 EF E6        vpxor       xmm4,xmm4,xmm6
  000000000000184D: 45 31 DE           xor         r14d,r11d
  0000000000001850: 41 21 D4           and         r12d,edx
  0000000000001853: C4 42 31 DC CA     vaesenc     xmm9,xmm9,xmm10
  0000000000001858: C5 7A 6F 57 10     vmovdqu     xmm10,xmmword ptr [rdi+10h]
  000000000000185D: 41 31 D5           xor         r13d,edx
  0000000000001860: C5 C9 72 D7 0A     vpsrld      xmm6,xmm7,0Ah
  0000000000001865: 44 03 54 24 24     add         r10d,dword ptr [rsp+24h]
  000000000000186A: 44 89 DE           mov         esi,r11d
  000000000000186D: 45 0F AC F6 0B     shrd        r14d,r14d,0Bh
  0000000000001872: C5 D9 EF E5        vpxor       xmm4,xmm4,xmm5
  0000000000001876: 45 31 CC           xor         r12d,r9d
  0000000000001879: 31 C6              xor         esi,eax
  000000000000187B: 45 0F AC ED 06     shrd        r13d,r13d,6
  0000000000001880: C5 C1 73 D7 11     vpsrlq      xmm7,xmm7,11h
  0000000000001885: 45 01 E2           add         r10d,r12d
  0000000000001888: 41 21 F7           and         r15d,esi
  000000000000188B: 45 31 DE           xor         r14d,r11d
  000000000000188E: C5 E9 FE D4        vpaddd      xmm2,xmm2,xmm4
  0000000000001892: 45 01 EA           add         r10d,r13d
  0000000000001895: 41 31 C7           xor         r15d,eax
  0000000000001898: 44 01 D1           add         ecx,r10d
  000000000000189B: C5 C9 EF F7        vpxor       xmm6,xmm6,xmm7
  000000000000189F: 45 0F AC F6 02     shrd        r14d,r14d,2
  00000000000018A4: 45 01 FA           add         r10d,r15d
  00000000000018A7: 41 89 CD           mov         r13d,ecx
  00000000000018AA: C5 C1 73 D7 02     vpsrlq      xmm7,xmm7,2
  00000000000018AF: 45 01 D6           add         r14d,r10d
  00000000000018B2: 45 0F AC ED 0E     shrd        r13d,r13d,0Eh
  00000000000018B7: 45 89 F2           mov         r10d,r14d
  00000000000018BA: C5 C9 EF F7        vpxor       xmm6,xmm6,xmm7
  00000000000018BE: 41 89 D4           mov         r12d,edx
  00000000000018C1: 41 31 CD           xor         r13d,ecx
  00000000000018C4: 45 0F AC F6 09     shrd        r14d,r14d,9
  00000000000018C9: C5 F9 70 F6 84     vpshufd     xmm6,xmm6,84h
  00000000000018CE: 45 31 C4           xor         r12d,r8d
  00000000000018D1: 45 0F AC ED 05     shrd        r13d,r13d,5
  00000000000018D6: 45 31 D6           xor         r14d,r10d
  00000000000018D9: C5 C9 73 DE 08     vpsrldq     xmm6,xmm6,8
  00000000000018DE: 41 21 CC           and         r12d,ecx
  00000000000018E1: C4 42 31 DC CA     vaesenc     xmm9,xmm9,xmm10
  00000000000018E6: C5 7A 6F 57 20     vmovdqu     xmm10,xmmword ptr [rdi+20h]
  00000000000018EB: 41 31 CD           xor         r13d,ecx
  00000000000018EE: 44 03 4C 24 28     add         r9d,dword ptr [rsp+28h]
  00000000000018F3: C5 E9 FE D6        vpaddd      xmm2,xmm2,xmm6
  00000000000018F7: 45 89 D7           mov         r15d,r10d
  00000000000018FA: 45 0F AC F6 0B     shrd        r14d,r14d,0Bh
  00000000000018FF: 45 31 C4           xor         r12d,r8d
  0000000000001902: C5 F9 70 FA 50     vpshufd     xmm7,xmm2,50h
  0000000000001907: 45 31 DF           xor         r15d,r11d
  000000000000190A: 45 0F AC ED 06     shrd        r13d,r13d,6
  000000000000190F: 45 01 E1           add         r9d,r12d
  0000000000001912: C5 C9 72 D7 0A     vpsrld      xmm6,xmm7,0Ah
  0000000000001917: 44 21 FE           and         esi,r15d
  000000000000191A: 45 31 D6           xor         r14d,r10d
  000000000000191D: 45 01 E9           add         r9d,r13d
  0000000000001920: C5 C1 73 D7 11     vpsrlq      xmm7,xmm7,11h
  0000000000001925: 44 31 DE           xor         esi,r11d
  0000000000001928: 44 01 CB           add         ebx,r9d
  000000000000192B: 45 0F AC F6 02     shrd        r14d,r14d,2
  0000000000001930: C5 C9 EF F7        vpxor       xmm6,xmm6,xmm7
  0000000000001934: 41 01 F1           add         r9d,esi
  0000000000001937: 41 89 DD           mov         r13d,ebx
  000000000000193A: 45 01 CE           add         r14d,r9d
  000000000000193D: C5 C1 73 D7 02     vpsrlq      xmm7,xmm7,2
  0000000000001942: 45 0F AC ED 0E     shrd        r13d,r13d,0Eh
  0000000000001947: 45 89 F1           mov         r9d,r14d
  000000000000194A: 41 89 CC           mov         r12d,ecx
  000000000000194D: C5 C9 EF F7        vpxor       xmm6,xmm6,xmm7
  0000000000001951: 41 31 DD           xor         r13d,ebx
  0000000000001954: 45 0F AC F6 09     shrd        r14d,r14d,9
  0000000000001959: 41 31 D4           xor         r12d,edx
  000000000000195C: C5 F9 70 F6 E8     vpshufd     xmm6,xmm6,0E8h
  0000000000001961: 45 0F AC ED 05     shrd        r13d,r13d,5
  0000000000001966: 45 31 CE           xor         r14d,r9d
  0000000000001969: 41 21 DC           and         r12d,ebx
  000000000000196C: C5 C9 73 FE 08     vpslldq     xmm6,xmm6,8
  0000000000001971: C4 42 31 DD DA     vaesenclast xmm11,xmm9,xmm10
  0000000000001976: C4 42 31 DC CA     vaesenc     xmm9,xmm9,xmm10
  000000000000197B: C5 7A 6F 57 30     vmovdqu     xmm10,xmmword ptr [rdi+30h]
  0000000000001980: 41 31 DD           xor         r13d,ebx
  0000000000001983: 44 03 44 24 2C     add         r8d,dword ptr [rsp+2Ch]
  0000000000001988: 44 89 CE           mov         esi,r9d
  000000000000198B: C5 E9 FE D6        vpaddd      xmm2,xmm2,xmm6
  000000000000198F: 45 0F AC F6 0B     shrd        r14d,r14d,0Bh
  0000000000001994: 41 31 D4           xor         r12d,edx
  0000000000001997: 44 31 D6           xor         esi,r10d
  000000000000199A: C5 E9 FE 75 40     vpaddd      xmm6,xmm2,xmmword ptr [rbp+40h]
  000000000000199F: 45 0F AC ED 06     shrd        r13d,r13d,6
  00000000000019A4: 45 01 E0           add         r8d,r12d
  00000000000019A7: 41 21 F7           and         r15d,esi
  00000000000019AA: 45 31 CE           xor         r14d,r9d
  00000000000019AD: 45 01 E8           add         r8d,r13d
  00000000000019B0: 45 31 D7           xor         r15d,r10d
  00000000000019B3: 44 01 C0           add         eax,r8d
  00000000000019B6: 45 0F AC F6 02     shrd        r14d,r14d,2
  00000000000019BB: 45 01 F8           add         r8d,r15d
  00000000000019BE: 41 89 C5           mov         r13d,eax
  00000000000019C1: 45 01 C6           add         r14d,r8d
  00000000000019C4: C5 F9 7F 74 24 20  vmovdqa     xmmword ptr [rsp+20h],xmm6
  00000000000019CA: C4 E3 79 0F E3 04  vpalignr    xmm4,xmm0,xmm3,4
  00000000000019D0: 45 0F AC ED 0E     shrd        r13d,r13d,0Eh
  00000000000019D5: 45 89 F0           mov         r8d,r14d
  00000000000019D8: 41 89 DC           mov         r12d,ebx
  00000000000019DB: C4 E3 69 0F F9 04  vpalignr    xmm7,xmm2,xmm1,4
  00000000000019E1: 41 31 C5           xor         r13d,eax
  00000000000019E4: 45 0F AC F6 09     shrd        r14d,r14d,9
  00000000000019E9: 41 31 CC           xor         r12d,ecx
  00000000000019EC: C5 C9 72 D4 07     vpsrld      xmm6,xmm4,7
  00000000000019F1: 45 0F AC ED 05     shrd        r13d,r13d,5
  00000000000019F6: 45 31 C6           xor         r14d,r8d
  00000000000019F9: 41 21 C4           and         r12d,eax
  00000000000019FC: C5 E1 FE DF        vpaddd      xmm3,xmm3,xmm7
  0000000000001A00: C4 41 21 DB C4     vpand       xmm8,xmm11,xmm12
  0000000000001A05: C4 42 31 DC CA     vaesenc     xmm9,xmm9,xmm10
  0000000000001A0A: C5 7A 6F 57 40     vmovdqu     xmm10,xmmword ptr [rdi+40h]
  0000000000001A0F: 41 31 C5           xor         r13d,eax
  0000000000001A12: 03 54 24 30        add         edx,dword ptr [rsp+30h]
  0000000000001A16: 45 89 C7           mov         r15d,r8d
  0000000000001A19: C5 C1 72 D4 03     vpsrld      xmm7,xmm4,3
  0000000000001A1E: 45 0F AC F6 0B     shrd        r14d,r14d,0Bh
  0000000000001A23: 41 31 CC           xor         r12d,ecx
  0000000000001A26: 45 31 CF           xor         r15d,r9d
  0000000000001A29: C5 D1 72 F4 0E     vpslld      xmm5,xmm4,0Eh
  0000000000001A2E: 45 0F AC ED 06     shrd        r13d,r13d,6
  0000000000001A33: 44 01 E2           add         edx,r12d
  0000000000001A36: 44 21 FE           and         esi,r15d
  0000000000001A39: C5 C1 EF E6        vpxor       xmm4,xmm7,xmm6
  0000000000001A3D: 45 31 C6           xor         r14d,r8d
  0000000000001A40: 44 01 EA           add         edx,r13d
  0000000000001A43: 44 31 CE           xor         esi,r9d
  0000000000001A46: C5 F9 70 FA FA     vpshufd     xmm7,xmm2,0FAh
  0000000000001A4B: 41 01 D3           add         r11d,edx
  0000000000001A4E: 45 0F AC F6 02     shrd        r14d,r14d,2
  0000000000001A53: 01 F2              add         edx,esi
  0000000000001A55: C5 C9 72 D6 0B     vpsrld      xmm6,xmm6,0Bh
  0000000000001A5A: 45 89 DD           mov         r13d,r11d
  0000000000001A5D: 41 01 D6           add         r14d,edx
  0000000000001A60: 45 0F AC ED 0E     shrd        r13d,r13d,0Eh
  0000000000001A65: C5 D9 EF E5        vpxor       xmm4,xmm4,xmm5
  0000000000001A69: 44 89 F2           mov         edx,r14d
  0000000000001A6C: 41 89 C4           mov         r12d,eax
  0000000000001A6F: 45 31 DD           xor         r13d,r11d
  0000000000001A72: C5 D1 72 F5 0B     vpslld      xmm5,xmm5,0Bh
  0000000000001A77: 45 0F AC F6 09     shrd        r14d,r14d,9
  0000000000001A7C: 41 31 DC           xor         r12d,ebx
  0000000000001A7F: 45 0F AC ED 05     shrd        r13d,r13d,5
  0000000000001A84: C5 D9 EF E6        vpxor       xmm4,xmm4,xmm6
  0000000000001A88: 41 31 D6           xor         r14d,edx
  0000000000001A8B: 45 21 DC           and         r12d,r11d
  0000000000001A8E: C4 42 31 DD DA     vaesenclast xmm11,xmm9,xmm10
  0000000000001A93: C4 42 31 DC CA     vaesenc     xmm9,xmm9,xmm10
  0000000000001A98: C5 7A 6F 57 50     vmovdqu     xmm10,xmmword ptr [rdi+50h]
  0000000000001A9D: 45 31 DD           xor         r13d,r11d
  0000000000001AA0: C5 C9 72 D7 0A     vpsrld      xmm6,xmm7,0Ah
  0000000000001AA5: 03 4C 24 34        add         ecx,dword ptr [rsp+34h]
  0000000000001AA9: 89 D6              mov         esi,edx
  0000000000001AAB: 45 0F AC F6 0B     shrd        r14d,r14d,0Bh
  0000000000001AB0: C5 D9 EF E5        vpxor       xmm4,xmm4,xmm5
  0000000000001AB4: 41 31 DC           xor         r12d,ebx
  0000000000001AB7: 44 31 C6           xor         esi,r8d
  0000000000001ABA: 45 0F AC ED 06     shrd        r13d,r13d,6
  0000000000001ABF: C5 C1 73 D7 11     vpsrlq      xmm7,xmm7,11h
  0000000000001AC4: 44 01 E1           add         ecx,r12d
  0000000000001AC7: 41 21 F7           and         r15d,esi
  0000000000001ACA: 41 31 D6           xor         r14d,edx
  0000000000001ACD: C5 E1 FE DC        vpaddd      xmm3,xmm3,xmm4
  0000000000001AD1: 44 01 E9           add         ecx,r13d
  0000000000001AD4: 45 31 C7           xor         r15d,r8d
  0000000000001AD7: 41 01 CA           add         r10d,ecx
  0000000000001ADA: C5 C9 EF F7        vpxor       xmm6,xmm6,xmm7
  0000000000001ADE: 45 0F AC F6 02     shrd        r14d,r14d,2
  0000000000001AE3: 44 01 F9           add         ecx,r15d
  0000000000001AE6: 45 89 D5           mov         r13d,r10d
  0000000000001AE9: C5 C1 73 D7 02     vpsrlq      xmm7,xmm7,2
  0000000000001AEE: 41 01 CE           add         r14d,ecx
  0000000000001AF1: 45 0F AC ED 0E     shrd        r13d,r13d,0Eh
  0000000000001AF6: 44 89 F1           mov         ecx,r14d
  0000000000001AF9: C5 C9 EF F7        vpxor       xmm6,xmm6,xmm7
  0000000000001AFD: 45 89 DC           mov         r12d,r11d
  0000000000001B00: 45 31 D5           xor         r13d,r10d
  0000000000001B03: 45 0F AC F6 09     shrd        r14d,r14d,9
  0000000000001B08: C5 F9 70 F6 84     vpshufd     xmm6,xmm6,84h
  0000000000001B0D: 41 31 C4           xor         r12d,eax
  0000000000001B10: 45 0F AC ED 05     shrd        r13d,r13d,5
  0000000000001B15: 41 31 CE           xor         r14d,ecx
  0000000000001B18: C5 C9 73 DE 08     vpsrldq     xmm6,xmm6,8
  0000000000001B1D: 45 21 D4           and         r12d,r10d
  0000000000001B20: C4 41 21 DB DD     vpand       xmm11,xmm11,xmm13
  0000000000001B25: C4 42 31 DC CA     vaesenc     xmm9,xmm9,xmm10
  0000000000001B2A: C5 7A 6F 57 60     vmovdqu     xmm10,xmmword ptr [rdi+60h]
  0000000000001B2F: 45 31 D5           xor         r13d,r10d
  0000000000001B32: 03 5C 24 38        add         ebx,dword ptr [rsp+38h]
  0000000000001B36: C5 E1 FE DE        vpaddd      xmm3,xmm3,xmm6
  0000000000001B3A: 41 89 CF           mov         r15d,ecx
  0000000000001B3D: 45 0F AC F6 0B     shrd        r14d,r14d,0Bh
  0000000000001B42: 41 31 C4           xor         r12d,eax
  0000000000001B45: C5 F9 70 FB 50     vpshufd     xmm7,xmm3,50h
  0000000000001B4A: 41 31 D7           xor         r15d,edx
  0000000000001B4D: 45 0F AC ED 06     shrd        r13d,r13d,6
  0000000000001B52: 44 01 E3           add         ebx,r12d
  0000000000001B55: C5 C9 72 D7 0A     vpsrld      xmm6,xmm7,0Ah
  0000000000001B5A: 44 21 FE           and         esi,r15d
  0000000000001B5D: 41 31 CE           xor         r14d,ecx
  0000000000001B60: 44 01 EB           add         ebx,r13d
  0000000000001B63: C5 C1 73 D7 11     vpsrlq      xmm7,xmm7,11h
  0000000000001B68: 31 D6              xor         esi,edx
  0000000000001B6A: 41 01 D9           add         r9d,ebx
  0000000000001B6D: 45 0F AC F6 02     shrd        r14d,r14d,2
  0000000000001B72: C5 C9 EF F7        vpxor       xmm6,xmm6,xmm7
  0000000000001B76: 01 F3              add         ebx,esi
  0000000000001B78: 45 89 CD           mov         r13d,r9d
  0000000000001B7B: 41 01 DE           add         r14d,ebx
  0000000000001B7E: C5 C1 73 D7 02     vpsrlq      xmm7,xmm7,2
  0000000000001B83: 45 0F AC ED 0E     shrd        r13d,r13d,0Eh
  0000000000001B88: 44 89 F3           mov         ebx,r14d
  0000000000001B8B: 45 89 D4           mov         r12d,r10d
  0000000000001B8E: C5 C9 EF F7        vpxor       xmm6,xmm6,xmm7
  0000000000001B92: 45 31 CD           xor         r13d,r9d
  0000000000001B95: 45 0F AC F6 09     shrd        r14d,r14d,9
  0000000000001B9A: 45 31 DC           xor         r12d,r11d
  0000000000001B9D: C5 F9 70 F6 E8     vpshufd     xmm6,xmm6,0E8h
  0000000000001BA2: 45 0F AC ED 05     shrd        r13d,r13d,5
  0000000000001BA7: 41 31 DE           xor         r14d,ebx
  0000000000001BAA: 45 21 CC           and         r12d,r9d
  0000000000001BAD: C5 C9 73 FE 08     vpslldq     xmm6,xmm6,8
  0000000000001BB2: C4 41 39 EB C3     vpor        xmm8,xmm8,xmm11
  0000000000001BB7: C4 42 31 DD DA     vaesenclast xmm11,xmm9,xmm10
  0000000000001BBC: C5 7A 6F 57 80     vmovdqu     xmm10,xmmword ptr [rdi-80h]
  0000000000001BC1: 45 31 CD           xor         r13d,r9d
  0000000000001BC4: 03 44 24 3C        add         eax,dword ptr [rsp+3Ch]
  0000000000001BC8: 89 DE              mov         esi,ebx
  0000000000001BCA: C5 E1 FE DE        vpaddd      xmm3,xmm3,xmm6
  0000000000001BCE: 45 0F AC F6 0B     shrd        r14d,r14d,0Bh
  0000000000001BD3: 45 31 DC           xor         r12d,r11d
  0000000000001BD6: 31 CE              xor         esi,ecx
  0000000000001BD8: C5 E1 FE 75 60     vpaddd      xmm6,xmm3,xmmword ptr [rbp+60h]
  0000000000001BDD: 45 0F AC ED 06     shrd        r13d,r13d,6
  0000000000001BE2: 44 01 E0           add         eax,r12d
  0000000000001BE5: 41 21 F7           and         r15d,esi
  0000000000001BE8: 41 31 DE           xor         r14d,ebx
  0000000000001BEB: 44 01 E8           add         eax,r13d
  0000000000001BEE: 41 31 CF           xor         r15d,ecx
  0000000000001BF1: 41 01 C0           add         r8d,eax
  0000000000001BF4: 45 0F AC F6 02     shrd        r14d,r14d,2
  0000000000001BF9: 44 01 F8           add         eax,r15d
  0000000000001BFC: 45 89 C5           mov         r13d,r8d
  0000000000001BFF: 41 01 C6           add         r14d,eax
  0000000000001C02: C5 F9 7F 74 24 30  vmovdqa     xmmword ptr [rsp+30h],xmm6
  0000000000001C08: 4C 8B 64 24 40     mov         r12,qword ptr [rsp+40h]
  0000000000001C0D: C4 41 21 DB DE     vpand       xmm11,xmm11,xmm14
  0000000000001C12: 4C 8B 7C 24 48     mov         r15,qword ptr [rsp+48h]
  0000000000001C17: C4 41 39 EB C3     vpor        xmm8,xmm8,xmm11
  0000000000001C1C: C4 01 7A 7F 04 27  vmovdqu     xmmword ptr [r15+r12],xmm8
  0000000000001C22: 4D 8D 64 24 10     lea         r12,[r12+10h]
  0000000000001C27: 80 BD 83 00 00 00  cmp         byte ptr [rbp+83h],0
                    00
  0000000000001C2E: 0F 85 FC F6 FF FF  jne         L$avx_00_47
  0000000000001C34: C4 41 7A 6F 0C 24  vmovdqu     xmm9,xmmword ptr [r12]
  0000000000001C3A: 4C 89 64 24 40     mov         qword ptr [rsp+40h],r12
  0000000000001C3F: 45 0F AC ED 0E     shrd        r13d,r13d,0Eh
  0000000000001C44: 44 89 F0           mov         eax,r14d
  0000000000001C47: 45 89 CC           mov         r12d,r9d
  0000000000001C4A: 45 31 C5           xor         r13d,r8d
  0000000000001C4D: 45 0F AC F6 09     shrd        r14d,r14d,9
  0000000000001C52: 45 31 D4           xor         r12d,r10d
  0000000000001C55: 45 0F AC ED 05     shrd        r13d,r13d,5
  0000000000001C5A: 41 31 C6           xor         r14d,eax
  0000000000001C5D: 45 21 C4           and         r12d,r8d
  0000000000001C60: C4 41 31 EF CA     vpxor       xmm9,xmm9,xmm10
  0000000000001C65: C5 7A 6F 57 90     vmovdqu     xmm10,xmmword ptr [rdi-70h]
  0000000000001C6A: 45 31 C5           xor         r13d,r8d
  0000000000001C6D: 44 03 1C 24        add         r11d,dword ptr [rsp]
  0000000000001C71: 41 89 C7           mov         r15d,eax
  0000000000001C74: 45 0F AC F6 0B     shrd        r14d,r14d,0Bh
  0000000000001C79: 45 31 D4           xor         r12d,r10d
  0000000000001C7C: 41 31 DF           xor         r15d,ebx
  0000000000001C7F: 45 0F AC ED 06     shrd        r13d,r13d,6
  0000000000001C84: 45 01 E3           add         r11d,r12d
  0000000000001C87: 44 21 FE           and         esi,r15d
  0000000000001C8A: 41 31 C6           xor         r14d,eax
  0000000000001C8D: 45 01 EB           add         r11d,r13d
  0000000000001C90: 31 DE              xor         esi,ebx
  0000000000001C92: 44 01 DA           add         edx,r11d
  0000000000001C95: 45 0F AC F6 02     shrd        r14d,r14d,2
  0000000000001C9A: 41 01 F3           add         r11d,esi
  0000000000001C9D: 41 89 D5           mov         r13d,edx
  0000000000001CA0: 45 01 DE           add         r14d,r11d
  0000000000001CA3: 45 0F AC ED 0E     shrd        r13d,r13d,0Eh
  0000000000001CA8: 45 89 F3           mov         r11d,r14d
  0000000000001CAB: 45 89 C4           mov         r12d,r8d
  0000000000001CAE: 41 31 D5           xor         r13d,edx
  0000000000001CB1: 45 0F AC F6 09     shrd        r14d,r14d,9
  0000000000001CB6: 45 31 CC           xor         r12d,r9d
  0000000000001CB9: 45 0F AC ED 05     shrd        r13d,r13d,5
  0000000000001CBE: 45 31 DE           xor         r14d,r11d
  0000000000001CC1: 41 21 D4           and         r12d,edx
  0000000000001CC4: C4 41 31 EF C8     vpxor       xmm9,xmm9,xmm8
  0000000000001CC9: 41 31 D5           xor         r13d,edx
  0000000000001CCC: 44 03 54 24 04     add         r10d,dword ptr [rsp+4]
  0000000000001CD1: 44 89 DE           mov         esi,r11d
  0000000000001CD4: 45 0F AC F6 0B     shrd        r14d,r14d,0Bh
  0000000000001CD9: 45 31 CC           xor         r12d,r9d
  0000000000001CDC: 31 C6              xor         esi,eax
  0000000000001CDE: 45 0F AC ED 06     shrd        r13d,r13d,6
  0000000000001CE3: 45 01 E2           add         r10d,r12d
  0000000000001CE6: 41 21 F7           and         r15d,esi
  0000000000001CE9: 45 31 DE           xor         r14d,r11d
  0000000000001CEC: 45 01 EA           add         r10d,r13d
  0000000000001CEF: 41 31 C7           xor         r15d,eax
  0000000000001CF2: 44 01 D1           add         ecx,r10d
  0000000000001CF5: 45 0F AC F6 02     shrd        r14d,r14d,2
  0000000000001CFA: 45 01 FA           add         r10d,r15d
  0000000000001CFD: 41 89 CD           mov         r13d,ecx
  0000000000001D00: 45 01 D6           add         r14d,r10d
  0000000000001D03: 45 0F AC ED 0E     shrd        r13d,r13d,0Eh
  0000000000001D08: 45 89 F2           mov         r10d,r14d
  0000000000001D0B: 41 89 D4           mov         r12d,edx
  0000000000001D0E: 41 31 CD           xor         r13d,ecx
  0000000000001D11: 45 0F AC F6 09     shrd        r14d,r14d,9
  0000000000001D16: 45 31 C4           xor         r12d,r8d
  0000000000001D19: 45 0F AC ED 05     shrd        r13d,r13d,5
  0000000000001D1E: 45 31 D6           xor         r14d,r10d
  0000000000001D21: 41 21 CC           and         r12d,ecx
  0000000000001D24: C4 42 31 DC CA     vaesenc     xmm9,xmm9,xmm10
  0000000000001D29: C5 7A 6F 57 A0     vmovdqu     xmm10,xmmword ptr [rdi-60h]
  0000000000001D2E: 41 31 CD           xor         r13d,ecx
  0000000000001D31: 44 03 4C 24 08     add         r9d,dword ptr [rsp+8]
  0000000000001D36: 45 89 D7           mov         r15d,r10d
  0000000000001D39: 45 0F AC F6 0B     shrd        r14d,r14d,0Bh
  0000000000001D3E: 45 31 C4           xor         r12d,r8d
  0000000000001D41: 45 31 DF           xor         r15d,r11d
  0000000000001D44: 45 0F AC ED 06     shrd        r13d,r13d,6
  0000000000001D49: 45 01 E1           add         r9d,r12d
  0000000000001D4C: 44 21 FE           and         esi,r15d
  0000000000001D4F: 45 31 D6           xor         r14d,r10d
  0000000000001D52: 45 01 E9           add         r9d,r13d
  0000000000001D55: 44 31 DE           xor         esi,r11d
  0000000000001D58: 44 01 CB           add         ebx,r9d
  0000000000001D5B: 45 0F AC F6 02     shrd        r14d,r14d,2
  0000000000001D60: 41 01 F1           add         r9d,esi
  0000000000001D63: 41 89 DD           mov         r13d,ebx
  0000000000001D66: 45 01 CE           add         r14d,r9d
  0000000000001D69: 45 0F AC ED 0E     shrd        r13d,r13d,0Eh
  0000000000001D6E: 45 89 F1           mov         r9d,r14d
  0000000000001D71: 41 89 CC           mov         r12d,ecx
  0000000000001D74: 41 31 DD           xor         r13d,ebx
  0000000000001D77: 45 0F AC F6 09     shrd        r14d,r14d,9
  0000000000001D7C: 41 31 D4           xor         r12d,edx
  0000000000001D7F: 45 0F AC ED 05     shrd        r13d,r13d,5
  0000000000001D84: 45 31 CE           xor         r14d,r9d
  0000000000001D87: 41 21 DC           and         r12d,ebx
  0000000000001D8A: C4 42 31 DC CA     vaesenc     xmm9,xmm9,xmm10
  0000000000001D8F: C5 7A 6F 57 B0     vmovdqu     xmm10,xmmword ptr [rdi-50h]
  0000000000001D94: 41 31 DD           xor         r13d,ebx
  0000000000001D97: 44 03 44 24 0C     add         r8d,dword ptr [rsp+0Ch]
  0000000000001D9C: 44 89 CE           mov         esi,r9d
  0000000000001D9F: 45 0F AC F6 0B     shrd        r14d,r14d,0Bh
  0000000000001DA4: 41 31 D4           xor         r12d,edx
  0000000000001DA7: 44 31 D6           xor         esi,r10d
  0000000000001DAA: 45 0F AC ED 06     shrd        r13d,r13d,6
  0000000000001DAF: 45 01 E0           add         r8d,r12d
  0000000000001DB2: 41 21 F7           and         r15d,esi
  0000000000001DB5: 45 31 CE           xor         r14d,r9d
  0000000000001DB8: 45 01 E8           add         r8d,r13d
  0000000000001DBB: 45 31 D7           xor         r15d,r10d
  0000000000001DBE: 44 01 C0           add         eax,r8d
  0000000000001DC1: 45 0F AC F6 02     shrd        r14d,r14d,2
  0000000000001DC6: 45 01 F8           add         r8d,r15d
  0000000000001DC9: 41 89 C5           mov         r13d,eax
  0000000000001DCC: 45 01 C6           add         r14d,r8d
  0000000000001DCF: 45 0F AC ED 0E     shrd        r13d,r13d,0Eh
  0000000000001DD4: 45 89 F0           mov         r8d,r14d
  0000000000001DD7: 41 89 DC           mov         r12d,ebx
  0000000000001DDA: 41 31 C5           xor         r13d,eax
  0000000000001DDD: 45 0F AC F6 09     shrd        r14d,r14d,9
  0000000000001DE2: 41 31 CC           xor         r12d,ecx
  0000000000001DE5: 45 0F AC ED 05     shrd        r13d,r13d,5
  0000000000001DEA: 45 31 C6           xor         r14d,r8d
  0000000000001DED: 41 21 C4           and         r12d,eax
  0000000000001DF0: C4 42 31 DC CA     vaesenc     xmm9,xmm9,xmm10
  0000000000001DF5: C5 7A 6F 57 C0     vmovdqu     xmm10,xmmword ptr [rdi-40h]
  0000000000001DFA: 41 31 C5           xor         r13d,eax
  0000000000001DFD: 03 54 24 10        add         edx,dword ptr [rsp+10h]
  0000000000001E01: 45 89 C7           mov         r15d,r8d
  0000000000001E04: 45 0F AC F6 0B     shrd        r14d,r14d,0Bh
  0000000000001E09: 41 31 CC           xor         r12d,ecx
  0000000000001E0C: 45 31 CF           xor         r15d,r9d
  0000000000001E0F: 45 0F AC ED 06     shrd        r13d,r13d,6
  0000000000001E14: 44 01 E2           add         edx,r12d
  0000000000001E17: 44 21 FE           and         esi,r15d
  0000000000001E1A: 45 31 C6           xor         r14d,r8d
  0000000000001E1D: 44 01 EA           add         edx,r13d
  0000000000001E20: 44 31 CE           xor         esi,r9d
  0000000000001E23: 41 01 D3           add         r11d,edx
  0000000000001E26: 45 0F AC F6 02     shrd        r14d,r14d,2
  0000000000001E2B: 01 F2              add         edx,esi
  0000000000001E2D: 45 89 DD           mov         r13d,r11d
  0000000000001E30: 41 01 D6           add         r14d,edx
  0000000000001E33: 45 0F AC ED 0E     shrd        r13d,r13d,0Eh
  0000000000001E38: 44 89 F2           mov         edx,r14d
  0000000000001E3B: 41 89 C4           mov         r12d,eax
  0000000000001E3E: 45 31 DD           xor         r13d,r11d
  0000000000001E41: 45 0F AC F6 09     shrd        r14d,r14d,9
  0000000000001E46: 41 31 DC           xor         r12d,ebx
  0000000000001E49: 45 0F AC ED 05     shrd        r13d,r13d,5
  0000000000001E4E: 41 31 D6           xor         r14d,edx
  0000000000001E51: 45 21 DC           and         r12d,r11d
  0000000000001E54: C4 42 31 DC CA     vaesenc     xmm9,xmm9,xmm10
  0000000000001E59: C5 7A 6F 57 D0     vmovdqu     xmm10,xmmword ptr [rdi-30h]
  0000000000001E5E: 45 31 DD           xor         r13d,r11d
  0000000000001E61: 03 4C 24 14        add         ecx,dword ptr [rsp+14h]
  0000000000001E65: 89 D6              mov         esi,edx
  0000000000001E67: 45 0F AC F6 0B     shrd        r14d,r14d,0Bh
  0000000000001E6C: 41 31 DC           xor         r12d,ebx
  0000000000001E6F: 44 31 C6           xor         esi,r8d
  0000000000001E72: 45 0F AC ED 06     shrd        r13d,r13d,6
  0000000000001E77: 44 01 E1           add         ecx,r12d
  0000000000001E7A: 41 21 F7           and         r15d,esi
  0000000000001E7D: 41 31 D6           xor         r14d,edx
  0000000000001E80: 44 01 E9           add         ecx,r13d
  0000000000001E83: 45 31 C7           xor         r15d,r8d
  0000000000001E86: 41 01 CA           add         r10d,ecx
  0000000000001E89: 45 0F AC F6 02     shrd        r14d,r14d,2
  0000000000001E8E: 44 01 F9           add         ecx,r15d
  0000000000001E91: 45 89 D5           mov         r13d,r10d
  0000000000001E94: 41 01 CE           add         r14d,ecx
  0000000000001E97: 45 0F AC ED 0E     shrd        r13d,r13d,0Eh
  0000000000001E9C: 44 89 F1           mov         ecx,r14d
  0000000000001E9F: 45 89 DC           mov         r12d,r11d
  0000000000001EA2: 45 31 D5           xor         r13d,r10d
  0000000000001EA5: 45 0F AC F6 09     shrd        r14d,r14d,9
  0000000000001EAA: 41 31 C4           xor         r12d,eax
  0000000000001EAD: 45 0F AC ED 05     shrd        r13d,r13d,5
  0000000000001EB2: 41 31 CE           xor         r14d,ecx
  0000000000001EB5: 45 21 D4           and         r12d,r10d
  0000000000001EB8: C4 42 31 DC CA     vaesenc     xmm9,xmm9,xmm10
  0000000000001EBD: C5 7A 6F 57 E0     vmovdqu     xmm10,xmmword ptr [rdi-20h]
  0000000000001EC2: 45 31 D5           xor         r13d,r10d
  0000000000001EC5: 03 5C 24 18        add         ebx,dword ptr [rsp+18h]
  0000000000001EC9: 41 89 CF           mov         r15d,ecx
  0000000000001ECC: 45 0F AC F6 0B     shrd        r14d,r14d,0Bh
  0000000000001ED1: 41 31 C4           xor         r12d,eax
  0000000000001ED4: 41 31 D7           xor         r15d,edx
  0000000000001ED7: 45 0F AC ED 06     shrd        r13d,r13d,6
  0000000000001EDC: 44 01 E3           add         ebx,r12d
  0000000000001EDF: 44 21 FE           and         esi,r15d
  0000000000001EE2: 41 31 CE           xor         r14d,ecx
  0000000000001EE5: 44 01 EB           add         ebx,r13d
  0000000000001EE8: 31 D6              xor         esi,edx
  0000000000001EEA: 41 01 D9           add         r9d,ebx
  0000000000001EED: 45 0F AC F6 02     shrd        r14d,r14d,2
  0000000000001EF2: 01 F3              add         ebx,esi
  0000000000001EF4: 45 89 CD           mov         r13d,r9d
  0000000000001EF7: 41 01 DE           add         r14d,ebx
  0000000000001EFA: 45 0F AC ED 0E     shrd        r13d,r13d,0Eh
  0000000000001EFF: 44 89 F3           mov         ebx,r14d
  0000000000001F02: 45 89 D4           mov         r12d,r10d
  0000000000001F05: 45 31 CD           xor         r13d,r9d
  0000000000001F08: 45 0F AC F6 09     shrd        r14d,r14d,9
  0000000000001F0D: 45 31 DC           xor         r12d,r11d
  0000000000001F10: 45 0F AC ED 05     shrd        r13d,r13d,5
  0000000000001F15: 41 31 DE           xor         r14d,ebx
  0000000000001F18: 45 21 CC           and         r12d,r9d
  0000000000001F1B: C4 42 31 DC CA     vaesenc     xmm9,xmm9,xmm10
  0000000000001F20: C5 7A 6F 57 F0     vmovdqu     xmm10,xmmword ptr [rdi-10h]
  0000000000001F25: 45 31 CD           xor         r13d,r9d
  0000000000001F28: 03 44 24 1C        add         eax,dword ptr [rsp+1Ch]
  0000000000001F2C: 89 DE              mov         esi,ebx
  0000000000001F2E: 45 0F AC F6 0B     shrd        r14d,r14d,0Bh
  0000000000001F33: 45 31 DC           xor         r12d,r11d
  0000000000001F36: 31 CE              xor         esi,ecx
  0000000000001F38: 45 0F AC ED 06     shrd        r13d,r13d,6
  0000000000001F3D: 44 01 E0           add         eax,r12d
  0000000000001F40: 41 21 F7           and         r15d,esi
  0000000000001F43: 41 31 DE           xor         r14d,ebx
  0000000000001F46: 44 01 E8           add         eax,r13d
  0000000000001F49: 41 31 CF           xor         r15d,ecx
  0000000000001F4C: 41 01 C0           add         r8d,eax
  0000000000001F4F: 45 0F AC F6 02     shrd        r14d,r14d,2
  0000000000001F54: 44 01 F8           add         eax,r15d
  0000000000001F57: 45 89 C5           mov         r13d,r8d
  0000000000001F5A: 41 01 C6           add         r14d,eax
  0000000000001F5D: 45 0F AC ED 0E     shrd        r13d,r13d,0Eh
  0000000000001F62: 44 89 F0           mov         eax,r14d
  0000000000001F65: 45 89 CC           mov         r12d,r9d
  0000000000001F68: 45 31 C5           xor         r13d,r8d
  0000000000001F6B: 45 0F AC F6 09     shrd        r14d,r14d,9
  0000000000001F70: 45 31 D4           xor         r12d,r10d
  0000000000001F73: 45 0F AC ED 05     shrd        r13d,r13d,5
  0000000000001F78: 41 31 C6           xor         r14d,eax
  0000000000001F7B: 45 21 C4           and         r12d,r8d
  0000000000001F7E: C4 42 31 DC CA     vaesenc     xmm9,xmm9,xmm10
  0000000000001F83: C5 7A 6F 17        vmovdqu     xmm10,xmmword ptr [rdi]
  0000000000001F87: 45 31 C5           xor         r13d,r8d
  0000000000001F8A: 44 03 5C 24 20     add         r11d,dword ptr [rsp+20h]
  0000000000001F8F: 41 89 C7           mov         r15d,eax
  0000000000001F92: 45 0F AC F6 0B     shrd        r14d,r14d,0Bh
  0000000000001F97: 45 31 D4           xor         r12d,r10d
  0000000000001F9A: 41 31 DF           xor         r15d,ebx
  0000000000001F9D: 45 0F AC ED 06     shrd        r13d,r13d,6
  0000000000001FA2: 45 01 E3           add         r11d,r12d
  0000000000001FA5: 44 21 FE           and         esi,r15d
  0000000000001FA8: 41 31 C6           xor         r14d,eax
  0000000000001FAB: 45 01 EB           add         r11d,r13d
  0000000000001FAE: 31 DE              xor         esi,ebx
  0000000000001FB0: 44 01 DA           add         edx,r11d
  0000000000001FB3: 45 0F AC F6 02     shrd        r14d,r14d,2
  0000000000001FB8: 41 01 F3           add         r11d,esi
  0000000000001FBB: 41 89 D5           mov         r13d,edx
  0000000000001FBE: 45 01 DE           add         r14d,r11d
  0000000000001FC1: 45 0F AC ED 0E     shrd        r13d,r13d,0Eh
  0000000000001FC6: 45 89 F3           mov         r11d,r14d
  0000000000001FC9: 45 89 C4           mov         r12d,r8d
  0000000000001FCC: 41 31 D5           xor         r13d,edx
  0000000000001FCF: 45 0F AC F6 09     shrd        r14d,r14d,9
  0000000000001FD4: 45 31 CC           xor         r12d,r9d
  0000000000001FD7: 45 0F AC ED 05     shrd        r13d,r13d,5
  0000000000001FDC: 45 31 DE           xor         r14d,r11d
  0000000000001FDF: 41 21 D4           and         r12d,edx
  0000000000001FE2: C4 42 31 DC CA     vaesenc     xmm9,xmm9,xmm10
  0000000000001FE7: C5 7A 6F 57 10     vmovdqu     xmm10,xmmword ptr [rdi+10h]
  0000000000001FEC: 41 31 D5           xor         r13d,edx
  0000000000001FEF: 44 03 54 24 24     add         r10d,dword ptr [rsp+24h]
  0000000000001FF4: 44 89 DE           mov         esi,r11d
  0000000000001FF7: 45 0F AC F6 0B     shrd        r14d,r14d,0Bh
  0000000000001FFC: 45 31 CC           xor         r12d,r9d
  0000000000001FFF: 31 C6              xor         esi,eax
  0000000000002001: 45 0F AC ED 06     shrd        r13d,r13d,6
  0000000000002006: 45 01 E2           add         r10d,r12d
  0000000000002009: 41 21 F7           and         r15d,esi
  000000000000200C: 45 31 DE           xor         r14d,r11d
  000000000000200F: 45 01 EA           add         r10d,r13d
  0000000000002012: 41 31 C7           xor         r15d,eax
  0000000000002015: 44 01 D1           add         ecx,r10d
  0000000000002018: 45 0F AC F6 02     shrd        r14d,r14d,2
  000000000000201D: 45 01 FA           add         r10d,r15d
  0000000000002020: 41 89 CD           mov         r13d,ecx
  0000000000002023: 45 01 D6           add         r14d,r10d
  0000000000002026: 45 0F AC ED 0E     shrd        r13d,r13d,0Eh
  000000000000202B: 45 89 F2           mov         r10d,r14d
  000000000000202E: 41 89 D4           mov         r12d,edx
  0000000000002031: 41 31 CD           xor         r13d,ecx
  0000000000002034: 45 0F AC F6 09     shrd        r14d,r14d,9
  0000000000002039: 45 31 C4           xor         r12d,r8d
  000000000000203C: 45 0F AC ED 05     shrd        r13d,r13d,5
  0000000000002041: 45 31 D6           xor         r14d,r10d
  0000000000002044: 41 21 CC           and         r12d,ecx
  0000000000002047: C4 42 31 DC CA     vaesenc     xmm9,xmm9,xmm10
  000000000000204C: C5 7A 6F 57 20     vmovdqu     xmm10,xmmword ptr [rdi+20h]
  0000000000002051: 41 31 CD           xor         r13d,ecx
  0000000000002054: 44 03 4C 24 28     add         r9d,dword ptr [rsp+28h]
  0000000000002059: 45 89 D7           mov         r15d,r10d
  000000000000205C: 45 0F AC F6 0B     shrd        r14d,r14d,0Bh
  0000000000002061: 45 31 C4           xor         r12d,r8d
  0000000000002064: 45 31 DF           xor         r15d,r11d
  0000000000002067: 45 0F AC ED 06     shrd        r13d,r13d,6
  000000000000206C: 45 01 E1           add         r9d,r12d
  000000000000206F: 44 21 FE           and         esi,r15d
  0000000000002072: 45 31 D6           xor         r14d,r10d
  0000000000002075: 45 01 E9           add         r9d,r13d
  0000000000002078: 44 31 DE           xor         esi,r11d
  000000000000207B: 44 01 CB           add         ebx,r9d
  000000000000207E: 45 0F AC F6 02     shrd        r14d,r14d,2
  0000000000002083: 41 01 F1           add         r9d,esi
  0000000000002086: 41 89 DD           mov         r13d,ebx
  0000000000002089: 45 01 CE           add         r14d,r9d
  000000000000208C: 45 0F AC ED 0E     shrd        r13d,r13d,0Eh
  0000000000002091: 45 89 F1           mov         r9d,r14d
  0000000000002094: 41 89 CC           mov         r12d,ecx
  0000000000002097: 41 31 DD           xor         r13d,ebx
  000000000000209A: 45 0F AC F6 09     shrd        r14d,r14d,9
  000000000000209F: 41 31 D4           xor         r12d,edx
  00000000000020A2: 45 0F AC ED 05     shrd        r13d,r13d,5
  00000000000020A7: 45 31 CE           xor         r14d,r9d
  00000000000020AA: 41 21 DC           and         r12d,ebx
  00000000000020AD: C4 42 31 DD DA     vaesenclast xmm11,xmm9,xmm10
  00000000000020B2: C4 42 31 DC CA     vaesenc     xmm9,xmm9,xmm10
  00000000000020B7: C5 7A 6F 57 30     vmovdqu     xmm10,xmmword ptr [rdi+30h]
  00000000000020BC: 41 31 DD           xor         r13d,ebx
  00000000000020BF: 44 03 44 24 2C     add         r8d,dword ptr [rsp+2Ch]
  00000000000020C4: 44 89 CE           mov         esi,r9d
  00000000000020C7: 45 0F AC F6 0B     shrd        r14d,r14d,0Bh
  00000000000020CC: 41 31 D4           xor         r12d,edx
  00000000000020CF: 44 31 D6           xor         esi,r10d
  00000000000020D2: 45 0F AC ED 06     shrd        r13d,r13d,6
  00000000000020D7: 45 01 E0           add         r8d,r12d
  00000000000020DA: 41 21 F7           and         r15d,esi
  00000000000020DD: 45 31 CE           xor         r14d,r9d
  00000000000020E0: 45 01 E8           add         r8d,r13d
  00000000000020E3: 45 31 D7           xor         r15d,r10d
  00000000000020E6: 44 01 C0           add         eax,r8d
  00000000000020E9: 45 0F AC F6 02     shrd        r14d,r14d,2
  00000000000020EE: 45 01 F8           add         r8d,r15d
  00000000000020F1: 41 89 C5           mov         r13d,eax
  00000000000020F4: 45 01 C6           add         r14d,r8d
  00000000000020F7: 45 0F AC ED 0E     shrd        r13d,r13d,0Eh
  00000000000020FC: 45 89 F0           mov         r8d,r14d
  00000000000020FF: 41 89 DC           mov         r12d,ebx
  0000000000002102: 41 31 C5           xor         r13d,eax
  0000000000002105: 45 0F AC F6 09     shrd        r14d,r14d,9
  000000000000210A: 41 31 CC           xor         r12d,ecx
  000000000000210D: 45 0F AC ED 05     shrd        r13d,r13d,5
  0000000000002112: 45 31 C6           xor         r14d,r8d
  0000000000002115: 41 21 C4           and         r12d,eax
  0000000000002118: C4 41 21 DB C4     vpand       xmm8,xmm11,xmm12
  000000000000211D: C4 42 31 DC CA     vaesenc     xmm9,xmm9,xmm10
  0000000000002122: C5 7A 6F 57 40     vmovdqu     xmm10,xmmword ptr [rdi+40h]
  0000000000002127: 41 31 C5           xor         r13d,eax
  000000000000212A: 03 54 24 30        add         edx,dword ptr [rsp+30h]
  000000000000212E: 45 89 C7           mov         r15d,r8d
  0000000000002131: 45 0F AC F6 0B     shrd        r14d,r14d,0Bh
  0000000000002136: 41 31 CC           xor         r12d,ecx
  0000000000002139: 45 31 CF           xor         r15d,r9d
  000000000000213C: 45 0F AC ED 06     shrd        r13d,r13d,6
  0000000000002141: 44 01 E2           add         edx,r12d
  0000000000002144: 44 21 FE           and         esi,r15d
  0000000000002147: 45 31 C6           xor         r14d,r8d
  000000000000214A: 44 01 EA           add         edx,r13d
  000000000000214D: 44 31 CE           xor         esi,r9d
  0000000000002150: 41 01 D3           add         r11d,edx
  0000000000002153: 45 0F AC F6 02     shrd        r14d,r14d,2
  0000000000002158: 01 F2              add         edx,esi
  000000000000215A: 45 89 DD           mov         r13d,r11d
  000000000000215D: 41 01 D6           add         r14d,edx
  0000000000002160: 45 0F AC ED 0E     shrd        r13d,r13d,0Eh
  0000000000002165: 44 89 F2           mov         edx,r14d
  0000000000002168: 41 89 C4           mov         r12d,eax
  000000000000216B: 45 31 DD           xor         r13d,r11d
  000000000000216E: 45 0F AC F6 09     shrd        r14d,r14d,9
  0000000000002173: 41 31 DC           xor         r12d,ebx
  0000000000002176: 45 0F AC ED 05     shrd        r13d,r13d,5
  000000000000217B: 41 31 D6           xor         r14d,edx
  000000000000217E: 45 21 DC           and         r12d,r11d
  0000000000002181: C4 42 31 DD DA     vaesenclast xmm11,xmm9,xmm10
  0000000000002186: C4 42 31 DC CA     vaesenc     xmm9,xmm9,xmm10
  000000000000218B: C5 7A 6F 57 50     vmovdqu     xmm10,xmmword ptr [rdi+50h]
  0000000000002190: 45 31 DD           xor         r13d,r11d
  0000000000002193: 03 4C 24 34        add         ecx,dword ptr [rsp+34h]
  0000000000002197: 89 D6              mov         esi,edx
  0000000000002199: 45 0F AC F6 0B     shrd        r14d,r14d,0Bh
  000000000000219E: 41 31 DC           xor         r12d,ebx
  00000000000021A1: 44 31 C6           xor         esi,r8d
  00000000000021A4: 45 0F AC ED 06     shrd        r13d,r13d,6
  00000000000021A9: 44 01 E1           add         ecx,r12d
  00000000000021AC: 41 21 F7           and         r15d,esi
  00000000000021AF: 41 31 D6           xor         r14d,edx
  00000000000021B2: 44 01 E9           add         ecx,r13d
  00000000000021B5: 45 31 C7           xor         r15d,r8d
  00000000000021B8: 41 01 CA           add         r10d,ecx
  00000000000021BB: 45 0F AC F6 02     shrd        r14d,r14d,2
  00000000000021C0: 44 01 F9           add         ecx,r15d
  00000000000021C3: 45 89 D5           mov         r13d,r10d
  00000000000021C6: 41 01 CE           add         r14d,ecx
  00000000000021C9: 45 0F AC ED 0E     shrd        r13d,r13d,0Eh
  00000000000021CE: 44 89 F1           mov         ecx,r14d
  00000000000021D1: 45 89 DC           mov         r12d,r11d
  00000000000021D4: 45 31 D5           xor         r13d,r10d
  00000000000021D7: 45 0F AC F6 09     shrd        r14d,r14d,9
  00000000000021DC: 41 31 C4           xor         r12d,eax
  00000000000021DF: 45 0F AC ED 05     shrd        r13d,r13d,5
  00000000000021E4: 41 31 CE           xor         r14d,ecx
  00000000000021E7: 45 21 D4           and         r12d,r10d
  00000000000021EA: C4 41 21 DB DD     vpand       xmm11,xmm11,xmm13
  00000000000021EF: C4 42 31 DC CA     vaesenc     xmm9,xmm9,xmm10
  00000000000021F4: C5 7A 6F 57 60     vmovdqu     xmm10,xmmword ptr [rdi+60h]
  00000000000021F9: 45 31 D5           xor         r13d,r10d
  00000000000021FC: 03 5C 24 38        add         ebx,dword ptr [rsp+38h]
  0000000000002200: 41 89 CF           mov         r15d,ecx
  0000000000002203: 45 0F AC F6 0B     shrd        r14d,r14d,0Bh
  0000000000002208: 41 31 C4           xor         r12d,eax
  000000000000220B: 41 31 D7           xor         r15d,edx
  000000000000220E: 45 0F AC ED 06     shrd        r13d,r13d,6
  0000000000002213: 44 01 E3           add         ebx,r12d
  0000000000002216: 44 21 FE           and         esi,r15d
  0000000000002219: 41 31 CE           xor         r14d,ecx
  000000000000221C: 44 01 EB           add         ebx,r13d
  000000000000221F: 31 D6              xor         esi,edx
  0000000000002221: 41 01 D9           add         r9d,ebx
  0000000000002224: 45 0F AC F6 02     shrd        r14d,r14d,2
  0000000000002229: 01 F3              add         ebx,esi
  000000000000222B: 45 89 CD           mov         r13d,r9d
  000000000000222E: 41 01 DE           add         r14d,ebx
  0000000000002231: 45 0F AC ED 0E     shrd        r13d,r13d,0Eh
  0000000000002236: 44 89 F3           mov         ebx,r14d
  0000000000002239: 45 89 D4           mov         r12d,r10d
  000000000000223C: 45 31 CD           xor         r13d,r9d
  000000000000223F: 45 0F AC F6 09     shrd        r14d,r14d,9
  0000000000002244: 45 31 DC           xor         r12d,r11d
  0000000000002247: 45 0F AC ED 05     shrd        r13d,r13d,5
  000000000000224C: 41 31 DE           xor         r14d,ebx
  000000000000224F: 45 21 CC           and         r12d,r9d
  0000000000002252: C4 41 39 EB C3     vpor        xmm8,xmm8,xmm11
  0000000000002257: C4 42 31 DD DA     vaesenclast xmm11,xmm9,xmm10
  000000000000225C: C5 7A 6F 57 80     vmovdqu     xmm10,xmmword ptr [rdi-80h]
  0000000000002261: 45 31 CD           xor         r13d,r9d
  0000000000002264: 03 44 24 3C        add         eax,dword ptr [rsp+3Ch]
  0000000000002268: 89 DE              mov         esi,ebx
  000000000000226A: 45 0F AC F6 0B     shrd        r14d,r14d,0Bh
  000000000000226F: 45 31 DC           xor         r12d,r11d
  0000000000002272: 31 CE              xor         esi,ecx
  0000000000002274: 45 0F AC ED 06     shrd        r13d,r13d,6
  0000000000002279: 44 01 E0           add         eax,r12d
  000000000000227C: 41 21 F7           and         r15d,esi
  000000000000227F: 41 31 DE           xor         r14d,ebx
  0000000000002282: 44 01 E8           add         eax,r13d
  0000000000002285: 41 31 CF           xor         r15d,ecx
  0000000000002288: 41 01 C0           add         r8d,eax
  000000000000228B: 45 0F AC F6 02     shrd        r14d,r14d,2
  0000000000002290: 44 01 F8           add         eax,r15d
  0000000000002293: 45 89 C5           mov         r13d,r8d
  0000000000002296: 41 01 C6           add         r14d,eax
  0000000000002299: 4C 8B 64 24 40     mov         r12,qword ptr [rsp+40h]
  000000000000229E: 4C 8B 6C 24 48     mov         r13,qword ptr [rsp+48h]
  00000000000022A3: 4C 8B 7C 24 68     mov         r15,qword ptr [rsp+68h]
  00000000000022A8: 48 8B 74 24 70     mov         rsi,qword ptr [rsp+70h]
  00000000000022AD: C4 41 21 DB DE     vpand       xmm11,xmm11,xmm14
  00000000000022B2: 44 89 F0           mov         eax,r14d
  00000000000022B5: C4 41 39 EB C3     vpor        xmm8,xmm8,xmm11
  00000000000022BA: C4 01 7A 7F 04 2C  vmovdqu     xmmword ptr [r12+r13],xmm8
  00000000000022C0: 4D 8D 64 24 10     lea         r12,[r12+10h]
  00000000000022C5: 41 03 07           add         eax,dword ptr [r15]
  00000000000022C8: 41 03 5F 04        add         ebx,dword ptr [r15+4]
  00000000000022CC: 41 03 4F 08        add         ecx,dword ptr [r15+8]
  00000000000022D0: 41 03 57 0C        add         edx,dword ptr [r15+0Ch]
  00000000000022D4: 45 03 47 10        add         r8d,dword ptr [r15+10h]
  00000000000022D8: 45 03 4F 14        add         r9d,dword ptr [r15+14h]
  00000000000022DC: 45 03 57 18        add         r10d,dword ptr [r15+18h]
  00000000000022E0: 45 03 5F 1C        add         r11d,dword ptr [r15+1Ch]
  00000000000022E4: 4C 3B 64 24 50     cmp         r12,qword ptr [rsp+50h]
  00000000000022E9: 41 89 07           mov         dword ptr [r15],eax
  00000000000022EC: 41 89 5F 04        mov         dword ptr [r15+4],ebx
  00000000000022F0: 41 89 4F 08        mov         dword ptr [r15+8],ecx
  00000000000022F4: 41 89 57 0C        mov         dword ptr [r15+0Ch],edx
  00000000000022F8: 45 89 47 10        mov         dword ptr [r15+10h],r8d
  00000000000022FC: 45 89 4F 14        mov         dword ptr [r15+14h],r9d
  0000000000002300: 45 89 57 18        mov         dword ptr [r15+18h],r10d
  0000000000002304: 45 89 5F 1C        mov         dword ptr [r15+1Ch],r11d
  0000000000002308: 0F 82 A2 EF FF FF  jb          L$loop_avx
  000000000000230E: 4C 8B 44 24 60     mov         r8,qword ptr [rsp+60h]
  0000000000002313: 48 8B 74 24 78     mov         rsi,qword ptr [rsp+78h]
  0000000000002318: C4 41 7A 7F 00     vmovdqu     xmmword ptr [r8],xmm8
  000000000000231D: C5 FC 77           vzeroall
  0000000000002320: 0F 28 B4 24 80 00  movaps      xmm6,xmmword ptr [rsp+80h]
                    00 00
  0000000000002328: 0F 28 BC 24 90 00  movaps      xmm7,xmmword ptr [rsp+90h]
                    00 00
  0000000000002330: 44 0F 28 84 24 A0  movaps      xmm8,xmmword ptr [rsp+0A0h]
                    00 00 00
  0000000000002339: 44 0F 28 8C 24 B0  movaps      xmm9,xmmword ptr [rsp+0B0h]
                    00 00 00
  0000000000002342: 44 0F 28 94 24 C0  movaps      xmm10,xmmword ptr [rsp+0C0h]
                    00 00 00
  000000000000234B: 44 0F 28 9C 24 D0  movaps      xmm11,xmmword ptr [rsp+0D0h]
                    00 00 00
  0000000000002354: 44 0F 28 A4 24 E0  movaps      xmm12,xmmword ptr [rsp+0E0h]
                    00 00 00
  000000000000235D: 44 0F 28 AC 24 F0  movaps      xmm13,xmmword ptr [rsp+0F0h]
                    00 00 00
  0000000000002366: 44 0F 28 B4 24 00  movaps      xmm14,xmmword ptr [rsp+100h]
                    01 00 00
  000000000000236F: 44 0F 28 BC 24 10  movaps      xmm15,xmmword ptr [rsp+110h]
                    01 00 00
  0000000000002378: 4C 8B 7E D0        mov         r15,qword ptr [rsi-30h]
  000000000000237C: 4C 8B 76 D8        mov         r14,qword ptr [rsi-28h]
  0000000000002380: 4C 8B 6E E0        mov         r13,qword ptr [rsi-20h]
  0000000000002384: 4C 8B 66 E8        mov         r12,qword ptr [rsi-18h]
  0000000000002388: 48 8B 6E F0        mov         rbp,qword ptr [rsi-10h]
  000000000000238C: 48 8B 5E F8        mov         rbx,qword ptr [rsi-8]
  0000000000002390: 48 8D 26           lea         rsp,[rsi]
L$epilogue_avx:
  0000000000002393: 48 8B 7C 24 08     mov         rdi,qword ptr [rsp+8]
  0000000000002398: 48 8B 74 24 10     mov         rsi,qword ptr [rsp+10h]
  000000000000239D: F3 C3              rep ret
L$SEH_end_aesni_cbc_sha256_enc_avx:
  000000000000239F: 90                 nop
  00000000000023A0: 90                 nop
  00000000000023A1: 90                 nop
  00000000000023A2: 90                 nop
  00000000000023A3: 90                 nop
  00000000000023A4: 90                 nop
  00000000000023A5: 90                 nop
  00000000000023A6: 90                 nop
  00000000000023A7: 90                 nop
  00000000000023A8: 90                 nop
  00000000000023A9: 90                 nop
  00000000000023AA: 90                 nop
  00000000000023AB: 90                 nop
  00000000000023AC: 90                 nop
  00000000000023AD: 90                 nop
  00000000000023AE: 90                 nop
  00000000000023AF: 90                 nop
  00000000000023B0: 90                 nop
  00000000000023B1: 90                 nop
  00000000000023B2: 90                 nop
  00000000000023B3: 90                 nop
  00000000000023B4: 90                 nop
  00000000000023B5: 90                 nop
  00000000000023B6: 90                 nop
  00000000000023B7: 90                 nop
  00000000000023B8: 90                 nop
  00000000000023B9: 90                 nop
  00000000000023BA: 90                 nop
  00000000000023BB: 90                 nop
  00000000000023BC: 90                 nop
  00000000000023BD: 90                 nop
  00000000000023BE: 90                 nop
  00000000000023BF: 90                 nop
aesni_cbc_sha256_enc_avx2:
  00000000000023C0: 48 89 7C 24 08     mov         qword ptr [rsp+8],rdi
  00000000000023C5: 48 89 74 24 10     mov         qword ptr [rsp+10h],rsi
  00000000000023CA: 48 89 E0           mov         rax,rsp
L$SEH_begin_aesni_cbc_sha256_enc_avx2:
  00000000000023CD: 48 89 CF           mov         rdi,rcx
  00000000000023D0: 48 89 D6           mov         rsi,rdx
  00000000000023D3: 4C 89 C2           mov         rdx,r8
  00000000000023D6: 4C 89 C9           mov         rcx,r9
  00000000000023D9: 4C 8B 44 24 28     mov         r8,qword ptr [rsp+28h]
  00000000000023DE: 4C 8B 4C 24 30     mov         r9,qword ptr [rsp+30h]
L$avx2_shortcut:
  00000000000023E3: 4C 8B 54 24 38     mov         r10,qword ptr [rsp+38h]
  00000000000023E8: 48 89 E0           mov         rax,rsp
  00000000000023EB: 53                 push        rbx
  00000000000023EC: 55                 push        rbp
  00000000000023ED: 41 54              push        r12
  00000000000023EF: 41 55              push        r13
  00000000000023F1: 41 56              push        r14
  00000000000023F3: 41 57              push        r15
  00000000000023F5: 48 81 EC E0 02 00  sub         rsp,2E0h
                    00
  00000000000023FC: 48 81 E4 00 FC FF  and         rsp,0FFFFFFFFFFFFFC00h
                    FF
  0000000000002403: 48 81 C4 C0 01 00  add         rsp,1C0h
                    00
  000000000000240A: 48 C1 E2 06        shl         rdx,6
  000000000000240E: 48 29 FE           sub         rsi,rdi
  0000000000002411: 49 29 FA           sub         r10,rdi
  0000000000002414: 48 01 FA           add         rdx,rdi
  0000000000002417: 48 89 54 24 50     mov         qword ptr [rsp+50h],rdx
  000000000000241C: 4C 89 44 24 60     mov         qword ptr [rsp+60h],r8
  0000000000002421: 4C 89 4C 24 68     mov         qword ptr [rsp+68h],r9
  0000000000002426: 4C 89 54 24 70     mov         qword ptr [rsp+70h],r10
  000000000000242B: 48 89 44 24 78     mov         qword ptr [rsp+78h],rax
  0000000000002430: 0F 29 B4 24 80 00  movaps      xmmword ptr [rsp+80h],xmm6
                    00 00
  0000000000002438: 0F 29 BC 24 90 00  movaps      xmmword ptr [rsp+90h],xmm7
                    00 00
  0000000000002440: 44 0F 29 84 24 A0  movaps      xmmword ptr [rsp+0A0h],xmm8
                    00 00 00
  0000000000002449: 44 0F 29 8C 24 B0  movaps      xmmword ptr [rsp+0B0h],xmm9
                    00 00 00
  0000000000002452: 44 0F 29 94 24 C0  movaps      xmmword ptr [rsp+0C0h],xmm10
                    00 00 00
  000000000000245B: 44 0F 29 9C 24 D0  movaps      xmmword ptr [rsp+0D0h],xmm11
                    00 00 00
  0000000000002464: 44 0F 29 A4 24 E0  movaps      xmmword ptr [rsp+0E0h],xmm12
                    00 00 00
  000000000000246D: 44 0F 29 AC 24 F0  movaps      xmmword ptr [rsp+0F0h],xmm13
                    00 00 00
  0000000000002476: 44 0F 29 B4 24 00  movaps      xmmword ptr [rsp+100h],xmm14
                    01 00 00
  000000000000247F: 44 0F 29 BC 24 10  movaps      xmmword ptr [rsp+110h],xmm15
                    01 00 00
L$prologue_avx2:
  0000000000002488: C5 FC 77           vzeroall
  000000000000248B: 49 89 FD           mov         r13,rdi
  000000000000248E: C4 63 81 22 FE 01  vpinsrq     xmm15,xmm15,rsi,1
  0000000000002494: 48 8D B9 80 00 00  lea         rdi,[rcx+80h]
                    00
  000000000000249B: 4C 8D 25 20 02 00  lea         r12,[.rdata+220h]
                    00
  00000000000024A2: 44 8B 77 70        mov         r14d,dword ptr [rdi+70h]
  00000000000024A6: 4D 89 CF           mov         r15,r9
  00000000000024A9: 4C 89 D6           mov         rsi,r10
  00000000000024AC: C4 41 7A 6F 00     vmovdqu     xmm8,xmmword ptr [r8]
  00000000000024B1: 4D 8D 76 F7        lea         r14,[r14-9]
  00000000000024B5: C4 01 79 6F 34 F4  vmovdqa     xmm14,xmmword ptr [r12+r14*8]
  00000000000024BB: C4 01 79 6F 6C F4  vmovdqa     xmm13,xmmword ptr [r12+r14*8+10h]
                    10
  00000000000024C2: C4 01 79 6F 64 F4  vmovdqa     xmm12,xmmword ptr [r12+r14*8+20h]
                    20
  00000000000024C9: 49 83 ED C0        sub         r13,0FFFFFFFFFFFFFFC0h
  00000000000024CD: 41 8B 07           mov         eax,dword ptr [r15]
  00000000000024D0: 4E 8D 24 2E        lea         r12,[rsi+r13]
  00000000000024D4: 41 8B 5F 04        mov         ebx,dword ptr [r15+4]
  00000000000024D8: 49 39 D5           cmp         r13,rdx
  00000000000024DB: 41 8B 4F 08        mov         ecx,dword ptr [r15+8]
  00000000000024DF: 4C 0F 44 E4        cmove       r12,rsp
  00000000000024E3: 41 8B 57 0C        mov         edx,dword ptr [r15+0Ch]
  00000000000024E7: 45 8B 47 10        mov         r8d,dword ptr [r15+10h]
  00000000000024EB: 45 8B 4F 14        mov         r9d,dword ptr [r15+14h]
  00000000000024EF: 45 8B 57 18        mov         r10d,dword ptr [r15+18h]
  00000000000024F3: 45 8B 5F 1C        mov         r11d,dword ptr [r15+1Ch]
  00000000000024F7: C5 7A 6F 57 80     vmovdqu     xmm10,xmmword ptr [rdi-80h]
  00000000000024FC: E9 0F 00 00 00     jmp         L$oop_avx2
  0000000000002501: 90                 nop
  0000000000002502: 90                 nop
  0000000000002503: 90                 nop
  0000000000002504: 90                 nop
  0000000000002505: 90                 nop
  0000000000002506: 90                 nop
  0000000000002507: 90                 nop
  0000000000002508: 90                 nop
  0000000000002509: 90                 nop
  000000000000250A: 90                 nop
  000000000000250B: 90                 nop
  000000000000250C: 90                 nop
  000000000000250D: 90                 nop
  000000000000250E: 90                 nop
  000000000000250F: 90                 nop
L$oop_avx2:
  0000000000002510: C5 FD 6F 3D 00 02  vmovdqa     ymm7,ymmword ptr [.rdata+200h]
                    00 00
  0000000000002518: C4 C1 7A 6F 44 35  vmovdqu     xmm0,xmmword ptr [r13+rsi-40h]
                    C0
  000000000000251F: C4 C1 7A 6F 4C 35  vmovdqu     xmm1,xmmword ptr [r13+rsi-30h]
                    D0
  0000000000002526: C4 C1 7A 6F 54 35  vmovdqu     xmm2,xmmword ptr [r13+rsi-20h]
                    E0
  000000000000252D: C4 C1 7A 6F 5C 35  vmovdqu     xmm3,xmmword ptr [r13+rsi-10h]
                    F0
  0000000000002534: C4 C3 7D 38 04 24  vinserti128 ymm0,ymm0,xmmword ptr [r12],1
                    01
  000000000000253B: C4 C3 75 38 4C 24  vinserti128 ymm1,ymm1,xmmword ptr [r12+10h],1
                    10 01
  0000000000002543: C4 E2 7D 00 C7     vpshufb     ymm0,ymm0,ymm7
  0000000000002548: C4 C3 6D 38 54 24  vinserti128 ymm2,ymm2,xmmword ptr [r12+20h],1
                    20 01
  0000000000002550: C4 E2 75 00 CF     vpshufb     ymm1,ymm1,ymm7
  0000000000002555: C4 C3 65 38 5C 24  vinserti128 ymm3,ymm3,xmmword ptr [r12+30h],1
                    30 01
  000000000000255D: 48 8D 2D 00 00 00  lea         rbp,[.rdata]
                    00
  0000000000002564: C4 E2 6D 00 D7     vpshufb     ymm2,ymm2,ymm7
  0000000000002569: 4D 8D 6D C0        lea         r13,[r13-40h]
  000000000000256D: C5 FD FE 65 00     vpaddd      ymm4,ymm0,ymmword ptr [rbp]
  0000000000002572: C4 E2 65 00 DF     vpshufb     ymm3,ymm3,ymm7
  0000000000002577: C5 F5 FE 6D 20     vpaddd      ymm5,ymm1,ymmword ptr [rbp+20h]
  000000000000257C: C5 ED FE 75 40     vpaddd      ymm6,ymm2,ymmword ptr [rbp+40h]
  0000000000002581: C5 E5 FE 7D 60     vpaddd      ymm7,ymm3,ymmword ptr [rbp+60h]
  0000000000002586: C5 FD 7F 24 24     vmovdqa     ymmword ptr [rsp],ymm4
  000000000000258B: 45 31 F6           xor         r14d,r14d
  000000000000258E: C5 FD 7F 6C 24 20  vmovdqa     ymmword ptr [rsp+20h],ymm5
  0000000000002594: 48 8D 64 24 C0     lea         rsp,[rsp-40h]
  0000000000002599: 89 DE              mov         esi,ebx
  000000000000259B: C5 FD 7F 34 24     vmovdqa     ymmword ptr [rsp],ymm6
  00000000000025A0: 31 CE              xor         esi,ecx
  00000000000025A2: C5 FD 7F 7C 24 20  vmovdqa     ymmword ptr [rsp+20h],ymm7
  00000000000025A8: 45 89 CC           mov         r12d,r9d
  00000000000025AB: 48 83 ED 80        sub         rbp,0FFFFFFFFFFFFFF80h
  00000000000025AF: E9 0C 00 00 00     jmp         L$avx2_00_47
  00000000000025B4: 90                 nop
  00000000000025B5: 90                 nop
  00000000000025B6: 90                 nop
  00000000000025B7: 90                 nop
  00000000000025B8: 90                 nop
  00000000000025B9: 90                 nop
  00000000000025BA: 90                 nop
  00000000000025BB: 90                 nop
  00000000000025BC: 90                 nop
  00000000000025BD: 90                 nop
  00000000000025BE: 90                 nop
  00000000000025BF: 90                 nop
L$avx2_00_47:
  00000000000025C0: C4 41 7A 6F 4D 00  vmovdqu     xmm9,xmmword ptr [r13]
  00000000000025C6: C4 43 81 22 FD 00  vpinsrq     xmm15,xmm15,r13,0
  00000000000025CC: 48 8D 64 24 C0     lea         rsp,[rsp-40h]
  00000000000025D1: C4 E3 75 0F E0 04  vpalignr    ymm4,ymm1,ymm0,4
  00000000000025D7: 44 03 9C 24 80 00  add         r11d,dword ptr [rsp+80h]
                    00 00
  00000000000025DF: 45 21 C4           and         r12d,r8d
  00000000000025E2: C4 43 7B F0 E8 19  rorx        r13d,r8d,19h
  00000000000025E8: C4 E3 65 0F FA 04  vpalignr    ymm7,ymm3,ymm2,4
  00000000000025EE: C4 43 7B F0 F8 0B  rorx        r15d,r8d,0Bh
  00000000000025F4: 42 8D 04 30        lea         eax,[rax+r14]
  00000000000025F8: 47 8D 1C 23        lea         r11d,[r11+r12]
  00000000000025FC: C5 CD 72 D4 07     vpsrld      ymm6,ymm4,7
  0000000000002601: C4 42 38 F2 E2     andn        r12d,r8d,r10d
  0000000000002606: 45 31 FD           xor         r13d,r15d
  0000000000002609: C4 43 7B F0 F0 06  rorx        r14d,r8d,6
  000000000000260F: C5 FD FE C7        vpaddd      ymm0,ymm0,ymm7
  0000000000002613: 47 8D 1C 23        lea         r11d,[r11+r12]
  0000000000002617: 45 31 F5           xor         r13d,r14d
  000000000000261A: 41 89 C7           mov         r15d,eax
  000000000000261D: C5 C5 72 D4 03     vpsrld      ymm7,ymm4,3
  0000000000002622: C4 63 7B F0 E0 16  rorx        r12d,eax,16h
  0000000000002628: 47 8D 1C 2B        lea         r11d,[r11+r13]
  000000000000262C: 41 31 DF           xor         r15d,ebx
  000000000000262F: C5 D5 72 F4 0E     vpslld      ymm5,ymm4,0Eh
  0000000000002634: C4 63 7B F0 F0 0D  rorx        r14d,eax,0Dh
  000000000000263A: C4 63 7B F0 E8 02  rorx        r13d,eax,2
  0000000000002640: 42 8D 14 1A        lea         edx,[rdx+r11]
  0000000000002644: C5 C5 EF E6        vpxor       ymm4,ymm7,ymm6
  0000000000002648: 44 21 FE           and         esi,r15d
  000000000000264B: C4 41 31 EF CA     vpxor       xmm9,xmm9,xmm10
  0000000000002650: C5 7A 6F 57 90     vmovdqu     xmm10,xmmword ptr [rdi-70h]
  0000000000002655: 45 31 E6           xor         r14d,r12d
  0000000000002658: 31 DE              xor         esi,ebx
  000000000000265A: C5 FD 70 FB FA     vpshufd     ymm7,ymm3,0FAh
  000000000000265F: 45 31 EE           xor         r14d,r13d
  0000000000002662: 45 8D 1C 33        lea         r11d,[r11+rsi]
  0000000000002666: 45 89 C4           mov         r12d,r8d
  0000000000002669: C5 CD 72 D6 0B     vpsrld      ymm6,ymm6,0Bh
  000000000000266E: 44 03 94 24 84 00  add         r10d,dword ptr [rsp+84h]
                    00 00
  0000000000002676: 41 21 D4           and         r12d,edx
  0000000000002679: C4 63 7B F0 EA 19  rorx        r13d,edx,19h
  000000000000267F: C5 DD EF E5        vpxor       ymm4,ymm4,ymm5
  0000000000002683: C4 E3 7B F0 F2 0B  rorx        esi,edx,0Bh
  0000000000002689: 47 8D 1C 33        lea         r11d,[r11+r14]
  000000000000268D: 47 8D 14 22        lea         r10d,[r10+r12]
  0000000000002691: C5 D5 72 F5 0B     vpslld      ymm5,ymm5,0Bh
  0000000000002696: C4 42 68 F2 E1     andn        r12d,edx,r9d
  000000000000269B: 41 31 F5           xor         r13d,esi
  000000000000269E: C4 63 7B F0 F2 06  rorx        r14d,edx,6
  00000000000026A4: C5 DD EF E6        vpxor       ymm4,ymm4,ymm6
  00000000000026A8: 47 8D 14 22        lea         r10d,[r10+r12]
  00000000000026AC: 45 31 F5           xor         r13d,r14d
  00000000000026AF: 44 89 DE           mov         esi,r11d
  00000000000026B2: C5 CD 72 D7 0A     vpsrld      ymm6,ymm7,0Ah
  00000000000026B7: C4 43 7B F0 E3 16  rorx        r12d,r11d,16h
  00000000000026BD: 47 8D 14 2A        lea         r10d,[r10+r13]
  00000000000026C1: 31 C6              xor         esi,eax
  00000000000026C3: C5 DD EF E5        vpxor       ymm4,ymm4,ymm5
  00000000000026C7: C4 43 7B F0 F3 0D  rorx        r14d,r11d,0Dh
  00000000000026CD: C4 43 7B F0 EB 02  rorx        r13d,r11d,2
  00000000000026D3: 42 8D 0C 11        lea         ecx,[rcx+r10]
  00000000000026D7: C5 C5 73 D7 11     vpsrlq      ymm7,ymm7,11h
  00000000000026DC: 41 21 F7           and         r15d,esi
  00000000000026DF: C4 41 31 EF C8     vpxor       xmm9,xmm9,xmm8
  00000000000026E4: 45 31 E6           xor         r14d,r12d
  00000000000026E7: 41 31 C7           xor         r15d,eax
  00000000000026EA: C5 FD FE C4        vpaddd      ymm0,ymm0,ymm4
  00000000000026EE: 45 31 EE           xor         r14d,r13d
  00000000000026F1: 47 8D 14 3A        lea         r10d,[r10+r15]
  00000000000026F5: 41 89 D4           mov         r12d,edx
  00000000000026F8: C5 CD EF F7        vpxor       ymm6,ymm6,ymm7
  00000000000026FC: 44 03 8C 24 88 00  add         r9d,dword ptr [rsp+88h]
                    00 00
  0000000000002704: 41 21 CC           and         r12d,ecx
  0000000000002707: C4 63 7B F0 E9 19  rorx        r13d,ecx,19h
  000000000000270D: C5 C5 73 D7 02     vpsrlq      ymm7,ymm7,2
  0000000000002712: C4 63 7B F0 F9 0B  rorx        r15d,ecx,0Bh
  0000000000002718: 47 8D 14 32        lea         r10d,[r10+r14]
  000000000000271C: 47 8D 0C 21        lea         r9d,[r9+r12]
  0000000000002720: C5 CD EF F7        vpxor       ymm6,ymm6,ymm7
  0000000000002724: C4 42 70 F2 E0     andn        r12d,ecx,r8d
  0000000000002729: 45 31 FD           xor         r13d,r15d
  000000000000272C: C4 63 7B F0 F1 06  rorx        r14d,ecx,6
  0000000000002732: C5 FD 70 F6 84     vpshufd     ymm6,ymm6,84h
  0000000000002737: 47 8D 0C 21        lea         r9d,[r9+r12]
  000000000000273B: 45 31 F5           xor         r13d,r14d
  000000000000273E: 45 89 D7           mov         r15d,r10d
  0000000000002741: C5 CD 73 DE 08     vpsrldq     ymm6,ymm6,8
  0000000000002746: C4 43 7B F0 E2 16  rorx        r12d,r10d,16h
  000000000000274C: 47 8D 0C 29        lea         r9d,[r9+r13]
  0000000000002750: 45 31 DF           xor         r15d,r11d
  0000000000002753: C5 FD FE C6        vpaddd      ymm0,ymm0,ymm6
  0000000000002757: C4 43 7B F0 F2 0D  rorx        r14d,r10d,0Dh
  000000000000275D: C4 43 7B F0 EA 02  rorx        r13d,r10d,2
  0000000000002763: 42 8D 1C 0B        lea         ebx,[rbx+r9]
  0000000000002767: C5 FD 70 F8 50     vpshufd     ymm7,ymm0,50h
  000000000000276C: 44 21 FE           and         esi,r15d
  000000000000276F: C4 42 31 DC CA     vaesenc     xmm9,xmm9,xmm10
  0000000000002774: C5 7A 6F 57 A0     vmovdqu     xmm10,xmmword ptr [rdi-60h]
  0000000000002779: 45 31 E6           xor         r14d,r12d
  000000000000277C: 44 31 DE           xor         esi,r11d
  000000000000277F: C5 CD 72 D7 0A     vpsrld      ymm6,ymm7,0Ah
  0000000000002784: 45 31 EE           xor         r14d,r13d
  0000000000002787: 45 8D 0C 31        lea         r9d,[r9+rsi]
  000000000000278B: 41 89 CC           mov         r12d,ecx
  000000000000278E: C5 C5 73 D7 11     vpsrlq      ymm7,ymm7,11h
  0000000000002793: 44 03 84 24 8C 00  add         r8d,dword ptr [rsp+8Ch]
                    00 00
  000000000000279B: 41 21 DC           and         r12d,ebx
  000000000000279E: C4 63 7B F0 EB 19  rorx        r13d,ebx,19h
  00000000000027A4: C5 CD EF F7        vpxor       ymm6,ymm6,ymm7
  00000000000027A8: C4 E3 7B F0 F3 0B  rorx        esi,ebx,0Bh
  00000000000027AE: 47 8D 0C 31        lea         r9d,[r9+r14]
  00000000000027B2: 47 8D 04 20        lea         r8d,[r8+r12]
  00000000000027B6: C5 C5 73 D7 02     vpsrlq      ymm7,ymm7,2
  00000000000027BB: C4 62 60 F2 E2     andn        r12d,ebx,edx
  00000000000027C0: 41 31 F5           xor         r13d,esi
  00000000000027C3: C4 63 7B F0 F3 06  rorx        r14d,ebx,6
  00000000000027C9: C5 CD EF F7        vpxor       ymm6,ymm6,ymm7
  00000000000027CD: 47 8D 04 20        lea         r8d,[r8+r12]
  00000000000027D1: 45 31 F5           xor         r13d,r14d
  00000000000027D4: 44 89 CE           mov         esi,r9d
  00000000000027D7: C5 FD 70 F6 E8     vpshufd     ymm6,ymm6,0E8h
  00000000000027DC: C4 43 7B F0 E1 16  rorx        r12d,r9d,16h
  00000000000027E2: 47 8D 04 28        lea         r8d,[r8+r13]
  00000000000027E6: 44 31 D6           xor         esi,r10d
  00000000000027E9: C5 CD 73 FE 08     vpslldq     ymm6,ymm6,8
  00000000000027EE: C4 43 7B F0 F1 0D  rorx        r14d,r9d,0Dh
  00000000000027F4: C4 43 7B F0 E9 02  rorx        r13d,r9d,2
  00000000000027FA: 42 8D 04 00        lea         eax,[rax+r8]
  00000000000027FE: C5 FD FE C6        vpaddd      ymm0,ymm0,ymm6
  0000000000002802: 41 21 F7           and         r15d,esi
  0000000000002805: C4 42 31 DC CA     vaesenc     xmm9,xmm9,xmm10
  000000000000280A: C5 7A 6F 57 B0     vmovdqu     xmm10,xmmword ptr [rdi-50h]
  000000000000280F: 45 31 E6           xor         r14d,r12d
  0000000000002812: 45 31 D7           xor         r15d,r10d
  0000000000002815: C5 FD FE 75 00     vpaddd      ymm6,ymm0,ymmword ptr [rbp]
  000000000000281A: 45 31 EE           xor         r14d,r13d
  000000000000281D: 47 8D 04 38        lea         r8d,[r8+r15]
  0000000000002821: 41 89 DC           mov         r12d,ebx
  0000000000002824: C5 FD 7F 34 24     vmovdqa     ymmword ptr [rsp],ymm6
  0000000000002829: C4 E3 6D 0F E1 04  vpalignr    ymm4,ymm2,ymm1,4
  000000000000282F: 03 94 24 A0 00 00  add         edx,dword ptr [rsp+0A0h]
                    00
  0000000000002836: 41 21 C4           and         r12d,eax
  0000000000002839: C4 63 7B F0 E8 19  rorx        r13d,eax,19h
  000000000000283F: C4 E3 7D 0F FB 04  vpalignr    ymm7,ymm0,ymm3,4
  0000000000002845: C4 63 7B F0 F8 0B  rorx        r15d,eax,0Bh
  000000000000284B: 47 8D 04 30        lea         r8d,[r8+r14]
  000000000000284F: 42 8D 14 22        lea         edx,[rdx+r12]
  0000000000002853: C5 CD 72 D4 07     vpsrld      ymm6,ymm4,7
  0000000000002858: C4 62 78 F2 E1     andn        r12d,eax,ecx
  000000000000285D: 45 31 FD           xor         r13d,r15d
  0000000000002860: C4 63 7B F0 F0 06  rorx        r14d,eax,6
  0000000000002866: C5 F5 FE CF        vpaddd      ymm1,ymm1,ymm7
  000000000000286A: 42 8D 14 22        lea         edx,[rdx+r12]
  000000000000286E: 45 31 F5           xor         r13d,r14d
  0000000000002871: 45 89 C7           mov         r15d,r8d
  0000000000002874: C5 C5 72 D4 03     vpsrld      ymm7,ymm4,3
  0000000000002879: C4 43 7B F0 E0 16  rorx        r12d,r8d,16h
  000000000000287F: 42 8D 14 2A        lea         edx,[rdx+r13]
  0000000000002883: 45 31 CF           xor         r15d,r9d
  0000000000002886: C5 D5 72 F4 0E     vpslld      ymm5,ymm4,0Eh
  000000000000288B: C4 43 7B F0 F0 0D  rorx        r14d,r8d,0Dh
  0000000000002891: C4 43 7B F0 E8 02  rorx        r13d,r8d,2
  0000000000002897: 45 8D 1C 13        lea         r11d,[r11+rdx]
  000000000000289B: C5 C5 EF E6        vpxor       ymm4,ymm7,ymm6
  000000000000289F: 44 21 FE           and         esi,r15d
  00000000000028A2: C4 42 31 DC CA     vaesenc     xmm9,xmm9,xmm10
  00000000000028A7: C5 7A 6F 57 C0     vmovdqu     xmm10,xmmword ptr [rdi-40h]
  00000000000028AC: 45 31 E6           xor         r14d,r12d
  00000000000028AF: 44 31 CE           xor         esi,r9d
  00000000000028B2: C5 FD 70 F8 FA     vpshufd     ymm7,ymm0,0FAh
  00000000000028B7: 45 31 EE           xor         r14d,r13d
  00000000000028BA: 8D 14 32           lea         edx,[rdx+rsi]
  00000000000028BD: 41 89 C4           mov         r12d,eax
  00000000000028C0: C5 CD 72 D6 0B     vpsrld      ymm6,ymm6,0Bh
  00000000000028C5: 03 8C 24 A4 00 00  add         ecx,dword ptr [rsp+0A4h]
                    00
  00000000000028CC: 45 21 DC           and         r12d,r11d
  00000000000028CF: C4 43 7B F0 EB 19  rorx        r13d,r11d,19h
  00000000000028D5: C5 DD EF E5        vpxor       ymm4,ymm4,ymm5
  00000000000028D9: C4 C3 7B F0 F3 0B  rorx        esi,r11d,0Bh
  00000000000028DF: 42 8D 14 32        lea         edx,[rdx+r14]
  00000000000028E3: 42 8D 0C 21        lea         ecx,[rcx+r12]
  00000000000028E7: C5 D5 72 F5 0B     vpslld      ymm5,ymm5,0Bh
  00000000000028EC: C4 62 20 F2 E3     andn        r12d,r11d,ebx
  00000000000028F1: 41 31 F5           xor         r13d,esi
  00000000000028F4: C4 43 7B F0 F3 06  rorx        r14d,r11d,6
  00000000000028FA: C5 DD EF E6        vpxor       ymm4,ymm4,ymm6
  00000000000028FE: 42 8D 0C 21        lea         ecx,[rcx+r12]
  0000000000002902: 45 31 F5           xor         r13d,r14d
  0000000000002905: 89 D6              mov         esi,edx
  0000000000002907: C5 CD 72 D7 0A     vpsrld      ymm6,ymm7,0Ah
  000000000000290C: C4 63 7B F0 E2 16  rorx        r12d,edx,16h
  0000000000002912: 42 8D 0C 29        lea         ecx,[rcx+r13]
  0000000000002916: 44 31 C6           xor         esi,r8d
  0000000000002919: C5 DD EF E5        vpxor       ymm4,ymm4,ymm5
  000000000000291D: C4 63 7B F0 F2 0D  rorx        r14d,edx,0Dh
  0000000000002923: C4 63 7B F0 EA 02  rorx        r13d,edx,2
  0000000000002929: 45 8D 14 0A        lea         r10d,[r10+rcx]
  000000000000292D: C5 C5 73 D7 11     vpsrlq      ymm7,ymm7,11h
  0000000000002932: 41 21 F7           and         r15d,esi
  0000000000002935: C4 42 31 DC CA     vaesenc     xmm9,xmm9,xmm10
  000000000000293A: C5 7A 6F 57 D0     vmovdqu     xmm10,xmmword ptr [rdi-30h]
  000000000000293F: 45 31 E6           xor         r14d,r12d
  0000000000002942: 45 31 C7           xor         r15d,r8d
  0000000000002945: C5 F5 FE CC        vpaddd      ymm1,ymm1,ymm4
  0000000000002949: 45 31 EE           xor         r14d,r13d
  000000000000294C: 42 8D 0C 39        lea         ecx,[rcx+r15]
  0000000000002950: 45 89 DC           mov         r12d,r11d
  0000000000002953: C5 CD EF F7        vpxor       ymm6,ymm6,ymm7
  0000000000002957: 03 9C 24 A8 00 00  add         ebx,dword ptr [rsp+0A8h]
                    00
  000000000000295E: 45 21 D4           and         r12d,r10d
  0000000000002961: C4 43 7B F0 EA 19  rorx        r13d,r10d,19h
  0000000000002967: C5 C5 73 D7 02     vpsrlq      ymm7,ymm7,2
  000000000000296C: C4 43 7B F0 FA 0B  rorx        r15d,r10d,0Bh
  0000000000002972: 42 8D 0C 31        lea         ecx,[rcx+r14]
  0000000000002976: 42 8D 1C 23        lea         ebx,[rbx+r12]
  000000000000297A: C5 CD EF F7        vpxor       ymm6,ymm6,ymm7
  000000000000297E: C4 62 28 F2 E0     andn        r12d,r10d,eax
  0000000000002983: 45 31 FD           xor         r13d,r15d
  0000000000002986: C4 43 7B F0 F2 06  rorx        r14d,r10d,6
  000000000000298C: C5 FD 70 F6 84     vpshufd     ymm6,ymm6,84h
  0000000000002991: 42 8D 1C 23        lea         ebx,[rbx+r12]
  0000000000002995: 45 31 F5           xor         r13d,r14d
  0000000000002998: 41 89 CF           mov         r15d,ecx
  000000000000299B: C5 CD 73 DE 08     vpsrldq     ymm6,ymm6,8
  00000000000029A0: C4 63 7B F0 E1 16  rorx        r12d,ecx,16h
  00000000000029A6: 42 8D 1C 2B        lea         ebx,[rbx+r13]
  00000000000029AA: 41 31 D7           xor         r15d,edx
  00000000000029AD: C5 F5 FE CE        vpaddd      ymm1,ymm1,ymm6
  00000000000029B1: C4 63 7B F0 F1 0D  rorx        r14d,ecx,0Dh
  00000000000029B7: C4 63 7B F0 E9 02  rorx        r13d,ecx,2
  00000000000029BD: 45 8D 0C 19        lea         r9d,[r9+rbx]
  00000000000029C1: C5 FD 70 F9 50     vpshufd     ymm7,ymm1,50h
  00000000000029C6: 44 21 FE           and         esi,r15d
  00000000000029C9: C4 42 31 DC CA     vaesenc     xmm9,xmm9,xmm10
  00000000000029CE: C5 7A 6F 57 E0     vmovdqu     xmm10,xmmword ptr [rdi-20h]
  00000000000029D3: 45 31 E6           xor         r14d,r12d
  00000000000029D6: 31 D6              xor         esi,edx
  00000000000029D8: C5 CD 72 D7 0A     vpsrld      ymm6,ymm7,0Ah
  00000000000029DD: 45 31 EE           xor         r14d,r13d
  00000000000029E0: 8D 1C 33           lea         ebx,[rbx+rsi]
  00000000000029E3: 45 89 D4           mov         r12d,r10d
  00000000000029E6: C5 C5 73 D7 11     vpsrlq      ymm7,ymm7,11h
  00000000000029EB: 03 84 24 AC 00 00  add         eax,dword ptr [rsp+0ACh]
                    00
  00000000000029F2: 45 21 CC           and         r12d,r9d
  00000000000029F5: C4 43 7B F0 E9 19  rorx        r13d,r9d,19h
  00000000000029FB: C5 CD EF F7        vpxor       ymm6,ymm6,ymm7
  00000000000029FF: C4 C3 7B F0 F1 0B  rorx        esi,r9d,0Bh
  0000000000002A05: 42 8D 1C 33        lea         ebx,[rbx+r14]
  0000000000002A09: 42 8D 04 20        lea         eax,[rax+r12]
  0000000000002A0D: C5 C5 73 D7 02     vpsrlq      ymm7,ymm7,2
  0000000000002A12: C4 42 30 F2 E3     andn        r12d,r9d,r11d
  0000000000002A17: 41 31 F5           xor         r13d,esi
  0000000000002A1A: C4 43 7B F0 F1 06  rorx        r14d,r9d,6
  0000000000002A20: C5 CD EF F7        vpxor       ymm6,ymm6,ymm7
  0000000000002A24: 42 8D 04 20        lea         eax,[rax+r12]
  0000000000002A28: 45 31 F5           xor         r13d,r14d
  0000000000002A2B: 89 DE              mov         esi,ebx
  0000000000002A2D: C5 FD 70 F6 E8     vpshufd     ymm6,ymm6,0E8h
  0000000000002A32: C4 63 7B F0 E3 16  rorx        r12d,ebx,16h
  0000000000002A38: 42 8D 04 28        lea         eax,[rax+r13]
  0000000000002A3C: 31 CE              xor         esi,ecx
  0000000000002A3E: C5 CD 73 FE 08     vpslldq     ymm6,ymm6,8
  0000000000002A43: C4 63 7B F0 F3 0D  rorx        r14d,ebx,0Dh
  0000000000002A49: C4 63 7B F0 EB 02  rorx        r13d,ebx,2
  0000000000002A4F: 45 8D 04 00        lea         r8d,[r8+rax]
  0000000000002A53: C5 F5 FE CE        vpaddd      ymm1,ymm1,ymm6
  0000000000002A57: 41 21 F7           and         r15d,esi
  0000000000002A5A: C4 42 31 DC CA     vaesenc     xmm9,xmm9,xmm10
  0000000000002A5F: C5 7A 6F 57 F0     vmovdqu     xmm10,xmmword ptr [rdi-10h]
  0000000000002A64: 45 31 E6           xor         r14d,r12d
  0000000000002A67: 41 31 CF           xor         r15d,ecx
  0000000000002A6A: C5 F5 FE 75 20     vpaddd      ymm6,ymm1,ymmword ptr [rbp+20h]
  0000000000002A6F: 45 31 EE           xor         r14d,r13d
  0000000000002A72: 42 8D 04 38        lea         eax,[rax+r15]
  0000000000002A76: 45 89 CC           mov         r12d,r9d
  0000000000002A79: C5 FD 7F 74 24 20  vmovdqa     ymmword ptr [rsp+20h],ymm6
  0000000000002A7F: 48 8D 64 24 C0     lea         rsp,[rsp-40h]
  0000000000002A84: C4 E3 65 0F E2 04  vpalignr    ymm4,ymm3,ymm2,4
  0000000000002A8A: 44 03 9C 24 80 00  add         r11d,dword ptr [rsp+80h]
                    00 00
  0000000000002A92: 45 21 C4           and         r12d,r8d
  0000000000002A95: C4 43 7B F0 E8 19  rorx        r13d,r8d,19h
  0000000000002A9B: C4 E3 75 0F F8 04  vpalignr    ymm7,ymm1,ymm0,4
  0000000000002AA1: C4 43 7B F0 F8 0B  rorx        r15d,r8d,0Bh
  0000000000002AA7: 42 8D 04 30        lea         eax,[rax+r14]
  0000000000002AAB: 47 8D 1C 23        lea         r11d,[r11+r12]
  0000000000002AAF: C5 CD 72 D4 07     vpsrld      ymm6,ymm4,7
  0000000000002AB4: C4 42 38 F2 E2     andn        r12d,r8d,r10d
  0000000000002AB9: 45 31 FD           xor         r13d,r15d
  0000000000002ABC: C4 43 7B F0 F0 06  rorx        r14d,r8d,6
  0000000000002AC2: C5 ED FE D7        vpaddd      ymm2,ymm2,ymm7
  0000000000002AC6: 47 8D 1C 23        lea         r11d,[r11+r12]
  0000000000002ACA: 45 31 F5           xor         r13d,r14d
  0000000000002ACD: 41 89 C7           mov         r15d,eax
  0000000000002AD0: C5 C5 72 D4 03     vpsrld      ymm7,ymm4,3
  0000000000002AD5: C4 63 7B F0 E0 16  rorx        r12d,eax,16h
  0000000000002ADB: 47 8D 1C 2B        lea         r11d,[r11+r13]
  0000000000002ADF: 41 31 DF           xor         r15d,ebx
  0000000000002AE2: C5 D5 72 F4 0E     vpslld      ymm5,ymm4,0Eh
  0000000000002AE7: C4 63 7B F0 F0 0D  rorx        r14d,eax,0Dh
  0000000000002AED: C4 63 7B F0 E8 02  rorx        r13d,eax,2
  0000000000002AF3: 42 8D 14 1A        lea         edx,[rdx+r11]
  0000000000002AF7: C5 C5 EF E6        vpxor       ymm4,ymm7,ymm6
  0000000000002AFB: 44 21 FE           and         esi,r15d
  0000000000002AFE: C4 42 31 DC CA     vaesenc     xmm9,xmm9,xmm10
  0000000000002B03: C5 7A 6F 17        vmovdqu     xmm10,xmmword ptr [rdi]
  0000000000002B07: 45 31 E6           xor         r14d,r12d
  0000000000002B0A: 31 DE              xor         esi,ebx
  0000000000002B0C: C5 FD 70 F9 FA     vpshufd     ymm7,ymm1,0FAh
  0000000000002B11: 45 31 EE           xor         r14d,r13d
  0000000000002B14: 45 8D 1C 33        lea         r11d,[r11+rsi]
  0000000000002B18: 45 89 C4           mov         r12d,r8d
  0000000000002B1B: C5 CD 72 D6 0B     vpsrld      ymm6,ymm6,0Bh
  0000000000002B20: 44 03 94 24 84 00  add         r10d,dword ptr [rsp+84h]
                    00 00
  0000000000002B28: 41 21 D4           and         r12d,edx
  0000000000002B2B: C4 63 7B F0 EA 19  rorx        r13d,edx,19h
  0000000000002B31: C5 DD EF E5        vpxor       ymm4,ymm4,ymm5
  0000000000002B35: C4 E3 7B F0 F2 0B  rorx        esi,edx,0Bh
  0000000000002B3B: 47 8D 1C 33        lea         r11d,[r11+r14]
  0000000000002B3F: 47 8D 14 22        lea         r10d,[r10+r12]
  0000000000002B43: C5 D5 72 F5 0B     vpslld      ymm5,ymm5,0Bh
  0000000000002B48: C4 42 68 F2 E1     andn        r12d,edx,r9d
  0000000000002B4D: 41 31 F5           xor         r13d,esi
  0000000000002B50: C4 63 7B F0 F2 06  rorx        r14d,edx,6
  0000000000002B56: C5 DD EF E6        vpxor       ymm4,ymm4,ymm6
  0000000000002B5A: 47 8D 14 22        lea         r10d,[r10+r12]
  0000000000002B5E: 45 31 F5           xor         r13d,r14d
  0000000000002B61: 44 89 DE           mov         esi,r11d
  0000000000002B64: C5 CD 72 D7 0A     vpsrld      ymm6,ymm7,0Ah
  0000000000002B69: C4 43 7B F0 E3 16  rorx        r12d,r11d,16h
  0000000000002B6F: 47 8D 14 2A        lea         r10d,[r10+r13]
  0000000000002B73: 31 C6              xor         esi,eax
  0000000000002B75: C5 DD EF E5        vpxor       ymm4,ymm4,ymm5
  0000000000002B79: C4 43 7B F0 F3 0D  rorx        r14d,r11d,0Dh
  0000000000002B7F: C4 43 7B F0 EB 02  rorx        r13d,r11d,2
  0000000000002B85: 42 8D 0C 11        lea         ecx,[rcx+r10]
  0000000000002B89: C5 C5 73 D7 11     vpsrlq      ymm7,ymm7,11h
  0000000000002B8E: 41 21 F7           and         r15d,esi
  0000000000002B91: C4 42 31 DC CA     vaesenc     xmm9,xmm9,xmm10
  0000000000002B96: C5 7A 6F 57 10     vmovdqu     xmm10,xmmword ptr [rdi+10h]
  0000000000002B9B: 45 31 E6           xor         r14d,r12d
  0000000000002B9E: 41 31 C7           xor         r15d,eax
  0000000000002BA1: C5 ED FE D4        vpaddd      ymm2,ymm2,ymm4
  0000000000002BA5: 45 31 EE           xor         r14d,r13d
  0000000000002BA8: 47 8D 14 3A        lea         r10d,[r10+r15]
  0000000000002BAC: 41 89 D4           mov         r12d,edx
  0000000000002BAF: C5 CD EF F7        vpxor       ymm6,ymm6,ymm7
  0000000000002BB3: 44 03 8C 24 88 00  add         r9d,dword ptr [rsp+88h]
                    00 00
  0000000000002BBB: 41 21 CC           and         r12d,ecx
  0000000000002BBE: C4 63 7B F0 E9 19  rorx        r13d,ecx,19h
  0000000000002BC4: C5 C5 73 D7 02     vpsrlq      ymm7,ymm7,2
  0000000000002BC9: C4 63 7B F0 F9 0B  rorx        r15d,ecx,0Bh
  0000000000002BCF: 47 8D 14 32        lea         r10d,[r10+r14]
  0000000000002BD3: 47 8D 0C 21        lea         r9d,[r9+r12]
  0000000000002BD7: C5 CD EF F7        vpxor       ymm6,ymm6,ymm7
  0000000000002BDB: C4 42 70 F2 E0     andn        r12d,ecx,r8d
  0000000000002BE0: 45 31 FD           xor         r13d,r15d
  0000000000002BE3: C4 63 7B F0 F1 06  rorx        r14d,ecx,6
  0000000000002BE9: C5 FD 70 F6 84     vpshufd     ymm6,ymm6,84h
  0000000000002BEE: 47 8D 0C 21        lea         r9d,[r9+r12]
  0000000000002BF2: 45 31 F5           xor         r13d,r14d
  0000000000002BF5: 45 89 D7           mov         r15d,r10d
  0000000000002BF8: C5 CD 73 DE 08     vpsrldq     ymm6,ymm6,8
  0000000000002BFD: C4 43 7B F0 E2 16  rorx        r12d,r10d,16h
  0000000000002C03: 47 8D 0C 29        lea         r9d,[r9+r13]
  0000000000002C07: 45 31 DF           xor         r15d,r11d
  0000000000002C0A: C5 ED FE D6        vpaddd      ymm2,ymm2,ymm6
  0000000000002C0E: C4 43 7B F0 F2 0D  rorx        r14d,r10d,0Dh
  0000000000002C14: C4 43 7B F0 EA 02  rorx        r13d,r10d,2
  0000000000002C1A: 42 8D 1C 0B        lea         ebx,[rbx+r9]
  0000000000002C1E: C5 FD 70 FA 50     vpshufd     ymm7,ymm2,50h
  0000000000002C23: 44 21 FE           and         esi,r15d
  0000000000002C26: C4 42 31 DC CA     vaesenc     xmm9,xmm9,xmm10
  0000000000002C2B: C5 7A 6F 57 20     vmovdqu     xmm10,xmmword ptr [rdi+20h]
  0000000000002C30: 45 31 E6           xor         r14d,r12d
  0000000000002C33: 44 31 DE           xor         esi,r11d
  0000000000002C36: C5 CD 72 D7 0A     vpsrld      ymm6,ymm7,0Ah
  0000000000002C3B: 45 31 EE           xor         r14d,r13d
  0000000000002C3E: 45 8D 0C 31        lea         r9d,[r9+rsi]
  0000000000002C42: 41 89 CC           mov         r12d,ecx
  0000000000002C45: C5 C5 73 D7 11     vpsrlq      ymm7,ymm7,11h
  0000000000002C4A: 44 03 84 24 8C 00  add         r8d,dword ptr [rsp+8Ch]
                    00 00
  0000000000002C52: 41 21 DC           and         r12d,ebx
  0000000000002C55: C4 63 7B F0 EB 19  rorx        r13d,ebx,19h
  0000000000002C5B: C5 CD EF F7        vpxor       ymm6,ymm6,ymm7
  0000000000002C5F: C4 E3 7B F0 F3 0B  rorx        esi,ebx,0Bh
  0000000000002C65: 47 8D 0C 31        lea         r9d,[r9+r14]
  0000000000002C69: 47 8D 04 20        lea         r8d,[r8+r12]
  0000000000002C6D: C5 C5 73 D7 02     vpsrlq      ymm7,ymm7,2
  0000000000002C72: C4 62 60 F2 E2     andn        r12d,ebx,edx
  0000000000002C77: 41 31 F5           xor         r13d,esi
  0000000000002C7A: C4 63 7B F0 F3 06  rorx        r14d,ebx,6
  0000000000002C80: C5 CD EF F7        vpxor       ymm6,ymm6,ymm7
  0000000000002C84: 47 8D 04 20        lea         r8d,[r8+r12]
  0000000000002C88: 45 31 F5           xor         r13d,r14d
  0000000000002C8B: 44 89 CE           mov         esi,r9d
  0000000000002C8E: C5 FD 70 F6 E8     vpshufd     ymm6,ymm6,0E8h
  0000000000002C93: C4 43 7B F0 E1 16  rorx        r12d,r9d,16h
  0000000000002C99: 47 8D 04 28        lea         r8d,[r8+r13]
  0000000000002C9D: 44 31 D6           xor         esi,r10d
  0000000000002CA0: C5 CD 73 FE 08     vpslldq     ymm6,ymm6,8
  0000000000002CA5: C4 43 7B F0 F1 0D  rorx        r14d,r9d,0Dh
  0000000000002CAB: C4 43 7B F0 E9 02  rorx        r13d,r9d,2
  0000000000002CB1: 42 8D 04 00        lea         eax,[rax+r8]
  0000000000002CB5: C5 ED FE D6        vpaddd      ymm2,ymm2,ymm6
  0000000000002CB9: 41 21 F7           and         r15d,esi
  0000000000002CBC: C4 42 31 DD DA     vaesenclast xmm11,xmm9,xmm10
  0000000000002CC1: C4 42 31 DC CA     vaesenc     xmm9,xmm9,xmm10
  0000000000002CC6: C5 7A 6F 57 30     vmovdqu     xmm10,xmmword ptr [rdi+30h]
  0000000000002CCB: 45 31 E6           xor         r14d,r12d
  0000000000002CCE: 45 31 D7           xor         r15d,r10d
  0000000000002CD1: C5 ED FE 75 40     vpaddd      ymm6,ymm2,ymmword ptr [rbp+40h]
  0000000000002CD6: 45 31 EE           xor         r14d,r13d
  0000000000002CD9: 47 8D 04 38        lea         r8d,[r8+r15]
  0000000000002CDD: 41 89 DC           mov         r12d,ebx
  0000000000002CE0: C5 FD 7F 34 24     vmovdqa     ymmword ptr [rsp],ymm6
  0000000000002CE5: C4 E3 7D 0F E3 04  vpalignr    ymm4,ymm0,ymm3,4
  0000000000002CEB: 03 94 24 A0 00 00  add         edx,dword ptr [rsp+0A0h]
                    00
  0000000000002CF2: 41 21 C4           and         r12d,eax
  0000000000002CF5: C4 63 7B F0 E8 19  rorx        r13d,eax,19h
  0000000000002CFB: C4 E3 6D 0F F9 04  vpalignr    ymm7,ymm2,ymm1,4
  0000000000002D01: C4 63 7B F0 F8 0B  rorx        r15d,eax,0Bh
  0000000000002D07: 47 8D 04 30        lea         r8d,[r8+r14]
  0000000000002D0B: 42 8D 14 22        lea         edx,[rdx+r12]
  0000000000002D0F: C5 CD 72 D4 07     vpsrld      ymm6,ymm4,7
  0000000000002D14: C4 62 78 F2 E1     andn        r12d,eax,ecx
  0000000000002D19: 45 31 FD           xor         r13d,r15d
  0000000000002D1C: C4 63 7B F0 F0 06  rorx        r14d,eax,6
  0000000000002D22: C5 E5 FE DF        vpaddd      ymm3,ymm3,ymm7
  0000000000002D26: 42 8D 14 22        lea         edx,[rdx+r12]
  0000000000002D2A: 45 31 F5           xor         r13d,r14d
  0000000000002D2D: 45 89 C7           mov         r15d,r8d
  0000000000002D30: C5 C5 72 D4 03     vpsrld      ymm7,ymm4,3
  0000000000002D35: C4 43 7B F0 E0 16  rorx        r12d,r8d,16h
  0000000000002D3B: 42 8D 14 2A        lea         edx,[rdx+r13]
  0000000000002D3F: 45 31 CF           xor         r15d,r9d
  0000000000002D42: C5 D5 72 F4 0E     vpslld      ymm5,ymm4,0Eh
  0000000000002D47: C4 43 7B F0 F0 0D  rorx        r14d,r8d,0Dh
  0000000000002D4D: C4 43 7B F0 E8 02  rorx        r13d,r8d,2
  0000000000002D53: 45 8D 1C 13        lea         r11d,[r11+rdx]
  0000000000002D57: C5 C5 EF E6        vpxor       ymm4,ymm7,ymm6
  0000000000002D5B: 44 21 FE           and         esi,r15d
  0000000000002D5E: C4 41 21 DB C4     vpand       xmm8,xmm11,xmm12
  0000000000002D63: C4 42 31 DC CA     vaesenc     xmm9,xmm9,xmm10
  0000000000002D68: C5 7A 6F 57 40     vmovdqu     xmm10,xmmword ptr [rdi+40h]
  0000000000002D6D: 45 31 E6           xor         r14d,r12d
  0000000000002D70: 44 31 CE           xor         esi,r9d
  0000000000002D73: C5 FD 70 FA FA     vpshufd     ymm7,ymm2,0FAh
  0000000000002D78: 45 31 EE           xor         r14d,r13d
  0000000000002D7B: 8D 14 32           lea         edx,[rdx+rsi]
  0000000000002D7E: 41 89 C4           mov         r12d,eax
  0000000000002D81: C5 CD 72 D6 0B     vpsrld      ymm6,ymm6,0Bh
  0000000000002D86: 03 8C 24 A4 00 00  add         ecx,dword ptr [rsp+0A4h]
                    00
  0000000000002D8D: 45 21 DC           and         r12d,r11d
  0000000000002D90: C4 43 7B F0 EB 19  rorx        r13d,r11d,19h
  0000000000002D96: C5 DD EF E5        vpxor       ymm4,ymm4,ymm5
  0000000000002D9A: C4 C3 7B F0 F3 0B  rorx        esi,r11d,0Bh
  0000000000002DA0: 42 8D 14 32        lea         edx,[rdx+r14]
  0000000000002DA4: 42 8D 0C 21        lea         ecx,[rcx+r12]
  0000000000002DA8: C5 D5 72 F5 0B     vpslld      ymm5,ymm5,0Bh
  0000000000002DAD: C4 62 20 F2 E3     andn        r12d,r11d,ebx
  0000000000002DB2: 41 31 F5           xor         r13d,esi
  0000000000002DB5: C4 43 7B F0 F3 06  rorx        r14d,r11d,6
  0000000000002DBB: C5 DD EF E6        vpxor       ymm4,ymm4,ymm6
  0000000000002DBF: 42 8D 0C 21        lea         ecx,[rcx+r12]
  0000000000002DC3: 45 31 F5           xor         r13d,r14d
  0000000000002DC6: 89 D6              mov         esi,edx
  0000000000002DC8: C5 CD 72 D7 0A     vpsrld      ymm6,ymm7,0Ah
  0000000000002DCD: C4 63 7B F0 E2 16  rorx        r12d,edx,16h
  0000000000002DD3: 42 8D 0C 29        lea         ecx,[rcx+r13]
  0000000000002DD7: 44 31 C6           xor         esi,r8d
  0000000000002DDA: C5 DD EF E5        vpxor       ymm4,ymm4,ymm5
  0000000000002DDE: C4 63 7B F0 F2 0D  rorx        r14d,edx,0Dh
  0000000000002DE4: C4 63 7B F0 EA 02  rorx        r13d,edx,2
  0000000000002DEA: 45 8D 14 0A        lea         r10d,[r10+rcx]
  0000000000002DEE: C5 C5 73 D7 11     vpsrlq      ymm7,ymm7,11h
  0000000000002DF3: 41 21 F7           and         r15d,esi
  0000000000002DF6: C4 42 31 DD DA     vaesenclast xmm11,xmm9,xmm10
  0000000000002DFB: C4 42 31 DC CA     vaesenc     xmm9,xmm9,xmm10
  0000000000002E00: C5 7A 6F 57 50     vmovdqu     xmm10,xmmword ptr [rdi+50h]
  0000000000002E05: 45 31 E6           xor         r14d,r12d
  0000000000002E08: 45 31 C7           xor         r15d,r8d
  0000000000002E0B: C5 E5 FE DC        vpaddd      ymm3,ymm3,ymm4
  0000000000002E0F: 45 31 EE           xor         r14d,r13d
  0000000000002E12: 42 8D 0C 39        lea         ecx,[rcx+r15]
  0000000000002E16: 45 89 DC           mov         r12d,r11d
  0000000000002E19: C5 CD EF F7        vpxor       ymm6,ymm6,ymm7
  0000000000002E1D: 03 9C 24 A8 00 00  add         ebx,dword ptr [rsp+0A8h]
                    00
  0000000000002E24: 45 21 D4           and         r12d,r10d
  0000000000002E27: C4 43 7B F0 EA 19  rorx        r13d,r10d,19h
  0000000000002E2D: C5 C5 73 D7 02     vpsrlq      ymm7,ymm7,2
  0000000000002E32: C4 43 7B F0 FA 0B  rorx        r15d,r10d,0Bh
  0000000000002E38: 42 8D 0C 31        lea         ecx,[rcx+r14]
  0000000000002E3C: 42 8D 1C 23        lea         ebx,[rbx+r12]
  0000000000002E40: C5 CD EF F7        vpxor       ymm6,ymm6,ymm7
  0000000000002E44: C4 62 28 F2 E0     andn        r12d,r10d,eax
  0000000000002E49: 45 31 FD           xor         r13d,r15d
  0000000000002E4C: C4 43 7B F0 F2 06  rorx        r14d,r10d,6
  0000000000002E52: C5 FD 70 F6 84     vpshufd     ymm6,ymm6,84h
  0000000000002E57: 42 8D 1C 23        lea         ebx,[rbx+r12]
  0000000000002E5B: 45 31 F5           xor         r13d,r14d
  0000000000002E5E: 41 89 CF           mov         r15d,ecx
  0000000000002E61: C5 CD 73 DE 08     vpsrldq     ymm6,ymm6,8
  0000000000002E66: C4 63 7B F0 E1 16  rorx        r12d,ecx,16h
  0000000000002E6C: 42 8D 1C 2B        lea         ebx,[rbx+r13]
  0000000000002E70: 41 31 D7           xor         r15d,edx
  0000000000002E73: C5 E5 FE DE        vpaddd      ymm3,ymm3,ymm6
  0000000000002E77: C4 63 7B F0 F1 0D  rorx        r14d,ecx,0Dh
  0000000000002E7D: C4 63 7B F0 E9 02  rorx        r13d,ecx,2
  0000000000002E83: 45 8D 0C 19        lea         r9d,[r9+rbx]
  0000000000002E87: C5 FD 70 FB 50     vpshufd     ymm7,ymm3,50h
  0000000000002E8C: 44 21 FE           and         esi,r15d
  0000000000002E8F: C4 41 21 DB DD     vpand       xmm11,xmm11,xmm13
  0000000000002E94: C4 42 31 DC CA     vaesenc     xmm9,xmm9,xmm10
  0000000000002E99: C5 7A 6F 57 60     vmovdqu     xmm10,xmmword ptr [rdi+60h]
  0000000000002E9E: 45 31 E6           xor         r14d,r12d
  0000000000002EA1: 31 D6              xor         esi,edx
  0000000000002EA3: C5 CD 72 D7 0A     vpsrld      ymm6,ymm7,0Ah
  0000000000002EA8: 45 31 EE           xor         r14d,r13d
  0000000000002EAB: 8D 1C 33           lea         ebx,[rbx+rsi]
  0000000000002EAE: 45 89 D4           mov         r12d,r10d
  0000000000002EB1: C5 C5 73 D7 11     vpsrlq      ymm7,ymm7,11h
  0000000000002EB6: 03 84 24 AC 00 00  add         eax,dword ptr [rsp+0ACh]
                    00
  0000000000002EBD: 45 21 CC           and         r12d,r9d
  0000000000002EC0: C4 43 7B F0 E9 19  rorx        r13d,r9d,19h
  0000000000002EC6: C5 CD EF F7        vpxor       ymm6,ymm6,ymm7
  0000000000002ECA: C4 C3 7B F0 F1 0B  rorx        esi,r9d,0Bh
  0000000000002ED0: 42 8D 1C 33        lea         ebx,[rbx+r14]
  0000000000002ED4: 42 8D 04 20        lea         eax,[rax+r12]
  0000000000002ED8: C5 C5 73 D7 02     vpsrlq      ymm7,ymm7,2
  0000000000002EDD: C4 42 30 F2 E3     andn        r12d,r9d,r11d
  0000000000002EE2: 41 31 F5           xor         r13d,esi
  0000000000002EE5: C4 43 7B F0 F1 06  rorx        r14d,r9d,6
  0000000000002EEB: C5 CD EF F7        vpxor       ymm6,ymm6,ymm7
  0000000000002EEF: 42 8D 04 20        lea         eax,[rax+r12]
  0000000000002EF3: 45 31 F5           xor         r13d,r14d
  0000000000002EF6: 89 DE              mov         esi,ebx
  0000000000002EF8: C5 FD 70 F6 E8     vpshufd     ymm6,ymm6,0E8h
  0000000000002EFD: C4 63 7B F0 E3 16  rorx        r12d,ebx,16h
  0000000000002F03: 42 8D 04 28        lea         eax,[rax+r13]
  0000000000002F07: 31 CE              xor         esi,ecx
  0000000000002F09: C5 CD 73 FE 08     vpslldq     ymm6,ymm6,8
  0000000000002F0E: C4 63 7B F0 F3 0D  rorx        r14d,ebx,0Dh
  0000000000002F14: C4 63 7B F0 EB 02  rorx        r13d,ebx,2
  0000000000002F1A: 45 8D 04 00        lea         r8d,[r8+rax]
  0000000000002F1E: C5 E5 FE DE        vpaddd      ymm3,ymm3,ymm6
  0000000000002F22: 41 21 F7           and         r15d,esi
  0000000000002F25: C4 41 39 EB C3     vpor        xmm8,xmm8,xmm11
  0000000000002F2A: C4 42 31 DD DA     vaesenclast xmm11,xmm9,xmm10
  0000000000002F2F: C5 7A 6F 57 80     vmovdqu     xmm10,xmmword ptr [rdi-80h]
  0000000000002F34: 45 31 E6           xor         r14d,r12d
  0000000000002F37: 41 31 CF           xor         r15d,ecx
  0000000000002F3A: C5 E5 FE 75 60     vpaddd      ymm6,ymm3,ymmword ptr [rbp+60h]
  0000000000002F3F: 45 31 EE           xor         r14d,r13d
  0000000000002F42: 42 8D 04 38        lea         eax,[rax+r15]
  0000000000002F46: 45 89 CC           mov         r12d,r9d
  0000000000002F49: C5 FD 7F 74 24 20  vmovdqa     ymmword ptr [rsp+20h],ymm6
  0000000000002F4F: C4 41 F9 7E FD     vmovq       r13,xmm15
  0000000000002F54: C4 43 F9 16 FF 01  vpextrq     r15,xmm15,1
  0000000000002F5A: C4 41 21 DB DE     vpand       xmm11,xmm11,xmm14
  0000000000002F5F: C4 41 39 EB C3     vpor        xmm8,xmm8,xmm11
  0000000000002F64: C4 01 7A 7F 04 2F  vmovdqu     xmmword ptr [r15+r13],xmm8
  0000000000002F6A: 4D 8D 6D 10        lea         r13,[r13+10h]
  0000000000002F6E: 48 8D AD 80 00 00  lea         rbp,[rbp+80h]
                    00
  0000000000002F75: 80 7D 03 00        cmp         byte ptr [rbp+3],0
  0000000000002F79: 0F 85 41 F6 FF FF  jne         L$avx2_00_47
  0000000000002F7F: C4 41 7A 6F 4D 00  vmovdqu     xmm9,xmmword ptr [r13]
  0000000000002F85: C4 43 81 22 FD 00  vpinsrq     xmm15,xmm15,r13,0
  0000000000002F8B: 44 03 5C 24 40     add         r11d,dword ptr [rsp+40h]
  0000000000002F90: 45 21 C4           and         r12d,r8d
  0000000000002F93: C4 43 7B F0 E8 19  rorx        r13d,r8d,19h
  0000000000002F99: C4 43 7B F0 F8 0B  rorx        r15d,r8d,0Bh
  0000000000002F9F: 42 8D 04 30        lea         eax,[rax+r14]
  0000000000002FA3: 47 8D 1C 23        lea         r11d,[r11+r12]
  0000000000002FA7: C4 42 38 F2 E2     andn        r12d,r8d,r10d
  0000000000002FAC: 45 31 FD           xor         r13d,r15d
  0000000000002FAF: C4 43 7B F0 F0 06  rorx        r14d,r8d,6
  0000000000002FB5: 47 8D 1C 23        lea         r11d,[r11+r12]
  0000000000002FB9: 45 31 F5           xor         r13d,r14d
  0000000000002FBC: 41 89 C7           mov         r15d,eax
  0000000000002FBF: C4 63 7B F0 E0 16  rorx        r12d,eax,16h
  0000000000002FC5: 47 8D 1C 2B        lea         r11d,[r11+r13]
  0000000000002FC9: 41 31 DF           xor         r15d,ebx
  0000000000002FCC: C4 63 7B F0 F0 0D  rorx        r14d,eax,0Dh
  0000000000002FD2: C4 63 7B F0 E8 02  rorx        r13d,eax,2
  0000000000002FD8: 42 8D 14 1A        lea         edx,[rdx+r11]
  0000000000002FDC: 44 21 FE           and         esi,r15d
  0000000000002FDF: C4 41 31 EF CA     vpxor       xmm9,xmm9,xmm10
  0000000000002FE4: C5 7A 6F 57 90     vmovdqu     xmm10,xmmword ptr [rdi-70h]
  0000000000002FE9: 45 31 E6           xor         r14d,r12d
  0000000000002FEC: 31 DE              xor         esi,ebx
  0000000000002FEE: 45 31 EE           xor         r14d,r13d
  0000000000002FF1: 45 8D 1C 33        lea         r11d,[r11+rsi]
  0000000000002FF5: 45 89 C4           mov         r12d,r8d
  0000000000002FF8: 44 03 54 24 44     add         r10d,dword ptr [rsp+44h]
  0000000000002FFD: 41 21 D4           and         r12d,edx
  0000000000003000: C4 63 7B F0 EA 19  rorx        r13d,edx,19h
  0000000000003006: C4 E3 7B F0 F2 0B  rorx        esi,edx,0Bh
  000000000000300C: 47 8D 1C 33        lea         r11d,[r11+r14]
  0000000000003010: 47 8D 14 22        lea         r10d,[r10+r12]
  0000000000003014: C4 42 68 F2 E1     andn        r12d,edx,r9d
  0000000000003019: 41 31 F5           xor         r13d,esi
  000000000000301C: C4 63 7B F0 F2 06  rorx        r14d,edx,6
  0000000000003022: 47 8D 14 22        lea         r10d,[r10+r12]
  0000000000003026: 45 31 F5           xor         r13d,r14d
  0000000000003029: 44 89 DE           mov         esi,r11d
  000000000000302C: C4 43 7B F0 E3 16  rorx        r12d,r11d,16h
  0000000000003032: 47 8D 14 2A        lea         r10d,[r10+r13]
  0000000000003036: 31 C6              xor         esi,eax
  0000000000003038: C4 43 7B F0 F3 0D  rorx        r14d,r11d,0Dh
  000000000000303E: C4 43 7B F0 EB 02  rorx        r13d,r11d,2
  0000000000003044: 42 8D 0C 11        lea         ecx,[rcx+r10]
  0000000000003048: 41 21 F7           and         r15d,esi
  000000000000304B: C4 41 31 EF C8     vpxor       xmm9,xmm9,xmm8
  0000000000003050: 45 31 E6           xor         r14d,r12d
  0000000000003053: 41 31 C7           xor         r15d,eax
  0000000000003056: 45 31 EE           xor         r14d,r13d
  0000000000003059: 47 8D 14 3A        lea         r10d,[r10+r15]
  000000000000305D: 41 89 D4           mov         r12d,edx
  0000000000003060: 44 03 4C 24 48     add         r9d,dword ptr [rsp+48h]
  0000000000003065: 41 21 CC           and         r12d,ecx
  0000000000003068: C4 63 7B F0 E9 19  rorx        r13d,ecx,19h
  000000000000306E: C4 63 7B F0 F9 0B  rorx        r15d,ecx,0Bh
  0000000000003074: 47 8D 14 32        lea         r10d,[r10+r14]
  0000000000003078: 47 8D 0C 21        lea         r9d,[r9+r12]
  000000000000307C: C4 42 70 F2 E0     andn        r12d,ecx,r8d
  0000000000003081: 45 31 FD           xor         r13d,r15d
  0000000000003084: C4 63 7B F0 F1 06  rorx        r14d,ecx,6
  000000000000308A: 47 8D 0C 21        lea         r9d,[r9+r12]
  000000000000308E: 45 31 F5           xor         r13d,r14d
  0000000000003091: 45 89 D7           mov         r15d,r10d
  0000000000003094: C4 43 7B F0 E2 16  rorx        r12d,r10d,16h
  000000000000309A: 47 8D 0C 29        lea         r9d,[r9+r13]
  000000000000309E: 45 31 DF           xor         r15d,r11d
  00000000000030A1: C4 43 7B F0 F2 0D  rorx        r14d,r10d,0Dh
  00000000000030A7: C4 43 7B F0 EA 02  rorx        r13d,r10d,2
  00000000000030AD: 42 8D 1C 0B        lea         ebx,[rbx+r9]
  00000000000030B1: 44 21 FE           and         esi,r15d
  00000000000030B4: C4 42 31 DC CA     vaesenc     xmm9,xmm9,xmm10
  00000000000030B9: C5 7A 6F 57 A0     vmovdqu     xmm10,xmmword ptr [rdi-60h]
  00000000000030BE: 45 31 E6           xor         r14d,r12d
  00000000000030C1: 44 31 DE           xor         esi,r11d
  00000000000030C4: 45 31 EE           xor         r14d,r13d
  00000000000030C7: 45 8D 0C 31        lea         r9d,[r9+rsi]
  00000000000030CB: 41 89 CC           mov         r12d,ecx
  00000000000030CE: 44 03 44 24 4C     add         r8d,dword ptr [rsp+4Ch]
  00000000000030D3: 41 21 DC           and         r12d,ebx
  00000000000030D6: C4 63 7B F0 EB 19  rorx        r13d,ebx,19h
  00000000000030DC: C4 E3 7B F0 F3 0B  rorx        esi,ebx,0Bh
  00000000000030E2: 47 8D 0C 31        lea         r9d,[r9+r14]
  00000000000030E6: 47 8D 04 20        lea         r8d,[r8+r12]
  00000000000030EA: C4 62 60 F2 E2     andn        r12d,ebx,edx
  00000000000030EF: 41 31 F5           xor         r13d,esi
  00000000000030F2: C4 63 7B F0 F3 06  rorx        r14d,ebx,6
  00000000000030F8: 47 8D 04 20        lea         r8d,[r8+r12]
  00000000000030FC: 45 31 F5           xor         r13d,r14d
  00000000000030FF: 44 89 CE           mov         esi,r9d
  0000000000003102: C4 43 7B F0 E1 16  rorx        r12d,r9d,16h
  0000000000003108: 47 8D 04 28        lea         r8d,[r8+r13]
  000000000000310C: 44 31 D6           xor         esi,r10d
  000000000000310F: C4 43 7B F0 F1 0D  rorx        r14d,r9d,0Dh
  0000000000003115: C4 43 7B F0 E9 02  rorx        r13d,r9d,2
  000000000000311B: 42 8D 04 00        lea         eax,[rax+r8]
  000000000000311F: 41 21 F7           and         r15d,esi
  0000000000003122: C4 42 31 DC CA     vaesenc     xmm9,xmm9,xmm10
  0000000000003127: C5 7A 6F 57 B0     vmovdqu     xmm10,xmmword ptr [rdi-50h]
  000000000000312C: 45 31 E6           xor         r14d,r12d
  000000000000312F: 45 31 D7           xor         r15d,r10d
  0000000000003132: 45 31 EE           xor         r14d,r13d
  0000000000003135: 47 8D 04 38        lea         r8d,[r8+r15]
  0000000000003139: 41 89 DC           mov         r12d,ebx
  000000000000313C: 03 54 24 60        add         edx,dword ptr [rsp+60h]
  0000000000003140: 41 21 C4           and         r12d,eax
  0000000000003143: C4 63 7B F0 E8 19  rorx        r13d,eax,19h
  0000000000003149: C4 63 7B F0 F8 0B  rorx        r15d,eax,0Bh
  000000000000314F: 47 8D 04 30        lea         r8d,[r8+r14]
  0000000000003153: 42 8D 14 22        lea         edx,[rdx+r12]
  0000000000003157: C4 62 78 F2 E1     andn        r12d,eax,ecx
  000000000000315C: 45 31 FD           xor         r13d,r15d
  000000000000315F: C4 63 7B F0 F0 06  rorx        r14d,eax,6
  0000000000003165: 42 8D 14 22        lea         edx,[rdx+r12]
  0000000000003169: 45 31 F5           xor         r13d,r14d
  000000000000316C: 45 89 C7           mov         r15d,r8d
  000000000000316F: C4 43 7B F0 E0 16  rorx        r12d,r8d,16h
  0000000000003175: 42 8D 14 2A        lea         edx,[rdx+r13]
  0000000000003179: 45 31 CF           xor         r15d,r9d
  000000000000317C: C4 43 7B F0 F0 0D  rorx        r14d,r8d,0Dh
  0000000000003182: C4 43 7B F0 E8 02  rorx        r13d,r8d,2
  0000000000003188: 45 8D 1C 13        lea         r11d,[r11+rdx]
  000000000000318C: 44 21 FE           and         esi,r15d
  000000000000318F: C4 42 31 DC CA     vaesenc     xmm9,xmm9,xmm10
  0000000000003194: C5 7A 6F 57 C0     vmovdqu     xmm10,xmmword ptr [rdi-40h]
  0000000000003199: 45 31 E6           xor         r14d,r12d
  000000000000319C: 44 31 CE           xor         esi,r9d
  000000000000319F: 45 31 EE           xor         r14d,r13d
  00000000000031A2: 8D 14 32           lea         edx,[rdx+rsi]
  00000000000031A5: 41 89 C4           mov         r12d,eax
  00000000000031A8: 03 4C 24 64        add         ecx,dword ptr [rsp+64h]
  00000000000031AC: 45 21 DC           and         r12d,r11d
  00000000000031AF: C4 43 7B F0 EB 19  rorx        r13d,r11d,19h
  00000000000031B5: C4 C3 7B F0 F3 0B  rorx        esi,r11d,0Bh
  00000000000031BB: 42 8D 14 32        lea         edx,[rdx+r14]
  00000000000031BF: 42 8D 0C 21        lea         ecx,[rcx+r12]
  00000000000031C3: C4 62 20 F2 E3     andn        r12d,r11d,ebx
  00000000000031C8: 41 31 F5           xor         r13d,esi
  00000000000031CB: C4 43 7B F0 F3 06  rorx        r14d,r11d,6
  00000000000031D1: 42 8D 0C 21        lea         ecx,[rcx+r12]
  00000000000031D5: 45 31 F5           xor         r13d,r14d
  00000000000031D8: 89 D6              mov         esi,edx
  00000000000031DA: C4 63 7B F0 E2 16  rorx        r12d,edx,16h
  00000000000031E0: 42 8D 0C 29        lea         ecx,[rcx+r13]
  00000000000031E4: 44 31 C6           xor         esi,r8d
  00000000000031E7: C4 63 7B F0 F2 0D  rorx        r14d,edx,0Dh
  00000000000031ED: C4 63 7B F0 EA 02  rorx        r13d,edx,2
  00000000000031F3: 45 8D 14 0A        lea         r10d,[r10+rcx]
  00000000000031F7: 41 21 F7           and         r15d,esi
  00000000000031FA: C4 42 31 DC CA     vaesenc     xmm9,xmm9,xmm10
  00000000000031FF: C5 7A 6F 57 D0     vmovdqu     xmm10,xmmword ptr [rdi-30h]
  0000000000003204: 45 31 E6           xor         r14d,r12d
  0000000000003207: 45 31 C7           xor         r15d,r8d
  000000000000320A: 45 31 EE           xor         r14d,r13d
  000000000000320D: 42 8D 0C 39        lea         ecx,[rcx+r15]
  0000000000003211: 45 89 DC           mov         r12d,r11d
  0000000000003214: 03 5C 24 68        add         ebx,dword ptr [rsp+68h]
  0000000000003218: 45 21 D4           and         r12d,r10d
  000000000000321B: C4 43 7B F0 EA 19  rorx        r13d,r10d,19h
  0000000000003221: C4 43 7B F0 FA 0B  rorx        r15d,r10d,0Bh
  0000000000003227: 42 8D 0C 31        lea         ecx,[rcx+r14]
  000000000000322B: 42 8D 1C 23        lea         ebx,[rbx+r12]
  000000000000322F: C4 62 28 F2 E0     andn        r12d,r10d,eax
  0000000000003234: 45 31 FD           xor         r13d,r15d
  0000000000003237: C4 43 7B F0 F2 06  rorx        r14d,r10d,6
  000000000000323D: 42 8D 1C 23        lea         ebx,[rbx+r12]
  0000000000003241: 45 31 F5           xor         r13d,r14d
  0000000000003244: 41 89 CF           mov         r15d,ecx
  0000000000003247: C4 63 7B F0 E1 16  rorx        r12d,ecx,16h
  000000000000324D: 42 8D 1C 2B        lea         ebx,[rbx+r13]
  0000000000003251: 41 31 D7           xor         r15d,edx
  0000000000003254: C4 63 7B F0 F1 0D  rorx        r14d,ecx,0Dh
  000000000000325A: C4 63 7B F0 E9 02  rorx        r13d,ecx,2
  0000000000003260: 45 8D 0C 19        lea         r9d,[r9+rbx]
  0000000000003264: 44 21 FE           and         esi,r15d
  0000000000003267: C4 42 31 DC CA     vaesenc     xmm9,xmm9,xmm10
  000000000000326C: C5 7A 6F 57 E0     vmovdqu     xmm10,xmmword ptr [rdi-20h]
  0000000000003271: 45 31 E6           xor         r14d,r12d
  0000000000003274: 31 D6              xor         esi,edx
  0000000000003276: 45 31 EE           xor         r14d,r13d
  0000000000003279: 8D 1C 33           lea         ebx,[rbx+rsi]
  000000000000327C: 45 89 D4           mov         r12d,r10d
  000000000000327F: 03 44 24 6C        add         eax,dword ptr [rsp+6Ch]
  0000000000003283: 45 21 CC           and         r12d,r9d
  0000000000003286: C4 43 7B F0 E9 19  rorx        r13d,r9d,19h
  000000000000328C: C4 C3 7B F0 F1 0B  rorx        esi,r9d,0Bh
  0000000000003292: 42 8D 1C 33        lea         ebx,[rbx+r14]
  0000000000003296: 42 8D 04 20        lea         eax,[rax+r12]
  000000000000329A: C4 42 30 F2 E3     andn        r12d,r9d,r11d
  000000000000329F: 41 31 F5           xor         r13d,esi
  00000000000032A2: C4 43 7B F0 F1 06  rorx        r14d,r9d,6
  00000000000032A8: 42 8D 04 20        lea         eax,[rax+r12]
  00000000000032AC: 45 31 F5           xor         r13d,r14d
  00000000000032AF: 89 DE              mov         esi,ebx
  00000000000032B1: C4 63 7B F0 E3 16  rorx        r12d,ebx,16h
  00000000000032B7: 42 8D 04 28        lea         eax,[rax+r13]
  00000000000032BB: 31 CE              xor         esi,ecx
  00000000000032BD: C4 63 7B F0 F3 0D  rorx        r14d,ebx,0Dh
  00000000000032C3: C4 63 7B F0 EB 02  rorx        r13d,ebx,2
  00000000000032C9: 45 8D 04 00        lea         r8d,[r8+rax]
  00000000000032CD: 41 21 F7           and         r15d,esi
  00000000000032D0: C4 42 31 DC CA     vaesenc     xmm9,xmm9,xmm10
  00000000000032D5: C5 7A 6F 57 F0     vmovdqu     xmm10,xmmword ptr [rdi-10h]
  00000000000032DA: 45 31 E6           xor         r14d,r12d
  00000000000032DD: 41 31 CF           xor         r15d,ecx
  00000000000032E0: 45 31 EE           xor         r14d,r13d
  00000000000032E3: 42 8D 04 38        lea         eax,[rax+r15]
  00000000000032E7: 45 89 CC           mov         r12d,r9d
  00000000000032EA: 44 03 1C 24        add         r11d,dword ptr [rsp]
  00000000000032EE: 45 21 C4           and         r12d,r8d
  00000000000032F1: C4 43 7B F0 E8 19  rorx        r13d,r8d,19h
  00000000000032F7: C4 43 7B F0 F8 0B  rorx        r15d,r8d,0Bh
  00000000000032FD: 42 8D 04 30        lea         eax,[rax+r14]
  0000000000003301: 47 8D 1C 23        lea         r11d,[r11+r12]
  0000000000003305: C4 42 38 F2 E2     andn        r12d,r8d,r10d
  000000000000330A: 45 31 FD           xor         r13d,r15d
  000000000000330D: C4 43 7B F0 F0 06  rorx        r14d,r8d,6
  0000000000003313: 47 8D 1C 23        lea         r11d,[r11+r12]
  0000000000003317: 45 31 F5           xor         r13d,r14d
  000000000000331A: 41 89 C7           mov         r15d,eax
  000000000000331D: C4 63 7B F0 E0 16  rorx        r12d,eax,16h
  0000000000003323: 47 8D 1C 2B        lea         r11d,[r11+r13]
  0000000000003327: 41 31 DF           xor         r15d,ebx
  000000000000332A: C4 63 7B F0 F0 0D  rorx        r14d,eax,0Dh
  0000000000003330: C4 63 7B F0 E8 02  rorx        r13d,eax,2
  0000000000003336: 42 8D 14 1A        lea         edx,[rdx+r11]
  000000000000333A: 44 21 FE           and         esi,r15d
  000000000000333D: C4 42 31 DC CA     vaesenc     xmm9,xmm9,xmm10
  0000000000003342: C5 7A 6F 17        vmovdqu     xmm10,xmmword ptr [rdi]
  0000000000003346: 45 31 E6           xor         r14d,r12d
  0000000000003349: 31 DE              xor         esi,ebx
  000000000000334B: 45 31 EE           xor         r14d,r13d
  000000000000334E: 45 8D 1C 33        lea         r11d,[r11+rsi]
  0000000000003352: 45 89 C4           mov         r12d,r8d
  0000000000003355: 44 03 54 24 04     add         r10d,dword ptr [rsp+4]
  000000000000335A: 41 21 D4           and         r12d,edx
  000000000000335D: C4 63 7B F0 EA 19  rorx        r13d,edx,19h
  0000000000003363: C4 E3 7B F0 F2 0B  rorx        esi,edx,0Bh
  0000000000003369: 47 8D 1C 33        lea         r11d,[r11+r14]
  000000000000336D: 47 8D 14 22        lea         r10d,[r10+r12]
  0000000000003371: C4 42 68 F2 E1     andn        r12d,edx,r9d
  0000000000003376: 41 31 F5           xor         r13d,esi
  0000000000003379: C4 63 7B F0 F2 06  rorx        r14d,edx,6
  000000000000337F: 47 8D 14 22        lea         r10d,[r10+r12]
  0000000000003383: 45 31 F5           xor         r13d,r14d
  0000000000003386: 44 89 DE           mov         esi,r11d
  0000000000003389: C4 43 7B F0 E3 16  rorx        r12d,r11d,16h
  000000000000338F: 47 8D 14 2A        lea         r10d,[r10+r13]
  0000000000003393: 31 C6              xor         esi,eax
  0000000000003395: C4 43 7B F0 F3 0D  rorx        r14d,r11d,0Dh
  000000000000339B: C4 43 7B F0 EB 02  rorx        r13d,r11d,2
  00000000000033A1: 42 8D 0C 11        lea         ecx,[rcx+r10]
  00000000000033A5: 41 21 F7           and         r15d,esi
  00000000000033A8: C4 42 31 DC CA     vaesenc     xmm9,xmm9,xmm10
  00000000000033AD: C5 7A 6F 57 10     vmovdqu     xmm10,xmmword ptr [rdi+10h]
  00000000000033B2: 45 31 E6           xor         r14d,r12d
  00000000000033B5: 41 31 C7           xor         r15d,eax
  00000000000033B8: 45 31 EE           xor         r14d,r13d
  00000000000033BB: 47 8D 14 3A        lea         r10d,[r10+r15]
  00000000000033BF: 41 89 D4           mov         r12d,edx
  00000000000033C2: 44 03 4C 24 08     add         r9d,dword ptr [rsp+8]
  00000000000033C7: 41 21 CC           and         r12d,ecx
  00000000000033CA: C4 63 7B F0 E9 19  rorx        r13d,ecx,19h
  00000000000033D0: C4 63 7B F0 F9 0B  rorx        r15d,ecx,0Bh
  00000000000033D6: 47 8D 14 32        lea         r10d,[r10+r14]
  00000000000033DA: 47 8D 0C 21        lea         r9d,[r9+r12]
  00000000000033DE: C4 42 70 F2 E0     andn        r12d,ecx,r8d
  00000000000033E3: 45 31 FD           xor         r13d,r15d
  00000000000033E6: C4 63 7B F0 F1 06  rorx        r14d,ecx,6
  00000000000033EC: 47 8D 0C 21        lea         r9d,[r9+r12]
  00000000000033F0: 45 31 F5           xor         r13d,r14d
  00000000000033F3: 45 89 D7           mov         r15d,r10d
  00000000000033F6: C4 43 7B F0 E2 16  rorx        r12d,r10d,16h
  00000000000033FC: 47 8D 0C 29        lea         r9d,[r9+r13]
  0000000000003400: 45 31 DF           xor         r15d,r11d
  0000000000003403: C4 43 7B F0 F2 0D  rorx        r14d,r10d,0Dh
  0000000000003409: C4 43 7B F0 EA 02  rorx        r13d,r10d,2
  000000000000340F: 42 8D 1C 0B        lea         ebx,[rbx+r9]
  0000000000003413: 44 21 FE           and         esi,r15d
  0000000000003416: C4 42 31 DC CA     vaesenc     xmm9,xmm9,xmm10
  000000000000341B: C5 7A 6F 57 20     vmovdqu     xmm10,xmmword ptr [rdi+20h]
  0000000000003420: 45 31 E6           xor         r14d,r12d
  0000000000003423: 44 31 DE           xor         esi,r11d
  0000000000003426: 45 31 EE           xor         r14d,r13d
  0000000000003429: 45 8D 0C 31        lea         r9d,[r9+rsi]
  000000000000342D: 41 89 CC           mov         r12d,ecx
  0000000000003430: 44 03 44 24 0C     add         r8d,dword ptr [rsp+0Ch]
  0000000000003435: 41 21 DC           and         r12d,ebx
  0000000000003438: C4 63 7B F0 EB 19  rorx        r13d,ebx,19h
  000000000000343E: C4 E3 7B F0 F3 0B  rorx        esi,ebx,0Bh
  0000000000003444: 47 8D 0C 31        lea         r9d,[r9+r14]
  0000000000003448: 47 8D 04 20        lea         r8d,[r8+r12]
  000000000000344C: C4 62 60 F2 E2     andn        r12d,ebx,edx
  0000000000003451: 41 31 F5           xor         r13d,esi
  0000000000003454: C4 63 7B F0 F3 06  rorx        r14d,ebx,6
  000000000000345A: 47 8D 04 20        lea         r8d,[r8+r12]
  000000000000345E: 45 31 F5           xor         r13d,r14d
  0000000000003461: 44 89 CE           mov         esi,r9d
  0000000000003464: C4 43 7B F0 E1 16  rorx        r12d,r9d,16h
  000000000000346A: 47 8D 04 28        lea         r8d,[r8+r13]
  000000000000346E: 44 31 D6           xor         esi,r10d
  0000000000003471: C4 43 7B F0 F1 0D  rorx        r14d,r9d,0Dh
  0000000000003477: C4 43 7B F0 E9 02  rorx        r13d,r9d,2
  000000000000347D: 42 8D 04 00        lea         eax,[rax+r8]
  0000000000003481: 41 21 F7           and         r15d,esi
  0000000000003484: C4 42 31 DD DA     vaesenclast xmm11,xmm9,xmm10
  0000000000003489: C4 42 31 DC CA     vaesenc     xmm9,xmm9,xmm10
  000000000000348E: C5 7A 6F 57 30     vmovdqu     xmm10,xmmword ptr [rdi+30h]
  0000000000003493: 45 31 E6           xor         r14d,r12d
  0000000000003496: 45 31 D7           xor         r15d,r10d
  0000000000003499: 45 31 EE           xor         r14d,r13d
  000000000000349C: 47 8D 04 38        lea         r8d,[r8+r15]
  00000000000034A0: 41 89 DC           mov         r12d,ebx
  00000000000034A3: 03 54 24 20        add         edx,dword ptr [rsp+20h]
  00000000000034A7: 41 21 C4           and         r12d,eax
  00000000000034AA: C4 63 7B F0 E8 19  rorx        r13d,eax,19h
  00000000000034B0: C4 63 7B F0 F8 0B  rorx        r15d,eax,0Bh
  00000000000034B6: 47 8D 04 30        lea         r8d,[r8+r14]
  00000000000034BA: 42 8D 14 22        lea         edx,[rdx+r12]
  00000000000034BE: C4 62 78 F2 E1     andn        r12d,eax,ecx
  00000000000034C3: 45 31 FD           xor         r13d,r15d
  00000000000034C6: C4 63 7B F0 F0 06  rorx        r14d,eax,6
  00000000000034CC: 42 8D 14 22        lea         edx,[rdx+r12]
  00000000000034D0: 45 31 F5           xor         r13d,r14d
  00000000000034D3: 45 89 C7           mov         r15d,r8d
  00000000000034D6: C4 43 7B F0 E0 16  rorx        r12d,r8d,16h
  00000000000034DC: 42 8D 14 2A        lea         edx,[rdx+r13]
  00000000000034E0: 45 31 CF           xor         r15d,r9d
  00000000000034E3: C4 43 7B F0 F0 0D  rorx        r14d,r8d,0Dh
  00000000000034E9: C4 43 7B F0 E8 02  rorx        r13d,r8d,2
  00000000000034EF: 45 8D 1C 13        lea         r11d,[r11+rdx]
  00000000000034F3: 44 21 FE           and         esi,r15d
  00000000000034F6: C4 41 21 DB C4     vpand       xmm8,xmm11,xmm12
  00000000000034FB: C4 42 31 DC CA     vaesenc     xmm9,xmm9,xmm10
  0000000000003500: C5 7A 6F 57 40     vmovdqu     xmm10,xmmword ptr [rdi+40h]
  0000000000003505: 45 31 E6           xor         r14d,r12d
  0000000000003508: 44 31 CE           xor         esi,r9d
  000000000000350B: 45 31 EE           xor         r14d,r13d
  000000000000350E: 8D 14 32           lea         edx,[rdx+rsi]
  0000000000003511: 41 89 C4           mov         r12d,eax
  0000000000003514: 03 4C 24 24        add         ecx,dword ptr [rsp+24h]
  0000000000003518: 45 21 DC           and         r12d,r11d
  000000000000351B: C4 43 7B F0 EB 19  rorx        r13d,r11d,19h
  0000000000003521: C4 C3 7B F0 F3 0B  rorx        esi,r11d,0Bh
  0000000000003527: 42 8D 14 32        lea         edx,[rdx+r14]
  000000000000352B: 42 8D 0C 21        lea         ecx,[rcx+r12]
  000000000000352F: C4 62 20 F2 E3     andn        r12d,r11d,ebx
  0000000000003534: 41 31 F5           xor         r13d,esi
  0000000000003537: C4 43 7B F0 F3 06  rorx        r14d,r11d,6
  000000000000353D: 42 8D 0C 21        lea         ecx,[rcx+r12]
  0000000000003541: 45 31 F5           xor         r13d,r14d
  0000000000003544: 89 D6              mov         esi,edx
  0000000000003546: C4 63 7B F0 E2 16  rorx        r12d,edx,16h
  000000000000354C: 42 8D 0C 29        lea         ecx,[rcx+r13]
  0000000000003550: 44 31 C6           xor         esi,r8d
  0000000000003553: C4 63 7B F0 F2 0D  rorx        r14d,edx,0Dh
  0000000000003559: C4 63 7B F0 EA 02  rorx        r13d,edx,2
  000000000000355F: 45 8D 14 0A        lea         r10d,[r10+rcx]
  0000000000003563: 41 21 F7           and         r15d,esi
  0000000000003566: C4 42 31 DD DA     vaesenclast xmm11,xmm9,xmm10
  000000000000356B: C4 42 31 DC CA     vaesenc     xmm9,xmm9,xmm10
  0000000000003570: C5 7A 6F 57 50     vmovdqu     xmm10,xmmword ptr [rdi+50h]
  0000000000003575: 45 31 E6           xor         r14d,r12d
  0000000000003578: 45 31 C7           xor         r15d,r8d
  000000000000357B: 45 31 EE           xor         r14d,r13d
  000000000000357E: 42 8D 0C 39        lea         ecx,[rcx+r15]
  0000000000003582: 45 89 DC           mov         r12d,r11d
  0000000000003585: 03 5C 24 28        add         ebx,dword ptr [rsp+28h]
  0000000000003589: 45 21 D4           and         r12d,r10d
  000000000000358C: C4 43 7B F0 EA 19  rorx        r13d,r10d,19h
  0000000000003592: C4 43 7B F0 FA 0B  rorx        r15d,r10d,0Bh
  0000000000003598: 42 8D 0C 31        lea         ecx,[rcx+r14]
  000000000000359C: 42 8D 1C 23        lea         ebx,[rbx+r12]
  00000000000035A0: C4 62 28 F2 E0     andn        r12d,r10d,eax
  00000000000035A5: 45 31 FD           xor         r13d,r15d
  00000000000035A8: C4 43 7B F0 F2 06  rorx        r14d,r10d,6
  00000000000035AE: 42 8D 1C 23        lea         ebx,[rbx+r12]
  00000000000035B2: 45 31 F5           xor         r13d,r14d
  00000000000035B5: 41 89 CF           mov         r15d,ecx
  00000000000035B8: C4 63 7B F0 E1 16  rorx        r12d,ecx,16h
  00000000000035BE: 42 8D 1C 2B        lea         ebx,[rbx+r13]
  00000000000035C2: 41 31 D7           xor         r15d,edx
  00000000000035C5: C4 63 7B F0 F1 0D  rorx        r14d,ecx,0Dh
  00000000000035CB: C4 63 7B F0 E9 02  rorx        r13d,ecx,2
  00000000000035D1: 45 8D 0C 19        lea         r9d,[r9+rbx]
  00000000000035D5: 44 21 FE           and         esi,r15d
  00000000000035D8: C4 41 21 DB DD     vpand       xmm11,xmm11,xmm13
  00000000000035DD: C4 42 31 DC CA     vaesenc     xmm9,xmm9,xmm10
  00000000000035E2: C5 7A 6F 57 60     vmovdqu     xmm10,xmmword ptr [rdi+60h]
  00000000000035E7: 45 31 E6           xor         r14d,r12d
  00000000000035EA: 31 D6              xor         esi,edx
  00000000000035EC: 45 31 EE           xor         r14d,r13d
  00000000000035EF: 8D 1C 33           lea         ebx,[rbx+rsi]
  00000000000035F2: 45 89 D4           mov         r12d,r10d
  00000000000035F5: 03 44 24 2C        add         eax,dword ptr [rsp+2Ch]
  00000000000035F9: 45 21 CC           and         r12d,r9d
  00000000000035FC: C4 43 7B F0 E9 19  rorx        r13d,r9d,19h
  0000000000003602: C4 C3 7B F0 F1 0B  rorx        esi,r9d,0Bh
  0000000000003608: 42 8D 1C 33        lea         ebx,[rbx+r14]
  000000000000360C: 42 8D 04 20        lea         eax,[rax+r12]
  0000000000003610: C4 42 30 F2 E3     andn        r12d,r9d,r11d
  0000000000003615: 41 31 F5           xor         r13d,esi
  0000000000003618: C4 43 7B F0 F1 06  rorx        r14d,r9d,6
  000000000000361E: 42 8D 04 20        lea         eax,[rax+r12]
  0000000000003622: 45 31 F5           xor         r13d,r14d
  0000000000003625: 89 DE              mov         esi,ebx
  0000000000003627: C4 63 7B F0 E3 16  rorx        r12d,ebx,16h
  000000000000362D: 42 8D 04 28        lea         eax,[rax+r13]
  0000000000003631: 31 CE              xor         esi,ecx
  0000000000003633: C4 63 7B F0 F3 0D  rorx        r14d,ebx,0Dh
  0000000000003639: C4 63 7B F0 EB 02  rorx        r13d,ebx,2
  000000000000363F: 45 8D 04 00        lea         r8d,[r8+rax]
  0000000000003643: 41 21 F7           and         r15d,esi
  0000000000003646: C4 41 39 EB C3     vpor        xmm8,xmm8,xmm11
  000000000000364B: C4 42 31 DD DA     vaesenclast xmm11,xmm9,xmm10
  0000000000003650: C5 7A 6F 57 80     vmovdqu     xmm10,xmmword ptr [rdi-80h]
  0000000000003655: 45 31 E6           xor         r14d,r12d
  0000000000003658: 41 31 CF           xor         r15d,ecx
  000000000000365B: 45 31 EE           xor         r14d,r13d
  000000000000365E: 42 8D 04 38        lea         eax,[rax+r15]
  0000000000003662: 45 89 CC           mov         r12d,r9d
  0000000000003665: C4 43 F9 16 FC 01  vpextrq     r12,xmm15,1
  000000000000366B: C4 41 F9 7E FD     vmovq       r13,xmm15
  0000000000003670: 4C 8B BC 24 28 02  mov         r15,qword ptr [rsp+228h]
                    00 00
  0000000000003678: 44 01 F0           add         eax,r14d
  000000000000367B: 48 8D AC 24 C0 01  lea         rbp,[rsp+1C0h]
                    00 00
  0000000000003683: C4 41 21 DB DE     vpand       xmm11,xmm11,xmm14
  0000000000003688: C4 41 39 EB C3     vpor        xmm8,xmm8,xmm11
  000000000000368D: C4 01 7A 7F 04 2C  vmovdqu     xmmword ptr [r12+r13],xmm8
  0000000000003693: 4D 8D 6D 10        lea         r13,[r13+10h]
  0000000000003697: 41 03 07           add         eax,dword ptr [r15]
  000000000000369A: 41 03 5F 04        add         ebx,dword ptr [r15+4]
  000000000000369E: 41 03 4F 08        add         ecx,dword ptr [r15+8]
  00000000000036A2: 41 03 57 0C        add         edx,dword ptr [r15+0Ch]
  00000000000036A6: 45 03 47 10        add         r8d,dword ptr [r15+10h]
  00000000000036AA: 45 03 4F 14        add         r9d,dword ptr [r15+14h]
  00000000000036AE: 45 03 57 18        add         r10d,dword ptr [r15+18h]
  00000000000036B2: 45 03 5F 1C        add         r11d,dword ptr [r15+1Ch]
  00000000000036B6: 41 89 07           mov         dword ptr [r15],eax
  00000000000036B9: 41 89 5F 04        mov         dword ptr [r15+4],ebx
  00000000000036BD: 41 89 4F 08        mov         dword ptr [r15+8],ecx
  00000000000036C1: 41 89 57 0C        mov         dword ptr [r15+0Ch],edx
  00000000000036C5: 45 89 47 10        mov         dword ptr [r15+10h],r8d
  00000000000036C9: 45 89 4F 14        mov         dword ptr [r15+14h],r9d
  00000000000036CD: 45 89 57 18        mov         dword ptr [r15+18h],r10d
  00000000000036D1: 45 89 5F 1C        mov         dword ptr [r15+1Ch],r11d
  00000000000036D5: 4C 3B 6D 50        cmp         r13,qword ptr [rbp+50h]
  00000000000036D9: 0F 84 8C 07 00 00  je          L$done_avx2
  00000000000036DF: 45 31 F6           xor         r14d,r14d
  00000000000036E2: 89 DE              mov         esi,ebx
  00000000000036E4: 45 89 CC           mov         r12d,r9d
  00000000000036E7: 31 CE              xor         esi,ecx
  00000000000036E9: E9 02 00 00 00     jmp         L$ower_avx2
  00000000000036EE: 90                 nop
  00000000000036EF: 90                 nop
L$ower_avx2:
  00000000000036F0: C4 41 7A 6F 4D 00  vmovdqu     xmm9,xmmword ptr [r13]
  00000000000036F6: C4 43 81 22 FD 00  vpinsrq     xmm15,xmm15,r13,0
  00000000000036FC: 44 03 5D 10        add         r11d,dword ptr [rbp+10h]
  0000000000003700: 45 21 C4           and         r12d,r8d
  0000000000003703: C4 43 7B F0 E8 19  rorx        r13d,r8d,19h
  0000000000003709: C4 43 7B F0 F8 0B  rorx        r15d,r8d,0Bh
  000000000000370F: 42 8D 04 30        lea         eax,[rax+r14]
  0000000000003713: 47 8D 1C 23        lea         r11d,[r11+r12]
  0000000000003717: C4 42 38 F2 E2     andn        r12d,r8d,r10d
  000000000000371C: 45 31 FD           xor         r13d,r15d
  000000000000371F: C4 43 7B F0 F0 06  rorx        r14d,r8d,6
  0000000000003725: 47 8D 1C 23        lea         r11d,[r11+r12]
  0000000000003729: 45 31 F5           xor         r13d,r14d
  000000000000372C: 41 89 C7           mov         r15d,eax
  000000000000372F: C4 63 7B F0 E0 16  rorx        r12d,eax,16h
  0000000000003735: 47 8D 1C 2B        lea         r11d,[r11+r13]
  0000000000003739: 41 31 DF           xor         r15d,ebx
  000000000000373C: C4 63 7B F0 F0 0D  rorx        r14d,eax,0Dh
  0000000000003742: C4 63 7B F0 E8 02  rorx        r13d,eax,2
  0000000000003748: 42 8D 14 1A        lea         edx,[rdx+r11]
  000000000000374C: 44 21 FE           and         esi,r15d
  000000000000374F: C4 41 31 EF CA     vpxor       xmm9,xmm9,xmm10
  0000000000003754: C5 7A 6F 57 90     vmovdqu     xmm10,xmmword ptr [rdi-70h]
  0000000000003759: 45 31 E6           xor         r14d,r12d
  000000000000375C: 31 DE              xor         esi,ebx
  000000000000375E: 45 31 EE           xor         r14d,r13d
  0000000000003761: 45 8D 1C 33        lea         r11d,[r11+rsi]
  0000000000003765: 45 89 C4           mov         r12d,r8d
  0000000000003768: 44 03 55 14        add         r10d,dword ptr [rbp+14h]
  000000000000376C: 41 21 D4           and         r12d,edx
  000000000000376F: C4 63 7B F0 EA 19  rorx        r13d,edx,19h
  0000000000003775: C4 E3 7B F0 F2 0B  rorx        esi,edx,0Bh
  000000000000377B: 47 8D 1C 33        lea         r11d,[r11+r14]
  000000000000377F: 47 8D 14 22        lea         r10d,[r10+r12]
  0000000000003783: C4 42 68 F2 E1     andn        r12d,edx,r9d
  0000000000003788: 41 31 F5           xor         r13d,esi
  000000000000378B: C4 63 7B F0 F2 06  rorx        r14d,edx,6
  0000000000003791: 47 8D 14 22        lea         r10d,[r10+r12]
  0000000000003795: 45 31 F5           xor         r13d,r14d
  0000000000003798: 44 89 DE           mov         esi,r11d
  000000000000379B: C4 43 7B F0 E3 16  rorx        r12d,r11d,16h
  00000000000037A1: 47 8D 14 2A        lea         r10d,[r10+r13]
  00000000000037A5: 31 C6              xor         esi,eax
  00000000000037A7: C4 43 7B F0 F3 0D  rorx        r14d,r11d,0Dh
  00000000000037AD: C4 43 7B F0 EB 02  rorx        r13d,r11d,2
  00000000000037B3: 42 8D 0C 11        lea         ecx,[rcx+r10]
  00000000000037B7: 41 21 F7           and         r15d,esi
  00000000000037BA: C4 41 31 EF C8     vpxor       xmm9,xmm9,xmm8
  00000000000037BF: 45 31 E6           xor         r14d,r12d
  00000000000037C2: 41 31 C7           xor         r15d,eax
  00000000000037C5: 45 31 EE           xor         r14d,r13d
  00000000000037C8: 47 8D 14 3A        lea         r10d,[r10+r15]
  00000000000037CC: 41 89 D4           mov         r12d,edx
  00000000000037CF: 44 03 4D 18        add         r9d,dword ptr [rbp+18h]
  00000000000037D3: 41 21 CC           and         r12d,ecx
  00000000000037D6: C4 63 7B F0 E9 19  rorx        r13d,ecx,19h
  00000000000037DC: C4 63 7B F0 F9 0B  rorx        r15d,ecx,0Bh
  00000000000037E2: 47 8D 14 32        lea         r10d,[r10+r14]
  00000000000037E6: 47 8D 0C 21        lea         r9d,[r9+r12]
  00000000000037EA: C4 42 70 F2 E0     andn        r12d,ecx,r8d
  00000000000037EF: 45 31 FD           xor         r13d,r15d
  00000000000037F2: C4 63 7B F0 F1 06  rorx        r14d,ecx,6
  00000000000037F8: 47 8D 0C 21        lea         r9d,[r9+r12]
  00000000000037FC: 45 31 F5           xor         r13d,r14d
  00000000000037FF: 45 89 D7           mov         r15d,r10d
  0000000000003802: C4 43 7B F0 E2 16  rorx        r12d,r10d,16h
  0000000000003808: 47 8D 0C 29        lea         r9d,[r9+r13]
  000000000000380C: 45 31 DF           xor         r15d,r11d
  000000000000380F: C4 43 7B F0 F2 0D  rorx        r14d,r10d,0Dh
  0000000000003815: C4 43 7B F0 EA 02  rorx        r13d,r10d,2
  000000000000381B: 42 8D 1C 0B        lea         ebx,[rbx+r9]
  000000000000381F: 44 21 FE           and         esi,r15d
  0000000000003822: C4 42 31 DC CA     vaesenc     xmm9,xmm9,xmm10
  0000000000003827: C5 7A 6F 57 A0     vmovdqu     xmm10,xmmword ptr [rdi-60h]
  000000000000382C: 45 31 E6           xor         r14d,r12d
  000000000000382F: 44 31 DE           xor         esi,r11d
  0000000000003832: 45 31 EE           xor         r14d,r13d
  0000000000003835: 45 8D 0C 31        lea         r9d,[r9+rsi]
  0000000000003839: 41 89 CC           mov         r12d,ecx
  000000000000383C: 44 03 45 1C        add         r8d,dword ptr [rbp+1Ch]
  0000000000003840: 41 21 DC           and         r12d,ebx
  0000000000003843: C4 63 7B F0 EB 19  rorx        r13d,ebx,19h
  0000000000003849: C4 E3 7B F0 F3 0B  rorx        esi,ebx,0Bh
  000000000000384F: 47 8D 0C 31        lea         r9d,[r9+r14]
  0000000000003853: 47 8D 04 20        lea         r8d,[r8+r12]
  0000000000003857: C4 62 60 F2 E2     andn        r12d,ebx,edx
  000000000000385C: 41 31 F5           xor         r13d,esi
  000000000000385F: C4 63 7B F0 F3 06  rorx        r14d,ebx,6
  0000000000003865: 47 8D 04 20        lea         r8d,[r8+r12]
  0000000000003869: 45 31 F5           xor         r13d,r14d
  000000000000386C: 44 89 CE           mov         esi,r9d
  000000000000386F: C4 43 7B F0 E1 16  rorx        r12d,r9d,16h
  0000000000003875: 47 8D 04 28        lea         r8d,[r8+r13]
  0000000000003879: 44 31 D6           xor         esi,r10d
  000000000000387C: C4 43 7B F0 F1 0D  rorx        r14d,r9d,0Dh
  0000000000003882: C4 43 7B F0 E9 02  rorx        r13d,r9d,2
  0000000000003888: 42 8D 04 00        lea         eax,[rax+r8]
  000000000000388C: 41 21 F7           and         r15d,esi
  000000000000388F: C4 42 31 DC CA     vaesenc     xmm9,xmm9,xmm10
  0000000000003894: C5 7A 6F 57 B0     vmovdqu     xmm10,xmmword ptr [rdi-50h]
  0000000000003899: 45 31 E6           xor         r14d,r12d
  000000000000389C: 45 31 D7           xor         r15d,r10d
  000000000000389F: 45 31 EE           xor         r14d,r13d
  00000000000038A2: 47 8D 04 38        lea         r8d,[r8+r15]
  00000000000038A6: 41 89 DC           mov         r12d,ebx
  00000000000038A9: 03 55 30           add         edx,dword ptr [rbp+30h]
  00000000000038AC: 41 21 C4           and         r12d,eax
  00000000000038AF: C4 63 7B F0 E8 19  rorx        r13d,eax,19h
  00000000000038B5: C4 63 7B F0 F8 0B  rorx        r15d,eax,0Bh
  00000000000038BB: 47 8D 04 30        lea         r8d,[r8+r14]
  00000000000038BF: 42 8D 14 22        lea         edx,[rdx+r12]
  00000000000038C3: C4 62 78 F2 E1     andn        r12d,eax,ecx
  00000000000038C8: 45 31 FD           xor         r13d,r15d
  00000000000038CB: C4 63 7B F0 F0 06  rorx        r14d,eax,6
  00000000000038D1: 42 8D 14 22        lea         edx,[rdx+r12]
  00000000000038D5: 45 31 F5           xor         r13d,r14d
  00000000000038D8: 45 89 C7           mov         r15d,r8d
  00000000000038DB: C4 43 7B F0 E0 16  rorx        r12d,r8d,16h
  00000000000038E1: 42 8D 14 2A        lea         edx,[rdx+r13]
  00000000000038E5: 45 31 CF           xor         r15d,r9d
  00000000000038E8: C4 43 7B F0 F0 0D  rorx        r14d,r8d,0Dh
  00000000000038EE: C4 43 7B F0 E8 02  rorx        r13d,r8d,2
  00000000000038F4: 45 8D 1C 13        lea         r11d,[r11+rdx]
  00000000000038F8: 44 21 FE           and         esi,r15d
  00000000000038FB: C4 42 31 DC CA     vaesenc     xmm9,xmm9,xmm10
  0000000000003900: C5 7A 6F 57 C0     vmovdqu     xmm10,xmmword ptr [rdi-40h]
  0000000000003905: 45 31 E6           xor         r14d,r12d
  0000000000003908: 44 31 CE           xor         esi,r9d
  000000000000390B: 45 31 EE           xor         r14d,r13d
  000000000000390E: 8D 14 32           lea         edx,[rdx+rsi]
  0000000000003911: 41 89 C4           mov         r12d,eax
  0000000000003914: 03 4D 34           add         ecx,dword ptr [rbp+34h]
  0000000000003917: 45 21 DC           and         r12d,r11d
  000000000000391A: C4 43 7B F0 EB 19  rorx        r13d,r11d,19h
  0000000000003920: C4 C3 7B F0 F3 0B  rorx        esi,r11d,0Bh
  0000000000003926: 42 8D 14 32        lea         edx,[rdx+r14]
  000000000000392A: 42 8D 0C 21        lea         ecx,[rcx+r12]
  000000000000392E: C4 62 20 F2 E3     andn        r12d,r11d,ebx
  0000000000003933: 41 31 F5           xor         r13d,esi
  0000000000003936: C4 43 7B F0 F3 06  rorx        r14d,r11d,6
  000000000000393C: 42 8D 0C 21        lea         ecx,[rcx+r12]
  0000000000003940: 45 31 F5           xor         r13d,r14d
  0000000000003943: 89 D6              mov         esi,edx
  0000000000003945: C4 63 7B F0 E2 16  rorx        r12d,edx,16h
  000000000000394B: 42 8D 0C 29        lea         ecx,[rcx+r13]
  000000000000394F: 44 31 C6           xor         esi,r8d
  0000000000003952: C4 63 7B F0 F2 0D  rorx        r14d,edx,0Dh
  0000000000003958: C4 63 7B F0 EA 02  rorx        r13d,edx,2
  000000000000395E: 45 8D 14 0A        lea         r10d,[r10+rcx]
  0000000000003962: 41 21 F7           and         r15d,esi
  0000000000003965: C4 42 31 DC CA     vaesenc     xmm9,xmm9,xmm10
  000000000000396A: C5 7A 6F 57 D0     vmovdqu     xmm10,xmmword ptr [rdi-30h]
  000000000000396F: 45 31 E6           xor         r14d,r12d
  0000000000003972: 45 31 C7           xor         r15d,r8d
  0000000000003975: 45 31 EE           xor         r14d,r13d
  0000000000003978: 42 8D 0C 39        lea         ecx,[rcx+r15]
  000000000000397C: 45 89 DC           mov         r12d,r11d
  000000000000397F: 03 5D 38           add         ebx,dword ptr [rbp+38h]
  0000000000003982: 45 21 D4           and         r12d,r10d
  0000000000003985: C4 43 7B F0 EA 19  rorx        r13d,r10d,19h
  000000000000398B: C4 43 7B F0 FA 0B  rorx        r15d,r10d,0Bh
  0000000000003991: 42 8D 0C 31        lea         ecx,[rcx+r14]
  0000000000003995: 42 8D 1C 23        lea         ebx,[rbx+r12]
  0000000000003999: C4 62 28 F2 E0     andn        r12d,r10d,eax
  000000000000399E: 45 31 FD           xor         r13d,r15d
  00000000000039A1: C4 43 7B F0 F2 06  rorx        r14d,r10d,6
  00000000000039A7: 42 8D 1C 23        lea         ebx,[rbx+r12]
  00000000000039AB: 45 31 F5           xor         r13d,r14d
  00000000000039AE: 41 89 CF           mov         r15d,ecx
  00000000000039B1: C4 63 7B F0 E1 16  rorx        r12d,ecx,16h
  00000000000039B7: 42 8D 1C 2B        lea         ebx,[rbx+r13]
  00000000000039BB: 41 31 D7           xor         r15d,edx
  00000000000039BE: C4 63 7B F0 F1 0D  rorx        r14d,ecx,0Dh
  00000000000039C4: C4 63 7B F0 E9 02  rorx        r13d,ecx,2
  00000000000039CA: 45 8D 0C 19        lea         r9d,[r9+rbx]
  00000000000039CE: 44 21 FE           and         esi,r15d
  00000000000039D1: C4 42 31 DC CA     vaesenc     xmm9,xmm9,xmm10
  00000000000039D6: C5 7A 6F 57 E0     vmovdqu     xmm10,xmmword ptr [rdi-20h]
  00000000000039DB: 45 31 E6           xor         r14d,r12d
  00000000000039DE: 31 D6              xor         esi,edx
  00000000000039E0: 45 31 EE           xor         r14d,r13d
  00000000000039E3: 8D 1C 33           lea         ebx,[rbx+rsi]
  00000000000039E6: 45 89 D4           mov         r12d,r10d
  00000000000039E9: 03 45 3C           add         eax,dword ptr [rbp+3Ch]
  00000000000039EC: 45 21 CC           and         r12d,r9d
  00000000000039EF: C4 43 7B F0 E9 19  rorx        r13d,r9d,19h
  00000000000039F5: C4 C3 7B F0 F1 0B  rorx        esi,r9d,0Bh
  00000000000039FB: 42 8D 1C 33        lea         ebx,[rbx+r14]
  00000000000039FF: 42 8D 04 20        lea         eax,[rax+r12]
  0000000000003A03: C4 42 30 F2 E3     andn        r12d,r9d,r11d
  0000000000003A08: 41 31 F5           xor         r13d,esi
  0000000000003A0B: C4 43 7B F0 F1 06  rorx        r14d,r9d,6
  0000000000003A11: 42 8D 04 20        lea         eax,[rax+r12]
  0000000000003A15: 45 31 F5           xor         r13d,r14d
  0000000000003A18: 89 DE              mov         esi,ebx
  0000000000003A1A: C4 63 7B F0 E3 16  rorx        r12d,ebx,16h
  0000000000003A20: 42 8D 04 28        lea         eax,[rax+r13]
  0000000000003A24: 31 CE              xor         esi,ecx
  0000000000003A26: C4 63 7B F0 F3 0D  rorx        r14d,ebx,0Dh
  0000000000003A2C: C4 63 7B F0 EB 02  rorx        r13d,ebx,2
  0000000000003A32: 45 8D 04 00        lea         r8d,[r8+rax]
  0000000000003A36: 41 21 F7           and         r15d,esi
  0000000000003A39: C4 42 31 DC CA     vaesenc     xmm9,xmm9,xmm10
  0000000000003A3E: C5 7A 6F 57 F0     vmovdqu     xmm10,xmmword ptr [rdi-10h]
  0000000000003A43: 45 31 E6           xor         r14d,r12d
  0000000000003A46: 41 31 CF           xor         r15d,ecx
  0000000000003A49: 45 31 EE           xor         r14d,r13d
  0000000000003A4C: 42 8D 04 38        lea         eax,[rax+r15]
  0000000000003A50: 45 89 CC           mov         r12d,r9d
  0000000000003A53: 48 8D 6D C0        lea         rbp,[rbp-40h]
  0000000000003A57: 44 03 5D 10        add         r11d,dword ptr [rbp+10h]
  0000000000003A5B: 45 21 C4           and         r12d,r8d
  0000000000003A5E: C4 43 7B F0 E8 19  rorx        r13d,r8d,19h
  0000000000003A64: C4 43 7B F0 F8 0B  rorx        r15d,r8d,0Bh
  0000000000003A6A: 42 8D 04 30        lea         eax,[rax+r14]
  0000000000003A6E: 47 8D 1C 23        lea         r11d,[r11+r12]
  0000000000003A72: C4 42 38 F2 E2     andn        r12d,r8d,r10d
  0000000000003A77: 45 31 FD           xor         r13d,r15d
  0000000000003A7A: C4 43 7B F0 F0 06  rorx        r14d,r8d,6
  0000000000003A80: 47 8D 1C 23        lea         r11d,[r11+r12]
  0000000000003A84: 45 31 F5           xor         r13d,r14d
  0000000000003A87: 41 89 C7           mov         r15d,eax
  0000000000003A8A: C4 63 7B F0 E0 16  rorx        r12d,eax,16h
  0000000000003A90: 47 8D 1C 2B        lea         r11d,[r11+r13]
  0000000000003A94: 41 31 DF           xor         r15d,ebx
  0000000000003A97: C4 63 7B F0 F0 0D  rorx        r14d,eax,0Dh
  0000000000003A9D: C4 63 7B F0 E8 02  rorx        r13d,eax,2
  0000000000003AA3: 42 8D 14 1A        lea         edx,[rdx+r11]
  0000000000003AA7: 44 21 FE           and         esi,r15d
  0000000000003AAA: C4 42 31 DC CA     vaesenc     xmm9,xmm9,xmm10
  0000000000003AAF: C5 7A 6F 17        vmovdqu     xmm10,xmmword ptr [rdi]
  0000000000003AB3: 45 31 E6           xor         r14d,r12d
  0000000000003AB6: 31 DE              xor         esi,ebx
  0000000000003AB8: 45 31 EE           xor         r14d,r13d
  0000000000003ABB: 45 8D 1C 33        lea         r11d,[r11+rsi]
  0000000000003ABF: 45 89 C4           mov         r12d,r8d
  0000000000003AC2: 44 03 55 14        add         r10d,dword ptr [rbp+14h]
  0000000000003AC6: 41 21 D4           and         r12d,edx
  0000000000003AC9: C4 63 7B F0 EA 19  rorx        r13d,edx,19h
  0000000000003ACF: C4 E3 7B F0 F2 0B  rorx        esi,edx,0Bh
  0000000000003AD5: 47 8D 1C 33        lea         r11d,[r11+r14]
  0000000000003AD9: 47 8D 14 22        lea         r10d,[r10+r12]
  0000000000003ADD: C4 42 68 F2 E1     andn        r12d,edx,r9d
  0000000000003AE2: 41 31 F5           xor         r13d,esi
  0000000000003AE5: C4 63 7B F0 F2 06  rorx        r14d,edx,6
  0000000000003AEB: 47 8D 14 22        lea         r10d,[r10+r12]
  0000000000003AEF: 45 31 F5           xor         r13d,r14d
  0000000000003AF2: 44 89 DE           mov         esi,r11d
  0000000000003AF5: C4 43 7B F0 E3 16  rorx        r12d,r11d,16h
  0000000000003AFB: 47 8D 14 2A        lea         r10d,[r10+r13]
  0000000000003AFF: 31 C6              xor         esi,eax
  0000000000003B01: C4 43 7B F0 F3 0D  rorx        r14d,r11d,0Dh
  0000000000003B07: C4 43 7B F0 EB 02  rorx        r13d,r11d,2
  0000000000003B0D: 42 8D 0C 11        lea         ecx,[rcx+r10]
  0000000000003B11: 41 21 F7           and         r15d,esi
  0000000000003B14: C4 42 31 DC CA     vaesenc     xmm9,xmm9,xmm10
  0000000000003B19: C5 7A 6F 57 10     vmovdqu     xmm10,xmmword ptr [rdi+10h]
  0000000000003B1E: 45 31 E6           xor         r14d,r12d
  0000000000003B21: 41 31 C7           xor         r15d,eax
  0000000000003B24: 45 31 EE           xor         r14d,r13d
  0000000000003B27: 47 8D 14 3A        lea         r10d,[r10+r15]
  0000000000003B2B: 41 89 D4           mov         r12d,edx
  0000000000003B2E: 44 03 4D 18        add         r9d,dword ptr [rbp+18h]
  0000000000003B32: 41 21 CC           and         r12d,ecx
  0000000000003B35: C4 63 7B F0 E9 19  rorx        r13d,ecx,19h
  0000000000003B3B: C4 63 7B F0 F9 0B  rorx        r15d,ecx,0Bh
  0000000000003B41: 47 8D 14 32        lea         r10d,[r10+r14]
  0000000000003B45: 47 8D 0C 21        lea         r9d,[r9+r12]
  0000000000003B49: C4 42 70 F2 E0     andn        r12d,ecx,r8d
  0000000000003B4E: 45 31 FD           xor         r13d,r15d
  0000000000003B51: C4 63 7B F0 F1 06  rorx        r14d,ecx,6
  0000000000003B57: 47 8D 0C 21        lea         r9d,[r9+r12]
  0000000000003B5B: 45 31 F5           xor         r13d,r14d
  0000000000003B5E: 45 89 D7           mov         r15d,r10d
  0000000000003B61: C4 43 7B F0 E2 16  rorx        r12d,r10d,16h
  0000000000003B67: 47 8D 0C 29        lea         r9d,[r9+r13]
  0000000000003B6B: 45 31 DF           xor         r15d,r11d
  0000000000003B6E: C4 43 7B F0 F2 0D  rorx        r14d,r10d,0Dh
  0000000000003B74: C4 43 7B F0 EA 02  rorx        r13d,r10d,2
  0000000000003B7A: 42 8D 1C 0B        lea         ebx,[rbx+r9]
  0000000000003B7E: 44 21 FE           and         esi,r15d
  0000000000003B81: C4 42 31 DC CA     vaesenc     xmm9,xmm9,xmm10
  0000000000003B86: C5 7A 6F 57 20     vmovdqu     xmm10,xmmword ptr [rdi+20h]
  0000000000003B8B: 45 31 E6           xor         r14d,r12d
  0000000000003B8E: 44 31 DE           xor         esi,r11d
  0000000000003B91: 45 31 EE           xor         r14d,r13d
  0000000000003B94: 45 8D 0C 31        lea         r9d,[r9+rsi]
  0000000000003B98: 41 89 CC           mov         r12d,ecx
  0000000000003B9B: 44 03 45 1C        add         r8d,dword ptr [rbp+1Ch]
  0000000000003B9F: 41 21 DC           and         r12d,ebx
  0000000000003BA2: C4 63 7B F0 EB 19  rorx        r13d,ebx,19h
  0000000000003BA8: C4 E3 7B F0 F3 0B  rorx        esi,ebx,0Bh
  0000000000003BAE: 47 8D 0C 31        lea         r9d,[r9+r14]
  0000000000003BB2: 47 8D 04 20        lea         r8d,[r8+r12]
  0000000000003BB6: C4 62 60 F2 E2     andn        r12d,ebx,edx
  0000000000003BBB: 41 31 F5           xor         r13d,esi
  0000000000003BBE: C4 63 7B F0 F3 06  rorx        r14d,ebx,6
  0000000000003BC4: 47 8D 04 20        lea         r8d,[r8+r12]
  0000000000003BC8: 45 31 F5           xor         r13d,r14d
  0000000000003BCB: 44 89 CE           mov         esi,r9d
  0000000000003BCE: C4 43 7B F0 E1 16  rorx        r12d,r9d,16h
  0000000000003BD4: 47 8D 04 28        lea         r8d,[r8+r13]
  0000000000003BD8: 44 31 D6           xor         esi,r10d
  0000000000003BDB: C4 43 7B F0 F1 0D  rorx        r14d,r9d,0Dh
  0000000000003BE1: C4 43 7B F0 E9 02  rorx        r13d,r9d,2
  0000000000003BE7: 42 8D 04 00        lea         eax,[rax+r8]
  0000000000003BEB: 41 21 F7           and         r15d,esi
  0000000000003BEE: C4 42 31 DD DA     vaesenclast xmm11,xmm9,xmm10
  0000000000003BF3: C4 42 31 DC CA     vaesenc     xmm9,xmm9,xmm10
  0000000000003BF8: C5 7A 6F 57 30     vmovdqu     xmm10,xmmword ptr [rdi+30h]
  0000000000003BFD: 45 31 E6           xor         r14d,r12d
  0000000000003C00: 45 31 D7           xor         r15d,r10d
  0000000000003C03: 45 31 EE           xor         r14d,r13d
  0000000000003C06: 47 8D 04 38        lea         r8d,[r8+r15]
  0000000000003C0A: 41 89 DC           mov         r12d,ebx
  0000000000003C0D: 03 55 30           add         edx,dword ptr [rbp+30h]
  0000000000003C10: 41 21 C4           and         r12d,eax
  0000000000003C13: C4 63 7B F0 E8 19  rorx        r13d,eax,19h
  0000000000003C19: C4 63 7B F0 F8 0B  rorx        r15d,eax,0Bh
  0000000000003C1F: 47 8D 04 30        lea         r8d,[r8+r14]
  0000000000003C23: 42 8D 14 22        lea         edx,[rdx+r12]
  0000000000003C27: C4 62 78 F2 E1     andn        r12d,eax,ecx
  0000000000003C2C: 45 31 FD           xor         r13d,r15d
  0000000000003C2F: C4 63 7B F0 F0 06  rorx        r14d,eax,6
  0000000000003C35: 42 8D 14 22        lea         edx,[rdx+r12]
  0000000000003C39: 45 31 F5           xor         r13d,r14d
  0000000000003C3C: 45 89 C7           mov         r15d,r8d
  0000000000003C3F: C4 43 7B F0 E0 16  rorx        r12d,r8d,16h
  0000000000003C45: 42 8D 14 2A        lea         edx,[rdx+r13]
  0000000000003C49: 45 31 CF           xor         r15d,r9d
  0000000000003C4C: C4 43 7B F0 F0 0D  rorx        r14d,r8d,0Dh
  0000000000003C52: C4 43 7B F0 E8 02  rorx        r13d,r8d,2
  0000000000003C58: 45 8D 1C 13        lea         r11d,[r11+rdx]
  0000000000003C5C: 44 21 FE           and         esi,r15d
  0000000000003C5F: C4 41 21 DB C4     vpand       xmm8,xmm11,xmm12
  0000000000003C64: C4 42 31 DC CA     vaesenc     xmm9,xmm9,xmm10
  0000000000003C69: C5 7A 6F 57 40     vmovdqu     xmm10,xmmword ptr [rdi+40h]
  0000000000003C6E: 45 31 E6           xor         r14d,r12d
  0000000000003C71: 44 31 CE           xor         esi,r9d
  0000000000003C74: 45 31 EE           xor         r14d,r13d
  0000000000003C77: 8D 14 32           lea         edx,[rdx+rsi]
  0000000000003C7A: 41 89 C4           mov         r12d,eax
  0000000000003C7D: 03 4D 34           add         ecx,dword ptr [rbp+34h]
  0000000000003C80: 45 21 DC           and         r12d,r11d
  0000000000003C83: C4 43 7B F0 EB 19  rorx        r13d,r11d,19h
  0000000000003C89: C4 C3 7B F0 F3 0B  rorx        esi,r11d,0Bh
  0000000000003C8F: 42 8D 14 32        lea         edx,[rdx+r14]
  0000000000003C93: 42 8D 0C 21        lea         ecx,[rcx+r12]
  0000000000003C97: C4 62 20 F2 E3     andn        r12d,r11d,ebx
  0000000000003C9C: 41 31 F5           xor         r13d,esi
  0000000000003C9F: C4 43 7B F0 F3 06  rorx        r14d,r11d,6
  0000000000003CA5: 42 8D 0C 21        lea         ecx,[rcx+r12]
  0000000000003CA9: 45 31 F5           xor         r13d,r14d
  0000000000003CAC: 89 D6              mov         esi,edx
  0000000000003CAE: C4 63 7B F0 E2 16  rorx        r12d,edx,16h
  0000000000003CB4: 42 8D 0C 29        lea         ecx,[rcx+r13]
  0000000000003CB8: 44 31 C6           xor         esi,r8d
  0000000000003CBB: C4 63 7B F0 F2 0D  rorx        r14d,edx,0Dh
  0000000000003CC1: C4 63 7B F0 EA 02  rorx        r13d,edx,2
  0000000000003CC7: 45 8D 14 0A        lea         r10d,[r10+rcx]
  0000000000003CCB: 41 21 F7           and         r15d,esi
  0000000000003CCE: C4 42 31 DD DA     vaesenclast xmm11,xmm9,xmm10
  0000000000003CD3: C4 42 31 DC CA     vaesenc     xmm9,xmm9,xmm10
  0000000000003CD8: C5 7A 6F 57 50     vmovdqu     xmm10,xmmword ptr [rdi+50h]
  0000000000003CDD: 45 31 E6           xor         r14d,r12d
  0000000000003CE0: 45 31 C7           xor         r15d,r8d
  0000000000003CE3: 45 31 EE           xor         r14d,r13d
  0000000000003CE6: 42 8D 0C 39        lea         ecx,[rcx+r15]
  0000000000003CEA: 45 89 DC           mov         r12d,r11d
  0000000000003CED: 03 5D 38           add         ebx,dword ptr [rbp+38h]
  0000000000003CF0: 45 21 D4           and         r12d,r10d
  0000000000003CF3: C4 43 7B F0 EA 19  rorx        r13d,r10d,19h
  0000000000003CF9: C4 43 7B F0 FA 0B  rorx        r15d,r10d,0Bh
  0000000000003CFF: 42 8D 0C 31        lea         ecx,[rcx+r14]
  0000000000003D03: 42 8D 1C 23        lea         ebx,[rbx+r12]
  0000000000003D07: C4 62 28 F2 E0     andn        r12d,r10d,eax
  0000000000003D0C: 45 31 FD           xor         r13d,r15d
  0000000000003D0F: C4 43 7B F0 F2 06  rorx        r14d,r10d,6
  0000000000003D15: 42 8D 1C 23        lea         ebx,[rbx+r12]
  0000000000003D19: 45 31 F5           xor         r13d,r14d
  0000000000003D1C: 41 89 CF           mov         r15d,ecx
  0000000000003D1F: C4 63 7B F0 E1 16  rorx        r12d,ecx,16h
  0000000000003D25: 42 8D 1C 2B        lea         ebx,[rbx+r13]
  0000000000003D29: 41 31 D7           xor         r15d,edx
  0000000000003D2C: C4 63 7B F0 F1 0D  rorx        r14d,ecx,0Dh
  0000000000003D32: C4 63 7B F0 E9 02  rorx        r13d,ecx,2
  0000000000003D38: 45 8D 0C 19        lea         r9d,[r9+rbx]
  0000000000003D3C: 44 21 FE           and         esi,r15d
  0000000000003D3F: C4 41 21 DB DD     vpand       xmm11,xmm11,xmm13
  0000000000003D44: C4 42 31 DC CA     vaesenc     xmm9,xmm9,xmm10
  0000000000003D49: C5 7A 6F 57 60     vmovdqu     xmm10,xmmword ptr [rdi+60h]
  0000000000003D4E: 45 31 E6           xor         r14d,r12d
  0000000000003D51: 31 D6              xor         esi,edx
  0000000000003D53: 45 31 EE           xor         r14d,r13d
  0000000000003D56: 8D 1C 33           lea         ebx,[rbx+rsi]
  0000000000003D59: 45 89 D4           mov         r12d,r10d
  0000000000003D5C: 03 45 3C           add         eax,dword ptr [rbp+3Ch]
  0000000000003D5F: 45 21 CC           and         r12d,r9d
  0000000000003D62: C4 43 7B F0 E9 19  rorx        r13d,r9d,19h
  0000000000003D68: C4 C3 7B F0 F1 0B  rorx        esi,r9d,0Bh
  0000000000003D6E: 42 8D 1C 33        lea         ebx,[rbx+r14]
  0000000000003D72: 42 8D 04 20        lea         eax,[rax+r12]
  0000000000003D76: C4 42 30 F2 E3     andn        r12d,r9d,r11d
  0000000000003D7B: 41 31 F5           xor         r13d,esi
  0000000000003D7E: C4 43 7B F0 F1 06  rorx        r14d,r9d,6
  0000000000003D84: 42 8D 04 20        lea         eax,[rax+r12]
  0000000000003D88: 45 31 F5           xor         r13d,r14d
  0000000000003D8B: 89 DE              mov         esi,ebx
  0000000000003D8D: C4 63 7B F0 E3 16  rorx        r12d,ebx,16h
  0000000000003D93: 42 8D 04 28        lea         eax,[rax+r13]
  0000000000003D97: 31 CE              xor         esi,ecx
  0000000000003D99: C4 63 7B F0 F3 0D  rorx        r14d,ebx,0Dh
  0000000000003D9F: C4 63 7B F0 EB 02  rorx        r13d,ebx,2
  0000000000003DA5: 45 8D 04 00        lea         r8d,[r8+rax]
  0000000000003DA9: 41 21 F7           and         r15d,esi
  0000000000003DAC: C4 41 39 EB C3     vpor        xmm8,xmm8,xmm11
  0000000000003DB1: C4 42 31 DD DA     vaesenclast xmm11,xmm9,xmm10
  0000000000003DB6: C5 7A 6F 57 80     vmovdqu     xmm10,xmmword ptr [rdi-80h]
  0000000000003DBB: 45 31 E6           xor         r14d,r12d
  0000000000003DBE: 41 31 CF           xor         r15d,ecx
  0000000000003DC1: 45 31 EE           xor         r14d,r13d
  0000000000003DC4: 42 8D 04 38        lea         eax,[rax+r15]
  0000000000003DC8: 45 89 CC           mov         r12d,r9d
  0000000000003DCB: C4 41 F9 7E FD     vmovq       r13,xmm15
  0000000000003DD0: C4 43 F9 16 FF 01  vpextrq     r15,xmm15,1
  0000000000003DD6: C4 41 21 DB DE     vpand       xmm11,xmm11,xmm14
  0000000000003DDB: C4 41 39 EB C3     vpor        xmm8,xmm8,xmm11
  0000000000003DE0: 48 8D 6D C0        lea         rbp,[rbp-40h]
  0000000000003DE4: C4 01 7A 7F 04 2F  vmovdqu     xmmword ptr [r15+r13],xmm8
  0000000000003DEA: 4D 8D 6D 10        lea         r13,[r13+10h]
  0000000000003DEE: 48 39 E5           cmp         rbp,rsp
  0000000000003DF1: 0F 83 F9 F8 FF FF  jae         L$ower_avx2
  0000000000003DF7: 4C 8B BC 24 28 02  mov         r15,qword ptr [rsp+228h]
                    00 00
  0000000000003DFF: 4D 8D 6D 40        lea         r13,[r13+40h]
  0000000000003E03: 48 8B B4 24 30 02  mov         rsi,qword ptr [rsp+230h]
                    00 00
  0000000000003E0B: 44 01 F0           add         eax,r14d
  0000000000003E0E: 48 8D A4 24 C0 01  lea         rsp,[rsp+1C0h]
                    00 00
  0000000000003E16: 41 03 07           add         eax,dword ptr [r15]
  0000000000003E19: 41 03 5F 04        add         ebx,dword ptr [r15+4]
  0000000000003E1D: 41 03 4F 08        add         ecx,dword ptr [r15+8]
  0000000000003E21: 41 03 57 0C        add         edx,dword ptr [r15+0Ch]
  0000000000003E25: 45 03 47 10        add         r8d,dword ptr [r15+10h]
  0000000000003E29: 45 03 4F 14        add         r9d,dword ptr [r15+14h]
  0000000000003E2D: 45 03 57 18        add         r10d,dword ptr [r15+18h]
  0000000000003E31: 4E 8D 24 2E        lea         r12,[rsi+r13]
  0000000000003E35: 45 03 5F 1C        add         r11d,dword ptr [r15+1Ch]
  0000000000003E39: 4C 3B 6C 24 50     cmp         r13,qword ptr [rsp+50h]
  0000000000003E3E: 41 89 07           mov         dword ptr [r15],eax
  0000000000003E41: 4C 0F 44 E4        cmove       r12,rsp
  0000000000003E45: 41 89 5F 04        mov         dword ptr [r15+4],ebx
  0000000000003E49: 41 89 4F 08        mov         dword ptr [r15+8],ecx
  0000000000003E4D: 41 89 57 0C        mov         dword ptr [r15+0Ch],edx
  0000000000003E51: 45 89 47 10        mov         dword ptr [r15+10h],r8d
  0000000000003E55: 45 89 4F 14        mov         dword ptr [r15+14h],r9d
  0000000000003E59: 45 89 57 18        mov         dword ptr [r15+18h],r10d
  0000000000003E5D: 45 89 5F 1C        mov         dword ptr [r15+1Ch],r11d
  0000000000003E61: 0F 86 A9 E6 FF FF  jbe         L$oop_avx2
  0000000000003E67: 48 8D 2C 24        lea         rbp,[rsp]
L$done_avx2:
  0000000000003E6B: 4C 8B 45 60        mov         r8,qword ptr [rbp+60h]
  0000000000003E6F: 48 8B 75 78        mov         rsi,qword ptr [rbp+78h]
  0000000000003E73: C4 41 7A 7F 00     vmovdqu     xmmword ptr [r8],xmm8
  0000000000003E78: C5 FC 77           vzeroall
  0000000000003E7B: 0F 28 B5 80 00 00  movaps      xmm6,xmmword ptr [rbp+80h]
                    00
  0000000000003E82: 0F 28 BD 90 00 00  movaps      xmm7,xmmword ptr [rbp+90h]
                    00
  0000000000003E89: 44 0F 28 85 A0 00  movaps      xmm8,xmmword ptr [rbp+0A0h]
                    00 00
  0000000000003E91: 44 0F 28 8D B0 00  movaps      xmm9,xmmword ptr [rbp+0B0h]
                    00 00
  0000000000003E99: 44 0F 28 95 C0 00  movaps      xmm10,xmmword ptr [rbp+0C0h]
                    00 00
  0000000000003EA1: 44 0F 28 9D D0 00  movaps      xmm11,xmmword ptr [rbp+0D0h]
                    00 00
  0000000000003EA9: 44 0F 28 A5 E0 00  movaps      xmm12,xmmword ptr [rbp+0E0h]
                    00 00
  0000000000003EB1: 44 0F 28 AD F0 00  movaps      xmm13,xmmword ptr [rbp+0F0h]
                    00 00
  0000000000003EB9: 44 0F 28 B5 00 01  movaps      xmm14,xmmword ptr [rbp+100h]
                    00 00
  0000000000003EC1: 44 0F 28 BD 10 01  movaps      xmm15,xmmword ptr [rbp+110h]
                    00 00
  0000000000003EC9: 4C 8B 7E D0        mov         r15,qword ptr [rsi-30h]
  0000000000003ECD: 4C 8B 76 D8        mov         r14,qword ptr [rsi-28h]
  0000000000003ED1: 4C 8B 6E E0        mov         r13,qword ptr [rsi-20h]
  0000000000003ED5: 4C 8B 66 E8        mov         r12,qword ptr [rsi-18h]
  0000000000003ED9: 48 8B 6E F0        mov         rbp,qword ptr [rsi-10h]
  0000000000003EDD: 48 8B 5E F8        mov         rbx,qword ptr [rsi-8]
  0000000000003EE1: 48 8D 26           lea         rsp,[rsi]
L$epilogue_avx2:
  0000000000003EE4: 48 8B 7C 24 08     mov         rdi,qword ptr [rsp+8]
  0000000000003EE9: 48 8B 74 24 10     mov         rsi,qword ptr [rsp+10h]
  0000000000003EEE: F3 C3              rep ret
L$SEH_end_aesni_cbc_sha256_enc_avx2:
  0000000000003EF0: 90                 nop
  0000000000003EF1: 90                 nop
  0000000000003EF2: 90                 nop
  0000000000003EF3: 90                 nop
  0000000000003EF4: 90                 nop
  0000000000003EF5: 90                 nop
  0000000000003EF6: 90                 nop
  0000000000003EF7: 90                 nop
  0000000000003EF8: 90                 nop
  0000000000003EF9: 90                 nop
  0000000000003EFA: 90                 nop
  0000000000003EFB: 90                 nop
  0000000000003EFC: 90                 nop
  0000000000003EFD: 90                 nop
  0000000000003EFE: 90                 nop
  0000000000003EFF: 90                 nop
aesni_cbc_sha256_enc_shaext:
  0000000000003F00: 48 89 7C 24 08     mov         qword ptr [rsp+8],rdi
  0000000000003F05: 48 89 74 24 10     mov         qword ptr [rsp+10h],rsi
  0000000000003F0A: 48 89 E0           mov         rax,rsp
L$SEH_begin_aesni_cbc_sha256_enc_shaext:
  0000000000003F0D: 48 89 CF           mov         rdi,rcx
  0000000000003F10: 48 89 D6           mov         rsi,rdx
  0000000000003F13: 4C 89 C2           mov         rdx,r8
  0000000000003F16: 4C 89 C9           mov         rcx,r9
  0000000000003F19: 4C 8B 44 24 28     mov         r8,qword ptr [rsp+28h]
  0000000000003F1E: 4C 8B 4C 24 30     mov         r9,qword ptr [rsp+30h]
  0000000000003F23: 4C 8B 54 24 38     mov         r10,qword ptr [rsp+38h]
  0000000000003F28: 48 8D A4 24 58 FF  lea         rsp,[rsp-0A8h]
                    FF FF
  0000000000003F30: 0F 29 B0 58 FF FF  movaps      xmmword ptr [rax-0A8h],xmm6
                    FF
  0000000000003F37: 0F 29 B8 68 FF FF  movaps      xmmword ptr [rax-98h],xmm7
                    FF
  0000000000003F3E: 44 0F 29 80 78 FF  movaps      xmmword ptr [rax-88h],xmm8
                    FF FF
  0000000000003F46: 44 0F 29 48 88     movaps      xmmword ptr [rax-78h],xmm9
  0000000000003F4B: 44 0F 29 50 98     movaps      xmmword ptr [rax-68h],xmm10
  0000000000003F50: 44 0F 29 58 A8     movaps      xmmword ptr [rax-58h],xmm11
  0000000000003F55: 44 0F 29 60 B8     movaps      xmmword ptr [rax-48h],xmm12
  0000000000003F5A: 44 0F 29 68 C8     movaps      xmmword ptr [rax-38h],xmm13
  0000000000003F5F: 44 0F 29 70 D8     movaps      xmmword ptr [rax-28h],xmm14
  0000000000003F64: 44 0F 29 78 E8     movaps      xmmword ptr [rax-18h],xmm15
L$prologue_shaext:
  0000000000003F69: 48 8D 05 80 00 00  lea         rax,[.rdata+80h]
                    00
  0000000000003F70: F3 41 0F 6F 09     movdqu      xmm1,xmmword ptr [r9]
  0000000000003F75: F3 41 0F 6F 51 10  movdqu      xmm2,xmmword ptr [r9+10h]
  0000000000003F7B: 66 0F 6F 98 80 01  movdqa      xmm3,xmmword ptr [rax+180h]
                    00 00
  0000000000003F83: 44 8B 99 F0 00 00  mov         r11d,dword ptr [rcx+0F0h]
                    00
  0000000000003F8A: 48 29 FE           sub         rsi,rdi
  0000000000003F8D: 44 0F 10 39        movups      xmm15,xmmword ptr [rcx]
  0000000000003F91: 41 0F 10 30        movups      xmm6,xmmword ptr [r8]
  0000000000003F95: 0F 10 61 10        movups      xmm4,xmmword ptr [rcx+10h]
  0000000000003F99: 48 8D 49 70        lea         rcx,[rcx+70h]
  0000000000003F9D: 66 0F 70 C1 1B     pshufd      xmm0,xmm1,1Bh
  0000000000003FA2: 66 0F 70 C9 B1     pshufd      xmm1,xmm1,0B1h
  0000000000003FA7: 66 0F 70 D2 1B     pshufd      xmm2,xmm2,1Bh
  0000000000003FAC: 66 0F 6F FB        movdqa      xmm7,xmm3
  0000000000003FB0: 66 0F 3A 0F CA 08  palignr     xmm1,xmm2,8
  0000000000003FB6: 66 0F 6C D0        punpcklqdq  xmm2,xmm0
  0000000000003FBA: E9 01 00 00 00     jmp         L$oop_shaext
  0000000000003FBF: 90                 nop
L$oop_shaext:
  0000000000003FC0: F3 45 0F 6F 12     movdqu      xmm10,xmmword ptr [r10]
  0000000000003FC5: F3 45 0F 6F 5A 10  movdqu      xmm11,xmmword ptr [r10+10h]
  0000000000003FCB: F3 45 0F 6F 62 20  movdqu      xmm12,xmmword ptr [r10+20h]
  0000000000003FD1: 66 44 0F 38 00 D3  pshufb      xmm10,xmm3
  0000000000003FD7: F3 45 0F 6F 6A 30  movdqu      xmm13,xmmword ptr [r10+30h]
  0000000000003FDD: 66 0F 6F 40 80     movdqa      xmm0,xmmword ptr [rax-80h]
  0000000000003FE2: 66 41 0F FE C2     paddd       xmm0,xmm10
  0000000000003FE7: 66 44 0F 38 00 DB  pshufb      xmm11,xmm3
  0000000000003FED: 66 44 0F 6F CA     movdqa      xmm9,xmm2
  0000000000003FF2: 66 44 0F 6F C1     movdqa      xmm8,xmm1
  0000000000003FF7: 44 0F 10 37        movups      xmm14,xmmword ptr [rdi]
  0000000000003FFB: 45 0F 57 F7        xorps       xmm14,xmm15
  0000000000003FFF: 41 0F 57 F6        xorps       xmm6,xmm14
  0000000000004003: 0F 10 69 B0        movups      xmm5,xmmword ptr [rcx-50h]
  0000000000004007: 66 0F 38 DC F4     aesenc      xmm6,xmm4
  000000000000400C: 0F 38 CB D1        sha256rnds2 xmm2,xmm1,xmm0
  0000000000004010: 66 0F 70 C0 0E     pshufd      xmm0,xmm0,0Eh
  0000000000004015: 0F 10 61 C0        movups      xmm4,xmmword ptr [rcx-40h]
  0000000000004019: 66 0F 38 DC F5     aesenc      xmm6,xmm5
  000000000000401E: 0F 38 CB CA        sha256rnds2 xmm1,xmm2,xmm0
  0000000000004022: 66 0F 6F 40 A0     movdqa      xmm0,xmmword ptr [rax-60h]
  0000000000004027: 66 41 0F FE C3     paddd       xmm0,xmm11
  000000000000402C: 66 44 0F 38 00 E3  pshufb      xmm12,xmm3
  0000000000004032: 4D 8D 52 40        lea         r10,[r10+40h]
  0000000000004036: 0F 10 69 D0        movups      xmm5,xmmword ptr [rcx-30h]
  000000000000403A: 66 0F 38 DC F4     aesenc      xmm6,xmm4
  000000000000403F: 0F 38 CB D1        sha256rnds2 xmm2,xmm1,xmm0
  0000000000004043: 66 0F 70 C0 0E     pshufd      xmm0,xmm0,0Eh
  0000000000004048: 0F 10 61 E0        movups      xmm4,xmmword ptr [rcx-20h]
  000000000000404C: 66 0F 38 DC F5     aesenc      xmm6,xmm5
  0000000000004051: 0F 38 CB CA        sha256rnds2 xmm1,xmm2,xmm0
  0000000000004055: 66 0F 6F 40 C0     movdqa      xmm0,xmmword ptr [rax-40h]
  000000000000405A: 66 41 0F FE C4     paddd       xmm0,xmm12
  000000000000405F: 66 44 0F 38 00 EB  pshufb      xmm13,xmm3
  0000000000004065: 45 0F 38 CC D3     sha256msg1  xmm10,xmm11
  000000000000406A: 0F 10 69 F0        movups      xmm5,xmmword ptr [rcx-10h]
  000000000000406E: 66 0F 38 DC F4     aesenc      xmm6,xmm4
  0000000000004073: 0F 38 CB D1        sha256rnds2 xmm2,xmm1,xmm0
  0000000000004077: 66 0F 70 C0 0E     pshufd      xmm0,xmm0,0Eh
  000000000000407C: 66 41 0F 6F DD     movdqa      xmm3,xmm13
  0000000000004081: 66 41 0F 3A 0F DC  palignr     xmm3,xmm12,4
                    04
  0000000000004088: 66 44 0F FE D3     paddd       xmm10,xmm3
  000000000000408D: 0F 10 21           movups      xmm4,xmmword ptr [rcx]
  0000000000004090: 66 0F 38 DC F5     aesenc      xmm6,xmm5
  0000000000004095: 0F 38 CB CA        sha256rnds2 xmm1,xmm2,xmm0
  0000000000004099: 66 0F 6F 40 E0     movdqa      xmm0,xmmword ptr [rax-20h]
  000000000000409E: 66 41 0F FE C5     paddd       xmm0,xmm13
  00000000000040A3: 45 0F 38 CD D5     sha256msg2  xmm10,xmm13
  00000000000040A8: 45 0F 38 CC DC     sha256msg1  xmm11,xmm12
  00000000000040AD: 0F 10 69 10        movups      xmm5,xmmword ptr [rcx+10h]
  00000000000040B1: 66 0F 38 DC F4     aesenc      xmm6,xmm4
  00000000000040B6: 0F 38 CB D1        sha256rnds2 xmm2,xmm1,xmm0
  00000000000040BA: 66 0F 70 C0 0E     pshufd      xmm0,xmm0,0Eh
  00000000000040BF: 0F 10 61 20        movups      xmm4,xmmword ptr [rcx+20h]
  00000000000040C3: 66 0F 38 DC F5     aesenc      xmm6,xmm5
  00000000000040C8: 66 41 0F 6F DA     movdqa      xmm3,xmm10
  00000000000040CD: 66 41 0F 3A 0F DD  palignr     xmm3,xmm13,4
                    04
  00000000000040D4: 66 44 0F FE DB     paddd       xmm11,xmm3
  00000000000040D9: 0F 38 CB CA        sha256rnds2 xmm1,xmm2,xmm0
  00000000000040DD: 66 0F 6F 00        movdqa      xmm0,xmmword ptr [rax]
  00000000000040E1: 66 41 0F FE C2     paddd       xmm0,xmm10
  00000000000040E6: 45 0F 38 CD DA     sha256msg2  xmm11,xmm10
  00000000000040EB: 45 0F 38 CC E5     sha256msg1  xmm12,xmm13
  00000000000040F0: 0F 10 69 30        movups      xmm5,xmmword ptr [rcx+30h]
  00000000000040F4: 66 0F 38 DC F4     aesenc      xmm6,xmm4
  00000000000040F9: 0F 38 CB D1        sha256rnds2 xmm2,xmm1,xmm0
  00000000000040FD: 66 0F 70 C0 0E     pshufd      xmm0,xmm0,0Eh
  0000000000004102: 66 41 0F 6F DB     movdqa      xmm3,xmm11
  0000000000004107: 66 41 0F 3A 0F DA  palignr     xmm3,xmm10,4
                    04
  000000000000410E: 66 44 0F FE E3     paddd       xmm12,xmm3
  0000000000004113: 41 83 FB 0B        cmp         r11d,0Bh
  0000000000004117: 0F 82 2A 00 00 00  jb          L$aesenclast1
  000000000000411D: 0F 10 61 40        movups      xmm4,xmmword ptr [rcx+40h]
  0000000000004121: 66 0F 38 DC F5     aesenc      xmm6,xmm5
  0000000000004126: 0F 10 69 50        movups      xmm5,xmmword ptr [rcx+50h]
  000000000000412A: 66 0F 38 DC F4     aesenc      xmm6,xmm4
  000000000000412F: 0F 84 12 00 00 00  je          L$aesenclast1
  0000000000004135: 0F 10 61 60        movups      xmm4,xmmword ptr [rcx+60h]
  0000000000004139: 66 0F 38 DC F5     aesenc      xmm6,xmm5
  000000000000413E: 0F 10 69 70        movups      xmm5,xmmword ptr [rcx+70h]
  0000000000004142: 66 0F 38 DC F4     aesenc      xmm6,xmm4
L$aesenclast1:
  0000000000004147: 66 0F 38 DD F5     aesenclast  xmm6,xmm5
  000000000000414C: 0F 10 61 A0        movups      xmm4,xmmword ptr [rcx-60h]
  0000000000004150: 90                 nop
  0000000000004151: 0F 38 CB CA        sha256rnds2 xmm1,xmm2,xmm0
  0000000000004155: 44 0F 10 77 10     movups      xmm14,xmmword ptr [rdi+10h]
  000000000000415A: 45 0F 57 F7        xorps       xmm14,xmm15
  000000000000415E: 0F 11 34 3E        movups      xmmword ptr [rsi+rdi],xmm6
  0000000000004162: 41 0F 57 F6        xorps       xmm6,xmm14
  0000000000004166: 0F 10 69 B0        movups      xmm5,xmmword ptr [rcx-50h]
  000000000000416A: 66 0F 38 DC F4     aesenc      xmm6,xmm4
  000000000000416F: 66 0F 6F 40 20     movdqa      xmm0,xmmword ptr [rax+20h]
  0000000000004174: 66 41 0F FE C3     paddd       xmm0,xmm11
  0000000000004179: 45 0F 38 CD E3     sha256msg2  xmm12,xmm11
  000000000000417E: 45 0F 38 CC EA     sha256msg1  xmm13,xmm10
  0000000000004183: 0F 10 61 C0        movups      xmm4,xmmword ptr [rcx-40h]
  0000000000004187: 66 0F 38 DC F5     aesenc      xmm6,xmm5
  000000000000418C: 0F 38 CB D1        sha256rnds2 xmm2,xmm1,xmm0
  0000000000004190: 66 0F 70 C0 0E     pshufd      xmm0,xmm0,0Eh
  0000000000004195: 66 41 0F 6F DC     movdqa      xmm3,xmm12
  000000000000419A: 66 41 0F 3A 0F DB  palignr     xmm3,xmm11,4
                    04
  00000000000041A1: 66 44 0F FE EB     paddd       xmm13,xmm3
  00000000000041A6: 0F 10 69 D0        movups      xmm5,xmmword ptr [rcx-30h]
  00000000000041AA: 66 0F 38 DC F4     aesenc      xmm6,xmm4
  00000000000041AF: 0F 38 CB CA        sha256rnds2 xmm1,xmm2,xmm0
  00000000000041B3: 66 0F 6F 40 40     movdqa      xmm0,xmmword ptr [rax+40h]
  00000000000041B8: 66 41 0F FE C4     paddd       xmm0,xmm12
  00000000000041BD: 45 0F 38 CD EC     sha256msg2  xmm13,xmm12
  00000000000041C2: 45 0F 38 CC D3     sha256msg1  xmm10,xmm11
  00000000000041C7: 0F 10 61 E0        movups      xmm4,xmmword ptr [rcx-20h]
  00000000000041CB: 66 0F 38 DC F5     aesenc      xmm6,xmm5
  00000000000041D0: 0F 38 CB D1        sha256rnds2 xmm2,xmm1,xmm0
  00000000000041D4: 66 0F 70 C0 0E     pshufd      xmm0,xmm0,0Eh
  00000000000041D9: 66 41 0F 6F DD     movdqa      xmm3,xmm13
  00000000000041DE: 66 41 0F 3A 0F DC  palignr     xmm3,xmm12,4
                    04
  00000000000041E5: 66 44 0F FE D3     paddd       xmm10,xmm3
  00000000000041EA: 0F 10 69 F0        movups      xmm5,xmmword ptr [rcx-10h]
  00000000000041EE: 66 0F 38 DC F4     aesenc      xmm6,xmm4
  00000000000041F3: 0F 38 CB CA        sha256rnds2 xmm1,xmm2,xmm0
  00000000000041F7: 66 0F 6F 40 60     movdqa      xmm0,xmmword ptr [rax+60h]
  00000000000041FC: 66 41 0F FE C5     paddd       xmm0,xmm13
  0000000000004201: 45 0F 38 CD D5     sha256msg2  xmm10,xmm13
  0000000000004206: 45 0F 38 CC DC     sha256msg1  xmm11,xmm12
  000000000000420B: 0F 10 21           movups      xmm4,xmmword ptr [rcx]
  000000000000420E: 66 0F 38 DC F5     aesenc      xmm6,xmm5
  0000000000004213: 0F 38 CB D1        sha256rnds2 xmm2,xmm1,xmm0
  0000000000004217: 66 0F 70 C0 0E     pshufd      xmm0,xmm0,0Eh
  000000000000421C: 66 41 0F 6F DA     movdqa      xmm3,xmm10
  0000000000004221: 66 41 0F 3A 0F DD  palignr     xmm3,xmm13,4
                    04
  0000000000004228: 66 44 0F FE DB     paddd       xmm11,xmm3
  000000000000422D: 0F 10 69 10        movups      xmm5,xmmword ptr [rcx+10h]
  0000000000004231: 66 0F 38 DC F4     aesenc      xmm6,xmm4
  0000000000004236: 0F 38 CB CA        sha256rnds2 xmm1,xmm2,xmm0
  000000000000423A: 66 0F 6F 80 80 00  movdqa      xmm0,xmmword ptr [rax+80h]
                    00 00
  0000000000004242: 66 41 0F FE C2     paddd       xmm0,xmm10
  0000000000004247: 45 0F 38 CD DA     sha256msg2  xmm11,xmm10
  000000000000424C: 45 0F 38 CC E5     sha256msg1  xmm12,xmm13
  0000000000004251: 0F 10 61 20        movups      xmm4,xmmword ptr [rcx+20h]
  0000000000004255: 66 0F 38 DC F5     aesenc      xmm6,xmm5
  000000000000425A: 0F 38 CB D1        sha256rnds2 xmm2,xmm1,xmm0
  000000000000425E: 66 0F 70 C0 0E     pshufd      xmm0,xmm0,0Eh
  0000000000004263: 66 41 0F 6F DB     movdqa      xmm3,xmm11
  0000000000004268: 66 41 0F 3A 0F DA  palignr     xmm3,xmm10,4
                    04
  000000000000426F: 66 44 0F FE E3     paddd       xmm12,xmm3
  0000000000004274: 0F 10 69 30        movups      xmm5,xmmword ptr [rcx+30h]
  0000000000004278: 66 0F 38 DC F4     aesenc      xmm6,xmm4
  000000000000427D: 41 83 FB 0B        cmp         r11d,0Bh
  0000000000004281: 0F 82 2A 00 00 00  jb          L$aesenclast2
  0000000000004287: 0F 10 61 40        movups      xmm4,xmmword ptr [rcx+40h]
  000000000000428B: 66 0F 38 DC F5     aesenc      xmm6,xmm5
  0000000000004290: 0F 10 69 50        movups      xmm5,xmmword ptr [rcx+50h]
  0000000000004294: 66 0F 38 DC F4     aesenc      xmm6,xmm4
  0000000000004299: 0F 84 12 00 00 00  je          L$aesenclast2
  000000000000429F: 0F 10 61 60        movups      xmm4,xmmword ptr [rcx+60h]
  00000000000042A3: 66 0F 38 DC F5     aesenc      xmm6,xmm5
  00000000000042A8: 0F 10 69 70        movups      xmm5,xmmword ptr [rcx+70h]
  00000000000042AC: 66 0F 38 DC F4     aesenc      xmm6,xmm4
L$aesenclast2:
  00000000000042B1: 66 0F 38 DD F5     aesenclast  xmm6,xmm5
  00000000000042B6: 0F 10 61 A0        movups      xmm4,xmmword ptr [rcx-60h]
  00000000000042BA: 90                 nop
  00000000000042BB: 0F 38 CB CA        sha256rnds2 xmm1,xmm2,xmm0
  00000000000042BF: 44 0F 10 77 20     movups      xmm14,xmmword ptr [rdi+20h]
  00000000000042C4: 45 0F 57 F7        xorps       xmm14,xmm15
  00000000000042C8: 0F 11 74 3E 10     movups      xmmword ptr [rsi+rdi+10h],xmm6
  00000000000042CD: 41 0F 57 F6        xorps       xmm6,xmm14
  00000000000042D1: 0F 10 69 B0        movups      xmm5,xmmword ptr [rcx-50h]
  00000000000042D5: 66 0F 38 DC F4     aesenc      xmm6,xmm4
  00000000000042DA: 66 0F 6F 80 A0 00  movdqa      xmm0,xmmword ptr [rax+0A0h]
                    00 00
  00000000000042E2: 66 41 0F FE C3     paddd       xmm0,xmm11
  00000000000042E7: 45 0F 38 CD E3     sha256msg2  xmm12,xmm11
  00000000000042EC: 45 0F 38 CC EA     sha256msg1  xmm13,xmm10
  00000000000042F1: 0F 10 61 C0        movups      xmm4,xmmword ptr [rcx-40h]
  00000000000042F5: 66 0F 38 DC F5     aesenc      xmm6,xmm5
  00000000000042FA: 0F 38 CB D1        sha256rnds2 xmm2,xmm1,xmm0
  00000000000042FE: 66 0F 70 C0 0E     pshufd      xmm0,xmm0,0Eh
  0000000000004303: 66 41 0F 6F DC     movdqa      xmm3,xmm12
  0000000000004308: 66 41 0F 3A 0F DB  palignr     xmm3,xmm11,4
                    04
  000000000000430F: 66 44 0F FE EB     paddd       xmm13,xmm3
  0000000000004314: 0F 10 69 D0        movups      xmm5,xmmword ptr [rcx-30h]
  0000000000004318: 66 0F 38 DC F4     aesenc      xmm6,xmm4
  000000000000431D: 0F 38 CB CA        sha256rnds2 xmm1,xmm2,xmm0
  0000000000004321: 66 0F 6F 80 C0 00  movdqa      xmm0,xmmword ptr [rax+0C0h]
                    00 00
  0000000000004329: 66 41 0F FE C4     paddd       xmm0,xmm12
  000000000000432E: 45 0F 38 CD EC     sha256msg2  xmm13,xmm12
  0000000000004333: 45 0F 38 CC D3     sha256msg1  xmm10,xmm11
  0000000000004338: 0F 10 61 E0        movups      xmm4,xmmword ptr [rcx-20h]
  000000000000433C: 66 0F 38 DC F5     aesenc      xmm6,xmm5
  0000000000004341: 0F 38 CB D1        sha256rnds2 xmm2,xmm1,xmm0
  0000000000004345: 66 0F 70 C0 0E     pshufd      xmm0,xmm0,0Eh
  000000000000434A: 66 41 0F 6F DD     movdqa      xmm3,xmm13
  000000000000434F: 66 41 0F 3A 0F DC  palignr     xmm3,xmm12,4
                    04
  0000000000004356: 66 44 0F FE D3     paddd       xmm10,xmm3
  000000000000435B: 0F 10 69 F0        movups      xmm5,xmmword ptr [rcx-10h]
  000000000000435F: 66 0F 38 DC F4     aesenc      xmm6,xmm4
  0000000000004364: 0F 38 CB CA        sha256rnds2 xmm1,xmm2,xmm0
  0000000000004368: 66 0F 6F 80 E0 00  movdqa      xmm0,xmmword ptr [rax+0E0h]
                    00 00
  0000000000004370: 66 41 0F FE C5     paddd       xmm0,xmm13
  0000000000004375: 45 0F 38 CD D5     sha256msg2  xmm10,xmm13
  000000000000437A: 45 0F 38 CC DC     sha256msg1  xmm11,xmm12
  000000000000437F: 0F 10 21           movups      xmm4,xmmword ptr [rcx]
  0000000000004382: 66 0F 38 DC F5     aesenc      xmm6,xmm5
  0000000000004387: 0F 38 CB D1        sha256rnds2 xmm2,xmm1,xmm0
  000000000000438B: 66 0F 70 C0 0E     pshufd      xmm0,xmm0,0Eh
  0000000000004390: 66 41 0F 6F DA     movdqa      xmm3,xmm10
  0000000000004395: 66 41 0F 3A 0F DD  palignr     xmm3,xmm13,4
                    04
  000000000000439C: 66 44 0F FE DB     paddd       xmm11,xmm3
  00000000000043A1: 0F 10 69 10        movups      xmm5,xmmword ptr [rcx+10h]
  00000000000043A5: 66 0F 38 DC F4     aesenc      xmm6,xmm4
  00000000000043AA: 0F 38 CB CA        sha256rnds2 xmm1,xmm2,xmm0
  00000000000043AE: 66 0F 6F 80 00 01  movdqa      xmm0,xmmword ptr [rax+100h]
                    00 00
  00000000000043B6: 66 41 0F FE C2     paddd       xmm0,xmm10
  00000000000043BB: 45 0F 38 CD DA     sha256msg2  xmm11,xmm10
  00000000000043C0: 45 0F 38 CC E5     sha256msg1  xmm12,xmm13
  00000000000043C5: 0F 10 61 20        movups      xmm4,xmmword ptr [rcx+20h]
  00000000000043C9: 66 0F 38 DC F5     aesenc      xmm6,xmm5
  00000000000043CE: 0F 38 CB D1        sha256rnds2 xmm2,xmm1,xmm0
  00000000000043D2: 66 0F 70 C0 0E     pshufd      xmm0,xmm0,0Eh
  00000000000043D7: 66 41 0F 6F DB     movdqa      xmm3,xmm11
  00000000000043DC: 66 41 0F 3A 0F DA  palignr     xmm3,xmm10,4
                    04
  00000000000043E3: 66 44 0F FE E3     paddd       xmm12,xmm3
  00000000000043E8: 0F 10 69 30        movups      xmm5,xmmword ptr [rcx+30h]
  00000000000043EC: 66 0F 38 DC F4     aesenc      xmm6,xmm4
  00000000000043F1: 0F 38 CB CA        sha256rnds2 xmm1,xmm2,xmm0
  00000000000043F5: 66 0F 6F 80 20 01  movdqa      xmm0,xmmword ptr [rax+120h]
                    00 00
  00000000000043FD: 66 41 0F FE C3     paddd       xmm0,xmm11
  0000000000004402: 45 0F 38 CD E3     sha256msg2  xmm12,xmm11
  0000000000004407: 45 0F 38 CC EA     sha256msg1  xmm13,xmm10
  000000000000440C: 41 83 FB 0B        cmp         r11d,0Bh
  0000000000004410: 0F 82 2A 00 00 00  jb          L$aesenclast3
  0000000000004416: 0F 10 61 40        movups      xmm4,xmmword ptr [rcx+40h]
  000000000000441A: 66 0F 38 DC F5     aesenc      xmm6,xmm5
  000000000000441F: 0F 10 69 50        movups      xmm5,xmmword ptr [rcx+50h]
  0000000000004423: 66 0F 38 DC F4     aesenc      xmm6,xmm4
  0000000000004428: 0F 84 12 00 00 00  je          L$aesenclast3
  000000000000442E: 0F 10 61 60        movups      xmm4,xmmword ptr [rcx+60h]
  0000000000004432: 66 0F 38 DC F5     aesenc      xmm6,xmm5
  0000000000004437: 0F 10 69 70        movups      xmm5,xmmword ptr [rcx+70h]
  000000000000443B: 66 0F 38 DC F4     aesenc      xmm6,xmm4
L$aesenclast3:
  0000000000004440: 66 0F 38 DD F5     aesenclast  xmm6,xmm5
  0000000000004445: 0F 10 61 A0        movups      xmm4,xmmword ptr [rcx-60h]
  0000000000004449: 90                 nop
  000000000000444A: 0F 38 CB D1        sha256rnds2 xmm2,xmm1,xmm0
  000000000000444E: 66 0F 70 C0 0E     pshufd      xmm0,xmm0,0Eh
  0000000000004453: 66 41 0F 6F DC     movdqa      xmm3,xmm12
  0000000000004458: 66 41 0F 3A 0F DB  palignr     xmm3,xmm11,4
                    04
  000000000000445F: 66 44 0F FE EB     paddd       xmm13,xmm3
  0000000000004464: 44 0F 10 77 30     movups      xmm14,xmmword ptr [rdi+30h]
  0000000000004469: 45 0F 57 F7        xorps       xmm14,xmm15
  000000000000446D: 0F 11 74 3E 20     movups      xmmword ptr [rsi+rdi+20h],xmm6
  0000000000004472: 41 0F 57 F6        xorps       xmm6,xmm14
  0000000000004476: 0F 10 69 B0        movups      xmm5,xmmword ptr [rcx-50h]
  000000000000447A: 66 0F 38 DC F4     aesenc      xmm6,xmm4
  000000000000447F: 0F 10 61 C0        movups      xmm4,xmmword ptr [rcx-40h]
  0000000000004483: 66 0F 38 DC F5     aesenc      xmm6,xmm5
  0000000000004488: 0F 38 CB CA        sha256rnds2 xmm1,xmm2,xmm0
  000000000000448C: 66 0F 6F 80 40 01  movdqa      xmm0,xmmword ptr [rax+140h]
                    00 00
  0000000000004494: 66 41 0F FE C4     paddd       xmm0,xmm12
  0000000000004499: 45 0F 38 CD EC     sha256msg2  xmm13,xmm12
  000000000000449E: 66 0F 6F DF        movdqa      xmm3,xmm7
  00000000000044A2: 0F 10 69 D0        movups      xmm5,xmmword ptr [rcx-30h]
  00000000000044A6: 66 0F 38 DC F4     aesenc      xmm6,xmm4
  00000000000044AB: 0F 38 CB D1        sha256rnds2 xmm2,xmm1,xmm0
  00000000000044AF: 66 0F 70 C0 0E     pshufd      xmm0,xmm0,0Eh
  00000000000044B4: 0F 10 61 E0        movups      xmm4,xmmword ptr [rcx-20h]
  00000000000044B8: 66 0F 38 DC F5     aesenc      xmm6,xmm5
  00000000000044BD: 0F 38 CB CA        sha256rnds2 xmm1,xmm2,xmm0
  00000000000044C1: 66 0F 6F 80 60 01  movdqa      xmm0,xmmword ptr [rax+160h]
                    00 00
  00000000000044C9: 66 41 0F FE C5     paddd       xmm0,xmm13
  00000000000044CE: 0F 10 69 F0        movups      xmm5,xmmword ptr [rcx-10h]
  00000000000044D2: 66 0F 38 DC F4     aesenc      xmm6,xmm4
  00000000000044D7: 0F 10 21           movups      xmm4,xmmword ptr [rcx]
  00000000000044DA: 66 0F 38 DC F5     aesenc      xmm6,xmm5
  00000000000044DF: 0F 38 CB D1        sha256rnds2 xmm2,xmm1,xmm0
  00000000000044E3: 66 0F 70 C0 0E     pshufd      xmm0,xmm0,0Eh
  00000000000044E8: 0F 10 69 10        movups      xmm5,xmmword ptr [rcx+10h]
  00000000000044EC: 66 0F 38 DC F4     aesenc      xmm6,xmm4
  00000000000044F1: 0F 38 CB CA        sha256rnds2 xmm1,xmm2,xmm0
  00000000000044F5: 0F 10 61 20        movups      xmm4,xmmword ptr [rcx+20h]
  00000000000044F9: 66 0F 38 DC F5     aesenc      xmm6,xmm5
  00000000000044FE: 0F 10 69 30        movups      xmm5,xmmword ptr [rcx+30h]
  0000000000004502: 66 0F 38 DC F4     aesenc      xmm6,xmm4
  0000000000004507: 41 83 FB 0B        cmp         r11d,0Bh
  000000000000450B: 0F 82 2A 00 00 00  jb          L$aesenclast4
  0000000000004511: 0F 10 61 40        movups      xmm4,xmmword ptr [rcx+40h]
  0000000000004515: 66 0F 38 DC F5     aesenc      xmm6,xmm5
  000000000000451A: 0F 10 69 50        movups      xmm5,xmmword ptr [rcx+50h]
  000000000000451E: 66 0F 38 DC F4     aesenc      xmm6,xmm4
  0000000000004523: 0F 84 12 00 00 00  je          L$aesenclast4
  0000000000004529: 0F 10 61 60        movups      xmm4,xmmword ptr [rcx+60h]
  000000000000452D: 66 0F 38 DC F5     aesenc      xmm6,xmm5
  0000000000004532: 0F 10 69 70        movups      xmm5,xmmword ptr [rcx+70h]
  0000000000004536: 66 0F 38 DC F4     aesenc      xmm6,xmm4
L$aesenclast4:
  000000000000453B: 66 0F 38 DD F5     aesenclast  xmm6,xmm5
  0000000000004540: 0F 10 61 A0        movups      xmm4,xmmword ptr [rcx-60h]
  0000000000004544: 90                 nop
  0000000000004545: 66 41 0F FE D1     paddd       xmm2,xmm9
  000000000000454A: 66 41 0F FE C8     paddd       xmm1,xmm8
  000000000000454F: 48 FF CA           dec         rdx
  0000000000004552: 0F 11 74 3E 30     movups      xmmword ptr [rsi+rdi+30h],xmm6
  0000000000004557: 48 8D 7F 40        lea         rdi,[rdi+40h]
  000000000000455B: 0F 85 5F FA FF FF  jne         L$oop_shaext
  0000000000004561: 66 0F 70 D2 B1     pshufd      xmm2,xmm2,0B1h
  0000000000004566: 66 0F 70 D9 1B     pshufd      xmm3,xmm1,1Bh
  000000000000456B: 66 0F 70 C9 B1     pshufd      xmm1,xmm1,0B1h
  0000000000004570: 66 0F 6D CA        punpckhqdq  xmm1,xmm2
  0000000000004574: 66 0F 3A 0F D3 08  palignr     xmm2,xmm3,8
  000000000000457A: 41 0F 11 30        movups      xmmword ptr [r8],xmm6
  000000000000457E: F3 41 0F 7F 09     movdqu      xmmword ptr [r9],xmm1
  0000000000004583: F3 41 0F 7F 51 10  movdqu      xmmword ptr [r9+10h],xmm2
  0000000000004589: 0F 28 34 24        movaps      xmm6,xmmword ptr [rsp]
  000000000000458D: 0F 28 7C 24 10     movaps      xmm7,xmmword ptr [rsp+10h]
  0000000000004592: 44 0F 28 44 24 20  movaps      xmm8,xmmword ptr [rsp+20h]
  0000000000004598: 44 0F 28 4C 24 30  movaps      xmm9,xmmword ptr [rsp+30h]
  000000000000459E: 44 0F 28 54 24 40  movaps      xmm10,xmmword ptr [rsp+40h]
  00000000000045A4: 44 0F 28 5C 24 50  movaps      xmm11,xmmword ptr [rsp+50h]
  00000000000045AA: 44 0F 28 64 24 60  movaps      xmm12,xmmword ptr [rsp+60h]
  00000000000045B0: 44 0F 28 6C 24 70  movaps      xmm13,xmmword ptr [rsp+70h]
  00000000000045B6: 44 0F 28 B4 24 80  movaps      xmm14,xmmword ptr [rsp+80h]
                    00 00 00
  00000000000045BF: 44 0F 28 BC 24 90  movaps      xmm15,xmmword ptr [rsp+90h]
                    00 00 00
  00000000000045C8: 48 8D A4 24 A8 00  lea         rsp,[rsp+0A8h]
                    00 00
L$epilogue_shaext:
  00000000000045D0: 48 8B 7C 24 08     mov         rdi,qword ptr [rsp+8]
  00000000000045D5: 48 8B 74 24 10     mov         rsi,qword ptr [rsp+10h]
  00000000000045DA: F3 C3              rep ret
L$SEH_end_aesni_cbc_sha256_enc_shaext:
  00000000000045DC: 90                 nop
  00000000000045DD: 90                 nop
  00000000000045DE: 90                 nop
  00000000000045DF: 90                 nop
se_handler:
  00000000000045E0: 56                 push        rsi
  00000000000045E1: 57                 push        rdi
  00000000000045E2: 53                 push        rbx
  00000000000045E3: 55                 push        rbp
  00000000000045E4: 41 54              push        r12
  00000000000045E6: 41 55              push        r13
  00000000000045E8: 41 56              push        r14
  00000000000045EA: 41 57              push        r15
  00000000000045EC: 9C                 pushfq
  00000000000045ED: 48 83 EC 40        sub         rsp,40h
  00000000000045F1: 49 8B 40 78        mov         rax,qword ptr [r8+78h]
  00000000000045F5: 49 8B 98 F8 00 00  mov         rbx,qword ptr [r8+0F8h]
                    00
  00000000000045FC: 49 8B 71 08        mov         rsi,qword ptr [r9+8]
  0000000000004600: 4D 8B 59 38        mov         r11,qword ptr [r9+38h]
  0000000000004604: 45 8B 13           mov         r10d,dword ptr [r11]
  0000000000004607: 4E 8D 14 16        lea         r10,[rsi+r10]
  000000000000460B: 4C 39 D3           cmp         rbx,r10
  000000000000460E: 0F 82 C3 00 00 00  jb          L$in_prologue
  0000000000004614: 49 8B 80 98 00 00  mov         rax,qword ptr [r8+98h]
                    00
  000000000000461B: 45 8B 53 04        mov         r10d,dword ptr [r11+4]
  000000000000461F: 4E 8D 14 16        lea         r10,[rsi+r10]
  0000000000004623: 4C 39 D3           cmp         rbx,r10
  0000000000004626: 0F 83 AB 00 00 00  jae         L$in_prologue
  000000000000462C: 4C 8D 15 CD F8 FF  lea         r10,[aesni_cbc_sha256_enc_shaext]
                    FF
  0000000000004633: 4C 39 D3           cmp         rbx,r10
  0000000000004636: 0F 82 1F 00 00 00  jb          L$not_in_shaext
  000000000000463C: 48 8D 30           lea         rsi,[rax]
  000000000000463F: 49 8D B8 00 02 00  lea         rdi,[r8+200h]
                    00
  0000000000004646: B9 14 00 00 00     mov         ecx,14h
  000000000000464B: FC                 cld
  000000000000464C: F3 48 A5           rep movs    qword ptr [rdi],qword ptr [rsi]
  000000000000464F: 48 8D 80 A8 00 00  lea         rax,[rax+0A8h]
                    00
  0000000000004656: E9 7C 00 00 00     jmp         L$in_prologue
L$not_in_shaext:
  000000000000465B: 4C 8D 15 81 DD FF  lea         r10,[L$avx2_shortcut]
                    FF
  0000000000004662: 4C 39 D3           cmp         rbx,r10
  0000000000004665: 0F 82 0C 00 00 00  jb          L$not_in_avx2
  000000000000466B: 48 25 00 FC FF FF  and         rax,0FFFFFFFFFFFFFC00h
  0000000000004671: 48 05 C0 01 00 00  add         rax,1C0h
L$not_in_avx2:
  0000000000004677: 48 89 C6           mov         rsi,rax
  000000000000467A: 48 8B 40 78        mov         rax,qword ptr [rax+78h]
  000000000000467E: 48 8B 58 F8        mov         rbx,qword ptr [rax-8]
  0000000000004682: 48 8B 68 F0        mov         rbp,qword ptr [rax-10h]
  0000000000004686: 4C 8B 60 E8        mov         r12,qword ptr [rax-18h]
  000000000000468A: 4C 8B 68 E0        mov         r13,qword ptr [rax-20h]
  000000000000468E: 4C 8B 70 D8        mov         r14,qword ptr [rax-28h]
  0000000000004692: 4C 8B 78 D0        mov         r15,qword ptr [rax-30h]
  0000000000004696: 49 89 98 90 00 00  mov         qword ptr [r8+90h],rbx
                    00
  000000000000469D: 49 89 A8 A0 00 00  mov         qword ptr [r8+0A0h],rbp
                    00
  00000000000046A4: 4D 89 A0 D8 00 00  mov         qword ptr [r8+0D8h],r12
                    00
  00000000000046AB: 4D 89 A8 E0 00 00  mov         qword ptr [r8+0E0h],r13
                    00
  00000000000046B2: 4D 89 B0 E8 00 00  mov         qword ptr [r8+0E8h],r14
                    00
  00000000000046B9: 4D 89 B8 F0 00 00  mov         qword ptr [r8+0F0h],r15
                    00
  00000000000046C0: 48 8D B6 80 00 00  lea         rsi,[rsi+80h]
                    00
  00000000000046C7: 49 8D B8 00 02 00  lea         rdi,[r8+200h]
                    00
  00000000000046CE: B9 14 00 00 00     mov         ecx,14h
  00000000000046D3: FC                 cld
  00000000000046D4: F3 48 A5           rep movs    qword ptr [rdi],qword ptr [rsi]
L$in_prologue:
  00000000000046D7: 48 8B 78 08        mov         rdi,qword ptr [rax+8]
  00000000000046DB: 48 8B 70 10        mov         rsi,qword ptr [rax+10h]
  00000000000046DF: 49 89 80 98 00 00  mov         qword ptr [r8+98h],rax
                    00
  00000000000046E6: 49 89 B0 A8 00 00  mov         qword ptr [r8+0A8h],rsi
                    00
  00000000000046ED: 49 89 B8 B0 00 00  mov         qword ptr [r8+0B0h],rdi
                    00
  00000000000046F4: 49 8B 79 28        mov         rdi,qword ptr [r9+28h]
  00000000000046F8: 4C 89 C6           mov         rsi,r8
  00000000000046FB: B9 9A 00 00 00     mov         ecx,9Ah
  0000000000004700: FC                 cld
  0000000000004701: F3 48 A5           rep movs    qword ptr [rdi],qword ptr [rsi]
  0000000000004704: 4C 89 CE           mov         rsi,r9
  0000000000004707: 48 31 C9           xor         rcx,rcx
  000000000000470A: 48 8B 56 08        mov         rdx,qword ptr [rsi+8]
  000000000000470E: 4C 8B 06           mov         r8,qword ptr [rsi]
  0000000000004711: 4C 8B 4E 10        mov         r9,qword ptr [rsi+10h]
  0000000000004715: 4C 8B 56 28        mov         r10,qword ptr [rsi+28h]
  0000000000004719: 4C 8D 5E 38        lea         r11,[rsi+38h]
  000000000000471D: 4C 8D 66 18        lea         r12,[rsi+18h]
  0000000000004721: 4C 89 54 24 20     mov         qword ptr [rsp+20h],r10
  0000000000004726: 4C 89 5C 24 28     mov         qword ptr [rsp+28h],r11
  000000000000472B: 4C 89 64 24 30     mov         qword ptr [rsp+30h],r12
  0000000000004730: 48 89 4C 24 38     mov         qword ptr [rsp+38h],rcx
  0000000000004735: FF 15 00 00 00 00  call        qword ptr [__imp_RtlVirtualUnwind]
  000000000000473B: B8 01 00 00 00     mov         eax,1
  0000000000004740: 48 83 C4 40        add         rsp,40h
  0000000000004744: 9D                 popfq
  0000000000004745: 41 5F              pop         r15
  0000000000004747: 41 5E              pop         r14
  0000000000004749: 41 5D              pop         r13
  000000000000474B: 41 5C              pop         r12
  000000000000474D: 5D                 pop         rbp
  000000000000474E: 5B                 pop         rbx
  000000000000474F: 5F                 pop         rdi
  0000000000004750: 5E                 pop         rsi
  0000000000004751: F3 C3              rep ret

  Summary

          1C .debug$T
          30 .pdata
         2B6 .rdata
        4753 .text
          40 .xdata
