Microsoft (R) COFF/PE Dumper Version 14.40.33813.0
Copyright (C) Microsoft Corporation.  All rights reserved.


Dump of file aesni-x86_64.obj

File Type: COFF OBJECT

aws_lc_0_21_0_aes_hw_encrypt:
  0000000000000000: 0F 10 11           movups      xmm2,xmmword ptr [rcx]
  0000000000000003: 41 8B 80 F0 00 00  mov         eax,dword ptr [r8+0F0h]
                    00
  000000000000000A: 41 0F 10 00        movups      xmm0,xmmword ptr [r8]
  000000000000000E: 41 0F 10 48 10     movups      xmm1,xmmword ptr [r8+10h]
  0000000000000013: 4D 8D 40 20        lea         r8,[r8+20h]
  0000000000000017: 0F 57 D0           xorps       xmm2,xmm0
L$oop_enc1_1:
  000000000000001A: 66 0F 38 DC D1     aesenc      xmm2,xmm1
  000000000000001F: FF C8              dec         eax
  0000000000000021: 41 0F 10 08        movups      xmm1,xmmword ptr [r8]
  0000000000000025: 4D 8D 40 10        lea         r8,[r8+10h]
  0000000000000029: 0F 85 EB FF FF FF  jne         L$oop_enc1_1
  000000000000002F: 66 0F 38 DD D1     aesenclast  xmm2,xmm1
  0000000000000034: 66 0F EF C0        pxor        xmm0,xmm0
  0000000000000038: 66 0F EF C9        pxor        xmm1,xmm1
  000000000000003C: 0F 11 12           movups      xmmword ptr [rdx],xmm2
  000000000000003F: 66 0F EF D2        pxor        xmm2,xmm2
  0000000000000043: F3 C3              rep ret
  0000000000000045: 90                 nop
  0000000000000046: 90                 nop
  0000000000000047: 90                 nop
  0000000000000048: 90                 nop
  0000000000000049: 90                 nop
  000000000000004A: 90                 nop
  000000000000004B: 90                 nop
  000000000000004C: 90                 nop
  000000000000004D: 90                 nop
  000000000000004E: 90                 nop
  000000000000004F: 90                 nop
aws_lc_0_21_0_aes_hw_decrypt:
  0000000000000050: 0F 10 11           movups      xmm2,xmmword ptr [rcx]
  0000000000000053: 41 8B 80 F0 00 00  mov         eax,dword ptr [r8+0F0h]
                    00
  000000000000005A: 41 0F 10 00        movups      xmm0,xmmword ptr [r8]
  000000000000005E: 41 0F 10 48 10     movups      xmm1,xmmword ptr [r8+10h]
  0000000000000063: 4D 8D 40 20        lea         r8,[r8+20h]
  0000000000000067: 0F 57 D0           xorps       xmm2,xmm0
L$oop_dec1_2:
  000000000000006A: 66 0F 38 DE D1     aesdec      xmm2,xmm1
  000000000000006F: FF C8              dec         eax
  0000000000000071: 41 0F 10 08        movups      xmm1,xmmword ptr [r8]
  0000000000000075: 4D 8D 40 10        lea         r8,[r8+10h]
  0000000000000079: 0F 85 EB FF FF FF  jne         L$oop_dec1_2
  000000000000007F: 66 0F 38 DF D1     aesdeclast  xmm2,xmm1
  0000000000000084: 66 0F EF C0        pxor        xmm0,xmm0
  0000000000000088: 66 0F EF C9        pxor        xmm1,xmm1
  000000000000008C: 0F 11 12           movups      xmmword ptr [rdx],xmm2
  000000000000008F: 66 0F EF D2        pxor        xmm2,xmm2
  0000000000000093: F3 C3              rep ret
  0000000000000095: 90                 nop
  0000000000000096: 90                 nop
  0000000000000097: 90                 nop
  0000000000000098: 90                 nop
  0000000000000099: 90                 nop
  000000000000009A: 90                 nop
  000000000000009B: 90                 nop
  000000000000009C: 90                 nop
  000000000000009D: 90                 nop
  000000000000009E: 90                 nop
  000000000000009F: 90                 nop
_aesni_encrypt2:
  00000000000000A0: 0F 10 01           movups      xmm0,xmmword ptr [rcx]
  00000000000000A3: C1 E0 04           shl         eax,4
  00000000000000A6: 0F 10 49 10        movups      xmm1,xmmword ptr [rcx+10h]
  00000000000000AA: 0F 57 D0           xorps       xmm2,xmm0
  00000000000000AD: 0F 57 D8           xorps       xmm3,xmm0
  00000000000000B0: 0F 10 41 20        movups      xmm0,xmmword ptr [rcx+20h]
  00000000000000B4: 48 8D 4C 01 20     lea         rcx,[rcx+rax+20h]
  00000000000000B9: 48 F7 D8           neg         rax
  00000000000000BC: 48 83 C0 10        add         rax,10h
L$enc_loop2:
  00000000000000C0: 66 0F 38 DC D1     aesenc      xmm2,xmm1
  00000000000000C5: 66 0F 38 DC D9     aesenc      xmm3,xmm1
  00000000000000CA: 0F 10 0C 01        movups      xmm1,xmmword ptr [rcx+rax]
  00000000000000CE: 48 83 C0 20        add         rax,20h
  00000000000000D2: 66 0F 38 DC D0     aesenc      xmm2,xmm0
  00000000000000D7: 66 0F 38 DC D8     aesenc      xmm3,xmm0
  00000000000000DC: 0F 10 44 01 F0     movups      xmm0,xmmword ptr [rcx+rax-10h]
  00000000000000E1: 0F 85 D9 FF FF FF  jne         L$enc_loop2
  00000000000000E7: 66 0F 38 DC D1     aesenc      xmm2,xmm1
  00000000000000EC: 66 0F 38 DC D9     aesenc      xmm3,xmm1
  00000000000000F1: 66 0F 38 DD D0     aesenclast  xmm2,xmm0
  00000000000000F6: 66 0F 38 DD D8     aesenclast  xmm3,xmm0
  00000000000000FB: F3 C3              rep ret
  00000000000000FD: 90                 nop
  00000000000000FE: 90                 nop
  00000000000000FF: 90                 nop
_aesni_decrypt2:
  0000000000000100: 0F 10 01           movups      xmm0,xmmword ptr [rcx]
  0000000000000103: C1 E0 04           shl         eax,4
  0000000000000106: 0F 10 49 10        movups      xmm1,xmmword ptr [rcx+10h]
  000000000000010A: 0F 57 D0           xorps       xmm2,xmm0
  000000000000010D: 0F 57 D8           xorps       xmm3,xmm0
  0000000000000110: 0F 10 41 20        movups      xmm0,xmmword ptr [rcx+20h]
  0000000000000114: 48 8D 4C 01 20     lea         rcx,[rcx+rax+20h]
  0000000000000119: 48 F7 D8           neg         rax
  000000000000011C: 48 83 C0 10        add         rax,10h
L$dec_loop2:
  0000000000000120: 66 0F 38 DE D1     aesdec      xmm2,xmm1
  0000000000000125: 66 0F 38 DE D9     aesdec      xmm3,xmm1
  000000000000012A: 0F 10 0C 01        movups      xmm1,xmmword ptr [rcx+rax]
  000000000000012E: 48 83 C0 20        add         rax,20h
  0000000000000132: 66 0F 38 DE D0     aesdec      xmm2,xmm0
  0000000000000137: 66 0F 38 DE D8     aesdec      xmm3,xmm0
  000000000000013C: 0F 10 44 01 F0     movups      xmm0,xmmword ptr [rcx+rax-10h]
  0000000000000141: 0F 85 D9 FF FF FF  jne         L$dec_loop2
  0000000000000147: 66 0F 38 DE D1     aesdec      xmm2,xmm1
  000000000000014C: 66 0F 38 DE D9     aesdec      xmm3,xmm1
  0000000000000151: 66 0F 38 DF D0     aesdeclast  xmm2,xmm0
  0000000000000156: 66 0F 38 DF D8     aesdeclast  xmm3,xmm0
  000000000000015B: F3 C3              rep ret
  000000000000015D: 90                 nop
  000000000000015E: 90                 nop
  000000000000015F: 90                 nop
_aesni_encrypt3:
  0000000000000160: 0F 10 01           movups      xmm0,xmmword ptr [rcx]
  0000000000000163: C1 E0 04           shl         eax,4
  0000000000000166: 0F 10 49 10        movups      xmm1,xmmword ptr [rcx+10h]
  000000000000016A: 0F 57 D0           xorps       xmm2,xmm0
  000000000000016D: 0F 57 D8           xorps       xmm3,xmm0
  0000000000000170: 0F 57 E0           xorps       xmm4,xmm0
  0000000000000173: 0F 10 41 20        movups      xmm0,xmmword ptr [rcx+20h]
  0000000000000177: 48 8D 4C 01 20     lea         rcx,[rcx+rax+20h]
  000000000000017C: 48 F7 D8           neg         rax
  000000000000017F: 48 83 C0 10        add         rax,10h
L$enc_loop3:
  0000000000000183: 66 0F 38 DC D1     aesenc      xmm2,xmm1
  0000000000000188: 66 0F 38 DC D9     aesenc      xmm3,xmm1
  000000000000018D: 66 0F 38 DC E1     aesenc      xmm4,xmm1
  0000000000000192: 0F 10 0C 01        movups      xmm1,xmmword ptr [rcx+rax]
  0000000000000196: 48 83 C0 20        add         rax,20h
  000000000000019A: 66 0F 38 DC D0     aesenc      xmm2,xmm0
  000000000000019F: 66 0F 38 DC D8     aesenc      xmm3,xmm0
  00000000000001A4: 66 0F 38 DC E0     aesenc      xmm4,xmm0
  00000000000001A9: 0F 10 44 01 F0     movups      xmm0,xmmword ptr [rcx+rax-10h]
  00000000000001AE: 0F 85 CF FF FF FF  jne         L$enc_loop3
  00000000000001B4: 66 0F 38 DC D1     aesenc      xmm2,xmm1
  00000000000001B9: 66 0F 38 DC D9     aesenc      xmm3,xmm1
  00000000000001BE: 66 0F 38 DC E1     aesenc      xmm4,xmm1
  00000000000001C3: 66 0F 38 DD D0     aesenclast  xmm2,xmm0
  00000000000001C8: 66 0F 38 DD D8     aesenclast  xmm3,xmm0
  00000000000001CD: 66 0F 38 DD E0     aesenclast  xmm4,xmm0
  00000000000001D2: F3 C3              rep ret
  00000000000001D4: 90                 nop
  00000000000001D5: 90                 nop
  00000000000001D6: 90                 nop
  00000000000001D7: 90                 nop
  00000000000001D8: 90                 nop
  00000000000001D9: 90                 nop
  00000000000001DA: 90                 nop
  00000000000001DB: 90                 nop
  00000000000001DC: 90                 nop
  00000000000001DD: 90                 nop
  00000000000001DE: 90                 nop
  00000000000001DF: 90                 nop
_aesni_decrypt3:
  00000000000001E0: 0F 10 01           movups      xmm0,xmmword ptr [rcx]
  00000000000001E3: C1 E0 04           shl         eax,4
  00000000000001E6: 0F 10 49 10        movups      xmm1,xmmword ptr [rcx+10h]
  00000000000001EA: 0F 57 D0           xorps       xmm2,xmm0
  00000000000001ED: 0F 57 D8           xorps       xmm3,xmm0
  00000000000001F0: 0F 57 E0           xorps       xmm4,xmm0
  00000000000001F3: 0F 10 41 20        movups      xmm0,xmmword ptr [rcx+20h]
  00000000000001F7: 48 8D 4C 01 20     lea         rcx,[rcx+rax+20h]
  00000000000001FC: 48 F7 D8           neg         rax
  00000000000001FF: 48 83 C0 10        add         rax,10h
L$dec_loop3:
  0000000000000203: 66 0F 38 DE D1     aesdec      xmm2,xmm1
  0000000000000208: 66 0F 38 DE D9     aesdec      xmm3,xmm1
  000000000000020D: 66 0F 38 DE E1     aesdec      xmm4,xmm1
  0000000000000212: 0F 10 0C 01        movups      xmm1,xmmword ptr [rcx+rax]
  0000000000000216: 48 83 C0 20        add         rax,20h
  000000000000021A: 66 0F 38 DE D0     aesdec      xmm2,xmm0
  000000000000021F: 66 0F 38 DE D8     aesdec      xmm3,xmm0
  0000000000000224: 66 0F 38 DE E0     aesdec      xmm4,xmm0
  0000000000000229: 0F 10 44 01 F0     movups      xmm0,xmmword ptr [rcx+rax-10h]
  000000000000022E: 0F 85 CF FF FF FF  jne         L$dec_loop3
  0000000000000234: 66 0F 38 DE D1     aesdec      xmm2,xmm1
  0000000000000239: 66 0F 38 DE D9     aesdec      xmm3,xmm1
  000000000000023E: 66 0F 38 DE E1     aesdec      xmm4,xmm1
  0000000000000243: 66 0F 38 DF D0     aesdeclast  xmm2,xmm0
  0000000000000248: 66 0F 38 DF D8     aesdeclast  xmm3,xmm0
  000000000000024D: 66 0F 38 DF E0     aesdeclast  xmm4,xmm0
  0000000000000252: F3 C3              rep ret
  0000000000000254: 90                 nop
  0000000000000255: 90                 nop
  0000000000000256: 90                 nop
  0000000000000257: 90                 nop
  0000000000000258: 90                 nop
  0000000000000259: 90                 nop
  000000000000025A: 90                 nop
  000000000000025B: 90                 nop
  000000000000025C: 90                 nop
  000000000000025D: 90                 nop
  000000000000025E: 90                 nop
  000000000000025F: 90                 nop
_aesni_encrypt4:
  0000000000000260: 0F 10 01           movups      xmm0,xmmword ptr [rcx]
  0000000000000263: C1 E0 04           shl         eax,4
  0000000000000266: 0F 10 49 10        movups      xmm1,xmmword ptr [rcx+10h]
  000000000000026A: 0F 57 D0           xorps       xmm2,xmm0
  000000000000026D: 0F 57 D8           xorps       xmm3,xmm0
  0000000000000270: 0F 57 E0           xorps       xmm4,xmm0
  0000000000000273: 0F 57 E8           xorps       xmm5,xmm0
  0000000000000276: 0F 10 41 20        movups      xmm0,xmmword ptr [rcx+20h]
  000000000000027A: 48 8D 4C 01 20     lea         rcx,[rcx+rax+20h]
  000000000000027F: 48 F7 D8           neg         rax
  0000000000000282: 0F 1F 00           nop         dword ptr [rax]
  0000000000000285: 48 83 C0 10        add         rax,10h
L$enc_loop4:
  0000000000000289: 66 0F 38 DC D1     aesenc      xmm2,xmm1
  000000000000028E: 66 0F 38 DC D9     aesenc      xmm3,xmm1
  0000000000000293: 66 0F 38 DC E1     aesenc      xmm4,xmm1
  0000000000000298: 66 0F 38 DC E9     aesenc      xmm5,xmm1
  000000000000029D: 0F 10 0C 01        movups      xmm1,xmmword ptr [rcx+rax]
  00000000000002A1: 48 83 C0 20        add         rax,20h
  00000000000002A5: 66 0F 38 DC D0     aesenc      xmm2,xmm0
  00000000000002AA: 66 0F 38 DC D8     aesenc      xmm3,xmm0
  00000000000002AF: 66 0F 38 DC E0     aesenc      xmm4,xmm0
  00000000000002B4: 66 0F 38 DC E8     aesenc      xmm5,xmm0
  00000000000002B9: 0F 10 44 01 F0     movups      xmm0,xmmword ptr [rcx+rax-10h]
  00000000000002BE: 0F 85 C5 FF FF FF  jne         L$enc_loop4
  00000000000002C4: 66 0F 38 DC D1     aesenc      xmm2,xmm1
  00000000000002C9: 66 0F 38 DC D9     aesenc      xmm3,xmm1
  00000000000002CE: 66 0F 38 DC E1     aesenc      xmm4,xmm1
  00000000000002D3: 66 0F 38 DC E9     aesenc      xmm5,xmm1
  00000000000002D8: 66 0F 38 DD D0     aesenclast  xmm2,xmm0
  00000000000002DD: 66 0F 38 DD D8     aesenclast  xmm3,xmm0
  00000000000002E2: 66 0F 38 DD E0     aesenclast  xmm4,xmm0
  00000000000002E7: 66 0F 38 DD E8     aesenclast  xmm5,xmm0
  00000000000002EC: F3 C3              rep ret
  00000000000002EE: 90                 nop
  00000000000002EF: 90                 nop
_aesni_decrypt4:
  00000000000002F0: 0F 10 01           movups      xmm0,xmmword ptr [rcx]
  00000000000002F3: C1 E0 04           shl         eax,4
  00000000000002F6: 0F 10 49 10        movups      xmm1,xmmword ptr [rcx+10h]
  00000000000002FA: 0F 57 D0           xorps       xmm2,xmm0
  00000000000002FD: 0F 57 D8           xorps       xmm3,xmm0
  0000000000000300: 0F 57 E0           xorps       xmm4,xmm0
  0000000000000303: 0F 57 E8           xorps       xmm5,xmm0
  0000000000000306: 0F 10 41 20        movups      xmm0,xmmword ptr [rcx+20h]
  000000000000030A: 48 8D 4C 01 20     lea         rcx,[rcx+rax+20h]
  000000000000030F: 48 F7 D8           neg         rax
  0000000000000312: 0F 1F 00           nop         dword ptr [rax]
  0000000000000315: 48 83 C0 10        add         rax,10h
L$dec_loop4:
  0000000000000319: 66 0F 38 DE D1     aesdec      xmm2,xmm1
  000000000000031E: 66 0F 38 DE D9     aesdec      xmm3,xmm1
  0000000000000323: 66 0F 38 DE E1     aesdec      xmm4,xmm1
  0000000000000328: 66 0F 38 DE E9     aesdec      xmm5,xmm1
  000000000000032D: 0F 10 0C 01        movups      xmm1,xmmword ptr [rcx+rax]
  0000000000000331: 48 83 C0 20        add         rax,20h
  0000000000000335: 66 0F 38 DE D0     aesdec      xmm2,xmm0
  000000000000033A: 66 0F 38 DE D8     aesdec      xmm3,xmm0
  000000000000033F: 66 0F 38 DE E0     aesdec      xmm4,xmm0
  0000000000000344: 66 0F 38 DE E8     aesdec      xmm5,xmm0
  0000000000000349: 0F 10 44 01 F0     movups      xmm0,xmmword ptr [rcx+rax-10h]
  000000000000034E: 0F 85 C5 FF FF FF  jne         L$dec_loop4
  0000000000000354: 66 0F 38 DE D1     aesdec      xmm2,xmm1
  0000000000000359: 66 0F 38 DE D9     aesdec      xmm3,xmm1
  000000000000035E: 66 0F 38 DE E1     aesdec      xmm4,xmm1
  0000000000000363: 66 0F 38 DE E9     aesdec      xmm5,xmm1
  0000000000000368: 66 0F 38 DF D0     aesdeclast  xmm2,xmm0
  000000000000036D: 66 0F 38 DF D8     aesdeclast  xmm3,xmm0
  0000000000000372: 66 0F 38 DF E0     aesdeclast  xmm4,xmm0
  0000000000000377: 66 0F 38 DF E8     aesdeclast  xmm5,xmm0
  000000000000037C: F3 C3              rep ret
  000000000000037E: 90                 nop
  000000000000037F: 90                 nop
_aesni_encrypt6:
  0000000000000380: 0F 10 01           movups      xmm0,xmmword ptr [rcx]
  0000000000000383: C1 E0 04           shl         eax,4
  0000000000000386: 0F 10 49 10        movups      xmm1,xmmword ptr [rcx+10h]
  000000000000038A: 0F 57 D0           xorps       xmm2,xmm0
  000000000000038D: 66 0F EF D8        pxor        xmm3,xmm0
  0000000000000391: 66 0F EF E0        pxor        xmm4,xmm0
  0000000000000395: 66 0F 38 DC D1     aesenc      xmm2,xmm1
  000000000000039A: 48 8D 4C 01 20     lea         rcx,[rcx+rax+20h]
  000000000000039F: 48 F7 D8           neg         rax
  00000000000003A2: 66 0F 38 DC D9     aesenc      xmm3,xmm1
  00000000000003A7: 66 0F EF E8        pxor        xmm5,xmm0
  00000000000003AB: 66 0F EF F0        pxor        xmm6,xmm0
  00000000000003AF: 66 0F 38 DC E1     aesenc      xmm4,xmm1
  00000000000003B4: 66 0F EF F8        pxor        xmm7,xmm0
  00000000000003B8: 0F 10 04 01        movups      xmm0,xmmword ptr [rcx+rax]
  00000000000003BC: 48 83 C0 10        add         rax,10h
  00000000000003C0: E9 1A 00 00 00     jmp         L$enc_loop6_enter
  00000000000003C5: 90                 nop
  00000000000003C6: 90                 nop
  00000000000003C7: 90                 nop
  00000000000003C8: 90                 nop
  00000000000003C9: 90                 nop
  00000000000003CA: 90                 nop
  00000000000003CB: 90                 nop
  00000000000003CC: 90                 nop
  00000000000003CD: 90                 nop
  00000000000003CE: 90                 nop
  00000000000003CF: 90                 nop
L$enc_loop6:
  00000000000003D0: 66 0F 38 DC D1     aesenc      xmm2,xmm1
  00000000000003D5: 66 0F 38 DC D9     aesenc      xmm3,xmm1
  00000000000003DA: 66 0F 38 DC E1     aesenc      xmm4,xmm1
L$enc_loop6_enter:
  00000000000003DF: 66 0F 38 DC E9     aesenc      xmm5,xmm1
  00000000000003E4: 66 0F 38 DC F1     aesenc      xmm6,xmm1
  00000000000003E9: 66 0F 38 DC F9     aesenc      xmm7,xmm1
  00000000000003EE: 0F 10 0C 01        movups      xmm1,xmmword ptr [rcx+rax]
  00000000000003F2: 48 83 C0 20        add         rax,20h
  00000000000003F6: 66 0F 38 DC D0     aesenc      xmm2,xmm0
  00000000000003FB: 66 0F 38 DC D8     aesenc      xmm3,xmm0
  0000000000000400: 66 0F 38 DC E0     aesenc      xmm4,xmm0
  0000000000000405: 66 0F 38 DC E8     aesenc      xmm5,xmm0
  000000000000040A: 66 0F 38 DC F0     aesenc      xmm6,xmm0
  000000000000040F: 66 0F 38 DC F8     aesenc      xmm7,xmm0
  0000000000000414: 0F 10 44 01 F0     movups      xmm0,xmmword ptr [rcx+rax-10h]
  0000000000000419: 0F 85 B1 FF FF FF  jne         L$enc_loop6
  000000000000041F: 66 0F 38 DC D1     aesenc      xmm2,xmm1
  0000000000000424: 66 0F 38 DC D9     aesenc      xmm3,xmm1
  0000000000000429: 66 0F 38 DC E1     aesenc      xmm4,xmm1
  000000000000042E: 66 0F 38 DC E9     aesenc      xmm5,xmm1
  0000000000000433: 66 0F 38 DC F1     aesenc      xmm6,xmm1
  0000000000000438: 66 0F 38 DC F9     aesenc      xmm7,xmm1
  000000000000043D: 66 0F 38 DD D0     aesenclast  xmm2,xmm0
  0000000000000442: 66 0F 38 DD D8     aesenclast  xmm3,xmm0
  0000000000000447: 66 0F 38 DD E0     aesenclast  xmm4,xmm0
  000000000000044C: 66 0F 38 DD E8     aesenclast  xmm5,xmm0
  0000000000000451: 66 0F 38 DD F0     aesenclast  xmm6,xmm0
  0000000000000456: 66 0F 38 DD F8     aesenclast  xmm7,xmm0
  000000000000045B: F3 C3              rep ret
  000000000000045D: 90                 nop
  000000000000045E: 90                 nop
  000000000000045F: 90                 nop
_aesni_decrypt6:
  0000000000000460: 0F 10 01           movups      xmm0,xmmword ptr [rcx]
  0000000000000463: C1 E0 04           shl         eax,4
  0000000000000466: 0F 10 49 10        movups      xmm1,xmmword ptr [rcx+10h]
  000000000000046A: 0F 57 D0           xorps       xmm2,xmm0
  000000000000046D: 66 0F EF D8        pxor        xmm3,xmm0
  0000000000000471: 66 0F EF E0        pxor        xmm4,xmm0
  0000000000000475: 66 0F 38 DE D1     aesdec      xmm2,xmm1
  000000000000047A: 48 8D 4C 01 20     lea         rcx,[rcx+rax+20h]
  000000000000047F: 48 F7 D8           neg         rax
  0000000000000482: 66 0F 38 DE D9     aesdec      xmm3,xmm1
  0000000000000487: 66 0F EF E8        pxor        xmm5,xmm0
  000000000000048B: 66 0F EF F0        pxor        xmm6,xmm0
  000000000000048F: 66 0F 38 DE E1     aesdec      xmm4,xmm1
  0000000000000494: 66 0F EF F8        pxor        xmm7,xmm0
  0000000000000498: 0F 10 04 01        movups      xmm0,xmmword ptr [rcx+rax]
  000000000000049C: 48 83 C0 10        add         rax,10h
  00000000000004A0: E9 1A 00 00 00     jmp         L$dec_loop6_enter
  00000000000004A5: 90                 nop
  00000000000004A6: 90                 nop
  00000000000004A7: 90                 nop
  00000000000004A8: 90                 nop
  00000000000004A9: 90                 nop
  00000000000004AA: 90                 nop
  00000000000004AB: 90                 nop
  00000000000004AC: 90                 nop
  00000000000004AD: 90                 nop
  00000000000004AE: 90                 nop
  00000000000004AF: 90                 nop
L$dec_loop6:
  00000000000004B0: 66 0F 38 DE D1     aesdec      xmm2,xmm1
  00000000000004B5: 66 0F 38 DE D9     aesdec      xmm3,xmm1
  00000000000004BA: 66 0F 38 DE E1     aesdec      xmm4,xmm1
L$dec_loop6_enter:
  00000000000004BF: 66 0F 38 DE E9     aesdec      xmm5,xmm1
  00000000000004C4: 66 0F 38 DE F1     aesdec      xmm6,xmm1
  00000000000004C9: 66 0F 38 DE F9     aesdec      xmm7,xmm1
  00000000000004CE: 0F 10 0C 01        movups      xmm1,xmmword ptr [rcx+rax]
  00000000000004D2: 48 83 C0 20        add         rax,20h
  00000000000004D6: 66 0F 38 DE D0     aesdec      xmm2,xmm0
  00000000000004DB: 66 0F 38 DE D8     aesdec      xmm3,xmm0
  00000000000004E0: 66 0F 38 DE E0     aesdec      xmm4,xmm0
  00000000000004E5: 66 0F 38 DE E8     aesdec      xmm5,xmm0
  00000000000004EA: 66 0F 38 DE F0     aesdec      xmm6,xmm0
  00000000000004EF: 66 0F 38 DE F8     aesdec      xmm7,xmm0
  00000000000004F4: 0F 10 44 01 F0     movups      xmm0,xmmword ptr [rcx+rax-10h]
  00000000000004F9: 0F 85 B1 FF FF FF  jne         L$dec_loop6
  00000000000004FF: 66 0F 38 DE D1     aesdec      xmm2,xmm1
  0000000000000504: 66 0F 38 DE D9     aesdec      xmm3,xmm1
  0000000000000509: 66 0F 38 DE E1     aesdec      xmm4,xmm1
  000000000000050E: 66 0F 38 DE E9     aesdec      xmm5,xmm1
  0000000000000513: 66 0F 38 DE F1     aesdec      xmm6,xmm1
  0000000000000518: 66 0F 38 DE F9     aesdec      xmm7,xmm1
  000000000000051D: 66 0F 38 DF D0     aesdeclast  xmm2,xmm0
  0000000000000522: 66 0F 38 DF D8     aesdeclast  xmm3,xmm0
  0000000000000527: 66 0F 38 DF E0     aesdeclast  xmm4,xmm0
  000000000000052C: 66 0F 38 DF E8     aesdeclast  xmm5,xmm0
  0000000000000531: 66 0F 38 DF F0     aesdeclast  xmm6,xmm0
  0000000000000536: 66 0F 38 DF F8     aesdeclast  xmm7,xmm0
  000000000000053B: F3 C3              rep ret
  000000000000053D: 90                 nop
  000000000000053E: 90                 nop
  000000000000053F: 90                 nop
_aesni_encrypt8:
  0000000000000540: 0F 10 01           movups      xmm0,xmmword ptr [rcx]
  0000000000000543: C1 E0 04           shl         eax,4
  0000000000000546: 0F 10 49 10        movups      xmm1,xmmword ptr [rcx+10h]
  000000000000054A: 0F 57 D0           xorps       xmm2,xmm0
  000000000000054D: 0F 57 D8           xorps       xmm3,xmm0
  0000000000000550: 66 0F EF E0        pxor        xmm4,xmm0
  0000000000000554: 66 0F EF E8        pxor        xmm5,xmm0
  0000000000000558: 66 0F EF F0        pxor        xmm6,xmm0
  000000000000055C: 48 8D 4C 01 20     lea         rcx,[rcx+rax+20h]
  0000000000000561: 48 F7 D8           neg         rax
  0000000000000564: 66 0F 38 DC D1     aesenc      xmm2,xmm1
  0000000000000569: 66 0F EF F8        pxor        xmm7,xmm0
  000000000000056D: 66 44 0F EF C0     pxor        xmm8,xmm0
  0000000000000572: 66 0F 38 DC D9     aesenc      xmm3,xmm1
  0000000000000577: 66 44 0F EF C8     pxor        xmm9,xmm0
  000000000000057C: 0F 10 04 01        movups      xmm0,xmmword ptr [rcx+rax]
  0000000000000580: 48 83 C0 10        add         rax,10h
  0000000000000584: E9 11 00 00 00     jmp         L$enc_loop8_inner
  0000000000000589: 90                 nop
  000000000000058A: 90                 nop
  000000000000058B: 90                 nop
  000000000000058C: 90                 nop
  000000000000058D: 90                 nop
  000000000000058E: 90                 nop
  000000000000058F: 90                 nop
L$enc_loop8:
  0000000000000590: 66 0F 38 DC D1     aesenc      xmm2,xmm1
  0000000000000595: 66 0F 38 DC D9     aesenc      xmm3,xmm1
L$enc_loop8_inner:
  000000000000059A: 66 0F 38 DC E1     aesenc      xmm4,xmm1
  000000000000059F: 66 0F 38 DC E9     aesenc      xmm5,xmm1
  00000000000005A4: 66 0F 38 DC F1     aesenc      xmm6,xmm1
  00000000000005A9: 66 0F 38 DC F9     aesenc      xmm7,xmm1
  00000000000005AE: 66 44 0F 38 DC C1  aesenc      xmm8,xmm1
  00000000000005B4: 66 44 0F 38 DC C9  aesenc      xmm9,xmm1
L$enc_loop8_enter:
  00000000000005BA: 0F 10 0C 01        movups      xmm1,xmmword ptr [rcx+rax]
  00000000000005BE: 48 83 C0 20        add         rax,20h
  00000000000005C2: 66 0F 38 DC D0     aesenc      xmm2,xmm0
  00000000000005C7: 66 0F 38 DC D8     aesenc      xmm3,xmm0
  00000000000005CC: 66 0F 38 DC E0     aesenc      xmm4,xmm0
  00000000000005D1: 66 0F 38 DC E8     aesenc      xmm5,xmm0
  00000000000005D6: 66 0F 38 DC F0     aesenc      xmm6,xmm0
  00000000000005DB: 66 0F 38 DC F8     aesenc      xmm7,xmm0
  00000000000005E0: 66 44 0F 38 DC C0  aesenc      xmm8,xmm0
  00000000000005E6: 66 44 0F 38 DC C8  aesenc      xmm9,xmm0
  00000000000005EC: 0F 10 44 01 F0     movups      xmm0,xmmword ptr [rcx+rax-10h]
  00000000000005F1: 0F 85 99 FF FF FF  jne         L$enc_loop8
  00000000000005F7: 66 0F 38 DC D1     aesenc      xmm2,xmm1
  00000000000005FC: 66 0F 38 DC D9     aesenc      xmm3,xmm1
  0000000000000601: 66 0F 38 DC E1     aesenc      xmm4,xmm1
  0000000000000606: 66 0F 38 DC E9     aesenc      xmm5,xmm1
  000000000000060B: 66 0F 38 DC F1     aesenc      xmm6,xmm1
  0000000000000610: 66 0F 38 DC F9     aesenc      xmm7,xmm1
  0000000000000615: 66 44 0F 38 DC C1  aesenc      xmm8,xmm1
  000000000000061B: 66 44 0F 38 DC C9  aesenc      xmm9,xmm1
  0000000000000621: 66 0F 38 DD D0     aesenclast  xmm2,xmm0
  0000000000000626: 66 0F 38 DD D8     aesenclast  xmm3,xmm0
  000000000000062B: 66 0F 38 DD E0     aesenclast  xmm4,xmm0
  0000000000000630: 66 0F 38 DD E8     aesenclast  xmm5,xmm0
  0000000000000635: 66 0F 38 DD F0     aesenclast  xmm6,xmm0
  000000000000063A: 66 0F 38 DD F8     aesenclast  xmm7,xmm0
  000000000000063F: 66 44 0F 38 DD C0  aesenclast  xmm8,xmm0
  0000000000000645: 66 44 0F 38 DD C8  aesenclast  xmm9,xmm0
  000000000000064B: F3 C3              rep ret
  000000000000064D: 90                 nop
  000000000000064E: 90                 nop
  000000000000064F: 90                 nop
_aesni_decrypt8:
  0000000000000650: 0F 10 01           movups      xmm0,xmmword ptr [rcx]
  0000000000000653: C1 E0 04           shl         eax,4
  0000000000000656: 0F 10 49 10        movups      xmm1,xmmword ptr [rcx+10h]
  000000000000065A: 0F 57 D0           xorps       xmm2,xmm0
  000000000000065D: 0F 57 D8           xorps       xmm3,xmm0
  0000000000000660: 66 0F EF E0        pxor        xmm4,xmm0
  0000000000000664: 66 0F EF E8        pxor        xmm5,xmm0
  0000000000000668: 66 0F EF F0        pxor        xmm6,xmm0
  000000000000066C: 48 8D 4C 01 20     lea         rcx,[rcx+rax+20h]
  0000000000000671: 48 F7 D8           neg         rax
  0000000000000674: 66 0F 38 DE D1     aesdec      xmm2,xmm1
  0000000000000679: 66 0F EF F8        pxor        xmm7,xmm0
  000000000000067D: 66 44 0F EF C0     pxor        xmm8,xmm0
  0000000000000682: 66 0F 38 DE D9     aesdec      xmm3,xmm1
  0000000000000687: 66 44 0F EF C8     pxor        xmm9,xmm0
  000000000000068C: 0F 10 04 01        movups      xmm0,xmmword ptr [rcx+rax]
  0000000000000690: 48 83 C0 10        add         rax,10h
  0000000000000694: E9 11 00 00 00     jmp         L$dec_loop8_inner
  0000000000000699: 90                 nop
  000000000000069A: 90                 nop
  000000000000069B: 90                 nop
  000000000000069C: 90                 nop
  000000000000069D: 90                 nop
  000000000000069E: 90                 nop
  000000000000069F: 90                 nop
L$dec_loop8:
  00000000000006A0: 66 0F 38 DE D1     aesdec      xmm2,xmm1
  00000000000006A5: 66 0F 38 DE D9     aesdec      xmm3,xmm1
L$dec_loop8_inner:
  00000000000006AA: 66 0F 38 DE E1     aesdec      xmm4,xmm1
  00000000000006AF: 66 0F 38 DE E9     aesdec      xmm5,xmm1
  00000000000006B4: 66 0F 38 DE F1     aesdec      xmm6,xmm1
  00000000000006B9: 66 0F 38 DE F9     aesdec      xmm7,xmm1
  00000000000006BE: 66 44 0F 38 DE C1  aesdec      xmm8,xmm1
  00000000000006C4: 66 44 0F 38 DE C9  aesdec      xmm9,xmm1
L$dec_loop8_enter:
  00000000000006CA: 0F 10 0C 01        movups      xmm1,xmmword ptr [rcx+rax]
  00000000000006CE: 48 83 C0 20        add         rax,20h
  00000000000006D2: 66 0F 38 DE D0     aesdec      xmm2,xmm0
  00000000000006D7: 66 0F 38 DE D8     aesdec      xmm3,xmm0
  00000000000006DC: 66 0F 38 DE E0     aesdec      xmm4,xmm0
  00000000000006E1: 66 0F 38 DE E8     aesdec      xmm5,xmm0
  00000000000006E6: 66 0F 38 DE F0     aesdec      xmm6,xmm0
  00000000000006EB: 66 0F 38 DE F8     aesdec      xmm7,xmm0
  00000000000006F0: 66 44 0F 38 DE C0  aesdec      xmm8,xmm0
  00000000000006F6: 66 44 0F 38 DE C8  aesdec      xmm9,xmm0
  00000000000006FC: 0F 10 44 01 F0     movups      xmm0,xmmword ptr [rcx+rax-10h]
  0000000000000701: 0F 85 99 FF FF FF  jne         L$dec_loop8
  0000000000000707: 66 0F 38 DE D1     aesdec      xmm2,xmm1
  000000000000070C: 66 0F 38 DE D9     aesdec      xmm3,xmm1
  0000000000000711: 66 0F 38 DE E1     aesdec      xmm4,xmm1
  0000000000000716: 66 0F 38 DE E9     aesdec      xmm5,xmm1
  000000000000071B: 66 0F 38 DE F1     aesdec      xmm6,xmm1
  0000000000000720: 66 0F 38 DE F9     aesdec      xmm7,xmm1
  0000000000000725: 66 44 0F 38 DE C1  aesdec      xmm8,xmm1
  000000000000072B: 66 44 0F 38 DE C9  aesdec      xmm9,xmm1
  0000000000000731: 66 0F 38 DF D0     aesdeclast  xmm2,xmm0
  0000000000000736: 66 0F 38 DF D8     aesdeclast  xmm3,xmm0
  000000000000073B: 66 0F 38 DF E0     aesdeclast  xmm4,xmm0
  0000000000000740: 66 0F 38 DF E8     aesdeclast  xmm5,xmm0
  0000000000000745: 66 0F 38 DF F0     aesdeclast  xmm6,xmm0
  000000000000074A: 66 0F 38 DF F8     aesdeclast  xmm7,xmm0
  000000000000074F: 66 44 0F 38 DF C0  aesdeclast  xmm8,xmm0
  0000000000000755: 66 44 0F 38 DF C8  aesdeclast  xmm9,xmm0
  000000000000075B: F3 C3              rep ret
  000000000000075D: 90                 nop
  000000000000075E: 90                 nop
  000000000000075F: 90                 nop
aws_lc_0_21_0_aes_hw_ecb_encrypt:
  0000000000000760: 48 89 7C 24 08     mov         qword ptr [rsp+8],rdi
  0000000000000765: 48 89 74 24 10     mov         qword ptr [rsp+10h],rsi
  000000000000076A: 48 89 E0           mov         rax,rsp
L$SEH_begin_aes_hw_ecb_encrypt:
  000000000000076D: 48 89 CF           mov         rdi,rcx
  0000000000000770: 48 89 D6           mov         rsi,rdx
  0000000000000773: 4C 89 C2           mov         rdx,r8
  0000000000000776: 4C 89 C9           mov         rcx,r9
  0000000000000779: 4C 8B 44 24 28     mov         r8,qword ptr [rsp+28h]
  000000000000077E: 48 8D 64 24 A8     lea         rsp,[rsp-58h]
  0000000000000783: 0F 29 34 24        movaps      xmmword ptr [rsp],xmm6
  0000000000000787: 0F 29 7C 24 10     movaps      xmmword ptr [rsp+10h],xmm7
  000000000000078C: 44 0F 29 44 24 20  movaps      xmmword ptr [rsp+20h],xmm8
  0000000000000792: 44 0F 29 4C 24 30  movaps      xmmword ptr [rsp+30h],xmm9
L$ecb_enc_body:
  0000000000000798: 48 83 E2 F0        and         rdx,0FFFFFFFFFFFFFFF0h
  000000000000079C: 0F 84 72 05 00 00  je          L$ecb_ret
  00000000000007A2: 8B 81 F0 00 00 00  mov         eax,dword ptr [rcx+0F0h]
  00000000000007A8: 0F 10 01           movups      xmm0,xmmword ptr [rcx]
  00000000000007AB: 49 89 CB           mov         r11,rcx
  00000000000007AE: 41 89 C2           mov         r10d,eax
  00000000000007B1: 45 85 C0           test        r8d,r8d
  00000000000007B4: 0F 84 66 02 00 00  je          L$ecb_decrypt
  00000000000007BA: 48 81 FA 80 00 00  cmp         rdx,80h
                    00
  00000000000007C1: 0F 82 F4 00 00 00  jb          L$ecb_enc_tail
  00000000000007C7: F3 0F 6F 17        movdqu      xmm2,xmmword ptr [rdi]
  00000000000007CB: F3 0F 6F 5F 10     movdqu      xmm3,xmmword ptr [rdi+10h]
  00000000000007D0: F3 0F 6F 67 20     movdqu      xmm4,xmmword ptr [rdi+20h]
  00000000000007D5: F3 0F 6F 6F 30     movdqu      xmm5,xmmword ptr [rdi+30h]
  00000000000007DA: F3 0F 6F 77 40     movdqu      xmm6,xmmword ptr [rdi+40h]
  00000000000007DF: F3 0F 6F 7F 50     movdqu      xmm7,xmmword ptr [rdi+50h]
  00000000000007E4: F3 44 0F 6F 47 60  movdqu      xmm8,xmmword ptr [rdi+60h]
  00000000000007EA: F3 44 0F 6F 4F 70  movdqu      xmm9,xmmword ptr [rdi+70h]
  00000000000007F0: 48 8D BF 80 00 00  lea         rdi,[rdi+80h]
                    00
  00000000000007F7: 48 81 EA 80 00 00  sub         rdx,80h
                    00
  00000000000007FE: E9 6B 00 00 00     jmp         L$ecb_enc_loop8_enter
  0000000000000803: 90                 nop
  0000000000000804: 90                 nop
  0000000000000805: 90                 nop
  0000000000000806: 90                 nop
  0000000000000807: 90                 nop
  0000000000000808: 90                 nop
  0000000000000809: 90                 nop
  000000000000080A: 90                 nop
  000000000000080B: 90                 nop
  000000000000080C: 90                 nop
  000000000000080D: 90                 nop
  000000000000080E: 90                 nop
  000000000000080F: 90                 nop
L$ecb_enc_loop8:
  0000000000000810: 0F 11 16           movups      xmmword ptr [rsi],xmm2
  0000000000000813: 4C 89 D9           mov         rcx,r11
  0000000000000816: F3 0F 6F 17        movdqu      xmm2,xmmword ptr [rdi]
  000000000000081A: 44 89 D0           mov         eax,r10d
  000000000000081D: 0F 11 5E 10        movups      xmmword ptr [rsi+10h],xmm3
  0000000000000821: F3 0F 6F 5F 10     movdqu      xmm3,xmmword ptr [rdi+10h]
  0000000000000826: 0F 11 66 20        movups      xmmword ptr [rsi+20h],xmm4
  000000000000082A: F3 0F 6F 67 20     movdqu      xmm4,xmmword ptr [rdi+20h]
  000000000000082F: 0F 11 6E 30        movups      xmmword ptr [rsi+30h],xmm5
  0000000000000833: F3 0F 6F 6F 30     movdqu      xmm5,xmmword ptr [rdi+30h]
  0000000000000838: 0F 11 76 40        movups      xmmword ptr [rsi+40h],xmm6
  000000000000083C: F3 0F 6F 77 40     movdqu      xmm6,xmmword ptr [rdi+40h]
  0000000000000841: 0F 11 7E 50        movups      xmmword ptr [rsi+50h],xmm7
  0000000000000845: F3 0F 6F 7F 50     movdqu      xmm7,xmmword ptr [rdi+50h]
  000000000000084A: 44 0F 11 46 60     movups      xmmword ptr [rsi+60h],xmm8
  000000000000084F: F3 44 0F 6F 47 60  movdqu      xmm8,xmmword ptr [rdi+60h]
  0000000000000855: 44 0F 11 4E 70     movups      xmmword ptr [rsi+70h],xmm9
  000000000000085A: 48 8D B6 80 00 00  lea         rsi,[rsi+80h]
                    00
  0000000000000861: F3 44 0F 6F 4F 70  movdqu      xmm9,xmmword ptr [rdi+70h]
  0000000000000867: 48 8D BF 80 00 00  lea         rdi,[rdi+80h]
                    00
L$ecb_enc_loop8_enter:
  000000000000086E: E8 CD FC FF FF     call        _aesni_encrypt8
  0000000000000873: 48 81 EA 80 00 00  sub         rdx,80h
                    00
  000000000000087A: 0F 83 90 FF FF FF  jae         L$ecb_enc_loop8
  0000000000000880: 0F 11 16           movups      xmmword ptr [rsi],xmm2
  0000000000000883: 4C 89 D9           mov         rcx,r11
  0000000000000886: 0F 11 5E 10        movups      xmmword ptr [rsi+10h],xmm3
  000000000000088A: 44 89 D0           mov         eax,r10d
  000000000000088D: 0F 11 66 20        movups      xmmword ptr [rsi+20h],xmm4
  0000000000000891: 0F 11 6E 30        movups      xmmword ptr [rsi+30h],xmm5
  0000000000000895: 0F 11 76 40        movups      xmmword ptr [rsi+40h],xmm6
  0000000000000899: 0F 11 7E 50        movups      xmmword ptr [rsi+50h],xmm7
  000000000000089D: 44 0F 11 46 60     movups      xmmword ptr [rsi+60h],xmm8
  00000000000008A2: 44 0F 11 4E 70     movups      xmmword ptr [rsi+70h],xmm9
  00000000000008A7: 48 8D B6 80 00 00  lea         rsi,[rsi+80h]
                    00
  00000000000008AE: 48 81 C2 80 00 00  add         rdx,80h
                    00
  00000000000008B5: 0F 84 59 04 00 00  je          L$ecb_ret
L$ecb_enc_tail:
  00000000000008BB: 0F 10 17           movups      xmm2,xmmword ptr [rdi]
  00000000000008BE: 48 83 FA 20        cmp         rdx,20h
  00000000000008C2: 0F 82 78 00 00 00  jb          L$ecb_enc_one
  00000000000008C8: 0F 10 5F 10        movups      xmm3,xmmword ptr [rdi+10h]
  00000000000008CC: 0F 84 9E 00 00 00  je          L$ecb_enc_two
  00000000000008D2: 0F 10 67 20        movups      xmm4,xmmword ptr [rdi+20h]
  00000000000008D6: 48 83 FA 40        cmp         rdx,40h
  00000000000008DA: 0F 82 B0 00 00 00  jb          L$ecb_enc_three
  00000000000008E0: 0F 10 6F 30        movups      xmm5,xmmword ptr [rdi+30h]
  00000000000008E4: 0F 84 C6 00 00 00  je          L$ecb_enc_four
  00000000000008EA: 0F 10 77 40        movups      xmm6,xmmword ptr [rdi+40h]
  00000000000008EE: 48 83 FA 60        cmp         rdx,60h
  00000000000008F2: 0F 82 D8 00 00 00  jb          L$ecb_enc_five
  00000000000008F8: 0F 10 7F 50        movups      xmm7,xmmword ptr [rdi+50h]
  00000000000008FC: 0F 84 EE 00 00 00  je          L$ecb_enc_six
  0000000000000902: F3 44 0F 6F 47 60  movdqu      xmm8,xmmword ptr [rdi+60h]
  0000000000000908: 45 0F 57 C9        xorps       xmm9,xmm9
  000000000000090C: E8 2F FC FF FF     call        _aesni_encrypt8
  0000000000000911: 0F 11 16           movups      xmmword ptr [rsi],xmm2
  0000000000000914: 0F 11 5E 10        movups      xmmword ptr [rsi+10h],xmm3
  0000000000000918: 0F 11 66 20        movups      xmmword ptr [rsi+20h],xmm4
  000000000000091C: 0F 11 6E 30        movups      xmmword ptr [rsi+30h],xmm5
  0000000000000920: 0F 11 76 40        movups      xmmword ptr [rsi+40h],xmm6
  0000000000000924: 0F 11 7E 50        movups      xmmword ptr [rsi+50h],xmm7
  0000000000000928: 44 0F 11 46 60     movups      xmmword ptr [rsi+60h],xmm8
  000000000000092D: E9 E2 03 00 00     jmp         L$ecb_ret
  0000000000000932: 90                 nop
  0000000000000933: 90                 nop
  0000000000000934: 90                 nop
  0000000000000935: 90                 nop
  0000000000000936: 90                 nop
  0000000000000937: 90                 nop
  0000000000000938: 90                 nop
  0000000000000939: 90                 nop
  000000000000093A: 90                 nop
  000000000000093B: 90                 nop
  000000000000093C: 90                 nop
  000000000000093D: 90                 nop
  000000000000093E: 90                 nop
  000000000000093F: 90                 nop
L$ecb_enc_one:
  0000000000000940: 0F 10 01           movups      xmm0,xmmword ptr [rcx]
  0000000000000943: 0F 10 49 10        movups      xmm1,xmmword ptr [rcx+10h]
  0000000000000947: 48 8D 49 20        lea         rcx,[rcx+20h]
  000000000000094B: 0F 57 D0           xorps       xmm2,xmm0
L$oop_enc1_3:
  000000000000094E: 66 0F 38 DC D1     aesenc      xmm2,xmm1
  0000000000000953: FF C8              dec         eax
  0000000000000955: 0F 10 09           movups      xmm1,xmmword ptr [rcx]
  0000000000000958: 48 8D 49 10        lea         rcx,[rcx+10h]
  000000000000095C: 0F 85 EC FF FF FF  jne         L$oop_enc1_3
  0000000000000962: 66 0F 38 DD D1     aesenclast  xmm2,xmm1
  0000000000000967: 0F 11 16           movups      xmmword ptr [rsi],xmm2
  000000000000096A: E9 A5 03 00 00     jmp         L$ecb_ret
  000000000000096F: 90                 nop
L$ecb_enc_two:
  0000000000000970: E8 2B F7 FF FF     call        _aesni_encrypt2
  0000000000000975: 0F 11 16           movups      xmmword ptr [rsi],xmm2
  0000000000000978: 0F 11 5E 10        movups      xmmword ptr [rsi+10h],xmm3
  000000000000097C: E9 93 03 00 00     jmp         L$ecb_ret
  0000000000000981: 90                 nop
  0000000000000982: 90                 nop
  0000000000000983: 90                 nop
  0000000000000984: 90                 nop
  0000000000000985: 90                 nop
  0000000000000986: 90                 nop
  0000000000000987: 90                 nop
  0000000000000988: 90                 nop
  0000000000000989: 90                 nop
  000000000000098A: 90                 nop
  000000000000098B: 90                 nop
  000000000000098C: 90                 nop
  000000000000098D: 90                 nop
  000000000000098E: 90                 nop
  000000000000098F: 90                 nop
L$ecb_enc_three:
  0000000000000990: E8 CB F7 FF FF     call        _aesni_encrypt3
  0000000000000995: 0F 11 16           movups      xmmword ptr [rsi],xmm2
  0000000000000998: 0F 11 5E 10        movups      xmmword ptr [rsi+10h],xmm3
  000000000000099C: 0F 11 66 20        movups      xmmword ptr [rsi+20h],xmm4
  00000000000009A0: E9 6F 03 00 00     jmp         L$ecb_ret
  00000000000009A5: 90                 nop
  00000000000009A6: 90                 nop
  00000000000009A7: 90                 nop
  00000000000009A8: 90                 nop
  00000000000009A9: 90                 nop
  00000000000009AA: 90                 nop
  00000000000009AB: 90                 nop
  00000000000009AC: 90                 nop
  00000000000009AD: 90                 nop
  00000000000009AE: 90                 nop
  00000000000009AF: 90                 nop
L$ecb_enc_four:
  00000000000009B0: E8 AB F8 FF FF     call        _aesni_encrypt4
  00000000000009B5: 0F 11 16           movups      xmmword ptr [rsi],xmm2
  00000000000009B8: 0F 11 5E 10        movups      xmmword ptr [rsi+10h],xmm3
  00000000000009BC: 0F 11 66 20        movups      xmmword ptr [rsi+20h],xmm4
  00000000000009C0: 0F 11 6E 30        movups      xmmword ptr [rsi+30h],xmm5
  00000000000009C4: E9 4B 03 00 00     jmp         L$ecb_ret
  00000000000009C9: 90                 nop
  00000000000009CA: 90                 nop
  00000000000009CB: 90                 nop
  00000000000009CC: 90                 nop
  00000000000009CD: 90                 nop
  00000000000009CE: 90                 nop
  00000000000009CF: 90                 nop
L$ecb_enc_five:
  00000000000009D0: 0F 57 FF           xorps       xmm7,xmm7
  00000000000009D3: E8 A8 F9 FF FF     call        _aesni_encrypt6
  00000000000009D8: 0F 11 16           movups      xmmword ptr [rsi],xmm2
  00000000000009DB: 0F 11 5E 10        movups      xmmword ptr [rsi+10h],xmm3
  00000000000009DF: 0F 11 66 20        movups      xmmword ptr [rsi+20h],xmm4
  00000000000009E3: 0F 11 6E 30        movups      xmmword ptr [rsi+30h],xmm5
  00000000000009E7: 0F 11 76 40        movups      xmmword ptr [rsi+40h],xmm6
  00000000000009EB: E9 24 03 00 00     jmp         L$ecb_ret
L$ecb_enc_six:
  00000000000009F0: E8 8B F9 FF FF     call        _aesni_encrypt6
  00000000000009F5: 0F 11 16           movups      xmmword ptr [rsi],xmm2
  00000000000009F8: 0F 11 5E 10        movups      xmmword ptr [rsi+10h],xmm3
  00000000000009FC: 0F 11 66 20        movups      xmmword ptr [rsi+20h],xmm4
  0000000000000A00: 0F 11 6E 30        movups      xmmword ptr [rsi+30h],xmm5
  0000000000000A04: 0F 11 76 40        movups      xmmword ptr [rsi+40h],xmm6
  0000000000000A08: 0F 11 7E 50        movups      xmmword ptr [rsi+50h],xmm7
  0000000000000A0C: E9 03 03 00 00     jmp         L$ecb_ret
  0000000000000A11: 90                 nop
  0000000000000A12: 90                 nop
  0000000000000A13: 90                 nop
  0000000000000A14: 90                 nop
  0000000000000A15: 90                 nop
  0000000000000A16: 90                 nop
  0000000000000A17: 90                 nop
  0000000000000A18: 90                 nop
  0000000000000A19: 90                 nop
  0000000000000A1A: 90                 nop
  0000000000000A1B: 90                 nop
  0000000000000A1C: 90                 nop
  0000000000000A1D: 90                 nop
  0000000000000A1E: 90                 nop
  0000000000000A1F: 90                 nop
L$ecb_decrypt:
  0000000000000A20: 48 81 FA 80 00 00  cmp         rdx,80h
                    00
  0000000000000A27: 0F 82 14 01 00 00  jb          L$ecb_dec_tail
  0000000000000A2D: F3 0F 6F 17        movdqu      xmm2,xmmword ptr [rdi]
  0000000000000A31: F3 0F 6F 5F 10     movdqu      xmm3,xmmword ptr [rdi+10h]
  0000000000000A36: F3 0F 6F 67 20     movdqu      xmm4,xmmword ptr [rdi+20h]
  0000000000000A3B: F3 0F 6F 6F 30     movdqu      xmm5,xmmword ptr [rdi+30h]
  0000000000000A40: F3 0F 6F 77 40     movdqu      xmm6,xmmword ptr [rdi+40h]
  0000000000000A45: F3 0F 6F 7F 50     movdqu      xmm7,xmmword ptr [rdi+50h]
  0000000000000A4A: F3 44 0F 6F 47 60  movdqu      xmm8,xmmword ptr [rdi+60h]
  0000000000000A50: F3 44 0F 6F 4F 70  movdqu      xmm9,xmmword ptr [rdi+70h]
  0000000000000A56: 48 8D BF 80 00 00  lea         rdi,[rdi+80h]
                    00
  0000000000000A5D: 48 81 EA 80 00 00  sub         rdx,80h
                    00
  0000000000000A64: E9 65 00 00 00     jmp         L$ecb_dec_loop8_enter
  0000000000000A69: 90                 nop
  0000000000000A6A: 90                 nop
  0000000000000A6B: 90                 nop
  0000000000000A6C: 90                 nop
  0000000000000A6D: 90                 nop
  0000000000000A6E: 90                 nop
  0000000000000A6F: 90                 nop
L$ecb_dec_loop8:
  0000000000000A70: 0F 11 16           movups      xmmword ptr [rsi],xmm2
  0000000000000A73: 4C 89 D9           mov         rcx,r11
  0000000000000A76: F3 0F 6F 17        movdqu      xmm2,xmmword ptr [rdi]
  0000000000000A7A: 44 89 D0           mov         eax,r10d
  0000000000000A7D: 0F 11 5E 10        movups      xmmword ptr [rsi+10h],xmm3
  0000000000000A81: F3 0F 6F 5F 10     movdqu      xmm3,xmmword ptr [rdi+10h]
  0000000000000A86: 0F 11 66 20        movups      xmmword ptr [rsi+20h],xmm4
  0000000000000A8A: F3 0F 6F 67 20     movdqu      xmm4,xmmword ptr [rdi+20h]
  0000000000000A8F: 0F 11 6E 30        movups      xmmword ptr [rsi+30h],xmm5
  0000000000000A93: F3 0F 6F 6F 30     movdqu      xmm5,xmmword ptr [rdi+30h]
  0000000000000A98: 0F 11 76 40        movups      xmmword ptr [rsi+40h],xmm6
  0000000000000A9C: F3 0F 6F 77 40     movdqu      xmm6,xmmword ptr [rdi+40h]
  0000000000000AA1: 0F 11 7E 50        movups      xmmword ptr [rsi+50h],xmm7
  0000000000000AA5: F3 0F 6F 7F 50     movdqu      xmm7,xmmword ptr [rdi+50h]
  0000000000000AAA: 44 0F 11 46 60     movups      xmmword ptr [rsi+60h],xmm8
  0000000000000AAF: F3 44 0F 6F 47 60  movdqu      xmm8,xmmword ptr [rdi+60h]
  0000000000000AB5: 44 0F 11 4E 70     movups      xmmword ptr [rsi+70h],xmm9
  0000000000000ABA: 48 8D B6 80 00 00  lea         rsi,[rsi+80h]
                    00
  0000000000000AC1: F3 44 0F 6F 4F 70  movdqu      xmm9,xmmword ptr [rdi+70h]
  0000000000000AC7: 48 8D BF 80 00 00  lea         rdi,[rdi+80h]
                    00
L$ecb_dec_loop8_enter:
  0000000000000ACE: E8 7D FB FF FF     call        _aesni_decrypt8
  0000000000000AD3: 41 0F 10 03        movups      xmm0,xmmword ptr [r11]
  0000000000000AD7: 48 81 EA 80 00 00  sub         rdx,80h
                    00
  0000000000000ADE: 0F 83 8C FF FF FF  jae         L$ecb_dec_loop8
  0000000000000AE4: 0F 11 16           movups      xmmword ptr [rsi],xmm2
  0000000000000AE7: 66 0F EF D2        pxor        xmm2,xmm2
  0000000000000AEB: 4C 89 D9           mov         rcx,r11
  0000000000000AEE: 0F 11 5E 10        movups      xmmword ptr [rsi+10h],xmm3
  0000000000000AF2: 66 0F EF DB        pxor        xmm3,xmm3
  0000000000000AF6: 44 89 D0           mov         eax,r10d
  0000000000000AF9: 0F 11 66 20        movups      xmmword ptr [rsi+20h],xmm4
  0000000000000AFD: 66 0F EF E4        pxor        xmm4,xmm4
  0000000000000B01: 0F 11 6E 30        movups      xmmword ptr [rsi+30h],xmm5
  0000000000000B05: 66 0F EF ED        pxor        xmm5,xmm5
  0000000000000B09: 0F 11 76 40        movups      xmmword ptr [rsi+40h],xmm6
  0000000000000B0D: 66 0F EF F6        pxor        xmm6,xmm6
  0000000000000B11: 0F 11 7E 50        movups      xmmword ptr [rsi+50h],xmm7
  0000000000000B15: 66 0F EF FF        pxor        xmm7,xmm7
  0000000000000B19: 44 0F 11 46 60     movups      xmmword ptr [rsi+60h],xmm8
  0000000000000B1E: 66 45 0F EF C0     pxor        xmm8,xmm8
  0000000000000B23: 44 0F 11 4E 70     movups      xmmword ptr [rsi+70h],xmm9
  0000000000000B28: 66 45 0F EF C9     pxor        xmm9,xmm9
  0000000000000B2D: 48 8D B6 80 00 00  lea         rsi,[rsi+80h]
                    00
  0000000000000B34: 48 81 C2 80 00 00  add         rdx,80h
                    00
  0000000000000B3B: 0F 84 D3 01 00 00  je          L$ecb_ret
L$ecb_dec_tail:
  0000000000000B41: 0F 10 17           movups      xmm2,xmmword ptr [rdi]
  0000000000000B44: 48 83 FA 20        cmp         rdx,20h
  0000000000000B48: 0F 82 92 00 00 00  jb          L$ecb_dec_one
  0000000000000B4E: 0F 10 5F 10        movups      xmm3,xmmword ptr [rdi+10h]
  0000000000000B52: 0F 84 C8 00 00 00  je          L$ecb_dec_two
  0000000000000B58: 0F 10 67 20        movups      xmm4,xmmword ptr [rdi+20h]
  0000000000000B5C: 48 83 FA 40        cmp         rdx,40h
  0000000000000B60: 0F 82 DA 00 00 00  jb          L$ecb_dec_three
  0000000000000B66: 0F 10 6F 30        movups      xmm5,xmmword ptr [rdi+30h]
  0000000000000B6A: 0F 84 00 01 00 00  je          L$ecb_dec_four
  0000000000000B70: 0F 10 77 40        movups      xmm6,xmmword ptr [rdi+40h]
  0000000000000B74: 48 83 FA 60        cmp         rdx,60h
  0000000000000B78: 0F 82 22 01 00 00  jb          L$ecb_dec_five
  0000000000000B7E: 0F 10 7F 50        movups      xmm7,xmmword ptr [rdi+50h]
  0000000000000B82: 0F 84 58 01 00 00  je          L$ecb_dec_six
  0000000000000B88: 44 0F 10 47 60     movups      xmm8,xmmword ptr [rdi+60h]
  0000000000000B8D: 0F 10 01           movups      xmm0,xmmword ptr [rcx]
  0000000000000B90: 45 0F 57 C9        xorps       xmm9,xmm9
  0000000000000B94: E8 B7 FA FF FF     call        _aesni_decrypt8
  0000000000000B99: 0F 11 16           movups      xmmword ptr [rsi],xmm2
  0000000000000B9C: 66 0F EF D2        pxor        xmm2,xmm2
  0000000000000BA0: 0F 11 5E 10        movups      xmmword ptr [rsi+10h],xmm3
  0000000000000BA4: 66 0F EF DB        pxor        xmm3,xmm3
  0000000000000BA8: 0F 11 66 20        movups      xmmword ptr [rsi+20h],xmm4
  0000000000000BAC: 66 0F EF E4        pxor        xmm4,xmm4
  0000000000000BB0: 0F 11 6E 30        movups      xmmword ptr [rsi+30h],xmm5
  0000000000000BB4: 66 0F EF ED        pxor        xmm5,xmm5
  0000000000000BB8: 0F 11 76 40        movups      xmmword ptr [rsi+40h],xmm6
  0000000000000BBC: 66 0F EF F6        pxor        xmm6,xmm6
  0000000000000BC0: 0F 11 7E 50        movups      xmmword ptr [rsi+50h],xmm7
  0000000000000BC4: 66 0F EF FF        pxor        xmm7,xmm7
  0000000000000BC8: 44 0F 11 46 60     movups      xmmword ptr [rsi+60h],xmm8
  0000000000000BCD: 66 45 0F EF C0     pxor        xmm8,xmm8
  0000000000000BD2: 66 45 0F EF C9     pxor        xmm9,xmm9
  0000000000000BD7: E9 38 01 00 00     jmp         L$ecb_ret
  0000000000000BDC: 90                 nop
  0000000000000BDD: 90                 nop
  0000000000000BDE: 90                 nop
  0000000000000BDF: 90                 nop
L$ecb_dec_one:
  0000000000000BE0: 0F 10 01           movups      xmm0,xmmword ptr [rcx]
  0000000000000BE3: 0F 10 49 10        movups      xmm1,xmmword ptr [rcx+10h]
  0000000000000BE7: 48 8D 49 20        lea         rcx,[rcx+20h]
  0000000000000BEB: 0F 57 D0           xorps       xmm2,xmm0
L$oop_dec1_4:
  0000000000000BEE: 66 0F 38 DE D1     aesdec      xmm2,xmm1
  0000000000000BF3: FF C8              dec         eax
  0000000000000BF5: 0F 10 09           movups      xmm1,xmmword ptr [rcx]
  0000000000000BF8: 48 8D 49 10        lea         rcx,[rcx+10h]
  0000000000000BFC: 0F 85 EC FF FF FF  jne         L$oop_dec1_4
  0000000000000C02: 66 0F 38 DF D1     aesdeclast  xmm2,xmm1
  0000000000000C07: 0F 11 16           movups      xmmword ptr [rsi],xmm2
  0000000000000C0A: 66 0F EF D2        pxor        xmm2,xmm2
  0000000000000C0E: E9 01 01 00 00     jmp         L$ecb_ret
  0000000000000C13: 90                 nop
  0000000000000C14: 90                 nop
  0000000000000C15: 90                 nop
  0000000000000C16: 90                 nop
  0000000000000C17: 90                 nop
  0000000000000C18: 90                 nop
  0000000000000C19: 90                 nop
  0000000000000C1A: 90                 nop
  0000000000000C1B: 90                 nop
  0000000000000C1C: 90                 nop
  0000000000000C1D: 90                 nop
  0000000000000C1E: 90                 nop
  0000000000000C1F: 90                 nop
L$ecb_dec_two:
  0000000000000C20: E8 DB F4 FF FF     call        _aesni_decrypt2
  0000000000000C25: 0F 11 16           movups      xmmword ptr [rsi],xmm2
  0000000000000C28: 66 0F EF D2        pxor        xmm2,xmm2
  0000000000000C2C: 0F 11 5E 10        movups      xmmword ptr [rsi+10h],xmm3
  0000000000000C30: 66 0F EF DB        pxor        xmm3,xmm3
  0000000000000C34: E9 DB 00 00 00     jmp         L$ecb_ret
  0000000000000C39: 90                 nop
  0000000000000C3A: 90                 nop
  0000000000000C3B: 90                 nop
  0000000000000C3C: 90                 nop
  0000000000000C3D: 90                 nop
  0000000000000C3E: 90                 nop
  0000000000000C3F: 90                 nop
L$ecb_dec_three:
  0000000000000C40: E8 9B F5 FF FF     call        _aesni_decrypt3
  0000000000000C45: 0F 11 16           movups      xmmword ptr [rsi],xmm2
  0000000000000C48: 66 0F EF D2        pxor        xmm2,xmm2
  0000000000000C4C: 0F 11 5E 10        movups      xmmword ptr [rsi+10h],xmm3
  0000000000000C50: 66 0F EF DB        pxor        xmm3,xmm3
  0000000000000C54: 0F 11 66 20        movups      xmmword ptr [rsi+20h],xmm4
  0000000000000C58: 66 0F EF E4        pxor        xmm4,xmm4
  0000000000000C5C: E9 B3 00 00 00     jmp         L$ecb_ret
  0000000000000C61: 90                 nop
  0000000000000C62: 90                 nop
  0000000000000C63: 90                 nop
  0000000000000C64: 90                 nop
  0000000000000C65: 90                 nop
  0000000000000C66: 90                 nop
  0000000000000C67: 90                 nop
  0000000000000C68: 90                 nop
  0000000000000C69: 90                 nop
  0000000000000C6A: 90                 nop
  0000000000000C6B: 90                 nop
  0000000000000C6C: 90                 nop
  0000000000000C6D: 90                 nop
  0000000000000C6E: 90                 nop
  0000000000000C6F: 90                 nop
L$ecb_dec_four:
  0000000000000C70: E8 7B F6 FF FF     call        _aesni_decrypt4
  0000000000000C75: 0F 11 16           movups      xmmword ptr [rsi],xmm2
  0000000000000C78: 66 0F EF D2        pxor        xmm2,xmm2
  0000000000000C7C: 0F 11 5E 10        movups      xmmword ptr [rsi+10h],xmm3
  0000000000000C80: 66 0F EF DB        pxor        xmm3,xmm3
  0000000000000C84: 0F 11 66 20        movups      xmmword ptr [rsi+20h],xmm4
  0000000000000C88: 66 0F EF E4        pxor        xmm4,xmm4
  0000000000000C8C: 0F 11 6E 30        movups      xmmword ptr [rsi+30h],xmm5
  0000000000000C90: 66 0F EF ED        pxor        xmm5,xmm5
  0000000000000C94: E9 7B 00 00 00     jmp         L$ecb_ret
  0000000000000C99: 90                 nop
  0000000000000C9A: 90                 nop
  0000000000000C9B: 90                 nop
  0000000000000C9C: 90                 nop
  0000000000000C9D: 90                 nop
  0000000000000C9E: 90                 nop
  0000000000000C9F: 90                 nop
L$ecb_dec_five:
  0000000000000CA0: 0F 57 FF           xorps       xmm7,xmm7
  0000000000000CA3: E8 B8 F7 FF FF     call        _aesni_decrypt6
  0000000000000CA8: 0F 11 16           movups      xmmword ptr [rsi],xmm2
  0000000000000CAB: 66 0F EF D2        pxor        xmm2,xmm2
  0000000000000CAF: 0F 11 5E 10        movups      xmmword ptr [rsi+10h],xmm3
  0000000000000CB3: 66 0F EF DB        pxor        xmm3,xmm3
  0000000000000CB7: 0F 11 66 20        movups      xmmword ptr [rsi+20h],xmm4
  0000000000000CBB: 66 0F EF E4        pxor        xmm4,xmm4
  0000000000000CBF: 0F 11 6E 30        movups      xmmword ptr [rsi+30h],xmm5
  0000000000000CC3: 66 0F EF ED        pxor        xmm5,xmm5
  0000000000000CC7: 0F 11 76 40        movups      xmmword ptr [rsi+40h],xmm6
  0000000000000CCB: 66 0F EF F6        pxor        xmm6,xmm6
  0000000000000CCF: 66 0F EF FF        pxor        xmm7,xmm7
  0000000000000CD3: E9 3C 00 00 00     jmp         L$ecb_ret
  0000000000000CD8: 90                 nop
  0000000000000CD9: 90                 nop
  0000000000000CDA: 90                 nop
  0000000000000CDB: 90                 nop
  0000000000000CDC: 90                 nop
  0000000000000CDD: 90                 nop
  0000000000000CDE: 90                 nop
  0000000000000CDF: 90                 nop
L$ecb_dec_six:
  0000000000000CE0: E8 7B F7 FF FF     call        _aesni_decrypt6
  0000000000000CE5: 0F 11 16           movups      xmmword ptr [rsi],xmm2
  0000000000000CE8: 66 0F EF D2        pxor        xmm2,xmm2
  0000000000000CEC: 0F 11 5E 10        movups      xmmword ptr [rsi+10h],xmm3
  0000000000000CF0: 66 0F EF DB        pxor        xmm3,xmm3
  0000000000000CF4: 0F 11 66 20        movups      xmmword ptr [rsi+20h],xmm4
  0000000000000CF8: 66 0F EF E4        pxor        xmm4,xmm4
  0000000000000CFC: 0F 11 6E 30        movups      xmmword ptr [rsi+30h],xmm5
  0000000000000D00: 66 0F EF ED        pxor        xmm5,xmm5
  0000000000000D04: 0F 11 76 40        movups      xmmword ptr [rsi+40h],xmm6
  0000000000000D08: 66 0F EF F6        pxor        xmm6,xmm6
  0000000000000D0C: 0F 11 7E 50        movups      xmmword ptr [rsi+50h],xmm7
  0000000000000D10: 66 0F EF FF        pxor        xmm7,xmm7
L$ecb_ret:
  0000000000000D14: 0F 57 C0           xorps       xmm0,xmm0
  0000000000000D17: 66 0F EF C9        pxor        xmm1,xmm1
  0000000000000D1B: 0F 28 34 24        movaps      xmm6,xmmword ptr [rsp]
  0000000000000D1F: 0F 29 04 24        movaps      xmmword ptr [rsp],xmm0
  0000000000000D23: 0F 28 7C 24 10     movaps      xmm7,xmmword ptr [rsp+10h]
  0000000000000D28: 0F 29 44 24 10     movaps      xmmword ptr [rsp+10h],xmm0
  0000000000000D2D: 44 0F 28 44 24 20  movaps      xmm8,xmmword ptr [rsp+20h]
  0000000000000D33: 0F 29 44 24 20     movaps      xmmword ptr [rsp+20h],xmm0
  0000000000000D38: 44 0F 28 4C 24 30  movaps      xmm9,xmmword ptr [rsp+30h]
  0000000000000D3E: 0F 29 44 24 30     movaps      xmmword ptr [rsp+30h],xmm0
  0000000000000D43: 48 8D 64 24 58     lea         rsp,[rsp+58h]
L$ecb_enc_ret:
  0000000000000D48: 48 8B 7C 24 08     mov         rdi,qword ptr [rsp+8]
  0000000000000D4D: 48 8B 74 24 10     mov         rsi,qword ptr [rsp+10h]
  0000000000000D52: F3 C3              rep ret
L$SEH_end_aes_hw_ecb_encrypt:
  0000000000000D54: 90                 nop
  0000000000000D55: 90                 nop
  0000000000000D56: 90                 nop
  0000000000000D57: 90                 nop
  0000000000000D58: 90                 nop
  0000000000000D59: 90                 nop
  0000000000000D5A: 90                 nop
  0000000000000D5B: 90                 nop
  0000000000000D5C: 90                 nop
  0000000000000D5D: 90                 nop
  0000000000000D5E: 90                 nop
  0000000000000D5F: 90                 nop
aws_lc_0_21_0_aes_hw_ctr32_encrypt_blocks:
  0000000000000D60: 48 89 7C 24 08     mov         qword ptr [rsp+8],rdi
  0000000000000D65: 48 89 74 24 10     mov         qword ptr [rsp+10h],rsi
  0000000000000D6A: 48 89 E0           mov         rax,rsp
L$SEH_begin_aes_hw_ctr32_encrypt_blocks:
  0000000000000D6D: 48 89 CF           mov         rdi,rcx
  0000000000000D70: 48 89 D6           mov         rsi,rdx
  0000000000000D73: 4C 89 C2           mov         rdx,r8
  0000000000000D76: 4C 89 C9           mov         rcx,r9
  0000000000000D79: 4C 8B 44 24 28     mov         r8,qword ptr [rsp+28h]
  0000000000000D7E: 48 83 FA 01        cmp         rdx,1
  0000000000000D82: 0F 85 58 00 00 00  jne         L$ctr32_bulk
  0000000000000D88: 41 0F 10 10        movups      xmm2,xmmword ptr [r8]
  0000000000000D8C: 0F 10 1F           movups      xmm3,xmmword ptr [rdi]
  0000000000000D8F: 8B 91 F0 00 00 00  mov         edx,dword ptr [rcx+0F0h]
  0000000000000D95: 0F 10 01           movups      xmm0,xmmword ptr [rcx]
  0000000000000D98: 0F 10 49 10        movups      xmm1,xmmword ptr [rcx+10h]
  0000000000000D9C: 48 8D 49 20        lea         rcx,[rcx+20h]
  0000000000000DA0: 0F 57 D0           xorps       xmm2,xmm0
L$oop_enc1_5:
  0000000000000DA3: 66 0F 38 DC D1     aesenc      xmm2,xmm1
  0000000000000DA8: FF CA              dec         edx
  0000000000000DAA: 0F 10 09           movups      xmm1,xmmword ptr [rcx]
  0000000000000DAD: 48 8D 49 10        lea         rcx,[rcx+10h]
  0000000000000DB1: 0F 85 EC FF FF FF  jne         L$oop_enc1_5
  0000000000000DB7: 66 0F 38 DD D1     aesenclast  xmm2,xmm1
  0000000000000DBC: 66 0F EF C0        pxor        xmm0,xmm0
  0000000000000DC0: 66 0F EF C9        pxor        xmm1,xmm1
  0000000000000DC4: 0F 57 D3           xorps       xmm2,xmm3
  0000000000000DC7: 66 0F EF DB        pxor        xmm3,xmm3
  0000000000000DCB: 0F 11 16           movups      xmmword ptr [rsi],xmm2
  0000000000000DCE: 0F 57 D2           xorps       xmm2,xmm2
  0000000000000DD1: E9 89 09 00 00     jmp         L$ctr32_epilogue
  0000000000000DD6: 90                 nop
  0000000000000DD7: 90                 nop
  0000000000000DD8: 90                 nop
  0000000000000DD9: 90                 nop
  0000000000000DDA: 90                 nop
  0000000000000DDB: 90                 nop
  0000000000000DDC: 90                 nop
  0000000000000DDD: 90                 nop
  0000000000000DDE: 90                 nop
  0000000000000DDF: 90                 nop
L$ctr32_bulk:
  0000000000000DE0: 4C 8D 1C 24        lea         r11,[rsp]
  0000000000000DE4: 55                 push        rbp
  0000000000000DE5: 48 81 EC 20 01 00  sub         rsp,120h
                    00
  0000000000000DEC: 48 83 E4 F0        and         rsp,0FFFFFFFFFFFFFFF0h
  0000000000000DF0: 41 0F 29 B3 58 FF  movaps      xmmword ptr [r11-0A8h],xmm6
                    FF FF
  0000000000000DF8: 41 0F 29 BB 68 FF  movaps      xmmword ptr [r11-98h],xmm7
                    FF FF
  0000000000000E00: 45 0F 29 83 78 FF  movaps      xmmword ptr [r11-88h],xmm8
                    FF FF
  0000000000000E08: 45 0F 29 4B 88     movaps      xmmword ptr [r11-78h],xmm9
  0000000000000E0D: 45 0F 29 53 98     movaps      xmmword ptr [r11-68h],xmm10
  0000000000000E12: 45 0F 29 5B A8     movaps      xmmword ptr [r11-58h],xmm11
  0000000000000E17: 45 0F 29 63 B8     movaps      xmmword ptr [r11-48h],xmm12
  0000000000000E1C: 45 0F 29 6B C8     movaps      xmmword ptr [r11-38h],xmm13
  0000000000000E21: 45 0F 29 73 D8     movaps      xmmword ptr [r11-28h],xmm14
  0000000000000E26: 45 0F 29 7B E8     movaps      xmmword ptr [r11-18h],xmm15
L$ctr32_body:
  0000000000000E2B: F3 41 0F 6F 10     movdqu      xmm2,xmmword ptr [r8]
  0000000000000E30: F3 0F 6F 01        movdqu      xmm0,xmmword ptr [rcx]
  0000000000000E34: 45 8B 40 0C        mov         r8d,dword ptr [r8+0Ch]
  0000000000000E38: 66 0F EF D0        pxor        xmm2,xmm0
  0000000000000E3C: 8B 69 0C           mov         ebp,dword ptr [rcx+0Ch]
  0000000000000E3F: 66 0F 7F 14 24     movdqa      xmmword ptr [rsp],xmm2
  0000000000000E44: 41 0F C8           bswap       r8d
  0000000000000E47: 66 0F 6F DA        movdqa      xmm3,xmm2
  0000000000000E4B: 66 0F 6F E2        movdqa      xmm4,xmm2
  0000000000000E4F: 66 0F 6F EA        movdqa      xmm5,xmm2
  0000000000000E53: 66 0F 7F 54 24 40  movdqa      xmmword ptr [rsp+40h],xmm2
  0000000000000E59: 66 0F 7F 54 24 50  movdqa      xmmword ptr [rsp+50h],xmm2
  0000000000000E5F: 66 0F 7F 54 24 60  movdqa      xmmword ptr [rsp+60h],xmm2
  0000000000000E65: 49 89 D2           mov         r10,rdx
  0000000000000E68: 66 0F 7F 54 24 70  movdqa      xmmword ptr [rsp+70h],xmm2
  0000000000000E6E: 49 8D 40 01        lea         rax,[r8+1]
  0000000000000E72: 49 8D 50 02        lea         rdx,[r8+2]
  0000000000000E76: 0F C8              bswap       eax
  0000000000000E78: 0F CA              bswap       edx
  0000000000000E7A: 31 E8              xor         eax,ebp
  0000000000000E7C: 31 EA              xor         edx,ebp
  0000000000000E7E: 66 0F 3A 22 D8 03  pinsrd      xmm3,eax,3
  0000000000000E84: 49 8D 40 03        lea         rax,[r8+3]
  0000000000000E88: 66 0F 7F 5C 24 10  movdqa      xmmword ptr [rsp+10h],xmm3
  0000000000000E8E: 66 0F 3A 22 E2 03  pinsrd      xmm4,edx,3
  0000000000000E94: 0F C8              bswap       eax
  0000000000000E96: 4C 89 D2           mov         rdx,r10
  0000000000000E99: 4D 8D 50 04        lea         r10,[r8+4]
  0000000000000E9D: 66 0F 7F 64 24 20  movdqa      xmmword ptr [rsp+20h],xmm4
  0000000000000EA3: 31 E8              xor         eax,ebp
  0000000000000EA5: 41 0F CA           bswap       r10d
  0000000000000EA8: 66 0F 3A 22 E8 03  pinsrd      xmm5,eax,3
  0000000000000EAE: 41 31 EA           xor         r10d,ebp
  0000000000000EB1: 66 0F 7F 6C 24 30  movdqa      xmmword ptr [rsp+30h],xmm5
  0000000000000EB7: 4D 8D 48 05        lea         r9,[r8+5]
  0000000000000EBB: 44 89 54 24 4C     mov         dword ptr [rsp+4Ch],r10d
  0000000000000EC0: 41 0F C9           bswap       r9d
  0000000000000EC3: 4D 8D 50 06        lea         r10,[r8+6]
  0000000000000EC7: 8B 81 F0 00 00 00  mov         eax,dword ptr [rcx+0F0h]
  0000000000000ECD: 41 31 E9           xor         r9d,ebp
  0000000000000ED0: 41 0F CA           bswap       r10d
  0000000000000ED3: 44 89 4C 24 5C     mov         dword ptr [rsp+5Ch],r9d
  0000000000000ED8: 41 31 EA           xor         r10d,ebp
  0000000000000EDB: 4D 8D 48 07        lea         r9,[r8+7]
  0000000000000EDF: 44 89 54 24 6C     mov         dword ptr [rsp+6Ch],r10d
  0000000000000EE4: 41 0F C9           bswap       r9d
  0000000000000EE7: 4C 8D 15 00 00 00  lea         r10,[aws_lc_0_21_0_OPENSSL_ia32cap_P]
                    00
  0000000000000EEE: 45 8B 52 04        mov         r10d,dword ptr [r10+4]
  0000000000000EF2: 41 31 E9           xor         r9d,ebp
  0000000000000EF5: 41 81 E2 00 00 40  and         r10d,4400000h
                    04
  0000000000000EFC: 44 89 4C 24 7C     mov         dword ptr [rsp+7Ch],r9d
  0000000000000F01: 0F 10 49 10        movups      xmm1,xmmword ptr [rcx+10h]
  0000000000000F05: 66 0F 6F 74 24 40  movdqa      xmm6,xmmword ptr [rsp+40h]
  0000000000000F0B: 66 0F 6F 7C 24 50  movdqa      xmm7,xmmword ptr [rsp+50h]
  0000000000000F11: 48 83 FA 08        cmp         rdx,8
  0000000000000F15: 0F 82 CD 05 00 00  jb          L$ctr32_tail
  0000000000000F1B: 48 83 EA 06        sub         rdx,6
  0000000000000F1F: 41 81 FA 00 00 40  cmp         r10d,400000h
                    00
  0000000000000F26: 0F 84 14 00 00 00  je          L$ctr32_6x
  0000000000000F2C: 48 8D 89 80 00 00  lea         rcx,[rcx+80h]
                    00
  0000000000000F33: 48 83 EA 02        sub         rdx,2
  0000000000000F37: E9 84 01 00 00     jmp         L$ctr32_loop8
  0000000000000F3C: 90                 nop
  0000000000000F3D: 90                 nop
  0000000000000F3E: 90                 nop
  0000000000000F3F: 90                 nop
L$ctr32_6x:
  0000000000000F40: C1 E0 04           shl         eax,4
  0000000000000F43: 41 BA 30 00 00 00  mov         r10d,30h
  0000000000000F49: 0F CD              bswap       ebp
  0000000000000F4B: 48 8D 4C 01 20     lea         rcx,[rcx+rax+20h]
  0000000000000F50: 49 29 C2           sub         r10,rax
  0000000000000F53: E9 08 00 00 00     jmp         L$ctr32_loop6
  0000000000000F58: 90                 nop
  0000000000000F59: 90                 nop
  0000000000000F5A: 90                 nop
  0000000000000F5B: 90                 nop
  0000000000000F5C: 90                 nop
  0000000000000F5D: 90                 nop
  0000000000000F5E: 90                 nop
  0000000000000F5F: 90                 nop
L$ctr32_loop6:
  0000000000000F60: 41 83 C0 06        add         r8d,6
  0000000000000F64: 42 0F 10 44 11 D0  movups      xmm0,xmmword ptr [rcx+r10-30h]
  0000000000000F6A: 66 0F 38 DC D1     aesenc      xmm2,xmm1
  0000000000000F6F: 44 89 C0           mov         eax,r8d
  0000000000000F72: 31 E8              xor         eax,ebp
  0000000000000F74: 66 0F 38 DC D9     aesenc      xmm3,xmm1
  0000000000000F79: 0F 38 F1 44 24 0C  movbe       dword ptr [rsp+0Ch],eax
  0000000000000F7F: 41 8D 40 01        lea         eax,[r8+1]
  0000000000000F83: 66 0F 38 DC E1     aesenc      xmm4,xmm1
  0000000000000F88: 31 E8              xor         eax,ebp
  0000000000000F8A: 0F 38 F1 44 24 1C  movbe       dword ptr [rsp+1Ch],eax
  0000000000000F90: 66 0F 38 DC E9     aesenc      xmm5,xmm1
  0000000000000F95: 41 8D 40 02        lea         eax,[r8+2]
  0000000000000F99: 31 E8              xor         eax,ebp
  0000000000000F9B: 66 0F 38 DC F1     aesenc      xmm6,xmm1
  0000000000000FA0: 0F 38 F1 44 24 2C  movbe       dword ptr [rsp+2Ch],eax
  0000000000000FA6: 41 8D 40 03        lea         eax,[r8+3]
  0000000000000FAA: 66 0F 38 DC F9     aesenc      xmm7,xmm1
  0000000000000FAF: 42 0F 10 4C 11 E0  movups      xmm1,xmmword ptr [rcx+r10-20h]
  0000000000000FB5: 31 E8              xor         eax,ebp
  0000000000000FB7: 66 0F 38 DC D0     aesenc      xmm2,xmm0
  0000000000000FBC: 0F 38 F1 44 24 3C  movbe       dword ptr [rsp+3Ch],eax
  0000000000000FC2: 41 8D 40 04        lea         eax,[r8+4]
  0000000000000FC6: 66 0F 38 DC D8     aesenc      xmm3,xmm0
  0000000000000FCB: 31 E8              xor         eax,ebp
  0000000000000FCD: 0F 38 F1 44 24 4C  movbe       dword ptr [rsp+4Ch],eax
  0000000000000FD3: 66 0F 38 DC E0     aesenc      xmm4,xmm0
  0000000000000FD8: 41 8D 40 05        lea         eax,[r8+5]
  0000000000000FDC: 31 E8              xor         eax,ebp
  0000000000000FDE: 66 0F 38 DC E8     aesenc      xmm5,xmm0
  0000000000000FE3: 0F 38 F1 44 24 5C  movbe       dword ptr [rsp+5Ch],eax
  0000000000000FE9: 4C 89 D0           mov         rax,r10
  0000000000000FEC: 66 0F 38 DC F0     aesenc      xmm6,xmm0
  0000000000000FF1: 66 0F 38 DC F8     aesenc      xmm7,xmm0
  0000000000000FF6: 42 0F 10 44 11 F0  movups      xmm0,xmmword ptr [rcx+r10-10h]
  0000000000000FFC: E8 CF F3 FF FF     call        L$enc_loop6
  0000000000001001: F3 44 0F 6F 07     movdqu      xmm8,xmmword ptr [rdi]
  0000000000001006: F3 44 0F 6F 4F 10  movdqu      xmm9,xmmword ptr [rdi+10h]
  000000000000100C: F3 44 0F 6F 57 20  movdqu      xmm10,xmmword ptr [rdi+20h]
  0000000000001012: F3 44 0F 6F 5F 30  movdqu      xmm11,xmmword ptr [rdi+30h]
  0000000000001018: F3 44 0F 6F 67 40  movdqu      xmm12,xmmword ptr [rdi+40h]
  000000000000101E: F3 44 0F 6F 6F 50  movdqu      xmm13,xmmword ptr [rdi+50h]
  0000000000001024: 48 8D 7F 60        lea         rdi,[rdi+60h]
  0000000000001028: 42 0F 10 4C 11 C0  movups      xmm1,xmmword ptr [rcx+r10-40h]
  000000000000102E: 66 44 0F EF C2     pxor        xmm8,xmm2
  0000000000001033: 0F 28 14 24        movaps      xmm2,xmmword ptr [rsp]
  0000000000001037: 66 44 0F EF CB     pxor        xmm9,xmm3
  000000000000103C: 0F 28 5C 24 10     movaps      xmm3,xmmword ptr [rsp+10h]
  0000000000001041: 66 44 0F EF D4     pxor        xmm10,xmm4
  0000000000001046: 0F 28 64 24 20     movaps      xmm4,xmmword ptr [rsp+20h]
  000000000000104B: 66 44 0F EF DD     pxor        xmm11,xmm5
  0000000000001050: 0F 28 6C 24 30     movaps      xmm5,xmmword ptr [rsp+30h]
  0000000000001055: 66 44 0F EF E6     pxor        xmm12,xmm6
  000000000000105A: 0F 28 74 24 40     movaps      xmm6,xmmword ptr [rsp+40h]
  000000000000105F: 66 44 0F EF EF     pxor        xmm13,xmm7
  0000000000001064: 0F 28 7C 24 50     movaps      xmm7,xmmword ptr [rsp+50h]
  0000000000001069: F3 44 0F 7F 06     movdqu      xmmword ptr [rsi],xmm8
  000000000000106E: F3 44 0F 7F 4E 10  movdqu      xmmword ptr [rsi+10h],xmm9
  0000000000001074: F3 44 0F 7F 56 20  movdqu      xmmword ptr [rsi+20h],xmm10
  000000000000107A: F3 44 0F 7F 5E 30  movdqu      xmmword ptr [rsi+30h],xmm11
  0000000000001080: F3 44 0F 7F 66 40  movdqu      xmmword ptr [rsi+40h],xmm12
  0000000000001086: F3 44 0F 7F 6E 50  movdqu      xmmword ptr [rsi+50h],xmm13
  000000000000108C: 48 8D 76 60        lea         rsi,[rsi+60h]
  0000000000001090: 48 83 EA 06        sub         rdx,6
  0000000000001094: 0F 83 C6 FE FF FF  jae         L$ctr32_loop6
  000000000000109A: 48 83 C2 06        add         rdx,6
  000000000000109E: 0F 84 FE 05 00 00  je          L$ctr32_done
  00000000000010A4: 41 8D 42 D0        lea         eax,[r10-30h]
  00000000000010A8: 4A 8D 4C 11 B0     lea         rcx,[rcx+r10-50h]
  00000000000010AD: F7 D8              neg         eax
  00000000000010AF: C1 E8 04           shr         eax,4
  00000000000010B2: E9 31 04 00 00     jmp         L$ctr32_tail
  00000000000010B7: 90                 nop
  00000000000010B8: 90                 nop
  00000000000010B9: 90                 nop
  00000000000010BA: 90                 nop
  00000000000010BB: 90                 nop
  00000000000010BC: 90                 nop
  00000000000010BD: 90                 nop
  00000000000010BE: 90                 nop
  00000000000010BF: 90                 nop
L$ctr32_loop8:
  00000000000010C0: 41 83 C0 08        add         r8d,8
  00000000000010C4: 66 44 0F 6F 44 24  movdqa      xmm8,xmmword ptr [rsp+60h]
                    60
  00000000000010CB: 66 0F 38 DC D1     aesenc      xmm2,xmm1
  00000000000010D0: 45 89 C1           mov         r9d,r8d
  00000000000010D3: 66 44 0F 6F 4C 24  movdqa      xmm9,xmmword ptr [rsp+70h]
                    70
  00000000000010DA: 66 0F 38 DC D9     aesenc      xmm3,xmm1
  00000000000010DF: 41 0F C9           bswap       r9d
  00000000000010E2: 0F 10 41 A0        movups      xmm0,xmmword ptr [rcx-60h]
  00000000000010E6: 66 0F 38 DC E1     aesenc      xmm4,xmm1
  00000000000010EB: 41 31 E9           xor         r9d,ebp
  00000000000010EE: 90                 nop
  00000000000010EF: 66 0F 38 DC E9     aesenc      xmm5,xmm1
  00000000000010F4: 44 89 4C 24 0C     mov         dword ptr [rsp+0Ch],r9d
  00000000000010F9: 4D 8D 48 01        lea         r9,[r8+1]
  00000000000010FD: 66 0F 38 DC F1     aesenc      xmm6,xmm1
  0000000000001102: 66 0F 38 DC F9     aesenc      xmm7,xmm1
  0000000000001107: 66 44 0F 38 DC C1  aesenc      xmm8,xmm1
  000000000000110D: 66 44 0F 38 DC C9  aesenc      xmm9,xmm1
  0000000000001113: 0F 10 49 B0        movups      xmm1,xmmword ptr [rcx-50h]
  0000000000001117: 41 0F C9           bswap       r9d
  000000000000111A: 66 0F 38 DC D0     aesenc      xmm2,xmm0
  000000000000111F: 66 0F 38 DC D8     aesenc      xmm3,xmm0
  0000000000001124: 41 31 E9           xor         r9d,ebp
  0000000000001127: 66 90              nop
  0000000000001129: 66 0F 38 DC E0     aesenc      xmm4,xmm0
  000000000000112E: 66 0F 38 DC E8     aesenc      xmm5,xmm0
  0000000000001133: 44 89 4C 24 1C     mov         dword ptr [rsp+1Ch],r9d
  0000000000001138: 4D 8D 48 02        lea         r9,[r8+2]
  000000000000113C: 66 0F 38 DC F0     aesenc      xmm6,xmm0
  0000000000001141: 66 0F 38 DC F8     aesenc      xmm7,xmm0
  0000000000001146: 66 44 0F 38 DC C0  aesenc      xmm8,xmm0
  000000000000114C: 66 44 0F 38 DC C8  aesenc      xmm9,xmm0
  0000000000001152: 0F 10 41 C0        movups      xmm0,xmmword ptr [rcx-40h]
  0000000000001156: 41 0F C9           bswap       r9d
  0000000000001159: 66 0F 38 DC D1     aesenc      xmm2,xmm1
  000000000000115E: 66 0F 38 DC D9     aesenc      xmm3,xmm1
  0000000000001163: 41 31 E9           xor         r9d,ebp
  0000000000001166: 66 90              nop
  0000000000001168: 66 0F 38 DC E1     aesenc      xmm4,xmm1
  000000000000116D: 66 0F 38 DC E9     aesenc      xmm5,xmm1
  0000000000001172: 44 89 4C 24 2C     mov         dword ptr [rsp+2Ch],r9d
  0000000000001177: 4D 8D 48 03        lea         r9,[r8+3]
  000000000000117B: 66 0F 38 DC F1     aesenc      xmm6,xmm1
  0000000000001180: 66 0F 38 DC F9     aesenc      xmm7,xmm1
  0000000000001185: 66 44 0F 38 DC C1  aesenc      xmm8,xmm1
  000000000000118B: 66 44 0F 38 DC C9  aesenc      xmm9,xmm1
  0000000000001191: 0F 10 49 D0        movups      xmm1,xmmword ptr [rcx-30h]
  0000000000001195: 41 0F C9           bswap       r9d
  0000000000001198: 66 0F 38 DC D0     aesenc      xmm2,xmm0
  000000000000119D: 66 0F 38 DC D8     aesenc      xmm3,xmm0
  00000000000011A2: 41 31 E9           xor         r9d,ebp
  00000000000011A5: 66 90              nop
  00000000000011A7: 66 0F 38 DC E0     aesenc      xmm4,xmm0
  00000000000011AC: 66 0F 38 DC E8     aesenc      xmm5,xmm0
  00000000000011B1: 44 89 4C 24 3C     mov         dword ptr [rsp+3Ch],r9d
  00000000000011B6: 4D 8D 48 04        lea         r9,[r8+4]
  00000000000011BA: 66 0F 38 DC F0     aesenc      xmm6,xmm0
  00000000000011BF: 66 0F 38 DC F8     aesenc      xmm7,xmm0
  00000000000011C4: 66 44 0F 38 DC C0  aesenc      xmm8,xmm0
  00000000000011CA: 66 44 0F 38 DC C8  aesenc      xmm9,xmm0
  00000000000011D0: 0F 10 41 E0        movups      xmm0,xmmword ptr [rcx-20h]
  00000000000011D4: 41 0F C9           bswap       r9d
  00000000000011D7: 66 0F 38 DC D1     aesenc      xmm2,xmm1
  00000000000011DC: 66 0F 38 DC D9     aesenc      xmm3,xmm1
  00000000000011E1: 41 31 E9           xor         r9d,ebp
  00000000000011E4: 66 90              nop
  00000000000011E6: 66 0F 38 DC E1     aesenc      xmm4,xmm1
  00000000000011EB: 66 0F 38 DC E9     aesenc      xmm5,xmm1
  00000000000011F0: 44 89 4C 24 4C     mov         dword ptr [rsp+4Ch],r9d
  00000000000011F5: 4D 8D 48 05        lea         r9,[r8+5]
  00000000000011F9: 66 0F 38 DC F1     aesenc      xmm6,xmm1
  00000000000011FE: 66 0F 38 DC F9     aesenc      xmm7,xmm1
  0000000000001203: 66 44 0F 38 DC C1  aesenc      xmm8,xmm1
  0000000000001209: 66 44 0F 38 DC C9  aesenc      xmm9,xmm1
  000000000000120F: 0F 10 49 F0        movups      xmm1,xmmword ptr [rcx-10h]
  0000000000001213: 41 0F C9           bswap       r9d
  0000000000001216: 66 0F 38 DC D0     aesenc      xmm2,xmm0
  000000000000121B: 66 0F 38 DC D8     aesenc      xmm3,xmm0
  0000000000001220: 41 31 E9           xor         r9d,ebp
  0000000000001223: 66 90              nop
  0000000000001225: 66 0F 38 DC E0     aesenc      xmm4,xmm0
  000000000000122A: 66 0F 38 DC E8     aesenc      xmm5,xmm0
  000000000000122F: 44 89 4C 24 5C     mov         dword ptr [rsp+5Ch],r9d
  0000000000001234: 4D 8D 48 06        lea         r9,[r8+6]
  0000000000001238: 66 0F 38 DC F0     aesenc      xmm6,xmm0
  000000000000123D: 66 0F 38 DC F8     aesenc      xmm7,xmm0
  0000000000001242: 66 44 0F 38 DC C0  aesenc      xmm8,xmm0
  0000000000001248: 66 44 0F 38 DC C8  aesenc      xmm9,xmm0
  000000000000124E: 0F 10 01           movups      xmm0,xmmword ptr [rcx]
  0000000000001251: 41 0F C9           bswap       r9d
  0000000000001254: 66 0F 38 DC D1     aesenc      xmm2,xmm1
  0000000000001259: 66 0F 38 DC D9     aesenc      xmm3,xmm1
  000000000000125E: 41 31 E9           xor         r9d,ebp
  0000000000001261: 66 90              nop
  0000000000001263: 66 0F 38 DC E1     aesenc      xmm4,xmm1
  0000000000001268: 66 0F 38 DC E9     aesenc      xmm5,xmm1
  000000000000126D: 44 89 4C 24 6C     mov         dword ptr [rsp+6Ch],r9d
  0000000000001272: 4D 8D 48 07        lea         r9,[r8+7]
  0000000000001276: 66 0F 38 DC F1     aesenc      xmm6,xmm1
  000000000000127B: 66 0F 38 DC F9     aesenc      xmm7,xmm1
  0000000000001280: 66 44 0F 38 DC C1  aesenc      xmm8,xmm1
  0000000000001286: 66 44 0F 38 DC C9  aesenc      xmm9,xmm1
  000000000000128C: 0F 10 49 10        movups      xmm1,xmmword ptr [rcx+10h]
  0000000000001290: 41 0F C9           bswap       r9d
  0000000000001293: 66 0F 38 DC D0     aesenc      xmm2,xmm0
  0000000000001298: 66 0F 38 DC D8     aesenc      xmm3,xmm0
  000000000000129D: 66 0F 38 DC E0     aesenc      xmm4,xmm0
  00000000000012A2: 41 31 E9           xor         r9d,ebp
  00000000000012A5: F3 44 0F 6F 17     movdqu      xmm10,xmmword ptr [rdi]
  00000000000012AA: 66 0F 38 DC E8     aesenc      xmm5,xmm0
  00000000000012AF: 44 89 4C 24 7C     mov         dword ptr [rsp+7Ch],r9d
  00000000000012B4: 83 F8 0B           cmp         eax,0Bh
  00000000000012B7: 66 0F 38 DC F0     aesenc      xmm6,xmm0
  00000000000012BC: 66 0F 38 DC F8     aesenc      xmm7,xmm0
  00000000000012C1: 66 44 0F 38 DC C0  aesenc      xmm8,xmm0
  00000000000012C7: 66 44 0F 38 DC C8  aesenc      xmm9,xmm0
  00000000000012CD: 0F 10 41 20        movups      xmm0,xmmword ptr [rcx+20h]
  00000000000012D1: 0F 82 C9 00 00 00  jb          L$ctr32_enc_done
  00000000000012D7: 66 0F 38 DC D1     aesenc      xmm2,xmm1
  00000000000012DC: 66 0F 38 DC D9     aesenc      xmm3,xmm1
  00000000000012E1: 66 0F 38 DC E1     aesenc      xmm4,xmm1
  00000000000012E6: 66 0F 38 DC E9     aesenc      xmm5,xmm1
  00000000000012EB: 66 0F 38 DC F1     aesenc      xmm6,xmm1
  00000000000012F0: 66 0F 38 DC F9     aesenc      xmm7,xmm1
  00000000000012F5: 66 44 0F 38 DC C1  aesenc      xmm8,xmm1
  00000000000012FB: 66 44 0F 38 DC C9  aesenc      xmm9,xmm1
  0000000000001301: 0F 10 49 30        movups      xmm1,xmmword ptr [rcx+30h]
  0000000000001305: 66 0F 38 DC D0     aesenc      xmm2,xmm0
  000000000000130A: 66 0F 38 DC D8     aesenc      xmm3,xmm0
  000000000000130F: 66 0F 38 DC E0     aesenc      xmm4,xmm0
  0000000000001314: 66 0F 38 DC E8     aesenc      xmm5,xmm0
  0000000000001319: 66 0F 38 DC F0     aesenc      xmm6,xmm0
  000000000000131E: 66 0F 38 DC F8     aesenc      xmm7,xmm0
  0000000000001323: 66 44 0F 38 DC C0  aesenc      xmm8,xmm0
  0000000000001329: 66 44 0F 38 DC C8  aesenc      xmm9,xmm0
  000000000000132F: 0F 10 41 40        movups      xmm0,xmmword ptr [rcx+40h]
  0000000000001333: 0F 84 67 00 00 00  je          L$ctr32_enc_done
  0000000000001339: 66 0F 38 DC D1     aesenc      xmm2,xmm1
  000000000000133E: 66 0F 38 DC D9     aesenc      xmm3,xmm1
  0000000000001343: 66 0F 38 DC E1     aesenc      xmm4,xmm1
  0000000000001348: 66 0F 38 DC E9     aesenc      xmm5,xmm1
  000000000000134D: 66 0F 38 DC F1     aesenc      xmm6,xmm1
  0000000000001352: 66 0F 38 DC F9     aesenc      xmm7,xmm1
  0000000000001357: 66 44 0F 38 DC C1  aesenc      xmm8,xmm1
  000000000000135D: 66 44 0F 38 DC C9  aesenc      xmm9,xmm1
  0000000000001363: 0F 10 49 50        movups      xmm1,xmmword ptr [rcx+50h]
  0000000000001367: 66 0F 38 DC D0     aesenc      xmm2,xmm0
  000000000000136C: 66 0F 38 DC D8     aesenc      xmm3,xmm0
  0000000000001371: 66 0F 38 DC E0     aesenc      xmm4,xmm0
  0000000000001376: 66 0F 38 DC E8     aesenc      xmm5,xmm0
  000000000000137B: 66 0F 38 DC F0     aesenc      xmm6,xmm0
  0000000000001380: 66 0F 38 DC F8     aesenc      xmm7,xmm0
  0000000000001385: 66 44 0F 38 DC C0  aesenc      xmm8,xmm0
  000000000000138B: 66 44 0F 38 DC C8  aesenc      xmm9,xmm0
  0000000000001391: 0F 10 41 60        movups      xmm0,xmmword ptr [rcx+60h]
  0000000000001395: E9 06 00 00 00     jmp         L$ctr32_enc_done
  000000000000139A: 90                 nop
  000000000000139B: 90                 nop
  000000000000139C: 90                 nop
  000000000000139D: 90                 nop
  000000000000139E: 90                 nop
  000000000000139F: 90                 nop
L$ctr32_enc_done:
  00000000000013A0: F3 44 0F 6F 5F 10  movdqu      xmm11,xmmword ptr [rdi+10h]
  00000000000013A6: 66 44 0F EF D0     pxor        xmm10,xmm0
  00000000000013AB: F3 44 0F 6F 67 20  movdqu      xmm12,xmmword ptr [rdi+20h]
  00000000000013B1: 66 44 0F EF D8     pxor        xmm11,xmm0
  00000000000013B6: F3 44 0F 6F 6F 30  movdqu      xmm13,xmmword ptr [rdi+30h]
  00000000000013BC: 66 44 0F EF E0     pxor        xmm12,xmm0
  00000000000013C1: F3 44 0F 6F 77 40  movdqu      xmm14,xmmword ptr [rdi+40h]
  00000000000013C7: 66 44 0F EF E8     pxor        xmm13,xmm0
  00000000000013CC: F3 44 0F 6F 7F 50  movdqu      xmm15,xmmword ptr [rdi+50h]
  00000000000013D2: 66 44 0F EF F0     pxor        xmm14,xmm0
  00000000000013D7: 0F 18 8F C0 01 00  prefetcht0  [rdi+1C0h]
                    00
  00000000000013DE: 0F 18 8F 00 02 00  prefetcht0  [rdi+200h]
                    00
  00000000000013E5: 66 44 0F EF F8     pxor        xmm15,xmm0
  00000000000013EA: 66 0F 38 DC D1     aesenc      xmm2,xmm1
  00000000000013EF: 66 0F 38 DC D9     aesenc      xmm3,xmm1
  00000000000013F4: 66 0F 38 DC E1     aesenc      xmm4,xmm1
  00000000000013F9: 66 0F 38 DC E9     aesenc      xmm5,xmm1
  00000000000013FE: 66 0F 38 DC F1     aesenc      xmm6,xmm1
  0000000000001403: 66 0F 38 DC F9     aesenc      xmm7,xmm1
  0000000000001408: 66 44 0F 38 DC C1  aesenc      xmm8,xmm1
  000000000000140E: 66 44 0F 38 DC C9  aesenc      xmm9,xmm1
  0000000000001414: F3 0F 6F 4F 60     movdqu      xmm1,xmmword ptr [rdi+60h]
  0000000000001419: 48 8D BF 80 00 00  lea         rdi,[rdi+80h]
                    00
  0000000000001420: 66 41 0F 38 DD D2  aesenclast  xmm2,xmm10
  0000000000001426: 66 0F EF C8        pxor        xmm1,xmm0
  000000000000142A: F3 44 0F 6F 57 F0  movdqu      xmm10,xmmword ptr [rdi-10h]
  0000000000001430: 66 41 0F 38 DD DB  aesenclast  xmm3,xmm11
  0000000000001436: 66 44 0F EF D0     pxor        xmm10,xmm0
  000000000000143B: 66 44 0F 6F 1C 24  movdqa      xmm11,xmmword ptr [rsp]
  0000000000001441: 66 41 0F 38 DD E4  aesenclast  xmm4,xmm12
  0000000000001447: 66 41 0F 38 DD ED  aesenclast  xmm5,xmm13
  000000000000144D: 66 44 0F 6F 64 24  movdqa      xmm12,xmmword ptr [rsp+10h]
                    10
  0000000000001454: 66 44 0F 6F 6C 24  movdqa      xmm13,xmmword ptr [rsp+20h]
                    20
  000000000000145B: 66 41 0F 38 DD F6  aesenclast  xmm6,xmm14
  0000000000001461: 66 41 0F 38 DD FF  aesenclast  xmm7,xmm15
  0000000000001467: 66 44 0F 6F 74 24  movdqa      xmm14,xmmword ptr [rsp+30h]
                    30
  000000000000146E: 66 44 0F 6F 7C 24  movdqa      xmm15,xmmword ptr [rsp+40h]
                    40
  0000000000001475: 66 44 0F 38 DD C1  aesenclast  xmm8,xmm1
  000000000000147B: 66 0F 6F 44 24 50  movdqa      xmm0,xmmword ptr [rsp+50h]
  0000000000001481: 0F 10 49 90        movups      xmm1,xmmword ptr [rcx-70h]
  0000000000001485: 66 45 0F 38 DD CA  aesenclast  xmm9,xmm10
  000000000000148B: 0F 11 16           movups      xmmword ptr [rsi],xmm2
  000000000000148E: 66 41 0F 6F D3     movdqa      xmm2,xmm11
  0000000000001493: 0F 11 5E 10        movups      xmmword ptr [rsi+10h],xmm3
  0000000000001497: 66 41 0F 6F DC     movdqa      xmm3,xmm12
  000000000000149C: 0F 11 66 20        movups      xmmword ptr [rsi+20h],xmm4
  00000000000014A0: 66 41 0F 6F E5     movdqa      xmm4,xmm13
  00000000000014A5: 0F 11 6E 30        movups      xmmword ptr [rsi+30h],xmm5
  00000000000014A9: 66 41 0F 6F EE     movdqa      xmm5,xmm14
  00000000000014AE: 0F 11 76 40        movups      xmmword ptr [rsi+40h],xmm6
  00000000000014B2: 66 41 0F 6F F7     movdqa      xmm6,xmm15
  00000000000014B7: 0F 11 7E 50        movups      xmmword ptr [rsi+50h],xmm7
  00000000000014BB: 66 0F 6F F8        movdqa      xmm7,xmm0
  00000000000014BF: 44 0F 11 46 60     movups      xmmword ptr [rsi+60h],xmm8
  00000000000014C4: 44 0F 11 4E 70     movups      xmmword ptr [rsi+70h],xmm9
  00000000000014C9: 48 8D B6 80 00 00  lea         rsi,[rsi+80h]
                    00
  00000000000014D0: 48 83 EA 08        sub         rdx,8
  00000000000014D4: 0F 83 E6 FB FF FF  jae         L$ctr32_loop8
  00000000000014DA: 48 83 C2 08        add         rdx,8
  00000000000014DE: 0F 84 BE 01 00 00  je          L$ctr32_done
  00000000000014E4: 48 8D 49 80        lea         rcx,[rcx-80h]
L$ctr32_tail:
  00000000000014E8: 48 8D 49 10        lea         rcx,[rcx+10h]
  00000000000014EC: 48 83 FA 04        cmp         rdx,4
  00000000000014F0: 0F 82 4A 01 00 00  jb          L$ctr32_loop3
  00000000000014F6: 0F 84 C4 00 00 00  je          L$ctr32_loop4
  00000000000014FC: C1 E0 04           shl         eax,4
  00000000000014FF: 66 44 0F 6F 44 24  movdqa      xmm8,xmmword ptr [rsp+60h]
                    60
  0000000000001506: 66 45 0F EF C9     pxor        xmm9,xmm9
  000000000000150B: 0F 10 41 10        movups      xmm0,xmmword ptr [rcx+10h]
  000000000000150F: 66 0F 38 DC D1     aesenc      xmm2,xmm1
  0000000000001514: 66 0F 38 DC D9     aesenc      xmm3,xmm1
  0000000000001519: 48 8D 4C 08 10     lea         rcx,[rax+rcx+10h]
  000000000000151E: 48 F7 D8           neg         rax
  0000000000001521: 66 0F 38 DC E1     aesenc      xmm4,xmm1
  0000000000001526: 48 83 C0 10        add         rax,10h
  000000000000152A: 44 0F 10 17        movups      xmm10,xmmword ptr [rdi]
  000000000000152E: 66 0F 38 DC E9     aesenc      xmm5,xmm1
  0000000000001533: 66 0F 38 DC F1     aesenc      xmm6,xmm1
  0000000000001538: 44 0F 10 5F 10     movups      xmm11,xmmword ptr [rdi+10h]
  000000000000153D: 44 0F 10 67 20     movups      xmm12,xmmword ptr [rdi+20h]
  0000000000001542: 66 0F 38 DC F9     aesenc      xmm7,xmm1
  0000000000001547: 66 44 0F 38 DC C1  aesenc      xmm8,xmm1
  000000000000154D: E8 68 F0 FF FF     call        L$enc_loop8_enter
  0000000000001552: F3 44 0F 6F 6F 30  movdqu      xmm13,xmmword ptr [rdi+30h]
  0000000000001558: 66 41 0F EF D2     pxor        xmm2,xmm10
  000000000000155D: F3 44 0F 6F 57 40  movdqu      xmm10,xmmword ptr [rdi+40h]
  0000000000001563: 66 41 0F EF DB     pxor        xmm3,xmm11
  0000000000001568: F3 0F 7F 16        movdqu      xmmword ptr [rsi],xmm2
  000000000000156C: 66 41 0F EF E4     pxor        xmm4,xmm12
  0000000000001571: F3 0F 7F 5E 10     movdqu      xmmword ptr [rsi+10h],xmm3
  0000000000001576: 66 41 0F EF ED     pxor        xmm5,xmm13
  000000000000157B: F3 0F 7F 66 20     movdqu      xmmword ptr [rsi+20h],xmm4
  0000000000001580: 66 41 0F EF F2     pxor        xmm6,xmm10
  0000000000001585: F3 0F 7F 6E 30     movdqu      xmmword ptr [rsi+30h],xmm5
  000000000000158A: F3 0F 7F 76 40     movdqu      xmmword ptr [rsi+40h],xmm6
  000000000000158F: 48 83 FA 06        cmp         rdx,6
  0000000000001593: 0F 82 09 01 00 00  jb          L$ctr32_done
  0000000000001599: 44 0F 10 5F 50     movups      xmm11,xmmword ptr [rdi+50h]
  000000000000159E: 41 0F 57 FB        xorps       xmm7,xmm11
  00000000000015A2: 0F 11 7E 50        movups      xmmword ptr [rsi+50h],xmm7
  00000000000015A6: 0F 84 F6 00 00 00  je          L$ctr32_done
  00000000000015AC: 44 0F 10 67 60     movups      xmm12,xmmword ptr [rdi+60h]
  00000000000015B1: 45 0F 57 C4        xorps       xmm8,xmm12
  00000000000015B5: 44 0F 11 46 60     movups      xmmword ptr [rsi+60h],xmm8
  00000000000015BA: E9 E3 00 00 00     jmp         L$ctr32_done
  00000000000015BF: 90                 nop
L$ctr32_loop4:
  00000000000015C0: 66 0F 38 DC D1     aesenc      xmm2,xmm1
  00000000000015C5: 48 8D 49 10        lea         rcx,[rcx+10h]
  00000000000015C9: FF C8              dec         eax
  00000000000015CB: 66 0F 38 DC D9     aesenc      xmm3,xmm1
  00000000000015D0: 66 0F 38 DC E1     aesenc      xmm4,xmm1
  00000000000015D5: 66 0F 38 DC E9     aesenc      xmm5,xmm1
  00000000000015DA: 0F 10 09           movups      xmm1,xmmword ptr [rcx]
  00000000000015DD: 0F 85 DD FF FF FF  jne         L$ctr32_loop4
  00000000000015E3: 66 0F 38 DD D1     aesenclast  xmm2,xmm1
  00000000000015E8: 66 0F 38 DD D9     aesenclast  xmm3,xmm1
  00000000000015ED: 44 0F 10 17        movups      xmm10,xmmword ptr [rdi]
  00000000000015F1: 44 0F 10 5F 10     movups      xmm11,xmmword ptr [rdi+10h]
  00000000000015F6: 66 0F 38 DD E1     aesenclast  xmm4,xmm1
  00000000000015FB: 66 0F 38 DD E9     aesenclast  xmm5,xmm1
  0000000000001600: 44 0F 10 67 20     movups      xmm12,xmmword ptr [rdi+20h]
  0000000000001605: 44 0F 10 6F 30     movups      xmm13,xmmword ptr [rdi+30h]
  000000000000160A: 41 0F 57 D2        xorps       xmm2,xmm10
  000000000000160E: 0F 11 16           movups      xmmword ptr [rsi],xmm2
  0000000000001611: 41 0F 57 DB        xorps       xmm3,xmm11
  0000000000001615: 0F 11 5E 10        movups      xmmword ptr [rsi+10h],xmm3
  0000000000001619: 66 41 0F EF E4     pxor        xmm4,xmm12
  000000000000161E: F3 0F 7F 66 20     movdqu      xmmword ptr [rsi+20h],xmm4
  0000000000001623: 66 41 0F EF ED     pxor        xmm5,xmm13
  0000000000001628: F3 0F 7F 6E 30     movdqu      xmmword ptr [rsi+30h],xmm5
  000000000000162D: E9 70 00 00 00     jmp         L$ctr32_done
  0000000000001632: 90                 nop
  0000000000001633: 90                 nop
  0000000000001634: 90                 nop
  0000000000001635: 90                 nop
  0000000000001636: 90                 nop
  0000000000001637: 90                 nop
  0000000000001638: 90                 nop
  0000000000001639: 90                 nop
  000000000000163A: 90                 nop
  000000000000163B: 90                 nop
  000000000000163C: 90                 nop
  000000000000163D: 90                 nop
  000000000000163E: 90                 nop
  000000000000163F: 90                 nop
L$ctr32_loop3:
  0000000000001640: 66 0F 38 DC D1     aesenc      xmm2,xmm1
  0000000000001645: 48 8D 49 10        lea         rcx,[rcx+10h]
  0000000000001649: FF C8              dec         eax
  000000000000164B: 66 0F 38 DC D9     aesenc      xmm3,xmm1
  0000000000001650: 66 0F 38 DC E1     aesenc      xmm4,xmm1
  0000000000001655: 0F 10 09           movups      xmm1,xmmword ptr [rcx]
  0000000000001658: 0F 85 E2 FF FF FF  jne         L$ctr32_loop3
  000000000000165E: 66 0F 38 DD D1     aesenclast  xmm2,xmm1
  0000000000001663: 66 0F 38 DD D9     aesenclast  xmm3,xmm1
  0000000000001668: 66 0F 38 DD E1     aesenclast  xmm4,xmm1
  000000000000166D: 44 0F 10 17        movups      xmm10,xmmword ptr [rdi]
  0000000000001671: 41 0F 57 D2        xorps       xmm2,xmm10
  0000000000001675: 0F 11 16           movups      xmmword ptr [rsi],xmm2
  0000000000001678: 48 83 FA 02        cmp         rdx,2
  000000000000167C: 0F 82 20 00 00 00  jb          L$ctr32_done
  0000000000001682: 44 0F 10 5F 10     movups      xmm11,xmmword ptr [rdi+10h]
  0000000000001687: 41 0F 57 DB        xorps       xmm3,xmm11
  000000000000168B: 0F 11 5E 10        movups      xmmword ptr [rsi+10h],xmm3
  000000000000168F: 0F 84 0D 00 00 00  je          L$ctr32_done
  0000000000001695: 44 0F 10 67 20     movups      xmm12,xmmword ptr [rdi+20h]
  000000000000169A: 41 0F 57 E4        xorps       xmm4,xmm12
  000000000000169E: 0F 11 66 20        movups      xmmword ptr [rsi+20h],xmm4
L$ctr32_done:
  00000000000016A2: 0F 57 C0           xorps       xmm0,xmm0
  00000000000016A5: 31 ED              xor         ebp,ebp
  00000000000016A7: 66 0F EF C9        pxor        xmm1,xmm1
  00000000000016AB: 66 0F EF D2        pxor        xmm2,xmm2
  00000000000016AF: 66 0F EF DB        pxor        xmm3,xmm3
  00000000000016B3: 66 0F EF E4        pxor        xmm4,xmm4
  00000000000016B7: 66 0F EF ED        pxor        xmm5,xmm5
  00000000000016BB: 41 0F 28 B3 58 FF  movaps      xmm6,xmmword ptr [r11-0A8h]
                    FF FF
  00000000000016C3: 41 0F 29 83 58 FF  movaps      xmmword ptr [r11-0A8h],xmm0
                    FF FF
  00000000000016CB: 41 0F 28 BB 68 FF  movaps      xmm7,xmmword ptr [r11-98h]
                    FF FF
  00000000000016D3: 41 0F 29 83 68 FF  movaps      xmmword ptr [r11-98h],xmm0
                    FF FF
  00000000000016DB: 45 0F 28 83 78 FF  movaps      xmm8,xmmword ptr [r11-88h]
                    FF FF
  00000000000016E3: 41 0F 29 83 78 FF  movaps      xmmword ptr [r11-88h],xmm0
                    FF FF
  00000000000016EB: 45 0F 28 4B 88     movaps      xmm9,xmmword ptr [r11-78h]
  00000000000016F0: 41 0F 29 43 88     movaps      xmmword ptr [r11-78h],xmm0
  00000000000016F5: 45 0F 28 53 98     movaps      xmm10,xmmword ptr [r11-68h]
  00000000000016FA: 41 0F 29 43 98     movaps      xmmword ptr [r11-68h],xmm0
  00000000000016FF: 45 0F 28 5B A8     movaps      xmm11,xmmword ptr [r11-58h]
  0000000000001704: 41 0F 29 43 A8     movaps      xmmword ptr [r11-58h],xmm0
  0000000000001709: 45 0F 28 63 B8     movaps      xmm12,xmmword ptr [r11-48h]
  000000000000170E: 41 0F 29 43 B8     movaps      xmmword ptr [r11-48h],xmm0
  0000000000001713: 45 0F 28 6B C8     movaps      xmm13,xmmword ptr [r11-38h]
  0000000000001718: 41 0F 29 43 C8     movaps      xmmword ptr [r11-38h],xmm0
  000000000000171D: 45 0F 28 73 D8     movaps      xmm14,xmmword ptr [r11-28h]
  0000000000001722: 41 0F 29 43 D8     movaps      xmmword ptr [r11-28h],xmm0
  0000000000001727: 45 0F 28 7B E8     movaps      xmm15,xmmword ptr [r11-18h]
  000000000000172C: 41 0F 29 43 E8     movaps      xmmword ptr [r11-18h],xmm0
  0000000000001731: 0F 29 04 24        movaps      xmmword ptr [rsp],xmm0
  0000000000001735: 0F 29 44 24 10     movaps      xmmword ptr [rsp+10h],xmm0
  000000000000173A: 0F 29 44 24 20     movaps      xmmword ptr [rsp+20h],xmm0
  000000000000173F: 0F 29 44 24 30     movaps      xmmword ptr [rsp+30h],xmm0
  0000000000001744: 0F 29 44 24 40     movaps      xmmword ptr [rsp+40h],xmm0
  0000000000001749: 0F 29 44 24 50     movaps      xmmword ptr [rsp+50h],xmm0
  000000000000174E: 0F 29 44 24 60     movaps      xmmword ptr [rsp+60h],xmm0
  0000000000001753: 0F 29 44 24 70     movaps      xmmword ptr [rsp+70h],xmm0
  0000000000001758: 49 8B 6B F8        mov         rbp,qword ptr [r11-8]
  000000000000175C: 49 8D 23           lea         rsp,[r11]
L$ctr32_epilogue:
  000000000000175F: 48 8B 7C 24 08     mov         rdi,qword ptr [rsp+8]
  0000000000001764: 48 8B 74 24 10     mov         rsi,qword ptr [rsp+10h]
  0000000000001769: F3 C3              rep ret
L$SEH_end_aes_hw_ctr32_encrypt_blocks:
  000000000000176B: 90                 nop
  000000000000176C: 90                 nop
  000000000000176D: 90                 nop
  000000000000176E: 90                 nop
  000000000000176F: 90                 nop
aws_lc_0_21_0_aes_hw_xts_encrypt:
  0000000000001770: 48 89 7C 24 08     mov         qword ptr [rsp+8],rdi
  0000000000001775: 48 89 74 24 10     mov         qword ptr [rsp+10h],rsi
  000000000000177A: 48 89 E0           mov         rax,rsp
L$SEH_begin_aes_hw_xts_encrypt:
  000000000000177D: 48 89 CF           mov         rdi,rcx
  0000000000001780: 48 89 D6           mov         rsi,rdx
  0000000000001783: 4C 89 C2           mov         rdx,r8
  0000000000001786: 4C 89 C9           mov         rcx,r9
  0000000000001789: 4C 8B 44 24 28     mov         r8,qword ptr [rsp+28h]
  000000000000178E: 4C 8B 4C 24 30     mov         r9,qword ptr [rsp+30h]
  0000000000001793: 4C 8D 1C 24        lea         r11,[rsp]
  0000000000001797: 55                 push        rbp
  0000000000001798: 48 81 EC 10 01 00  sub         rsp,110h
                    00
  000000000000179F: 48 83 E4 F0        and         rsp,0FFFFFFFFFFFFFFF0h
  00000000000017A3: 41 0F 29 B3 58 FF  movaps      xmmword ptr [r11-0A8h],xmm6
                    FF FF
  00000000000017AB: 41 0F 29 BB 68 FF  movaps      xmmword ptr [r11-98h],xmm7
                    FF FF
  00000000000017B3: 45 0F 29 83 78 FF  movaps      xmmword ptr [r11-88h],xmm8
                    FF FF
  00000000000017BB: 45 0F 29 4B 88     movaps      xmmword ptr [r11-78h],xmm9
  00000000000017C0: 45 0F 29 53 98     movaps      xmmword ptr [r11-68h],xmm10
  00000000000017C5: 45 0F 29 5B A8     movaps      xmmword ptr [r11-58h],xmm11
  00000000000017CA: 45 0F 29 63 B8     movaps      xmmword ptr [r11-48h],xmm12
  00000000000017CF: 45 0F 29 6B C8     movaps      xmmword ptr [r11-38h],xmm13
  00000000000017D4: 45 0F 29 73 D8     movaps      xmmword ptr [r11-28h],xmm14
  00000000000017D9: 45 0F 29 7B E8     movaps      xmmword ptr [r11-18h],xmm15
L$xts_enc_body:
  00000000000017DE: 41 0F 10 11        movups      xmm2,xmmword ptr [r9]
  00000000000017E2: 41 8B 80 F0 00 00  mov         eax,dword ptr [r8+0F0h]
                    00
  00000000000017E9: 44 8B 91 F0 00 00  mov         r10d,dword ptr [rcx+0F0h]
                    00
  00000000000017F0: 41 0F 10 00        movups      xmm0,xmmword ptr [r8]
  00000000000017F4: 41 0F 10 48 10     movups      xmm1,xmmword ptr [r8+10h]
  00000000000017F9: 4D 8D 40 20        lea         r8,[r8+20h]
  00000000000017FD: 0F 57 D0           xorps       xmm2,xmm0
L$oop_enc1_6:
  0000000000001800: 66 0F 38 DC D1     aesenc      xmm2,xmm1
  0000000000001805: FF C8              dec         eax
  0000000000001807: 41 0F 10 08        movups      xmm1,xmmword ptr [r8]
  000000000000180B: 4D 8D 40 10        lea         r8,[r8+10h]
  000000000000180F: 0F 85 EB FF FF FF  jne         L$oop_enc1_6
  0000000000001815: 66 0F 38 DD D1     aesenclast  xmm2,xmm1
  000000000000181A: 0F 10 01           movups      xmm0,xmmword ptr [rcx]
  000000000000181D: 48 89 CD           mov         rbp,rcx
  0000000000001820: 44 89 D0           mov         eax,r10d
  0000000000001823: 41 C1 E2 04        shl         r10d,4
  0000000000001827: 49 89 D1           mov         r9,rdx
  000000000000182A: 48 83 E2 F0        and         rdx,0FFFFFFFFFFFFFFF0h
  000000000000182E: 42 0F 10 4C 11 10  movups      xmm1,xmmword ptr [rcx+r10+10h]
  0000000000001834: 66 44 0F 6F 05 30  movdqa      xmm8,xmmword ptr [.rdata+30h]
                    00 00 00
  000000000000183D: 66 44 0F 6F FA     movdqa      xmm15,xmm2
  0000000000001842: 66 44 0F 70 CA 5F  pshufd      xmm9,xmm2,5Fh
  0000000000001848: 66 0F EF C8        pxor        xmm1,xmm0
  000000000000184C: 66 45 0F 6F F1     movdqa      xmm14,xmm9
  0000000000001851: 66 45 0F FE C9     paddd       xmm9,xmm9
  0000000000001856: 66 45 0F 6F D7     movdqa      xmm10,xmm15
  000000000000185B: 66 41 0F 72 E6 1F  psrad       xmm14,1Fh
  0000000000001861: 66 45 0F D4 FF     paddq       xmm15,xmm15
  0000000000001866: 66 45 0F DB F0     pand        xmm14,xmm8
  000000000000186B: 66 44 0F EF D0     pxor        xmm10,xmm0
  0000000000001870: 66 45 0F EF FE     pxor        xmm15,xmm14
  0000000000001875: 66 45 0F 6F F1     movdqa      xmm14,xmm9
  000000000000187A: 66 45 0F FE C9     paddd       xmm9,xmm9
  000000000000187F: 66 45 0F 6F DF     movdqa      xmm11,xmm15
  0000000000001884: 66 41 0F 72 E6 1F  psrad       xmm14,1Fh
  000000000000188A: 66 45 0F D4 FF     paddq       xmm15,xmm15
  000000000000188F: 66 45 0F DB F0     pand        xmm14,xmm8
  0000000000001894: 66 44 0F EF D8     pxor        xmm11,xmm0
  0000000000001899: 66 45 0F EF FE     pxor        xmm15,xmm14
  000000000000189E: 66 45 0F 6F F1     movdqa      xmm14,xmm9
  00000000000018A3: 66 45 0F FE C9     paddd       xmm9,xmm9
  00000000000018A8: 66 45 0F 6F E7     movdqa      xmm12,xmm15
  00000000000018AD: 66 41 0F 72 E6 1F  psrad       xmm14,1Fh
  00000000000018B3: 66 45 0F D4 FF     paddq       xmm15,xmm15
  00000000000018B8: 66 45 0F DB F0     pand        xmm14,xmm8
  00000000000018BD: 66 44 0F EF E0     pxor        xmm12,xmm0
  00000000000018C2: 66 45 0F EF FE     pxor        xmm15,xmm14
  00000000000018C7: 66 45 0F 6F F1     movdqa      xmm14,xmm9
  00000000000018CC: 66 45 0F FE C9     paddd       xmm9,xmm9
  00000000000018D1: 66 45 0F 6F EF     movdqa      xmm13,xmm15
  00000000000018D6: 66 41 0F 72 E6 1F  psrad       xmm14,1Fh
  00000000000018DC: 66 45 0F D4 FF     paddq       xmm15,xmm15
  00000000000018E1: 66 45 0F DB F0     pand        xmm14,xmm8
  00000000000018E6: 66 44 0F EF E8     pxor        xmm13,xmm0
  00000000000018EB: 66 45 0F EF FE     pxor        xmm15,xmm14
  00000000000018F0: 66 45 0F 6F F7     movdqa      xmm14,xmm15
  00000000000018F5: 66 41 0F 72 E1 1F  psrad       xmm9,1Fh
  00000000000018FB: 66 45 0F D4 FF     paddq       xmm15,xmm15
  0000000000001900: 66 45 0F DB C8     pand        xmm9,xmm8
  0000000000001905: 66 44 0F EF F0     pxor        xmm14,xmm0
  000000000000190A: 66 45 0F EF F9     pxor        xmm15,xmm9
  000000000000190F: 0F 29 4C 24 60     movaps      xmmword ptr [rsp+60h],xmm1
  0000000000001914: 48 83 EA 60        sub         rdx,60h
  0000000000001918: 0F 82 66 03 00 00  jb          L$xts_enc_short
  000000000000191E: B8 70 00 00 00     mov         eax,70h
  0000000000001923: 4A 8D 4C 15 20     lea         rcx,[rbp+r10+20h]
  0000000000001928: 4C 29 D0           sub         rax,r10
  000000000000192B: 0F 10 4D 10        movups      xmm1,xmmword ptr [rbp+10h]
  000000000000192F: 49 89 C2           mov         r10,rax
  0000000000001932: 4C 8D 05 30 00 00  lea         r8,[.rdata+30h]
                    00
  0000000000001939: E9 02 00 00 00     jmp         L$xts_enc_grandloop
  000000000000193E: 90                 nop
  000000000000193F: 90                 nop
L$xts_enc_grandloop:
  0000000000001940: F3 0F 6F 17        movdqu      xmm2,xmmword ptr [rdi]
  0000000000001944: 66 44 0F 6F C0     movdqa      xmm8,xmm0
  0000000000001949: F3 0F 6F 5F 10     movdqu      xmm3,xmmword ptr [rdi+10h]
  000000000000194E: 66 41 0F EF D2     pxor        xmm2,xmm10
  0000000000001953: F3 0F 6F 67 20     movdqu      xmm4,xmmword ptr [rdi+20h]
  0000000000001958: 66 41 0F EF DB     pxor        xmm3,xmm11
  000000000000195D: 66 0F 38 DC D1     aesenc      xmm2,xmm1
  0000000000001962: F3 0F 6F 6F 30     movdqu      xmm5,xmmword ptr [rdi+30h]
  0000000000001967: 66 41 0F EF E4     pxor        xmm4,xmm12
  000000000000196C: 66 0F 38 DC D9     aesenc      xmm3,xmm1
  0000000000001971: F3 0F 6F 77 40     movdqu      xmm6,xmmword ptr [rdi+40h]
  0000000000001976: 66 41 0F EF ED     pxor        xmm5,xmm13
  000000000000197B: 66 0F 38 DC E1     aesenc      xmm4,xmm1
  0000000000001980: F3 0F 6F 7F 50     movdqu      xmm7,xmmword ptr [rdi+50h]
  0000000000001985: 66 45 0F EF C7     pxor        xmm8,xmm15
  000000000000198A: 66 44 0F 6F 4C 24  movdqa      xmm9,xmmword ptr [rsp+60h]
                    60
  0000000000001991: 66 41 0F EF F6     pxor        xmm6,xmm14
  0000000000001996: 66 0F 38 DC E9     aesenc      xmm5,xmm1
  000000000000199B: 0F 10 45 20        movups      xmm0,xmmword ptr [rbp+20h]
  000000000000199F: 48 8D 7F 60        lea         rdi,[rdi+60h]
  00000000000019A3: 66 41 0F EF F8     pxor        xmm7,xmm8
  00000000000019A8: 66 45 0F EF D1     pxor        xmm10,xmm9
  00000000000019AD: 66 0F 38 DC F1     aesenc      xmm6,xmm1
  00000000000019B2: 66 45 0F EF D9     pxor        xmm11,xmm9
  00000000000019B7: 66 44 0F 7F 14 24  movdqa      xmmword ptr [rsp],xmm10
  00000000000019BD: 66 0F 38 DC F9     aesenc      xmm7,xmm1
  00000000000019C2: 0F 10 4D 30        movups      xmm1,xmmword ptr [rbp+30h]
  00000000000019C6: 66 45 0F EF E1     pxor        xmm12,xmm9
  00000000000019CB: 66 0F 38 DC D0     aesenc      xmm2,xmm0
  00000000000019D0: 66 45 0F EF E9     pxor        xmm13,xmm9
  00000000000019D5: 66 44 0F 7F 5C 24  movdqa      xmmword ptr [rsp+10h],xmm11
                    10
  00000000000019DC: 66 0F 38 DC D8     aesenc      xmm3,xmm0
  00000000000019E1: 66 45 0F EF F1     pxor        xmm14,xmm9
  00000000000019E6: 66 44 0F 7F 64 24  movdqa      xmmword ptr [rsp+20h],xmm12
                    20
  00000000000019ED: 66 0F 38 DC E0     aesenc      xmm4,xmm0
  00000000000019F2: 66 0F 38 DC E8     aesenc      xmm5,xmm0
  00000000000019F7: 66 45 0F EF C1     pxor        xmm8,xmm9
  00000000000019FC: 66 44 0F 7F 74 24  movdqa      xmmword ptr [rsp+40h],xmm14
                    40
  0000000000001A03: 66 0F 38 DC F0     aesenc      xmm6,xmm0
  0000000000001A08: 66 0F 38 DC F8     aesenc      xmm7,xmm0
  0000000000001A0D: 0F 10 45 40        movups      xmm0,xmmword ptr [rbp+40h]
  0000000000001A11: 66 44 0F 7F 44 24  movdqa      xmmword ptr [rsp+50h],xmm8
                    50
  0000000000001A18: 66 45 0F 70 CF 5F  pshufd      xmm9,xmm15,5Fh
  0000000000001A1E: E9 1D 00 00 00     jmp         L$xts_enc_loop6
  0000000000001A23: 90                 nop
  0000000000001A24: 90                 nop
  0000000000001A25: 90                 nop
  0000000000001A26: 90                 nop
  0000000000001A27: 90                 nop
  0000000000001A28: 90                 nop
  0000000000001A29: 90                 nop
  0000000000001A2A: 90                 nop
  0000000000001A2B: 90                 nop
  0000000000001A2C: 90                 nop
  0000000000001A2D: 90                 nop
  0000000000001A2E: 90                 nop
  0000000000001A2F: 90                 nop
  0000000000001A30: 90                 nop
  0000000000001A31: 90                 nop
  0000000000001A32: 90                 nop
  0000000000001A33: 90                 nop
  0000000000001A34: 90                 nop
  0000000000001A35: 90                 nop
  0000000000001A36: 90                 nop
  0000000000001A37: 90                 nop
  0000000000001A38: 90                 nop
  0000000000001A39: 90                 nop
  0000000000001A3A: 90                 nop
  0000000000001A3B: 90                 nop
  0000000000001A3C: 90                 nop
  0000000000001A3D: 90                 nop
  0000000000001A3E: 90                 nop
  0000000000001A3F: 90                 nop
L$xts_enc_loop6:
  0000000000001A40: 66 0F 38 DC D1     aesenc      xmm2,xmm1
  0000000000001A45: 66 0F 38 DC D9     aesenc      xmm3,xmm1
  0000000000001A4A: 66 0F 38 DC E1     aesenc      xmm4,xmm1
  0000000000001A4F: 66 0F 38 DC E9     aesenc      xmm5,xmm1
  0000000000001A54: 66 0F 38 DC F1     aesenc      xmm6,xmm1
  0000000000001A59: 66 0F 38 DC F9     aesenc      xmm7,xmm1
  0000000000001A5E: 0F 10 4C 01 C0     movups      xmm1,xmmword ptr [rcx+rax-40h]
  0000000000001A63: 48 83 C0 20        add         rax,20h
  0000000000001A67: 66 0F 38 DC D0     aesenc      xmm2,xmm0
  0000000000001A6C: 66 0F 38 DC D8     aesenc      xmm3,xmm0
  0000000000001A71: 66 0F 38 DC E0     aesenc      xmm4,xmm0
  0000000000001A76: 66 0F 38 DC E8     aesenc      xmm5,xmm0
  0000000000001A7B: 66 0F 38 DC F0     aesenc      xmm6,xmm0
  0000000000001A80: 66 0F 38 DC F8     aesenc      xmm7,xmm0
  0000000000001A85: 0F 10 44 01 B0     movups      xmm0,xmmword ptr [rcx+rax-50h]
  0000000000001A8A: 0F 85 B0 FF FF FF  jne         L$xts_enc_loop6
  0000000000001A90: 66 45 0F 6F 00     movdqa      xmm8,xmmword ptr [r8]
  0000000000001A95: 66 45 0F 6F F1     movdqa      xmm14,xmm9
  0000000000001A9A: 66 45 0F FE C9     paddd       xmm9,xmm9
  0000000000001A9F: 66 0F 38 DC D1     aesenc      xmm2,xmm1
  0000000000001AA4: 66 45 0F D4 FF     paddq       xmm15,xmm15
  0000000000001AA9: 66 41 0F 72 E6 1F  psrad       xmm14,1Fh
  0000000000001AAF: 66 0F 38 DC D9     aesenc      xmm3,xmm1
  0000000000001AB4: 66 45 0F DB F0     pand        xmm14,xmm8
  0000000000001AB9: 44 0F 10 55 00     movups      xmm10,xmmword ptr [rbp]
  0000000000001ABE: 66 0F 38 DC E1     aesenc      xmm4,xmm1
  0000000000001AC3: 66 0F 38 DC E9     aesenc      xmm5,xmm1
  0000000000001AC8: 66 0F 38 DC F1     aesenc      xmm6,xmm1
  0000000000001ACD: 66 45 0F EF FE     pxor        xmm15,xmm14
  0000000000001AD2: 45 0F 28 DA        movaps      xmm11,xmm10
  0000000000001AD6: 66 0F 38 DC F9     aesenc      xmm7,xmm1
  0000000000001ADB: 0F 10 49 C0        movups      xmm1,xmmword ptr [rcx-40h]
  0000000000001ADF: 66 45 0F 6F F1     movdqa      xmm14,xmm9
  0000000000001AE4: 66 0F 38 DC D0     aesenc      xmm2,xmm0
  0000000000001AE9: 66 45 0F FE C9     paddd       xmm9,xmm9
  0000000000001AEE: 66 45 0F EF D7     pxor        xmm10,xmm15
  0000000000001AF3: 66 0F 38 DC D8     aesenc      xmm3,xmm0
  0000000000001AF8: 66 41 0F 72 E6 1F  psrad       xmm14,1Fh
  0000000000001AFE: 66 45 0F D4 FF     paddq       xmm15,xmm15
  0000000000001B03: 66 0F 38 DC E0     aesenc      xmm4,xmm0
  0000000000001B08: 66 0F 38 DC E8     aesenc      xmm5,xmm0
  0000000000001B0D: 66 45 0F DB F0     pand        xmm14,xmm8
  0000000000001B12: 45 0F 28 E3        movaps      xmm12,xmm11
  0000000000001B16: 66 0F 38 DC F0     aesenc      xmm6,xmm0
  0000000000001B1B: 66 45 0F EF FE     pxor        xmm15,xmm14
  0000000000001B20: 66 45 0F 6F F1     movdqa      xmm14,xmm9
  0000000000001B25: 66 0F 38 DC F8     aesenc      xmm7,xmm0
  0000000000001B2A: 0F 10 41 D0        movups      xmm0,xmmword ptr [rcx-30h]
  0000000000001B2E: 66 45 0F FE C9     paddd       xmm9,xmm9
  0000000000001B33: 66 0F 38 DC D1     aesenc      xmm2,xmm1
  0000000000001B38: 66 45 0F EF DF     pxor        xmm11,xmm15
  0000000000001B3D: 66 41 0F 72 E6 1F  psrad       xmm14,1Fh
  0000000000001B43: 66 0F 38 DC D9     aesenc      xmm3,xmm1
  0000000000001B48: 66 45 0F D4 FF     paddq       xmm15,xmm15
  0000000000001B4D: 66 45 0F DB F0     pand        xmm14,xmm8
  0000000000001B52: 66 0F 38 DC E1     aesenc      xmm4,xmm1
  0000000000001B57: 66 0F 38 DC E9     aesenc      xmm5,xmm1
  0000000000001B5C: 66 44 0F 7F 6C 24  movdqa      xmmword ptr [rsp+30h],xmm13
                    30
  0000000000001B63: 66 45 0F EF FE     pxor        xmm15,xmm14
  0000000000001B68: 66 0F 38 DC F1     aesenc      xmm6,xmm1
  0000000000001B6D: 45 0F 28 EC        movaps      xmm13,xmm12
  0000000000001B71: 66 45 0F 6F F1     movdqa      xmm14,xmm9
  0000000000001B76: 66 0F 38 DC F9     aesenc      xmm7,xmm1
  0000000000001B7B: 0F 10 49 E0        movups      xmm1,xmmword ptr [rcx-20h]
  0000000000001B7F: 66 45 0F FE C9     paddd       xmm9,xmm9
  0000000000001B84: 66 0F 38 DC D0     aesenc      xmm2,xmm0
  0000000000001B89: 66 45 0F EF E7     pxor        xmm12,xmm15
  0000000000001B8E: 66 41 0F 72 E6 1F  psrad       xmm14,1Fh
  0000000000001B94: 66 0F 38 DC D8     aesenc      xmm3,xmm0
  0000000000001B99: 66 45 0F D4 FF     paddq       xmm15,xmm15
  0000000000001B9E: 66 45 0F DB F0     pand        xmm14,xmm8
  0000000000001BA3: 66 0F 38 DC E0     aesenc      xmm4,xmm0
  0000000000001BA8: 66 0F 38 DC E8     aesenc      xmm5,xmm0
  0000000000001BAD: 66 0F 38 DC F0     aesenc      xmm6,xmm0
  0000000000001BB2: 66 45 0F EF FE     pxor        xmm15,xmm14
  0000000000001BB7: 45 0F 28 F5        movaps      xmm14,xmm13
  0000000000001BBB: 66 0F 38 DC F8     aesenc      xmm7,xmm0
  0000000000001BC0: 66 41 0F 6F C1     movdqa      xmm0,xmm9
  0000000000001BC5: 66 45 0F FE C9     paddd       xmm9,xmm9
  0000000000001BCA: 66 0F 38 DC D1     aesenc      xmm2,xmm1
  0000000000001BCF: 66 45 0F EF EF     pxor        xmm13,xmm15
  0000000000001BD4: 66 0F 72 E0 1F     psrad       xmm0,1Fh
  0000000000001BD9: 66 0F 38 DC D9     aesenc      xmm3,xmm1
  0000000000001BDE: 66 45 0F D4 FF     paddq       xmm15,xmm15
  0000000000001BE3: 66 41 0F DB C0     pand        xmm0,xmm8
  0000000000001BE8: 66 0F 38 DC E1     aesenc      xmm4,xmm1
  0000000000001BED: 66 0F 38 DC E9     aesenc      xmm5,xmm1
  0000000000001BF2: 66 44 0F EF F8     pxor        xmm15,xmm0
  0000000000001BF7: 0F 10 45 00        movups      xmm0,xmmword ptr [rbp]
  0000000000001BFB: 66 0F 38 DC F1     aesenc      xmm6,xmm1
  0000000000001C00: 66 0F 38 DC F9     aesenc      xmm7,xmm1
  0000000000001C05: 0F 10 4D 10        movups      xmm1,xmmword ptr [rbp+10h]
  0000000000001C09: 66 45 0F EF F7     pxor        xmm14,xmm15
  0000000000001C0E: 66 0F 38 DD 54 24  aesenclast  xmm2,xmmword ptr [rsp]
                    00
  0000000000001C15: 66 41 0F 72 E1 1F  psrad       xmm9,1Fh
  0000000000001C1B: 66 45 0F D4 FF     paddq       xmm15,xmm15
  0000000000001C20: 66 0F 38 DD 5C 24  aesenclast  xmm3,xmmword ptr [rsp+10h]
                    10
  0000000000001C27: 66 0F 38 DD 64 24  aesenclast  xmm4,xmmword ptr [rsp+20h]
                    20
  0000000000001C2E: 66 45 0F DB C8     pand        xmm9,xmm8
  0000000000001C33: 4C 89 D0           mov         rax,r10
  0000000000001C36: 66 0F 38 DD 6C 24  aesenclast  xmm5,xmmword ptr [rsp+30h]
                    30
  0000000000001C3D: 66 0F 38 DD 74 24  aesenclast  xmm6,xmmword ptr [rsp+40h]
                    40
  0000000000001C44: 66 0F 38 DD 7C 24  aesenclast  xmm7,xmmword ptr [rsp+50h]
                    50
  0000000000001C4B: 66 45 0F EF F9     pxor        xmm15,xmm9
  0000000000001C50: 48 8D 76 60        lea         rsi,[rsi+60h]
  0000000000001C54: 0F 11 56 A0        movups      xmmword ptr [rsi-60h],xmm2
  0000000000001C58: 0F 11 5E B0        movups      xmmword ptr [rsi-50h],xmm3
  0000000000001C5C: 0F 11 66 C0        movups      xmmword ptr [rsi-40h],xmm4
  0000000000001C60: 0F 11 6E D0        movups      xmmword ptr [rsi-30h],xmm5
  0000000000001C64: 0F 11 76 E0        movups      xmmword ptr [rsi-20h],xmm6
  0000000000001C68: 0F 11 7E F0        movups      xmmword ptr [rsi-10h],xmm7
  0000000000001C6C: 48 83 EA 60        sub         rdx,60h
  0000000000001C70: 0F 83 CA FC FF FF  jae         L$xts_enc_grandloop
  0000000000001C76: B8 70 00 00 00     mov         eax,70h
  0000000000001C7B: 44 29 D0           sub         eax,r10d
  0000000000001C7E: 48 89 E9           mov         rcx,rbp
  0000000000001C81: C1 E8 04           shr         eax,4
L$xts_enc_short:
  0000000000001C84: 41 89 C2           mov         r10d,eax
  0000000000001C87: 66 44 0F EF D0     pxor        xmm10,xmm0
  0000000000001C8C: 48 83 C2 60        add         rdx,60h
  0000000000001C90: 0F 84 FA 01 00 00  je          L$xts_enc_done
  0000000000001C96: 66 44 0F EF D8     pxor        xmm11,xmm0
  0000000000001C9B: 48 83 FA 20        cmp         rdx,20h
  0000000000001C9F: 0F 82 AB 00 00 00  jb          L$xts_enc_one
  0000000000001CA5: 66 44 0F EF E0     pxor        xmm12,xmm0
  0000000000001CAA: 0F 84 F0 00 00 00  je          L$xts_enc_two
  0000000000001CB0: 66 44 0F EF E8     pxor        xmm13,xmm0
  0000000000001CB5: 48 83 FA 40        cmp         rdx,40h
  0000000000001CB9: 0F 82 21 01 00 00  jb          L$xts_enc_three
  0000000000001CBF: 66 44 0F EF F0     pxor        xmm14,xmm0
  0000000000001CC4: 0F 84 66 01 00 00  je          L$xts_enc_four
  0000000000001CCA: F3 0F 6F 17        movdqu      xmm2,xmmword ptr [rdi]
  0000000000001CCE: F3 0F 6F 5F 10     movdqu      xmm3,xmmword ptr [rdi+10h]
  0000000000001CD3: F3 0F 6F 67 20     movdqu      xmm4,xmmword ptr [rdi+20h]
  0000000000001CD8: 66 41 0F EF D2     pxor        xmm2,xmm10
  0000000000001CDD: F3 0F 6F 6F 30     movdqu      xmm5,xmmword ptr [rdi+30h]
  0000000000001CE2: 66 41 0F EF DB     pxor        xmm3,xmm11
  0000000000001CE7: F3 0F 6F 77 40     movdqu      xmm6,xmmword ptr [rdi+40h]
  0000000000001CEC: 48 8D 7F 50        lea         rdi,[rdi+50h]
  0000000000001CF0: 66 41 0F EF E4     pxor        xmm4,xmm12
  0000000000001CF5: 66 41 0F EF ED     pxor        xmm5,xmm13
  0000000000001CFA: 66 41 0F EF F6     pxor        xmm6,xmm14
  0000000000001CFF: 66 0F EF FF        pxor        xmm7,xmm7
  0000000000001D03: E8 78 E6 FF FF     call        _aesni_encrypt6
  0000000000001D08: 41 0F 57 D2        xorps       xmm2,xmm10
  0000000000001D0C: 66 45 0F 6F D7     movdqa      xmm10,xmm15
  0000000000001D11: 41 0F 57 DB        xorps       xmm3,xmm11
  0000000000001D15: 41 0F 57 E4        xorps       xmm4,xmm12
  0000000000001D19: F3 0F 7F 16        movdqu      xmmword ptr [rsi],xmm2
  0000000000001D1D: 41 0F 57 ED        xorps       xmm5,xmm13
  0000000000001D21: F3 0F 7F 5E 10     movdqu      xmmword ptr [rsi+10h],xmm3
  0000000000001D26: 41 0F 57 F6        xorps       xmm6,xmm14
  0000000000001D2A: F3 0F 7F 66 20     movdqu      xmmword ptr [rsi+20h],xmm4
  0000000000001D2F: F3 0F 7F 6E 30     movdqu      xmmword ptr [rsi+30h],xmm5
  0000000000001D34: F3 0F 7F 76 40     movdqu      xmmword ptr [rsi+40h],xmm6
  0000000000001D39: 48 8D 76 50        lea         rsi,[rsi+50h]
  0000000000001D3D: E9 4E 01 00 00     jmp         L$xts_enc_done
  0000000000001D42: 90                 nop
  0000000000001D43: 90                 nop
  0000000000001D44: 90                 nop
  0000000000001D45: 90                 nop
  0000000000001D46: 90                 nop
  0000000000001D47: 90                 nop
  0000000000001D48: 90                 nop
  0000000000001D49: 90                 nop
  0000000000001D4A: 90                 nop
  0000000000001D4B: 90                 nop
  0000000000001D4C: 90                 nop
  0000000000001D4D: 90                 nop
  0000000000001D4E: 90                 nop
  0000000000001D4F: 90                 nop
L$xts_enc_one:
  0000000000001D50: 0F 10 17           movups      xmm2,xmmword ptr [rdi]
  0000000000001D53: 48 8D 7F 10        lea         rdi,[rdi+10h]
  0000000000001D57: 41 0F 57 D2        xorps       xmm2,xmm10
  0000000000001D5B: 0F 10 01           movups      xmm0,xmmword ptr [rcx]
  0000000000001D5E: 0F 10 49 10        movups      xmm1,xmmword ptr [rcx+10h]
  0000000000001D62: 48 8D 49 20        lea         rcx,[rcx+20h]
  0000000000001D66: 0F 57 D0           xorps       xmm2,xmm0
L$oop_enc1_7:
  0000000000001D69: 66 0F 38 DC D1     aesenc      xmm2,xmm1
  0000000000001D6E: FF C8              dec         eax
  0000000000001D70: 0F 10 09           movups      xmm1,xmmword ptr [rcx]
  0000000000001D73: 48 8D 49 10        lea         rcx,[rcx+10h]
  0000000000001D77: 0F 85 EC FF FF FF  jne         L$oop_enc1_7
  0000000000001D7D: 66 0F 38 DD D1     aesenclast  xmm2,xmm1
  0000000000001D82: 41 0F 57 D2        xorps       xmm2,xmm10
  0000000000001D86: 66 45 0F 6F D3     movdqa      xmm10,xmm11
  0000000000001D8B: 0F 11 16           movups      xmmword ptr [rsi],xmm2
  0000000000001D8E: 48 8D 76 10        lea         rsi,[rsi+10h]
  0000000000001D92: E9 F9 00 00 00     jmp         L$xts_enc_done
  0000000000001D97: 90                 nop
  0000000000001D98: 90                 nop
  0000000000001D99: 90                 nop
  0000000000001D9A: 90                 nop
  0000000000001D9B: 90                 nop
  0000000000001D9C: 90                 nop
  0000000000001D9D: 90                 nop
  0000000000001D9E: 90                 nop
  0000000000001D9F: 90                 nop
L$xts_enc_two:
  0000000000001DA0: 0F 10 17           movups      xmm2,xmmword ptr [rdi]
  0000000000001DA3: 0F 10 5F 10        movups      xmm3,xmmword ptr [rdi+10h]
  0000000000001DA7: 48 8D 7F 20        lea         rdi,[rdi+20h]
  0000000000001DAB: 41 0F 57 D2        xorps       xmm2,xmm10
  0000000000001DAF: 41 0F 57 DB        xorps       xmm3,xmm11
  0000000000001DB3: E8 E8 E2 FF FF     call        _aesni_encrypt2
  0000000000001DB8: 41 0F 57 D2        xorps       xmm2,xmm10
  0000000000001DBC: 66 45 0F 6F D4     movdqa      xmm10,xmm12
  0000000000001DC1: 41 0F 57 DB        xorps       xmm3,xmm11
  0000000000001DC5: 0F 11 16           movups      xmmword ptr [rsi],xmm2
  0000000000001DC8: 0F 11 5E 10        movups      xmmword ptr [rsi+10h],xmm3
  0000000000001DCC: 48 8D 76 20        lea         rsi,[rsi+20h]
  0000000000001DD0: E9 BB 00 00 00     jmp         L$xts_enc_done
  0000000000001DD5: 90                 nop
  0000000000001DD6: 90                 nop
  0000000000001DD7: 90                 nop
  0000000000001DD8: 90                 nop
  0000000000001DD9: 90                 nop
  0000000000001DDA: 90                 nop
  0000000000001DDB: 90                 nop
  0000000000001DDC: 90                 nop
  0000000000001DDD: 90                 nop
  0000000000001DDE: 90                 nop
  0000000000001DDF: 90                 nop
L$xts_enc_three:
  0000000000001DE0: 0F 10 17           movups      xmm2,xmmword ptr [rdi]
  0000000000001DE3: 0F 10 5F 10        movups      xmm3,xmmword ptr [rdi+10h]
  0000000000001DE7: 0F 10 67 20        movups      xmm4,xmmword ptr [rdi+20h]
  0000000000001DEB: 48 8D 7F 30        lea         rdi,[rdi+30h]
  0000000000001DEF: 41 0F 57 D2        xorps       xmm2,xmm10
  0000000000001DF3: 41 0F 57 DB        xorps       xmm3,xmm11
  0000000000001DF7: 41 0F 57 E4        xorps       xmm4,xmm12
  0000000000001DFB: E8 60 E3 FF FF     call        _aesni_encrypt3
  0000000000001E00: 41 0F 57 D2        xorps       xmm2,xmm10
  0000000000001E04: 66 45 0F 6F D5     movdqa      xmm10,xmm13
  0000000000001E09: 41 0F 57 DB        xorps       xmm3,xmm11
  0000000000001E0D: 41 0F 57 E4        xorps       xmm4,xmm12
  0000000000001E11: 0F 11 16           movups      xmmword ptr [rsi],xmm2
  0000000000001E14: 0F 11 5E 10        movups      xmmword ptr [rsi+10h],xmm3
  0000000000001E18: 0F 11 66 20        movups      xmmword ptr [rsi+20h],xmm4
  0000000000001E1C: 48 8D 76 30        lea         rsi,[rsi+30h]
  0000000000001E20: E9 6B 00 00 00     jmp         L$xts_enc_done
  0000000000001E25: 90                 nop
  0000000000001E26: 90                 nop
  0000000000001E27: 90                 nop
  0000000000001E28: 90                 nop
  0000000000001E29: 90                 nop
  0000000000001E2A: 90                 nop
  0000000000001E2B: 90                 nop
  0000000000001E2C: 90                 nop
  0000000000001E2D: 90                 nop
  0000000000001E2E: 90                 nop
  0000000000001E2F: 90                 nop
L$xts_enc_four:
  0000000000001E30: 0F 10 17           movups      xmm2,xmmword ptr [rdi]
  0000000000001E33: 0F 10 5F 10        movups      xmm3,xmmword ptr [rdi+10h]
  0000000000001E37: 0F 10 67 20        movups      xmm4,xmmword ptr [rdi+20h]
  0000000000001E3B: 41 0F 57 D2        xorps       xmm2,xmm10
  0000000000001E3F: 0F 10 6F 30        movups      xmm5,xmmword ptr [rdi+30h]
  0000000000001E43: 48 8D 7F 40        lea         rdi,[rdi+40h]
  0000000000001E47: 41 0F 57 DB        xorps       xmm3,xmm11
  0000000000001E4B: 41 0F 57 E4        xorps       xmm4,xmm12
  0000000000001E4F: 41 0F 57 ED        xorps       xmm5,xmm13
  0000000000001E53: E8 08 E4 FF FF     call        _aesni_encrypt4
  0000000000001E58: 66 41 0F EF D2     pxor        xmm2,xmm10
  0000000000001E5D: 66 45 0F 6F D6     movdqa      xmm10,xmm14
  0000000000001E62: 66 41 0F EF DB     pxor        xmm3,xmm11
  0000000000001E67: 66 41 0F EF E4     pxor        xmm4,xmm12
  0000000000001E6C: F3 0F 7F 16        movdqu      xmmword ptr [rsi],xmm2
  0000000000001E70: 66 41 0F EF ED     pxor        xmm5,xmm13
  0000000000001E75: F3 0F 7F 5E 10     movdqu      xmmword ptr [rsi+10h],xmm3
  0000000000001E7A: F3 0F 7F 66 20     movdqu      xmmword ptr [rsi+20h],xmm4
  0000000000001E7F: F3 0F 7F 6E 30     movdqu      xmmword ptr [rsi+30h],xmm5
  0000000000001E84: 48 8D 76 40        lea         rsi,[rsi+40h]
  0000000000001E88: E9 03 00 00 00     jmp         L$xts_enc_done
  0000000000001E8D: 90                 nop
  0000000000001E8E: 90                 nop
  0000000000001E8F: 90                 nop
L$xts_enc_done:
  0000000000001E90: 49 83 E1 0F        and         r9,0Fh
  0000000000001E94: 0F 84 61 00 00 00  je          L$xts_enc_ret
  0000000000001E9A: 4C 89 CA           mov         rdx,r9
L$xts_enc_steal:
  0000000000001E9D: 0F B6 07           movzx       eax,byte ptr [rdi]
  0000000000001EA0: 0F B6 4E F0        movzx       ecx,byte ptr [rsi-10h]
  0000000000001EA4: 48 8D 7F 01        lea         rdi,[rdi+1]
  0000000000001EA8: 88 46 F0           mov         byte ptr [rsi-10h],al
  0000000000001EAB: 88 0E              mov         byte ptr [rsi],cl
  0000000000001EAD: 48 8D 76 01        lea         rsi,[rsi+1]
  0000000000001EB1: 48 83 EA 01        sub         rdx,1
  0000000000001EB5: 0F 85 E2 FF FF FF  jne         L$xts_enc_steal
  0000000000001EBB: 4C 29 CE           sub         rsi,r9
  0000000000001EBE: 48 89 E9           mov         rcx,rbp
  0000000000001EC1: 44 89 D0           mov         eax,r10d
  0000000000001EC4: 0F 10 56 F0        movups      xmm2,xmmword ptr [rsi-10h]
  0000000000001EC8: 41 0F 57 D2        xorps       xmm2,xmm10
  0000000000001ECC: 0F 10 01           movups      xmm0,xmmword ptr [rcx]
  0000000000001ECF: 0F 10 49 10        movups      xmm1,xmmword ptr [rcx+10h]
  0000000000001ED3: 48 8D 49 20        lea         rcx,[rcx+20h]
  0000000000001ED7: 0F 57 D0           xorps       xmm2,xmm0
L$oop_enc1_8:
  0000000000001EDA: 66 0F 38 DC D1     aesenc      xmm2,xmm1
  0000000000001EDF: FF C8              dec         eax
  0000000000001EE1: 0F 10 09           movups      xmm1,xmmword ptr [rcx]
  0000000000001EE4: 48 8D 49 10        lea         rcx,[rcx+10h]
  0000000000001EE8: 0F 85 EC FF FF FF  jne         L$oop_enc1_8
  0000000000001EEE: 66 0F 38 DD D1     aesenclast  xmm2,xmm1
  0000000000001EF3: 41 0F 57 D2        xorps       xmm2,xmm10
  0000000000001EF7: 0F 11 56 F0        movups      xmmword ptr [rsi-10h],xmm2
L$xts_enc_ret:
  0000000000001EFB: 0F 57 C0           xorps       xmm0,xmm0
  0000000000001EFE: 66 0F EF C9        pxor        xmm1,xmm1
  0000000000001F02: 66 0F EF D2        pxor        xmm2,xmm2
  0000000000001F06: 66 0F EF DB        pxor        xmm3,xmm3
  0000000000001F0A: 66 0F EF E4        pxor        xmm4,xmm4
  0000000000001F0E: 66 0F EF ED        pxor        xmm5,xmm5
  0000000000001F12: 41 0F 28 B3 58 FF  movaps      xmm6,xmmword ptr [r11-0A8h]
                    FF FF
  0000000000001F1A: 41 0F 29 83 58 FF  movaps      xmmword ptr [r11-0A8h],xmm0
                    FF FF
  0000000000001F22: 41 0F 28 BB 68 FF  movaps      xmm7,xmmword ptr [r11-98h]
                    FF FF
  0000000000001F2A: 41 0F 29 83 68 FF  movaps      xmmword ptr [r11-98h],xmm0
                    FF FF
  0000000000001F32: 45 0F 28 83 78 FF  movaps      xmm8,xmmword ptr [r11-88h]
                    FF FF
  0000000000001F3A: 41 0F 29 83 78 FF  movaps      xmmword ptr [r11-88h],xmm0
                    FF FF
  0000000000001F42: 45 0F 28 4B 88     movaps      xmm9,xmmword ptr [r11-78h]
  0000000000001F47: 41 0F 29 43 88     movaps      xmmword ptr [r11-78h],xmm0
  0000000000001F4C: 45 0F 28 53 98     movaps      xmm10,xmmword ptr [r11-68h]
  0000000000001F51: 41 0F 29 43 98     movaps      xmmword ptr [r11-68h],xmm0
  0000000000001F56: 45 0F 28 5B A8     movaps      xmm11,xmmword ptr [r11-58h]
  0000000000001F5B: 41 0F 29 43 A8     movaps      xmmword ptr [r11-58h],xmm0
  0000000000001F60: 45 0F 28 63 B8     movaps      xmm12,xmmword ptr [r11-48h]
  0000000000001F65: 41 0F 29 43 B8     movaps      xmmword ptr [r11-48h],xmm0
  0000000000001F6A: 45 0F 28 6B C8     movaps      xmm13,xmmword ptr [r11-38h]
  0000000000001F6F: 41 0F 29 43 C8     movaps      xmmword ptr [r11-38h],xmm0
  0000000000001F74: 45 0F 28 73 D8     movaps      xmm14,xmmword ptr [r11-28h]
  0000000000001F79: 41 0F 29 43 D8     movaps      xmmword ptr [r11-28h],xmm0
  0000000000001F7E: 45 0F 28 7B E8     movaps      xmm15,xmmword ptr [r11-18h]
  0000000000001F83: 41 0F 29 43 E8     movaps      xmmword ptr [r11-18h],xmm0
  0000000000001F88: 0F 29 04 24        movaps      xmmword ptr [rsp],xmm0
  0000000000001F8C: 0F 29 44 24 10     movaps      xmmword ptr [rsp+10h],xmm0
  0000000000001F91: 0F 29 44 24 20     movaps      xmmword ptr [rsp+20h],xmm0
  0000000000001F96: 0F 29 44 24 30     movaps      xmmword ptr [rsp+30h],xmm0
  0000000000001F9B: 0F 29 44 24 40     movaps      xmmword ptr [rsp+40h],xmm0
  0000000000001FA0: 0F 29 44 24 50     movaps      xmmword ptr [rsp+50h],xmm0
  0000000000001FA5: 0F 29 44 24 60     movaps      xmmword ptr [rsp+60h],xmm0
  0000000000001FAA: 49 8B 6B F8        mov         rbp,qword ptr [r11-8]
  0000000000001FAE: 49 8D 23           lea         rsp,[r11]
L$xts_enc_epilogue:
  0000000000001FB1: 48 8B 7C 24 08     mov         rdi,qword ptr [rsp+8]
  0000000000001FB6: 48 8B 74 24 10     mov         rsi,qword ptr [rsp+10h]
  0000000000001FBB: F3 C3              rep ret
L$SEH_end_aes_hw_xts_encrypt:
  0000000000001FBD: 90                 nop
  0000000000001FBE: 90                 nop
  0000000000001FBF: 90                 nop
aws_lc_0_21_0_aes_hw_xts_decrypt:
  0000000000001FC0: 48 89 7C 24 08     mov         qword ptr [rsp+8],rdi
  0000000000001FC5: 48 89 74 24 10     mov         qword ptr [rsp+10h],rsi
  0000000000001FCA: 48 89 E0           mov         rax,rsp
L$SEH_begin_aes_hw_xts_decrypt:
  0000000000001FCD: 48 89 CF           mov         rdi,rcx
  0000000000001FD0: 48 89 D6           mov         rsi,rdx
  0000000000001FD3: 4C 89 C2           mov         rdx,r8
  0000000000001FD6: 4C 89 C9           mov         rcx,r9
  0000000000001FD9: 4C 8B 44 24 28     mov         r8,qword ptr [rsp+28h]
  0000000000001FDE: 4C 8B 4C 24 30     mov         r9,qword ptr [rsp+30h]
  0000000000001FE3: 4C 8D 1C 24        lea         r11,[rsp]
  0000000000001FE7: 55                 push        rbp
  0000000000001FE8: 48 81 EC 10 01 00  sub         rsp,110h
                    00
  0000000000001FEF: 48 83 E4 F0        and         rsp,0FFFFFFFFFFFFFFF0h
  0000000000001FF3: 41 0F 29 B3 58 FF  movaps      xmmword ptr [r11-0A8h],xmm6
                    FF FF
  0000000000001FFB: 41 0F 29 BB 68 FF  movaps      xmmword ptr [r11-98h],xmm7
                    FF FF
  0000000000002003: 45 0F 29 83 78 FF  movaps      xmmword ptr [r11-88h],xmm8
                    FF FF
  000000000000200B: 45 0F 29 4B 88     movaps      xmmword ptr [r11-78h],xmm9
  0000000000002010: 45 0F 29 53 98     movaps      xmmword ptr [r11-68h],xmm10
  0000000000002015: 45 0F 29 5B A8     movaps      xmmword ptr [r11-58h],xmm11
  000000000000201A: 45 0F 29 63 B8     movaps      xmmword ptr [r11-48h],xmm12
  000000000000201F: 45 0F 29 6B C8     movaps      xmmword ptr [r11-38h],xmm13
  0000000000002024: 45 0F 29 73 D8     movaps      xmmword ptr [r11-28h],xmm14
  0000000000002029: 45 0F 29 7B E8     movaps      xmmword ptr [r11-18h],xmm15
L$xts_dec_body:
  000000000000202E: 41 0F 10 11        movups      xmm2,xmmword ptr [r9]
  0000000000002032: 41 8B 80 F0 00 00  mov         eax,dword ptr [r8+0F0h]
                    00
  0000000000002039: 44 8B 91 F0 00 00  mov         r10d,dword ptr [rcx+0F0h]
                    00
  0000000000002040: 41 0F 10 00        movups      xmm0,xmmword ptr [r8]
  0000000000002044: 41 0F 10 48 10     movups      xmm1,xmmword ptr [r8+10h]
  0000000000002049: 4D 8D 40 20        lea         r8,[r8+20h]
  000000000000204D: 0F 57 D0           xorps       xmm2,xmm0
L$oop_enc1_9:
  0000000000002050: 66 0F 38 DC D1     aesenc      xmm2,xmm1
  0000000000002055: FF C8              dec         eax
  0000000000002057: 41 0F 10 08        movups      xmm1,xmmword ptr [r8]
  000000000000205B: 4D 8D 40 10        lea         r8,[r8+10h]
  000000000000205F: 0F 85 EB FF FF FF  jne         L$oop_enc1_9
  0000000000002065: 66 0F 38 DD D1     aesenclast  xmm2,xmm1
  000000000000206A: 31 C0              xor         eax,eax
  000000000000206C: 48 F7 C2 0F 00 00  test        rdx,0Fh
                    00
  0000000000002073: 0F 95 C0           setne       al
  0000000000002076: 48 C1 E0 04        shl         rax,4
  000000000000207A: 48 29 C2           sub         rdx,rax
  000000000000207D: 0F 10 01           movups      xmm0,xmmword ptr [rcx]
  0000000000002080: 48 89 CD           mov         rbp,rcx
  0000000000002083: 44 89 D0           mov         eax,r10d
  0000000000002086: 41 C1 E2 04        shl         r10d,4
  000000000000208A: 49 89 D1           mov         r9,rdx
  000000000000208D: 48 83 E2 F0        and         rdx,0FFFFFFFFFFFFFFF0h
  0000000000002091: 42 0F 10 4C 11 10  movups      xmm1,xmmword ptr [rcx+r10+10h]
  0000000000002097: 66 44 0F 6F 05 30  movdqa      xmm8,xmmword ptr [.rdata+30h]
                    00 00 00
  00000000000020A0: 66 44 0F 6F FA     movdqa      xmm15,xmm2
  00000000000020A5: 66 44 0F 70 CA 5F  pshufd      xmm9,xmm2,5Fh
  00000000000020AB: 66 0F EF C8        pxor        xmm1,xmm0
  00000000000020AF: 66 45 0F 6F F1     movdqa      xmm14,xmm9
  00000000000020B4: 66 45 0F FE C9     paddd       xmm9,xmm9
  00000000000020B9: 66 45 0F 6F D7     movdqa      xmm10,xmm15
  00000000000020BE: 66 41 0F 72 E6 1F  psrad       xmm14,1Fh
  00000000000020C4: 66 45 0F D4 FF     paddq       xmm15,xmm15
  00000000000020C9: 66 45 0F DB F0     pand        xmm14,xmm8
  00000000000020CE: 66 44 0F EF D0     pxor        xmm10,xmm0
  00000000000020D3: 66 45 0F EF FE     pxor        xmm15,xmm14
  00000000000020D8: 66 45 0F 6F F1     movdqa      xmm14,xmm9
  00000000000020DD: 66 45 0F FE C9     paddd       xmm9,xmm9
  00000000000020E2: 66 45 0F 6F DF     movdqa      xmm11,xmm15
  00000000000020E7: 66 41 0F 72 E6 1F  psrad       xmm14,1Fh
  00000000000020ED: 66 45 0F D4 FF     paddq       xmm15,xmm15
  00000000000020F2: 66 45 0F DB F0     pand        xmm14,xmm8
  00000000000020F7: 66 44 0F EF D8     pxor        xmm11,xmm0
  00000000000020FC: 66 45 0F EF FE     pxor        xmm15,xmm14
  0000000000002101: 66 45 0F 6F F1     movdqa      xmm14,xmm9
  0000000000002106: 66 45 0F FE C9     paddd       xmm9,xmm9
  000000000000210B: 66 45 0F 6F E7     movdqa      xmm12,xmm15
  0000000000002110: 66 41 0F 72 E6 1F  psrad       xmm14,1Fh
  0000000000002116: 66 45 0F D4 FF     paddq       xmm15,xmm15
  000000000000211B: 66 45 0F DB F0     pand        xmm14,xmm8
  0000000000002120: 66 44 0F EF E0     pxor        xmm12,xmm0
  0000000000002125: 66 45 0F EF FE     pxor        xmm15,xmm14
  000000000000212A: 66 45 0F 6F F1     movdqa      xmm14,xmm9
  000000000000212F: 66 45 0F FE C9     paddd       xmm9,xmm9
  0000000000002134: 66 45 0F 6F EF     movdqa      xmm13,xmm15
  0000000000002139: 66 41 0F 72 E6 1F  psrad       xmm14,1Fh
  000000000000213F: 66 45 0F D4 FF     paddq       xmm15,xmm15
  0000000000002144: 66 45 0F DB F0     pand        xmm14,xmm8
  0000000000002149: 66 44 0F EF E8     pxor        xmm13,xmm0
  000000000000214E: 66 45 0F EF FE     pxor        xmm15,xmm14
  0000000000002153: 66 45 0F 6F F7     movdqa      xmm14,xmm15
  0000000000002158: 66 41 0F 72 E1 1F  psrad       xmm9,1Fh
  000000000000215E: 66 45 0F D4 FF     paddq       xmm15,xmm15
  0000000000002163: 66 45 0F DB C8     pand        xmm9,xmm8
  0000000000002168: 66 44 0F EF F0     pxor        xmm14,xmm0
  000000000000216D: 66 45 0F EF F9     pxor        xmm15,xmm9
  0000000000002172: 0F 29 4C 24 60     movaps      xmmword ptr [rsp+60h],xmm1
  0000000000002177: 48 83 EA 60        sub         rdx,60h
  000000000000217B: 0F 82 83 03 00 00  jb          L$xts_dec_short
  0000000000002181: B8 70 00 00 00     mov         eax,70h
  0000000000002186: 4A 8D 4C 15 20     lea         rcx,[rbp+r10+20h]
  000000000000218B: 4C 29 D0           sub         rax,r10
  000000000000218E: 0F 10 4D 10        movups      xmm1,xmmword ptr [rbp+10h]
  0000000000002192: 49 89 C2           mov         r10,rax
  0000000000002195: 4C 8D 05 30 00 00  lea         r8,[.rdata+30h]
                    00
  000000000000219C: E9 1F 00 00 00     jmp         L$xts_dec_grandloop
  00000000000021A1: 90                 nop
  00000000000021A2: 90                 nop
  00000000000021A3: 90                 nop
  00000000000021A4: 90                 nop
  00000000000021A5: 90                 nop
  00000000000021A6: 90                 nop
  00000000000021A7: 90                 nop
  00000000000021A8: 90                 nop
  00000000000021A9: 90                 nop
  00000000000021AA: 90                 nop
  00000000000021AB: 90                 nop
  00000000000021AC: 90                 nop
  00000000000021AD: 90                 nop
  00000000000021AE: 90                 nop
  00000000000021AF: 90                 nop
  00000000000021B0: 90                 nop
  00000000000021B1: 90                 nop
  00000000000021B2: 90                 nop
  00000000000021B3: 90                 nop
  00000000000021B4: 90                 nop
  00000000000021B5: 90                 nop
  00000000000021B6: 90                 nop
  00000000000021B7: 90                 nop
  00000000000021B8: 90                 nop
  00000000000021B9: 90                 nop
  00000000000021BA: 90                 nop
  00000000000021BB: 90                 nop
  00000000000021BC: 90                 nop
  00000000000021BD: 90                 nop
  00000000000021BE: 90                 nop
  00000000000021BF: 90                 nop
L$xts_dec_grandloop:
  00000000000021C0: F3 0F 6F 17        movdqu      xmm2,xmmword ptr [rdi]
  00000000000021C4: 66 44 0F 6F C0     movdqa      xmm8,xmm0
  00000000000021C9: F3 0F 6F 5F 10     movdqu      xmm3,xmmword ptr [rdi+10h]
  00000000000021CE: 66 41 0F EF D2     pxor        xmm2,xmm10
  00000000000021D3: F3 0F 6F 67 20     movdqu      xmm4,xmmword ptr [rdi+20h]
  00000000000021D8: 66 41 0F EF DB     pxor        xmm3,xmm11
  00000000000021DD: 66 0F 38 DE D1     aesdec      xmm2,xmm1
  00000000000021E2: F3 0F 6F 6F 30     movdqu      xmm5,xmmword ptr [rdi+30h]
  00000000000021E7: 66 41 0F EF E4     pxor        xmm4,xmm12
  00000000000021EC: 66 0F 38 DE D9     aesdec      xmm3,xmm1
  00000000000021F1: F3 0F 6F 77 40     movdqu      xmm6,xmmword ptr [rdi+40h]
  00000000000021F6: 66 41 0F EF ED     pxor        xmm5,xmm13
  00000000000021FB: 66 0F 38 DE E1     aesdec      xmm4,xmm1
  0000000000002200: F3 0F 6F 7F 50     movdqu      xmm7,xmmword ptr [rdi+50h]
  0000000000002205: 66 45 0F EF C7     pxor        xmm8,xmm15
  000000000000220A: 66 44 0F 6F 4C 24  movdqa      xmm9,xmmword ptr [rsp+60h]
                    60
  0000000000002211: 66 41 0F EF F6     pxor        xmm6,xmm14
  0000000000002216: 66 0F 38 DE E9     aesdec      xmm5,xmm1
  000000000000221B: 0F 10 45 20        movups      xmm0,xmmword ptr [rbp+20h]
  000000000000221F: 48 8D 7F 60        lea         rdi,[rdi+60h]
  0000000000002223: 66 41 0F EF F8     pxor        xmm7,xmm8
  0000000000002228: 66 45 0F EF D1     pxor        xmm10,xmm9
  000000000000222D: 66 0F 38 DE F1     aesdec      xmm6,xmm1
  0000000000002232: 66 45 0F EF D9     pxor        xmm11,xmm9
  0000000000002237: 66 44 0F 7F 14 24  movdqa      xmmword ptr [rsp],xmm10
  000000000000223D: 66 0F 38 DE F9     aesdec      xmm7,xmm1
  0000000000002242: 0F 10 4D 30        movups      xmm1,xmmword ptr [rbp+30h]
  0000000000002246: 66 45 0F EF E1     pxor        xmm12,xmm9
  000000000000224B: 66 0F 38 DE D0     aesdec      xmm2,xmm0
  0000000000002250: 66 45 0F EF E9     pxor        xmm13,xmm9
  0000000000002255: 66 44 0F 7F 5C 24  movdqa      xmmword ptr [rsp+10h],xmm11
                    10
  000000000000225C: 66 0F 38 DE D8     aesdec      xmm3,xmm0
  0000000000002261: 66 45 0F EF F1     pxor        xmm14,xmm9
  0000000000002266: 66 44 0F 7F 64 24  movdqa      xmmword ptr [rsp+20h],xmm12
                    20
  000000000000226D: 66 0F 38 DE E0     aesdec      xmm4,xmm0
  0000000000002272: 66 0F 38 DE E8     aesdec      xmm5,xmm0
  0000000000002277: 66 45 0F EF C1     pxor        xmm8,xmm9
  000000000000227C: 66 44 0F 7F 74 24  movdqa      xmmword ptr [rsp+40h],xmm14
                    40
  0000000000002283: 66 0F 38 DE F0     aesdec      xmm6,xmm0
  0000000000002288: 66 0F 38 DE F8     aesdec      xmm7,xmm0
  000000000000228D: 0F 10 45 40        movups      xmm0,xmmword ptr [rbp+40h]
  0000000000002291: 66 44 0F 7F 44 24  movdqa      xmmword ptr [rsp+50h],xmm8
                    50
  0000000000002298: 66 45 0F 70 CF 5F  pshufd      xmm9,xmm15,5Fh
  000000000000229E: E9 1D 00 00 00     jmp         L$xts_dec_loop6
  00000000000022A3: 90                 nop
  00000000000022A4: 90                 nop
  00000000000022A5: 90                 nop
  00000000000022A6: 90                 nop
  00000000000022A7: 90                 nop
  00000000000022A8: 90                 nop
  00000000000022A9: 90                 nop
  00000000000022AA: 90                 nop
  00000000000022AB: 90                 nop
  00000000000022AC: 90                 nop
  00000000000022AD: 90                 nop
  00000000000022AE: 90                 nop
  00000000000022AF: 90                 nop
  00000000000022B0: 90                 nop
  00000000000022B1: 90                 nop
  00000000000022B2: 90                 nop
  00000000000022B3: 90                 nop
  00000000000022B4: 90                 nop
  00000000000022B5: 90                 nop
  00000000000022B6: 90                 nop
  00000000000022B7: 90                 nop
  00000000000022B8: 90                 nop
  00000000000022B9: 90                 nop
  00000000000022BA: 90                 nop
  00000000000022BB: 90                 nop
  00000000000022BC: 90                 nop
  00000000000022BD: 90                 nop
  00000000000022BE: 90                 nop
  00000000000022BF: 90                 nop
L$xts_dec_loop6:
  00000000000022C0: 66 0F 38 DE D1     aesdec      xmm2,xmm1
  00000000000022C5: 66 0F 38 DE D9     aesdec      xmm3,xmm1
  00000000000022CA: 66 0F 38 DE E1     aesdec      xmm4,xmm1
  00000000000022CF: 66 0F 38 DE E9     aesdec      xmm5,xmm1
  00000000000022D4: 66 0F 38 DE F1     aesdec      xmm6,xmm1
  00000000000022D9: 66 0F 38 DE F9     aesdec      xmm7,xmm1
  00000000000022DE: 0F 10 4C 01 C0     movups      xmm1,xmmword ptr [rcx+rax-40h]
  00000000000022E3: 48 83 C0 20        add         rax,20h
  00000000000022E7: 66 0F 38 DE D0     aesdec      xmm2,xmm0
  00000000000022EC: 66 0F 38 DE D8     aesdec      xmm3,xmm0
  00000000000022F1: 66 0F 38 DE E0     aesdec      xmm4,xmm0
  00000000000022F6: 66 0F 38 DE E8     aesdec      xmm5,xmm0
  00000000000022FB: 66 0F 38 DE F0     aesdec      xmm6,xmm0
  0000000000002300: 66 0F 38 DE F8     aesdec      xmm7,xmm0
  0000000000002305: 0F 10 44 01 B0     movups      xmm0,xmmword ptr [rcx+rax-50h]
  000000000000230A: 0F 85 B0 FF FF FF  jne         L$xts_dec_loop6
  0000000000002310: 66 45 0F 6F 00     movdqa      xmm8,xmmword ptr [r8]
  0000000000002315: 66 45 0F 6F F1     movdqa      xmm14,xmm9
  000000000000231A: 66 45 0F FE C9     paddd       xmm9,xmm9
  000000000000231F: 66 0F 38 DE D1     aesdec      xmm2,xmm1
  0000000000002324: 66 45 0F D4 FF     paddq       xmm15,xmm15
  0000000000002329: 66 41 0F 72 E6 1F  psrad       xmm14,1Fh
  000000000000232F: 66 0F 38 DE D9     aesdec      xmm3,xmm1
  0000000000002334: 66 45 0F DB F0     pand        xmm14,xmm8
  0000000000002339: 44 0F 10 55 00     movups      xmm10,xmmword ptr [rbp]
  000000000000233E: 66 0F 38 DE E1     aesdec      xmm4,xmm1
  0000000000002343: 66 0F 38 DE E9     aesdec      xmm5,xmm1
  0000000000002348: 66 0F 38 DE F1     aesdec      xmm6,xmm1
  000000000000234D: 66 45 0F EF FE     pxor        xmm15,xmm14
  0000000000002352: 45 0F 28 DA        movaps      xmm11,xmm10
  0000000000002356: 66 0F 38 DE F9     aesdec      xmm7,xmm1
  000000000000235B: 0F 10 49 C0        movups      xmm1,xmmword ptr [rcx-40h]
  000000000000235F: 66 45 0F 6F F1     movdqa      xmm14,xmm9
  0000000000002364: 66 0F 38 DE D0     aesdec      xmm2,xmm0
  0000000000002369: 66 45 0F FE C9     paddd       xmm9,xmm9
  000000000000236E: 66 45 0F EF D7     pxor        xmm10,xmm15
  0000000000002373: 66 0F 38 DE D8     aesdec      xmm3,xmm0
  0000000000002378: 66 41 0F 72 E6 1F  psrad       xmm14,1Fh
  000000000000237E: 66 45 0F D4 FF     paddq       xmm15,xmm15
  0000000000002383: 66 0F 38 DE E0     aesdec      xmm4,xmm0
  0000000000002388: 66 0F 38 DE E8     aesdec      xmm5,xmm0
  000000000000238D: 66 45 0F DB F0     pand        xmm14,xmm8
  0000000000002392: 45 0F 28 E3        movaps      xmm12,xmm11
  0000000000002396: 66 0F 38 DE F0     aesdec      xmm6,xmm0
  000000000000239B: 66 45 0F EF FE     pxor        xmm15,xmm14
  00000000000023A0: 66 45 0F 6F F1     movdqa      xmm14,xmm9
  00000000000023A5: 66 0F 38 DE F8     aesdec      xmm7,xmm0
  00000000000023AA: 0F 10 41 D0        movups      xmm0,xmmword ptr [rcx-30h]
  00000000000023AE: 66 45 0F FE C9     paddd       xmm9,xmm9
  00000000000023B3: 66 0F 38 DE D1     aesdec      xmm2,xmm1
  00000000000023B8: 66 45 0F EF DF     pxor        xmm11,xmm15
  00000000000023BD: 66 41 0F 72 E6 1F  psrad       xmm14,1Fh
  00000000000023C3: 66 0F 38 DE D9     aesdec      xmm3,xmm1
  00000000000023C8: 66 45 0F D4 FF     paddq       xmm15,xmm15
  00000000000023CD: 66 45 0F DB F0     pand        xmm14,xmm8
  00000000000023D2: 66 0F 38 DE E1     aesdec      xmm4,xmm1
  00000000000023D7: 66 0F 38 DE E9     aesdec      xmm5,xmm1
  00000000000023DC: 66 44 0F 7F 6C 24  movdqa      xmmword ptr [rsp+30h],xmm13
                    30
  00000000000023E3: 66 45 0F EF FE     pxor        xmm15,xmm14
  00000000000023E8: 66 0F 38 DE F1     aesdec      xmm6,xmm1
  00000000000023ED: 45 0F 28 EC        movaps      xmm13,xmm12
  00000000000023F1: 66 45 0F 6F F1     movdqa      xmm14,xmm9
  00000000000023F6: 66 0F 38 DE F9     aesdec      xmm7,xmm1
  00000000000023FB: 0F 10 49 E0        movups      xmm1,xmmword ptr [rcx-20h]
  00000000000023FF: 66 45 0F FE C9     paddd       xmm9,xmm9
  0000000000002404: 66 0F 38 DE D0     aesdec      xmm2,xmm0
  0000000000002409: 66 45 0F EF E7     pxor        xmm12,xmm15
  000000000000240E: 66 41 0F 72 E6 1F  psrad       xmm14,1Fh
  0000000000002414: 66 0F 38 DE D8     aesdec      xmm3,xmm0
  0000000000002419: 66 45 0F D4 FF     paddq       xmm15,xmm15
  000000000000241E: 66 45 0F DB F0     pand        xmm14,xmm8
  0000000000002423: 66 0F 38 DE E0     aesdec      xmm4,xmm0
  0000000000002428: 66 0F 38 DE E8     aesdec      xmm5,xmm0
  000000000000242D: 66 0F 38 DE F0     aesdec      xmm6,xmm0
  0000000000002432: 66 45 0F EF FE     pxor        xmm15,xmm14
  0000000000002437: 45 0F 28 F5        movaps      xmm14,xmm13
  000000000000243B: 66 0F 38 DE F8     aesdec      xmm7,xmm0
  0000000000002440: 66 41 0F 6F C1     movdqa      xmm0,xmm9
  0000000000002445: 66 45 0F FE C9     paddd       xmm9,xmm9
  000000000000244A: 66 0F 38 DE D1     aesdec      xmm2,xmm1
  000000000000244F: 66 45 0F EF EF     pxor        xmm13,xmm15
  0000000000002454: 66 0F 72 E0 1F     psrad       xmm0,1Fh
  0000000000002459: 66 0F 38 DE D9     aesdec      xmm3,xmm1
  000000000000245E: 66 45 0F D4 FF     paddq       xmm15,xmm15
  0000000000002463: 66 41 0F DB C0     pand        xmm0,xmm8
  0000000000002468: 66 0F 38 DE E1     aesdec      xmm4,xmm1
  000000000000246D: 66 0F 38 DE E9     aesdec      xmm5,xmm1
  0000000000002472: 66 44 0F EF F8     pxor        xmm15,xmm0
  0000000000002477: 0F 10 45 00        movups      xmm0,xmmword ptr [rbp]
  000000000000247B: 66 0F 38 DE F1     aesdec      xmm6,xmm1
  0000000000002480: 66 0F 38 DE F9     aesdec      xmm7,xmm1
  0000000000002485: 0F 10 4D 10        movups      xmm1,xmmword ptr [rbp+10h]
  0000000000002489: 66 45 0F EF F7     pxor        xmm14,xmm15
  000000000000248E: 66 0F 38 DF 54 24  aesdeclast  xmm2,xmmword ptr [rsp]
                    00
  0000000000002495: 66 41 0F 72 E1 1F  psrad       xmm9,1Fh
  000000000000249B: 66 45 0F D4 FF     paddq       xmm15,xmm15
  00000000000024A0: 66 0F 38 DF 5C 24  aesdeclast  xmm3,xmmword ptr [rsp+10h]
                    10
  00000000000024A7: 66 0F 38 DF 64 24  aesdeclast  xmm4,xmmword ptr [rsp+20h]
                    20
  00000000000024AE: 66 45 0F DB C8     pand        xmm9,xmm8
  00000000000024B3: 4C 89 D0           mov         rax,r10
  00000000000024B6: 66 0F 38 DF 6C 24  aesdeclast  xmm5,xmmword ptr [rsp+30h]
                    30
  00000000000024BD: 66 0F 38 DF 74 24  aesdeclast  xmm6,xmmword ptr [rsp+40h]
                    40
  00000000000024C4: 66 0F 38 DF 7C 24  aesdeclast  xmm7,xmmword ptr [rsp+50h]
                    50
  00000000000024CB: 66 45 0F EF F9     pxor        xmm15,xmm9
  00000000000024D0: 48 8D 76 60        lea         rsi,[rsi+60h]
  00000000000024D4: 0F 11 56 A0        movups      xmmword ptr [rsi-60h],xmm2
  00000000000024D8: 0F 11 5E B0        movups      xmmword ptr [rsi-50h],xmm3
  00000000000024DC: 0F 11 66 C0        movups      xmmword ptr [rsi-40h],xmm4
  00000000000024E0: 0F 11 6E D0        movups      xmmword ptr [rsi-30h],xmm5
  00000000000024E4: 0F 11 76 E0        movups      xmmword ptr [rsi-20h],xmm6
  00000000000024E8: 0F 11 7E F0        movups      xmmword ptr [rsi-10h],xmm7
  00000000000024EC: 48 83 EA 60        sub         rdx,60h
  00000000000024F0: 0F 83 CA FC FF FF  jae         L$xts_dec_grandloop
  00000000000024F6: B8 70 00 00 00     mov         eax,70h
  00000000000024FB: 44 29 D0           sub         eax,r10d
  00000000000024FE: 48 89 E9           mov         rcx,rbp
  0000000000002501: C1 E8 04           shr         eax,4
L$xts_dec_short:
  0000000000002504: 41 89 C2           mov         r10d,eax
  0000000000002507: 66 44 0F EF D0     pxor        xmm10,xmm0
  000000000000250C: 66 44 0F EF D8     pxor        xmm11,xmm0
  0000000000002511: 48 83 C2 60        add         rdx,60h
  0000000000002515: 0F 84 25 02 00 00  je          L$xts_dec_done
  000000000000251B: 66 44 0F EF E0     pxor        xmm12,xmm0
  0000000000002520: 48 83 FA 20        cmp         rdx,20h
  0000000000002524: 0F 82 C6 00 00 00  jb          L$xts_dec_one
  000000000000252A: 66 44 0F EF E8     pxor        xmm13,xmm0
  000000000000252F: 0F 84 0B 01 00 00  je          L$xts_dec_two
  0000000000002535: 66 44 0F EF F0     pxor        xmm14,xmm0
  000000000000253A: 48 83 FA 40        cmp         rdx,40h
  000000000000253E: 0F 82 3C 01 00 00  jb          L$xts_dec_three
  0000000000002544: 0F 84 86 01 00 00  je          L$xts_dec_four
  000000000000254A: F3 0F 6F 17        movdqu      xmm2,xmmword ptr [rdi]
  000000000000254E: F3 0F 6F 5F 10     movdqu      xmm3,xmmword ptr [rdi+10h]
  0000000000002553: F3 0F 6F 67 20     movdqu      xmm4,xmmword ptr [rdi+20h]
  0000000000002558: 66 41 0F EF D2     pxor        xmm2,xmm10
  000000000000255D: F3 0F 6F 6F 30     movdqu      xmm5,xmmword ptr [rdi+30h]
  0000000000002562: 66 41 0F EF DB     pxor        xmm3,xmm11
  0000000000002567: F3 0F 6F 77 40     movdqu      xmm6,xmmword ptr [rdi+40h]
  000000000000256C: 48 8D 7F 50        lea         rdi,[rdi+50h]
  0000000000002570: 66 41 0F EF E4     pxor        xmm4,xmm12
  0000000000002575: 66 41 0F EF ED     pxor        xmm5,xmm13
  000000000000257A: 66 41 0F EF F6     pxor        xmm6,xmm14
  000000000000257F: E8 DC DE FF FF     call        _aesni_decrypt6
  0000000000002584: 41 0F 57 D2        xorps       xmm2,xmm10
  0000000000002588: 41 0F 57 DB        xorps       xmm3,xmm11
  000000000000258C: 41 0F 57 E4        xorps       xmm4,xmm12
  0000000000002590: F3 0F 7F 16        movdqu      xmmword ptr [rsi],xmm2
  0000000000002594: 41 0F 57 ED        xorps       xmm5,xmm13
  0000000000002598: F3 0F 7F 5E 10     movdqu      xmmword ptr [rsi+10h],xmm3
  000000000000259D: 41 0F 57 F6        xorps       xmm6,xmm14
  00000000000025A1: F3 0F 7F 66 20     movdqu      xmmword ptr [rsi+20h],xmm4
  00000000000025A6: 66 45 0F EF F6     pxor        xmm14,xmm14
  00000000000025AB: F3 0F 7F 6E 30     movdqu      xmmword ptr [rsi+30h],xmm5
  00000000000025B0: 66 45 0F 66 F7     pcmpgtd     xmm14,xmm15
  00000000000025B5: F3 0F 7F 76 40     movdqu      xmmword ptr [rsi+40h],xmm6
  00000000000025BA: 48 8D 76 50        lea         rsi,[rsi+50h]
  00000000000025BE: 66 45 0F 70 DE 13  pshufd      xmm11,xmm14,13h
  00000000000025C4: 49 83 E1 0F        and         r9,0Fh
  00000000000025C8: 0F 84 16 02 00 00  je          L$xts_dec_ret
  00000000000025CE: 66 45 0F 6F D7     movdqa      xmm10,xmm15
  00000000000025D3: 66 45 0F D4 FF     paddq       xmm15,xmm15
  00000000000025D8: 66 45 0F DB D8     pand        xmm11,xmm8
  00000000000025DD: 66 45 0F EF DF     pxor        xmm11,xmm15
  00000000000025E2: E9 63 01 00 00     jmp         L$xts_dec_done2
  00000000000025E7: 90                 nop
  00000000000025E8: 90                 nop
  00000000000025E9: 90                 nop
  00000000000025EA: 90                 nop
  00000000000025EB: 90                 nop
  00000000000025EC: 90                 nop
  00000000000025ED: 90                 nop
  00000000000025EE: 90                 nop
  00000000000025EF: 90                 nop
L$xts_dec_one:
  00000000000025F0: 0F 10 17           movups      xmm2,xmmword ptr [rdi]
  00000000000025F3: 48 8D 7F 10        lea         rdi,[rdi+10h]
  00000000000025F7: 41 0F 57 D2        xorps       xmm2,xmm10
  00000000000025FB: 0F 10 01           movups      xmm0,xmmword ptr [rcx]
  00000000000025FE: 0F 10 49 10        movups      xmm1,xmmword ptr [rcx+10h]
  0000000000002602: 48 8D 49 20        lea         rcx,[rcx+20h]
  0000000000002606: 0F 57 D0           xorps       xmm2,xmm0
L$oop_dec1_10:
  0000000000002609: 66 0F 38 DE D1     aesdec      xmm2,xmm1
  000000000000260E: FF C8              dec         eax
  0000000000002610: 0F 10 09           movups      xmm1,xmmword ptr [rcx]
  0000000000002613: 48 8D 49 10        lea         rcx,[rcx+10h]
  0000000000002617: 0F 85 EC FF FF FF  jne         L$oop_dec1_10
  000000000000261D: 66 0F 38 DF D1     aesdeclast  xmm2,xmm1
  0000000000002622: 41 0F 57 D2        xorps       xmm2,xmm10
  0000000000002626: 66 45 0F 6F D3     movdqa      xmm10,xmm11
  000000000000262B: 0F 11 16           movups      xmmword ptr [rsi],xmm2
  000000000000262E: 66 45 0F 6F DC     movdqa      xmm11,xmm12
  0000000000002633: 48 8D 76 10        lea         rsi,[rsi+10h]
  0000000000002637: E9 04 01 00 00     jmp         L$xts_dec_done
  000000000000263C: 90                 nop
  000000000000263D: 90                 nop
  000000000000263E: 90                 nop
  000000000000263F: 90                 nop
L$xts_dec_two:
  0000000000002640: 0F 10 17           movups      xmm2,xmmword ptr [rdi]
  0000000000002643: 0F 10 5F 10        movups      xmm3,xmmword ptr [rdi+10h]
  0000000000002647: 48 8D 7F 20        lea         rdi,[rdi+20h]
  000000000000264B: 41 0F 57 D2        xorps       xmm2,xmm10
  000000000000264F: 41 0F 57 DB        xorps       xmm3,xmm11
  0000000000002653: E8 A8 DA FF FF     call        _aesni_decrypt2
  0000000000002658: 41 0F 57 D2        xorps       xmm2,xmm10
  000000000000265C: 66 45 0F 6F D4     movdqa      xmm10,xmm12
  0000000000002661: 41 0F 57 DB        xorps       xmm3,xmm11
  0000000000002665: 66 45 0F 6F DD     movdqa      xmm11,xmm13
  000000000000266A: 0F 11 16           movups      xmmword ptr [rsi],xmm2
  000000000000266D: 0F 11 5E 10        movups      xmmword ptr [rsi+10h],xmm3
  0000000000002671: 48 8D 76 20        lea         rsi,[rsi+20h]
  0000000000002675: E9 C6 00 00 00     jmp         L$xts_dec_done
  000000000000267A: 90                 nop
  000000000000267B: 90                 nop
  000000000000267C: 90                 nop
  000000000000267D: 90                 nop
  000000000000267E: 90                 nop
  000000000000267F: 90                 nop
L$xts_dec_three:
  0000000000002680: 0F 10 17           movups      xmm2,xmmword ptr [rdi]
  0000000000002683: 0F 10 5F 10        movups      xmm3,xmmword ptr [rdi+10h]
  0000000000002687: 0F 10 67 20        movups      xmm4,xmmword ptr [rdi+20h]
  000000000000268B: 48 8D 7F 30        lea         rdi,[rdi+30h]
  000000000000268F: 41 0F 57 D2        xorps       xmm2,xmm10
  0000000000002693: 41 0F 57 DB        xorps       xmm3,xmm11
  0000000000002697: 41 0F 57 E4        xorps       xmm4,xmm12
  000000000000269B: E8 40 DB FF FF     call        _aesni_decrypt3
  00000000000026A0: 41 0F 57 D2        xorps       xmm2,xmm10
  00000000000026A4: 66 45 0F 6F D5     movdqa      xmm10,xmm13
  00000000000026A9: 41 0F 57 DB        xorps       xmm3,xmm11
  00000000000026AD: 66 45 0F 6F DE     movdqa      xmm11,xmm14
  00000000000026B2: 41 0F 57 E4        xorps       xmm4,xmm12
  00000000000026B6: 0F 11 16           movups      xmmword ptr [rsi],xmm2
  00000000000026B9: 0F 11 5E 10        movups      xmmword ptr [rsi+10h],xmm3
  00000000000026BD: 0F 11 66 20        movups      xmmword ptr [rsi+20h],xmm4
  00000000000026C1: 48 8D 76 30        lea         rsi,[rsi+30h]
  00000000000026C5: E9 76 00 00 00     jmp         L$xts_dec_done
  00000000000026CA: 90                 nop
  00000000000026CB: 90                 nop
  00000000000026CC: 90                 nop
  00000000000026CD: 90                 nop
  00000000000026CE: 90                 nop
  00000000000026CF: 90                 nop
L$xts_dec_four:
  00000000000026D0: 0F 10 17           movups      xmm2,xmmword ptr [rdi]
  00000000000026D3: 0F 10 5F 10        movups      xmm3,xmmword ptr [rdi+10h]
  00000000000026D7: 0F 10 67 20        movups      xmm4,xmmword ptr [rdi+20h]
  00000000000026DB: 41 0F 57 D2        xorps       xmm2,xmm10
  00000000000026DF: 0F 10 6F 30        movups      xmm5,xmmword ptr [rdi+30h]
  00000000000026E3: 48 8D 7F 40        lea         rdi,[rdi+40h]
  00000000000026E7: 41 0F 57 DB        xorps       xmm3,xmm11
  00000000000026EB: 41 0F 57 E4        xorps       xmm4,xmm12
  00000000000026EF: 41 0F 57 ED        xorps       xmm5,xmm13
  00000000000026F3: E8 F8 DB FF FF     call        _aesni_decrypt4
  00000000000026F8: 66 41 0F EF D2     pxor        xmm2,xmm10
  00000000000026FD: 66 45 0F 6F D6     movdqa      xmm10,xmm14
  0000000000002702: 66 41 0F EF DB     pxor        xmm3,xmm11
  0000000000002707: 66 45 0F 6F DF     movdqa      xmm11,xmm15
  000000000000270C: 66 41 0F EF E4     pxor        xmm4,xmm12
  0000000000002711: F3 0F 7F 16        movdqu      xmmword ptr [rsi],xmm2
  0000000000002715: 66 41 0F EF ED     pxor        xmm5,xmm13
  000000000000271A: F3 0F 7F 5E 10     movdqu      xmmword ptr [rsi+10h],xmm3
  000000000000271F: F3 0F 7F 66 20     movdqu      xmmword ptr [rsi+20h],xmm4
  0000000000002724: F3 0F 7F 6E 30     movdqu      xmmword ptr [rsi+30h],xmm5
  0000000000002729: 48 8D 76 40        lea         rsi,[rsi+40h]
  000000000000272D: E9 0E 00 00 00     jmp         L$xts_dec_done
  0000000000002732: 90                 nop
  0000000000002733: 90                 nop
  0000000000002734: 90                 nop
  0000000000002735: 90                 nop
  0000000000002736: 90                 nop
  0000000000002737: 90                 nop
  0000000000002738: 90                 nop
  0000000000002739: 90                 nop
  000000000000273A: 90                 nop
  000000000000273B: 90                 nop
  000000000000273C: 90                 nop
  000000000000273D: 90                 nop
  000000000000273E: 90                 nop
  000000000000273F: 90                 nop
L$xts_dec_done:
  0000000000002740: 49 83 E1 0F        and         r9,0Fh
  0000000000002744: 0F 84 9A 00 00 00  je          L$xts_dec_ret
L$xts_dec_done2:
  000000000000274A: 4C 89 CA           mov         rdx,r9
  000000000000274D: 48 89 E9           mov         rcx,rbp
  0000000000002750: 44 89 D0           mov         eax,r10d
  0000000000002753: 0F 10 17           movups      xmm2,xmmword ptr [rdi]
  0000000000002756: 41 0F 57 D3        xorps       xmm2,xmm11
  000000000000275A: 0F 10 01           movups      xmm0,xmmword ptr [rcx]
  000000000000275D: 0F 10 49 10        movups      xmm1,xmmword ptr [rcx+10h]
  0000000000002761: 48 8D 49 20        lea         rcx,[rcx+20h]
  0000000000002765: 0F 57 D0           xorps       xmm2,xmm0
L$oop_dec1_11:
  0000000000002768: 66 0F 38 DE D1     aesdec      xmm2,xmm1
  000000000000276D: FF C8              dec         eax
  000000000000276F: 0F 10 09           movups      xmm1,xmmword ptr [rcx]
  0000000000002772: 48 8D 49 10        lea         rcx,[rcx+10h]
  0000000000002776: 0F 85 EC FF FF FF  jne         L$oop_dec1_11
  000000000000277C: 66 0F 38 DF D1     aesdeclast  xmm2,xmm1
  0000000000002781: 41 0F 57 D3        xorps       xmm2,xmm11
  0000000000002785: 0F 11 16           movups      xmmword ptr [rsi],xmm2
L$xts_dec_steal:
  0000000000002788: 0F B6 47 10        movzx       eax,byte ptr [rdi+10h]
  000000000000278C: 0F B6 0E           movzx       ecx,byte ptr [rsi]
  000000000000278F: 48 8D 7F 01        lea         rdi,[rdi+1]
  0000000000002793: 88 06              mov         byte ptr [rsi],al
  0000000000002795: 88 4E 10           mov         byte ptr [rsi+10h],cl
  0000000000002798: 48 8D 76 01        lea         rsi,[rsi+1]
  000000000000279C: 48 83 EA 01        sub         rdx,1
  00000000000027A0: 0F 85 E2 FF FF FF  jne         L$xts_dec_steal
  00000000000027A6: 4C 29 CE           sub         rsi,r9
  00000000000027A9: 48 89 E9           mov         rcx,rbp
  00000000000027AC: 44 89 D0           mov         eax,r10d
  00000000000027AF: 0F 10 16           movups      xmm2,xmmword ptr [rsi]
  00000000000027B2: 41 0F 57 D2        xorps       xmm2,xmm10
  00000000000027B6: 0F 10 01           movups      xmm0,xmmword ptr [rcx]
  00000000000027B9: 0F 10 49 10        movups      xmm1,xmmword ptr [rcx+10h]
  00000000000027BD: 48 8D 49 20        lea         rcx,[rcx+20h]
  00000000000027C1: 0F 57 D0           xorps       xmm2,xmm0
L$oop_dec1_12:
  00000000000027C4: 66 0F 38 DE D1     aesdec      xmm2,xmm1
  00000000000027C9: FF C8              dec         eax
  00000000000027CB: 0F 10 09           movups      xmm1,xmmword ptr [rcx]
  00000000000027CE: 48 8D 49 10        lea         rcx,[rcx+10h]
  00000000000027D2: 0F 85 EC FF FF FF  jne         L$oop_dec1_12
  00000000000027D8: 66 0F 38 DF D1     aesdeclast  xmm2,xmm1
  00000000000027DD: 41 0F 57 D2        xorps       xmm2,xmm10
  00000000000027E1: 0F 11 16           movups      xmmword ptr [rsi],xmm2
L$xts_dec_ret:
  00000000000027E4: 0F 57 C0           xorps       xmm0,xmm0
  00000000000027E7: 66 0F EF C9        pxor        xmm1,xmm1
  00000000000027EB: 66 0F EF D2        pxor        xmm2,xmm2
  00000000000027EF: 66 0F EF DB        pxor        xmm3,xmm3
  00000000000027F3: 66 0F EF E4        pxor        xmm4,xmm4
  00000000000027F7: 66 0F EF ED        pxor        xmm5,xmm5
  00000000000027FB: 41 0F 28 B3 58 FF  movaps      xmm6,xmmword ptr [r11-0A8h]
                    FF FF
  0000000000002803: 41 0F 29 83 58 FF  movaps      xmmword ptr [r11-0A8h],xmm0
                    FF FF
  000000000000280B: 41 0F 28 BB 68 FF  movaps      xmm7,xmmword ptr [r11-98h]
                    FF FF
  0000000000002813: 41 0F 29 83 68 FF  movaps      xmmword ptr [r11-98h],xmm0
                    FF FF
  000000000000281B: 45 0F 28 83 78 FF  movaps      xmm8,xmmword ptr [r11-88h]
                    FF FF
  0000000000002823: 41 0F 29 83 78 FF  movaps      xmmword ptr [r11-88h],xmm0
                    FF FF
  000000000000282B: 45 0F 28 4B 88     movaps      xmm9,xmmword ptr [r11-78h]
  0000000000002830: 41 0F 29 43 88     movaps      xmmword ptr [r11-78h],xmm0
  0000000000002835: 45 0F 28 53 98     movaps      xmm10,xmmword ptr [r11-68h]
  000000000000283A: 41 0F 29 43 98     movaps      xmmword ptr [r11-68h],xmm0
  000000000000283F: 45 0F 28 5B A8     movaps      xmm11,xmmword ptr [r11-58h]
  0000000000002844: 41 0F 29 43 A8     movaps      xmmword ptr [r11-58h],xmm0
  0000000000002849: 45 0F 28 63 B8     movaps      xmm12,xmmword ptr [r11-48h]
  000000000000284E: 41 0F 29 43 B8     movaps      xmmword ptr [r11-48h],xmm0
  0000000000002853: 45 0F 28 6B C8     movaps      xmm13,xmmword ptr [r11-38h]
  0000000000002858: 41 0F 29 43 C8     movaps      xmmword ptr [r11-38h],xmm0
  000000000000285D: 45 0F 28 73 D8     movaps      xmm14,xmmword ptr [r11-28h]
  0000000000002862: 41 0F 29 43 D8     movaps      xmmword ptr [r11-28h],xmm0
  0000000000002867: 45 0F 28 7B E8     movaps      xmm15,xmmword ptr [r11-18h]
  000000000000286C: 41 0F 29 43 E8     movaps      xmmword ptr [r11-18h],xmm0
  0000000000002871: 0F 29 04 24        movaps      xmmword ptr [rsp],xmm0
  0000000000002875: 0F 29 44 24 10     movaps      xmmword ptr [rsp+10h],xmm0
  000000000000287A: 0F 29 44 24 20     movaps      xmmword ptr [rsp+20h],xmm0
  000000000000287F: 0F 29 44 24 30     movaps      xmmword ptr [rsp+30h],xmm0
  0000000000002884: 0F 29 44 24 40     movaps      xmmword ptr [rsp+40h],xmm0
  0000000000002889: 0F 29 44 24 50     movaps      xmmword ptr [rsp+50h],xmm0
  000000000000288E: 0F 29 44 24 60     movaps      xmmword ptr [rsp+60h],xmm0
  0000000000002893: 49 8B 6B F8        mov         rbp,qword ptr [r11-8]
  0000000000002897: 49 8D 23           lea         rsp,[r11]
L$xts_dec_epilogue:
  000000000000289A: 48 8B 7C 24 08     mov         rdi,qword ptr [rsp+8]
  000000000000289F: 48 8B 74 24 10     mov         rsi,qword ptr [rsp+10h]
  00000000000028A4: F3 C3              rep ret
L$SEH_end_aes_hw_xts_decrypt:
  00000000000028A6: 90                 nop
  00000000000028A7: 90                 nop
  00000000000028A8: 90                 nop
  00000000000028A9: 90                 nop
  00000000000028AA: 90                 nop
  00000000000028AB: 90                 nop
  00000000000028AC: 90                 nop
  00000000000028AD: 90                 nop
  00000000000028AE: 90                 nop
  00000000000028AF: 90                 nop
aws_lc_0_21_0_aes_hw_cbc_encrypt:
  00000000000028B0: 48 89 7C 24 08     mov         qword ptr [rsp+8],rdi
  00000000000028B5: 48 89 74 24 10     mov         qword ptr [rsp+10h],rsi
  00000000000028BA: 48 89 E0           mov         rax,rsp
L$SEH_begin_aes_hw_cbc_encrypt:
  00000000000028BD: 48 89 CF           mov         rdi,rcx
  00000000000028C0: 48 89 D6           mov         rsi,rdx
  00000000000028C3: 4C 89 C2           mov         rdx,r8
  00000000000028C6: 4C 89 C9           mov         rcx,r9
  00000000000028C9: 4C 8B 44 24 28     mov         r8,qword ptr [rsp+28h]
  00000000000028CE: 4C 8B 4C 24 30     mov         r9,qword ptr [rsp+30h]
  00000000000028D3: 48 85 D2           test        rdx,rdx
  00000000000028D6: 0F 84 30 0A 00 00  je          L$cbc_ret
  00000000000028DC: 44 8B 91 F0 00 00  mov         r10d,dword ptr [rcx+0F0h]
                    00
  00000000000028E3: 49 89 CB           mov         r11,rcx
  00000000000028E6: 45 85 C9           test        r9d,r9d
  00000000000028E9: 0F 84 C1 00 00 00  je          L$cbc_decrypt
  00000000000028EF: 41 0F 10 10        movups      xmm2,xmmword ptr [r8]
  00000000000028F3: 44 89 D0           mov         eax,r10d
  00000000000028F6: 48 83 FA 10        cmp         rdx,10h
  00000000000028FA: 0F 82 7B 00 00 00  jb          L$cbc_enc_tail
  0000000000002900: 48 83 EA 10        sub         rdx,10h
  0000000000002904: E9 07 00 00 00     jmp         L$cbc_enc_loop
  0000000000002909: 90                 nop
  000000000000290A: 90                 nop
  000000000000290B: 90                 nop
  000000000000290C: 90                 nop
  000000000000290D: 90                 nop
  000000000000290E: 90                 nop
  000000000000290F: 90                 nop
L$cbc_enc_loop:
  0000000000002910: 0F 10 1F           movups      xmm3,xmmword ptr [rdi]
  0000000000002913: 48 8D 7F 10        lea         rdi,[rdi+10h]
  0000000000002917: 0F 10 01           movups      xmm0,xmmword ptr [rcx]
  000000000000291A: 0F 10 49 10        movups      xmm1,xmmword ptr [rcx+10h]
  000000000000291E: 0F 57 D8           xorps       xmm3,xmm0
  0000000000002921: 48 8D 49 20        lea         rcx,[rcx+20h]
  0000000000002925: 0F 57 D3           xorps       xmm2,xmm3
L$oop_enc1_13:
  0000000000002928: 66 0F 38 DC D1     aesenc      xmm2,xmm1
  000000000000292D: FF C8              dec         eax
  000000000000292F: 0F 10 09           movups      xmm1,xmmword ptr [rcx]
  0000000000002932: 48 8D 49 10        lea         rcx,[rcx+10h]
  0000000000002936: 0F 85 EC FF FF FF  jne         L$oop_enc1_13
  000000000000293C: 66 0F 38 DD D1     aesenclast  xmm2,xmm1
  0000000000002941: 44 89 D0           mov         eax,r10d
  0000000000002944: 4C 89 D9           mov         rcx,r11
  0000000000002947: 0F 11 16           movups      xmmword ptr [rsi],xmm2
  000000000000294A: 48 8D 76 10        lea         rsi,[rsi+10h]
  000000000000294E: 48 83 EA 10        sub         rdx,10h
  0000000000002952: 0F 83 B8 FF FF FF  jae         L$cbc_enc_loop
  0000000000002958: 48 83 C2 10        add         rdx,10h
  000000000000295C: 0F 85 19 00 00 00  jne         L$cbc_enc_tail
  0000000000002962: 66 0F EF C0        pxor        xmm0,xmm0
  0000000000002966: 66 0F EF C9        pxor        xmm1,xmm1
  000000000000296A: 41 0F 11 10        movups      xmmword ptr [r8],xmm2
  000000000000296E: 66 0F EF D2        pxor        xmm2,xmm2
  0000000000002972: 66 0F EF DB        pxor        xmm3,xmm3
  0000000000002976: E9 91 09 00 00     jmp         L$cbc_ret
L$cbc_enc_tail:
  000000000000297B: 48 89 D1           mov         rcx,rdx
  000000000000297E: 48 87 F7           xchg        rsi,rdi
  0000000000002981: F3 A4              rep movs    byte ptr [rdi],byte ptr [rsi]
  0000000000002983: 66 90              nop
  0000000000002985: B9 10 00 00 00     mov         ecx,10h
  000000000000298A: 48 29 D1           sub         rcx,rdx
  000000000000298D: 31 C0              xor         eax,eax
  000000000000298F: F3 AA              rep stos    byte ptr [rdi]
  0000000000002991: 66 90              nop
  0000000000002993: 48 8D 7F F0        lea         rdi,[rdi-10h]
  0000000000002997: 44 89 D0           mov         eax,r10d
  000000000000299A: 48 89 FE           mov         rsi,rdi
  000000000000299D: 4C 89 D9           mov         rcx,r11
  00000000000029A0: 48 31 D2           xor         rdx,rdx
  00000000000029A3: E9 68 FF FF FF     jmp         L$cbc_enc_loop
  00000000000029A8: 90                 nop
  00000000000029A9: 90                 nop
  00000000000029AA: 90                 nop
  00000000000029AB: 90                 nop
  00000000000029AC: 90                 nop
  00000000000029AD: 90                 nop
  00000000000029AE: 90                 nop
  00000000000029AF: 90                 nop
L$cbc_decrypt:
  00000000000029B0: 48 83 FA 10        cmp         rdx,10h
  00000000000029B4: 0F 85 56 00 00 00  jne         L$cbc_decrypt_bulk
  00000000000029BA: F3 0F 6F 17        movdqu      xmm2,xmmword ptr [rdi]
  00000000000029BE: F3 41 0F 6F 18     movdqu      xmm3,xmmword ptr [r8]
  00000000000029C3: 66 0F 6F E2        movdqa      xmm4,xmm2
  00000000000029C7: 0F 10 01           movups      xmm0,xmmword ptr [rcx]
  00000000000029CA: 0F 10 49 10        movups      xmm1,xmmword ptr [rcx+10h]
  00000000000029CE: 48 8D 49 20        lea         rcx,[rcx+20h]
  00000000000029D2: 0F 57 D0           xorps       xmm2,xmm0
L$oop_dec1_14:
  00000000000029D5: 66 0F 38 DE D1     aesdec      xmm2,xmm1
  00000000000029DA: 41 FF CA           dec         r10d
  00000000000029DD: 0F 10 09           movups      xmm1,xmmword ptr [rcx]
  00000000000029E0: 48 8D 49 10        lea         rcx,[rcx+10h]
  00000000000029E4: 0F 85 EB FF FF FF  jne         L$oop_dec1_14
  00000000000029EA: 66 0F 38 DF D1     aesdeclast  xmm2,xmm1
  00000000000029EF: 66 0F EF C0        pxor        xmm0,xmm0
  00000000000029F3: 66 0F EF C9        pxor        xmm1,xmm1
  00000000000029F7: F3 41 0F 7F 20     movdqu      xmmword ptr [r8],xmm4
  00000000000029FC: 0F 57 D3           xorps       xmm2,xmm3
  00000000000029FF: 66 0F EF DB        pxor        xmm3,xmm3
  0000000000002A03: 0F 11 16           movups      xmmword ptr [rsi],xmm2
  0000000000002A06: 66 0F EF D2        pxor        xmm2,xmm2
  0000000000002A0A: E9 FD 08 00 00     jmp         L$cbc_ret
  0000000000002A0F: 90                 nop
L$cbc_decrypt_bulk:
  0000000000002A10: 4C 8D 1C 24        lea         r11,[rsp]
  0000000000002A14: 55                 push        rbp
  0000000000002A15: 48 81 EC B0 00 00  sub         rsp,0B0h
                    00
  0000000000002A1C: 48 83 E4 F0        and         rsp,0FFFFFFFFFFFFFFF0h
  0000000000002A20: 0F 29 74 24 10     movaps      xmmword ptr [rsp+10h],xmm6
  0000000000002A25: 0F 29 7C 24 20     movaps      xmmword ptr [rsp+20h],xmm7
  0000000000002A2A: 44 0F 29 44 24 30  movaps      xmmword ptr [rsp+30h],xmm8
  0000000000002A30: 44 0F 29 4C 24 40  movaps      xmmword ptr [rsp+40h],xmm9
  0000000000002A36: 44 0F 29 54 24 50  movaps      xmmword ptr [rsp+50h],xmm10
  0000000000002A3C: 44 0F 29 5C 24 60  movaps      xmmword ptr [rsp+60h],xmm11
  0000000000002A42: 44 0F 29 64 24 70  movaps      xmmword ptr [rsp+70h],xmm12
  0000000000002A48: 44 0F 29 AC 24 80  movaps      xmmword ptr [rsp+80h],xmm13
                    00 00 00
  0000000000002A51: 44 0F 29 B4 24 90  movaps      xmmword ptr [rsp+90h],xmm14
                    00 00 00
  0000000000002A5A: 44 0F 29 BC 24 A0  movaps      xmmword ptr [rsp+0A0h],xmm15
                    00 00 00
L$cbc_decrypt_body:
  0000000000002A63: 48 89 CD           mov         rbp,rcx
  0000000000002A66: 45 0F 10 10        movups      xmm10,xmmword ptr [r8]
  0000000000002A6A: 44 89 D0           mov         eax,r10d
  0000000000002A6D: 48 83 FA 50        cmp         rdx,50h
  0000000000002A71: 0F 86 08 06 00 00  jbe         L$cbc_dec_tail
  0000000000002A77: 0F 10 01           movups      xmm0,xmmword ptr [rcx]
  0000000000002A7A: F3 0F 6F 17        movdqu      xmm2,xmmword ptr [rdi]
  0000000000002A7E: F3 0F 6F 5F 10     movdqu      xmm3,xmmword ptr [rdi+10h]
  0000000000002A83: 66 44 0F 6F DA     movdqa      xmm11,xmm2
  0000000000002A88: F3 0F 6F 67 20     movdqu      xmm4,xmmword ptr [rdi+20h]
  0000000000002A8D: 66 44 0F 6F E3     movdqa      xmm12,xmm3
  0000000000002A92: F3 0F 6F 6F 30     movdqu      xmm5,xmmword ptr [rdi+30h]
  0000000000002A97: 66 44 0F 6F EC     movdqa      xmm13,xmm4
  0000000000002A9C: F3 0F 6F 77 40     movdqu      xmm6,xmmword ptr [rdi+40h]
  0000000000002AA1: 66 44 0F 6F F5     movdqa      xmm14,xmm5
  0000000000002AA6: F3 0F 6F 7F 50     movdqu      xmm7,xmmword ptr [rdi+50h]
  0000000000002AAB: 66 44 0F 6F FE     movdqa      xmm15,xmm6
  0000000000002AB0: 4C 8D 0D 00 00 00  lea         r9,[aws_lc_0_21_0_OPENSSL_ia32cap_P]
                    00
  0000000000002AB7: 45 8B 49 04        mov         r9d,dword ptr [r9+4]
  0000000000002ABB: 48 83 FA 70        cmp         rdx,70h
  0000000000002ABF: 0F 86 01 04 00 00  jbe         L$cbc_dec_six_or_seven
  0000000000002AC5: 41 81 E1 00 00 40  and         r9d,4400000h
                    04
  0000000000002ACC: 48 83 EA 50        sub         rdx,50h
  0000000000002AD0: 41 81 F9 00 00 40  cmp         r9d,400000h
                    00
  0000000000002AD7: 0F 84 30 05 00 00  je          L$cbc_dec_loop6_enter
  0000000000002ADD: 48 83 EA 20        sub         rdx,20h
  0000000000002AE1: 48 8D 49 70        lea         rcx,[rcx+70h]
  0000000000002AE5: E9 0E 00 00 00     jmp         L$cbc_dec_loop8_enter
  0000000000002AEA: 90                 nop
  0000000000002AEB: 90                 nop
  0000000000002AEC: 90                 nop
  0000000000002AED: 90                 nop
  0000000000002AEE: 90                 nop
  0000000000002AEF: 90                 nop
L$cbc_dec_loop8:
  0000000000002AF0: 44 0F 11 0E        movups      xmmword ptr [rsi],xmm9
  0000000000002AF4: 48 8D 76 10        lea         rsi,[rsi+10h]
L$cbc_dec_loop8_enter:
  0000000000002AF8: F3 44 0F 6F 47 60  movdqu      xmm8,xmmword ptr [rdi+60h]
  0000000000002AFE: 66 0F EF D0        pxor        xmm2,xmm0
  0000000000002B02: F3 44 0F 6F 4F 70  movdqu      xmm9,xmmword ptr [rdi+70h]
  0000000000002B08: 66 0F EF D8        pxor        xmm3,xmm0
  0000000000002B0C: 0F 10 49 A0        movups      xmm1,xmmword ptr [rcx-60h]
  0000000000002B10: 66 0F EF E0        pxor        xmm4,xmm0
  0000000000002B14: 48 C7 C5 FF FF FF  mov         rbp,0FFFFFFFFFFFFFFFFh
                    FF
  0000000000002B1B: 48 83 FA 70        cmp         rdx,70h
  0000000000002B1F: 66 0F EF E8        pxor        xmm5,xmm0
  0000000000002B23: 66 0F EF F0        pxor        xmm6,xmm0
  0000000000002B27: 66 0F EF F8        pxor        xmm7,xmm0
  0000000000002B2B: 66 44 0F EF C0     pxor        xmm8,xmm0
  0000000000002B30: 66 0F 38 DE D1     aesdec      xmm2,xmm1
  0000000000002B35: 66 44 0F EF C8     pxor        xmm9,xmm0
  0000000000002B3A: 0F 10 41 B0        movups      xmm0,xmmword ptr [rcx-50h]
  0000000000002B3E: 66 0F 38 DE D9     aesdec      xmm3,xmm1
  0000000000002B43: 66 0F 38 DE E1     aesdec      xmm4,xmm1
  0000000000002B48: 66 0F 38 DE E9     aesdec      xmm5,xmm1
  0000000000002B4D: 66 0F 38 DE F1     aesdec      xmm6,xmm1
  0000000000002B52: 66 0F 38 DE F9     aesdec      xmm7,xmm1
  0000000000002B57: 66 44 0F 38 DE C1  aesdec      xmm8,xmm1
  0000000000002B5D: 48 83 D5 00        adc         rbp,0
  0000000000002B61: 48 81 E5 80 00 00  and         rbp,80h
                    00
  0000000000002B68: 66 44 0F 38 DE C9  aesdec      xmm9,xmm1
  0000000000002B6E: 48 01 FD           add         rbp,rdi
  0000000000002B71: 0F 10 49 C0        movups      xmm1,xmmword ptr [rcx-40h]
  0000000000002B75: 66 0F 38 DE D0     aesdec      xmm2,xmm0
  0000000000002B7A: 66 0F 38 DE D8     aesdec      xmm3,xmm0
  0000000000002B7F: 66 0F 38 DE E0     aesdec      xmm4,xmm0
  0000000000002B84: 66 0F 38 DE E8     aesdec      xmm5,xmm0
  0000000000002B89: 66 0F 38 DE F0     aesdec      xmm6,xmm0
  0000000000002B8E: 66 0F 38 DE F8     aesdec      xmm7,xmm0
  0000000000002B93: 66 44 0F 38 DE C0  aesdec      xmm8,xmm0
  0000000000002B99: 66 44 0F 38 DE C8  aesdec      xmm9,xmm0
  0000000000002B9F: 0F 10 41 D0        movups      xmm0,xmmword ptr [rcx-30h]
  0000000000002BA3: 90                 nop
  0000000000002BA4: 66 0F 38 DE D1     aesdec      xmm2,xmm1
  0000000000002BA9: 66 0F 38 DE D9     aesdec      xmm3,xmm1
  0000000000002BAE: 66 0F 38 DE E1     aesdec      xmm4,xmm1
  0000000000002BB3: 66 0F 38 DE E9     aesdec      xmm5,xmm1
  0000000000002BB8: 66 0F 38 DE F1     aesdec      xmm6,xmm1
  0000000000002BBD: 66 0F 38 DE F9     aesdec      xmm7,xmm1
  0000000000002BC2: 66 44 0F 38 DE C1  aesdec      xmm8,xmm1
  0000000000002BC8: 66 44 0F 38 DE C9  aesdec      xmm9,xmm1
  0000000000002BCE: 0F 10 49 E0        movups      xmm1,xmmword ptr [rcx-20h]
  0000000000002BD2: 90                 nop
  0000000000002BD3: 66 0F 38 DE D0     aesdec      xmm2,xmm0
  0000000000002BD8: 66 0F 38 DE D8     aesdec      xmm3,xmm0
  0000000000002BDD: 66 0F 38 DE E0     aesdec      xmm4,xmm0
  0000000000002BE2: 66 0F 38 DE E8     aesdec      xmm5,xmm0
  0000000000002BE7: 66 0F 38 DE F0     aesdec      xmm6,xmm0
  0000000000002BEC: 66 0F 38 DE F8     aesdec      xmm7,xmm0
  0000000000002BF1: 66 44 0F 38 DE C0  aesdec      xmm8,xmm0
  0000000000002BF7: 66 44 0F 38 DE C8  aesdec      xmm9,xmm0
  0000000000002BFD: 0F 10 41 F0        movups      xmm0,xmmword ptr [rcx-10h]
  0000000000002C01: 90                 nop
  0000000000002C02: 66 0F 38 DE D1     aesdec      xmm2,xmm1
  0000000000002C07: 66 0F 38 DE D9     aesdec      xmm3,xmm1
  0000000000002C0C: 66 0F 38 DE E1     aesdec      xmm4,xmm1
  0000000000002C11: 66 0F 38 DE E9     aesdec      xmm5,xmm1
  0000000000002C16: 66 0F 38 DE F1     aesdec      xmm6,xmm1
  0000000000002C1B: 66 0F 38 DE F9     aesdec      xmm7,xmm1
  0000000000002C20: 66 44 0F 38 DE C1  aesdec      xmm8,xmm1
  0000000000002C26: 66 44 0F 38 DE C9  aesdec      xmm9,xmm1
  0000000000002C2C: 0F 10 09           movups      xmm1,xmmword ptr [rcx]
  0000000000002C2F: 90                 nop
  0000000000002C30: 66 0F 38 DE D0     aesdec      xmm2,xmm0
  0000000000002C35: 66 0F 38 DE D8     aesdec      xmm3,xmm0
  0000000000002C3A: 66 0F 38 DE E0     aesdec      xmm4,xmm0
  0000000000002C3F: 66 0F 38 DE E8     aesdec      xmm5,xmm0
  0000000000002C44: 66 0F 38 DE F0     aesdec      xmm6,xmm0
  0000000000002C49: 66 0F 38 DE F8     aesdec      xmm7,xmm0
  0000000000002C4E: 66 44 0F 38 DE C0  aesdec      xmm8,xmm0
  0000000000002C54: 66 44 0F 38 DE C8  aesdec      xmm9,xmm0
  0000000000002C5A: 0F 10 41 10        movups      xmm0,xmmword ptr [rcx+10h]
  0000000000002C5E: 90                 nop
  0000000000002C5F: 66 0F 38 DE D1     aesdec      xmm2,xmm1
  0000000000002C64: 66 0F 38 DE D9     aesdec      xmm3,xmm1
  0000000000002C69: 66 0F 38 DE E1     aesdec      xmm4,xmm1
  0000000000002C6E: 66 0F 38 DE E9     aesdec      xmm5,xmm1
  0000000000002C73: 66 0F 38 DE F1     aesdec      xmm6,xmm1
  0000000000002C78: 66 0F 38 DE F9     aesdec      xmm7,xmm1
  0000000000002C7D: 66 44 0F 38 DE C1  aesdec      xmm8,xmm1
  0000000000002C83: 66 44 0F 38 DE C9  aesdec      xmm9,xmm1
  0000000000002C89: 0F 10 49 20        movups      xmm1,xmmword ptr [rcx+20h]
  0000000000002C8D: 83 F8 0B           cmp         eax,0Bh
  0000000000002C90: 66 0F 38 DE D0     aesdec      xmm2,xmm0
  0000000000002C95: 66 0F 38 DE D8     aesdec      xmm3,xmm0
  0000000000002C9A: 66 0F 38 DE E0     aesdec      xmm4,xmm0
  0000000000002C9F: 66 0F 38 DE E8     aesdec      xmm5,xmm0
  0000000000002CA4: 66 0F 38 DE F0     aesdec      xmm6,xmm0
  0000000000002CA9: 66 0F 38 DE F8     aesdec      xmm7,xmm0
  0000000000002CAE: 66 44 0F 38 DE C0  aesdec      xmm8,xmm0
  0000000000002CB4: 66 44 0F 38 DE C8  aesdec      xmm9,xmm0
  0000000000002CBA: 0F 10 41 30        movups      xmm0,xmmword ptr [rcx+30h]
  0000000000002CBE: 0F 82 CC 00 00 00  jb          L$cbc_dec_done
  0000000000002CC4: 66 0F 38 DE D1     aesdec      xmm2,xmm1
  0000000000002CC9: 66 0F 38 DE D9     aesdec      xmm3,xmm1
  0000000000002CCE: 66 0F 38 DE E1     aesdec      xmm4,xmm1
  0000000000002CD3: 66 0F 38 DE E9     aesdec      xmm5,xmm1
  0000000000002CD8: 66 0F 38 DE F1     aesdec      xmm6,xmm1
  0000000000002CDD: 66 0F 38 DE F9     aesdec      xmm7,xmm1
  0000000000002CE2: 66 44 0F 38 DE C1  aesdec      xmm8,xmm1
  0000000000002CE8: 66 44 0F 38 DE C9  aesdec      xmm9,xmm1
  0000000000002CEE: 0F 10 49 40        movups      xmm1,xmmword ptr [rcx+40h]
  0000000000002CF2: 90                 nop
  0000000000002CF3: 66 0F 38 DE D0     aesdec      xmm2,xmm0
  0000000000002CF8: 66 0F 38 DE D8     aesdec      xmm3,xmm0
  0000000000002CFD: 66 0F 38 DE E0     aesdec      xmm4,xmm0
  0000000000002D02: 66 0F 38 DE E8     aesdec      xmm5,xmm0
  0000000000002D07: 66 0F 38 DE F0     aesdec      xmm6,xmm0
  0000000000002D0C: 66 0F 38 DE F8     aesdec      xmm7,xmm0
  0000000000002D11: 66 44 0F 38 DE C0  aesdec      xmm8,xmm0
  0000000000002D17: 66 44 0F 38 DE C8  aesdec      xmm9,xmm0
  0000000000002D1D: 0F 10 41 50        movups      xmm0,xmmword ptr [rcx+50h]
  0000000000002D21: 0F 84 69 00 00 00  je          L$cbc_dec_done
  0000000000002D27: 66 0F 38 DE D1     aesdec      xmm2,xmm1
  0000000000002D2C: 66 0F 38 DE D9     aesdec      xmm3,xmm1
  0000000000002D31: 66 0F 38 DE E1     aesdec      xmm4,xmm1
  0000000000002D36: 66 0F 38 DE E9     aesdec      xmm5,xmm1
  0000000000002D3B: 66 0F 38 DE F1     aesdec      xmm6,xmm1
  0000000000002D40: 66 0F 38 DE F9     aesdec      xmm7,xmm1
  0000000000002D45: 66 44 0F 38 DE C1  aesdec      xmm8,xmm1
  0000000000002D4B: 66 44 0F 38 DE C9  aesdec      xmm9,xmm1
  0000000000002D51: 0F 10 49 60        movups      xmm1,xmmword ptr [rcx+60h]
  0000000000002D55: 90                 nop
  0000000000002D56: 66 0F 38 DE D0     aesdec      xmm2,xmm0
  0000000000002D5B: 66 0F 38 DE D8     aesdec      xmm3,xmm0
  0000000000002D60: 66 0F 38 DE E0     aesdec      xmm4,xmm0
  0000000000002D65: 66 0F 38 DE E8     aesdec      xmm5,xmm0
  0000000000002D6A: 66 0F 38 DE F0     aesdec      xmm6,xmm0
  0000000000002D6F: 66 0F 38 DE F8     aesdec      xmm7,xmm0
  0000000000002D74: 66 44 0F 38 DE C0  aesdec      xmm8,xmm0
  0000000000002D7A: 66 44 0F 38 DE C8  aesdec      xmm9,xmm0
  0000000000002D80: 0F 10 41 70        movups      xmm0,xmmword ptr [rcx+70h]
  0000000000002D84: E9 07 00 00 00     jmp         L$cbc_dec_done
  0000000000002D89: 90                 nop
  0000000000002D8A: 90                 nop
  0000000000002D8B: 90                 nop
  0000000000002D8C: 90                 nop
  0000000000002D8D: 90                 nop
  0000000000002D8E: 90                 nop
  0000000000002D8F: 90                 nop
L$cbc_dec_done:
  0000000000002D90: 66 0F 38 DE D1     aesdec      xmm2,xmm1
  0000000000002D95: 66 0F 38 DE D9     aesdec      xmm3,xmm1
  0000000000002D9A: 66 44 0F EF D0     pxor        xmm10,xmm0
  0000000000002D9F: 66 44 0F EF D8     pxor        xmm11,xmm0
  0000000000002DA4: 66 0F 38 DE E1     aesdec      xmm4,xmm1
  0000000000002DA9: 66 0F 38 DE E9     aesdec      xmm5,xmm1
  0000000000002DAE: 66 44 0F EF E0     pxor        xmm12,xmm0
  0000000000002DB3: 66 44 0F EF E8     pxor        xmm13,xmm0
  0000000000002DB8: 66 0F 38 DE F1     aesdec      xmm6,xmm1
  0000000000002DBD: 66 0F 38 DE F9     aesdec      xmm7,xmm1
  0000000000002DC2: 66 44 0F EF F0     pxor        xmm14,xmm0
  0000000000002DC7: 66 44 0F EF F8     pxor        xmm15,xmm0
  0000000000002DCC: 66 44 0F 38 DE C1  aesdec      xmm8,xmm1
  0000000000002DD2: 66 44 0F 38 DE C9  aesdec      xmm9,xmm1
  0000000000002DD8: F3 0F 6F 4F 50     movdqu      xmm1,xmmword ptr [rdi+50h]
  0000000000002DDD: 66 41 0F 38 DF D2  aesdeclast  xmm2,xmm10
  0000000000002DE3: F3 44 0F 6F 57 60  movdqu      xmm10,xmmword ptr [rdi+60h]
  0000000000002DE9: 66 0F EF C8        pxor        xmm1,xmm0
  0000000000002DED: 66 41 0F 38 DF DB  aesdeclast  xmm3,xmm11
  0000000000002DF3: 66 44 0F EF D0     pxor        xmm10,xmm0
  0000000000002DF8: F3 0F 6F 47 70     movdqu      xmm0,xmmword ptr [rdi+70h]
  0000000000002DFD: 66 41 0F 38 DF E4  aesdeclast  xmm4,xmm12
  0000000000002E03: 48 8D BF 80 00 00  lea         rdi,[rdi+80h]
                    00
  0000000000002E0A: F3 44 0F 6F 5D 00  movdqu      xmm11,xmmword ptr [rbp]
  0000000000002E10: 66 41 0F 38 DF ED  aesdeclast  xmm5,xmm13
  0000000000002E16: 66 41 0F 38 DF F6  aesdeclast  xmm6,xmm14
  0000000000002E1C: F3 44 0F 6F 65 10  movdqu      xmm12,xmmword ptr [rbp+10h]
  0000000000002E22: F3 44 0F 6F 6D 20  movdqu      xmm13,xmmword ptr [rbp+20h]
  0000000000002E28: 66 41 0F 38 DF FF  aesdeclast  xmm7,xmm15
  0000000000002E2E: 66 44 0F 38 DF C1  aesdeclast  xmm8,xmm1
  0000000000002E34: F3 44 0F 6F 75 30  movdqu      xmm14,xmmword ptr [rbp+30h]
  0000000000002E3A: F3 44 0F 6F 7D 40  movdqu      xmm15,xmmword ptr [rbp+40h]
  0000000000002E40: 66 45 0F 38 DF CA  aesdeclast  xmm9,xmm10
  0000000000002E46: 66 44 0F 6F D0     movdqa      xmm10,xmm0
  0000000000002E4B: F3 0F 6F 4D 50     movdqu      xmm1,xmmword ptr [rbp+50h]
  0000000000002E50: 0F 10 41 90        movups      xmm0,xmmword ptr [rcx-70h]
  0000000000002E54: 0F 11 16           movups      xmmword ptr [rsi],xmm2
  0000000000002E57: 66 41 0F 6F D3     movdqa      xmm2,xmm11
  0000000000002E5C: 0F 11 5E 10        movups      xmmword ptr [rsi+10h],xmm3
  0000000000002E60: 66 41 0F 6F DC     movdqa      xmm3,xmm12
  0000000000002E65: 0F 11 66 20        movups      xmmword ptr [rsi+20h],xmm4
  0000000000002E69: 66 41 0F 6F E5     movdqa      xmm4,xmm13
  0000000000002E6E: 0F 11 6E 30        movups      xmmword ptr [rsi+30h],xmm5
  0000000000002E72: 66 41 0F 6F EE     movdqa      xmm5,xmm14
  0000000000002E77: 0F 11 76 40        movups      xmmword ptr [rsi+40h],xmm6
  0000000000002E7B: 66 41 0F 6F F7     movdqa      xmm6,xmm15
  0000000000002E80: 0F 11 7E 50        movups      xmmword ptr [rsi+50h],xmm7
  0000000000002E84: 66 0F 6F F9        movdqa      xmm7,xmm1
  0000000000002E88: 44 0F 11 46 60     movups      xmmword ptr [rsi+60h],xmm8
  0000000000002E8D: 48 8D 76 70        lea         rsi,[rsi+70h]
  0000000000002E91: 48 81 EA 80 00 00  sub         rdx,80h
                    00
  0000000000002E98: 0F 87 52 FC FF FF  ja          L$cbc_dec_loop8
  0000000000002E9E: 41 0F 28 D1        movaps      xmm2,xmm9
  0000000000002EA2: 48 8D 49 90        lea         rcx,[rcx-70h]
  0000000000002EA6: 48 83 C2 70        add         rdx,70h
  0000000000002EAA: 0F 8E 80 03 00 00  jle         L$cbc_dec_clear_tail_collected
  0000000000002EB0: 44 0F 11 0E        movups      xmmword ptr [rsi],xmm9
  0000000000002EB4: 48 8D 76 10        lea         rsi,[rsi+10h]
  0000000000002EB8: 48 83 FA 50        cmp         rdx,50h
  0000000000002EBC: 0F 86 BD 01 00 00  jbe         L$cbc_dec_tail
  0000000000002EC2: 41 0F 28 D3        movaps      xmm2,xmm11
L$cbc_dec_six_or_seven:
  0000000000002EC6: 48 83 FA 60        cmp         rdx,60h
  0000000000002ECA: 0F 87 70 00 00 00  ja          L$cbc_dec_seven
  0000000000002ED0: 44 0F 28 C7        movaps      xmm8,xmm7
  0000000000002ED4: E8 87 D5 FF FF     call        _aesni_decrypt6
  0000000000002ED9: 66 41 0F EF D2     pxor        xmm2,xmm10
  0000000000002EDE: 45 0F 28 D0        movaps      xmm10,xmm8
  0000000000002EE2: 66 41 0F EF DB     pxor        xmm3,xmm11
  0000000000002EE7: F3 0F 7F 16        movdqu      xmmword ptr [rsi],xmm2
  0000000000002EEB: 66 41 0F EF E4     pxor        xmm4,xmm12
  0000000000002EF0: F3 0F 7F 5E 10     movdqu      xmmword ptr [rsi+10h],xmm3
  0000000000002EF5: 66 0F EF DB        pxor        xmm3,xmm3
  0000000000002EF9: 66 41 0F EF ED     pxor        xmm5,xmm13
  0000000000002EFE: F3 0F 7F 66 20     movdqu      xmmword ptr [rsi+20h],xmm4
  0000000000002F03: 66 0F EF E4        pxor        xmm4,xmm4
  0000000000002F07: 66 41 0F EF F6     pxor        xmm6,xmm14
  0000000000002F0C: F3 0F 7F 6E 30     movdqu      xmmword ptr [rsi+30h],xmm5
  0000000000002F11: 66 0F EF ED        pxor        xmm5,xmm5
  0000000000002F15: 66 41 0F EF FF     pxor        xmm7,xmm15
  0000000000002F1A: F3 0F 7F 76 40     movdqu      xmmword ptr [rsi+40h],xmm6
  0000000000002F1F: 66 0F EF F6        pxor        xmm6,xmm6
  0000000000002F23: 48 8D 76 50        lea         rsi,[rsi+50h]
  0000000000002F27: 66 0F 6F D7        movdqa      xmm2,xmm7
  0000000000002F2B: 66 0F EF FF        pxor        xmm7,xmm7
  0000000000002F2F: E9 08 03 00 00     jmp         L$cbc_dec_tail_collected
  0000000000002F34: 90                 nop
  0000000000002F35: 90                 nop
  0000000000002F36: 90                 nop
  0000000000002F37: 90                 nop
  0000000000002F38: 90                 nop
  0000000000002F39: 90                 nop
  0000000000002F3A: 90                 nop
  0000000000002F3B: 90                 nop
  0000000000002F3C: 90                 nop
  0000000000002F3D: 90                 nop
  0000000000002F3E: 90                 nop
  0000000000002F3F: 90                 nop
L$cbc_dec_seven:
  0000000000002F40: 44 0F 10 47 60     movups      xmm8,xmmword ptr [rdi+60h]
  0000000000002F45: 45 0F 57 C9        xorps       xmm9,xmm9
  0000000000002F49: E8 02 D7 FF FF     call        _aesni_decrypt8
  0000000000002F4E: 44 0F 10 4F 50     movups      xmm9,xmmword ptr [rdi+50h]
  0000000000002F53: 66 41 0F EF D2     pxor        xmm2,xmm10
  0000000000002F58: 44 0F 10 57 60     movups      xmm10,xmmword ptr [rdi+60h]
  0000000000002F5D: 66 41 0F EF DB     pxor        xmm3,xmm11
  0000000000002F62: F3 0F 7F 16        movdqu      xmmword ptr [rsi],xmm2
  0000000000002F66: 66 41 0F EF E4     pxor        xmm4,xmm12
  0000000000002F6B: F3 0F 7F 5E 10     movdqu      xmmword ptr [rsi+10h],xmm3
  0000000000002F70: 66 0F EF DB        pxor        xmm3,xmm3
  0000000000002F74: 66 41 0F EF ED     pxor        xmm5,xmm13
  0000000000002F79: F3 0F 7F 66 20     movdqu      xmmword ptr [rsi+20h],xmm4
  0000000000002F7E: 66 0F EF E4        pxor        xmm4,xmm4
  0000000000002F82: 66 41 0F EF F6     pxor        xmm6,xmm14
  0000000000002F87: F3 0F 7F 6E 30     movdqu      xmmword ptr [rsi+30h],xmm5
  0000000000002F8C: 66 0F EF ED        pxor        xmm5,xmm5
  0000000000002F90: 66 41 0F EF FF     pxor        xmm7,xmm15
  0000000000002F95: F3 0F 7F 76 40     movdqu      xmmword ptr [rsi+40h],xmm6
  0000000000002F9A: 66 0F EF F6        pxor        xmm6,xmm6
  0000000000002F9E: 66 45 0F EF C1     pxor        xmm8,xmm9
  0000000000002FA3: F3 0F 7F 7E 50     movdqu      xmmword ptr [rsi+50h],xmm7
  0000000000002FA8: 66 0F EF FF        pxor        xmm7,xmm7
  0000000000002FAC: 48 8D 76 60        lea         rsi,[rsi+60h]
  0000000000002FB0: 66 41 0F 6F D0     movdqa      xmm2,xmm8
  0000000000002FB5: 66 45 0F EF C0     pxor        xmm8,xmm8
  0000000000002FBA: 66 45 0F EF C9     pxor        xmm9,xmm9
  0000000000002FBF: E9 78 02 00 00     jmp         L$cbc_dec_tail_collected
  0000000000002FC4: 90                 nop
  0000000000002FC5: 90                 nop
  0000000000002FC6: 90                 nop
  0000000000002FC7: 90                 nop
  0000000000002FC8: 90                 nop
  0000000000002FC9: 90                 nop
  0000000000002FCA: 90                 nop
  0000000000002FCB: 90                 nop
  0000000000002FCC: 90                 nop
  0000000000002FCD: 90                 nop
  0000000000002FCE: 90                 nop
  0000000000002FCF: 90                 nop
L$cbc_dec_loop6:
  0000000000002FD0: 0F 11 3E           movups      xmmword ptr [rsi],xmm7
  0000000000002FD3: 48 8D 76 10        lea         rsi,[rsi+10h]
  0000000000002FD7: F3 0F 6F 17        movdqu      xmm2,xmmword ptr [rdi]
  0000000000002FDB: F3 0F 6F 5F 10     movdqu      xmm3,xmmword ptr [rdi+10h]
  0000000000002FE0: 66 44 0F 6F DA     movdqa      xmm11,xmm2
  0000000000002FE5: F3 0F 6F 67 20     movdqu      xmm4,xmmword ptr [rdi+20h]
  0000000000002FEA: 66 44 0F 6F E3     movdqa      xmm12,xmm3
  0000000000002FEF: F3 0F 6F 6F 30     movdqu      xmm5,xmmword ptr [rdi+30h]
  0000000000002FF4: 66 44 0F 6F EC     movdqa      xmm13,xmm4
  0000000000002FF9: F3 0F 6F 77 40     movdqu      xmm6,xmmword ptr [rdi+40h]
  0000000000002FFE: 66 44 0F 6F F5     movdqa      xmm14,xmm5
  0000000000003003: F3 0F 6F 7F 50     movdqu      xmm7,xmmword ptr [rdi+50h]
  0000000000003008: 66 44 0F 6F FE     movdqa      xmm15,xmm6
L$cbc_dec_loop6_enter:
  000000000000300D: 48 8D 7F 60        lea         rdi,[rdi+60h]
  0000000000003011: 66 44 0F 6F C7     movdqa      xmm8,xmm7
  0000000000003016: E8 45 D4 FF FF     call        _aesni_decrypt6
  000000000000301B: 66 41 0F EF D2     pxor        xmm2,xmm10
  0000000000003020: 66 45 0F 6F D0     movdqa      xmm10,xmm8
  0000000000003025: 66 41 0F EF DB     pxor        xmm3,xmm11
  000000000000302A: F3 0F 7F 16        movdqu      xmmword ptr [rsi],xmm2
  000000000000302E: 66 41 0F EF E4     pxor        xmm4,xmm12
  0000000000003033: F3 0F 7F 5E 10     movdqu      xmmword ptr [rsi+10h],xmm3
  0000000000003038: 66 41 0F EF ED     pxor        xmm5,xmm13
  000000000000303D: F3 0F 7F 66 20     movdqu      xmmword ptr [rsi+20h],xmm4
  0000000000003042: 66 41 0F EF F6     pxor        xmm6,xmm14
  0000000000003047: 48 89 E9           mov         rcx,rbp
  000000000000304A: F3 0F 7F 6E 30     movdqu      xmmword ptr [rsi+30h],xmm5
  000000000000304F: 66 41 0F EF FF     pxor        xmm7,xmm15
  0000000000003054: 44 89 D0           mov         eax,r10d
  0000000000003057: F3 0F 7F 76 40     movdqu      xmmword ptr [rsi+40h],xmm6
  000000000000305C: 48 8D 76 50        lea         rsi,[rsi+50h]
  0000000000003060: 48 83 EA 60        sub         rdx,60h
  0000000000003064: 0F 87 66 FF FF FF  ja          L$cbc_dec_loop6
  000000000000306A: 66 0F 6F D7        movdqa      xmm2,xmm7
  000000000000306E: 48 83 C2 50        add         rdx,50h
  0000000000003072: 0F 8E B8 01 00 00  jle         L$cbc_dec_clear_tail_collected
  0000000000003078: 0F 11 3E           movups      xmmword ptr [rsi],xmm7
  000000000000307B: 48 8D 76 10        lea         rsi,[rsi+10h]
L$cbc_dec_tail:
  000000000000307F: 0F 10 17           movups      xmm2,xmmword ptr [rdi]
  0000000000003082: 48 83 EA 10        sub         rdx,10h
  0000000000003086: 0F 86 A4 00 00 00  jbe         L$cbc_dec_one
  000000000000308C: 0F 10 5F 10        movups      xmm3,xmmword ptr [rdi+10h]
  0000000000003090: 44 0F 28 DA        movaps      xmm11,xmm2
  0000000000003094: 48 83 EA 10        sub         rdx,10h
  0000000000003098: 0F 86 D2 00 00 00  jbe         L$cbc_dec_two
  000000000000309E: 0F 10 67 20        movups      xmm4,xmmword ptr [rdi+20h]
  00000000000030A2: 44 0F 28 E3        movaps      xmm12,xmm3
  00000000000030A6: 48 83 EA 10        sub         rdx,10h
  00000000000030AA: 0F 86 F0 00 00 00  jbe         L$cbc_dec_three
  00000000000030B0: 0F 10 6F 30        movups      xmm5,xmmword ptr [rdi+30h]
  00000000000030B4: 44 0F 28 EC        movaps      xmm13,xmm4
  00000000000030B8: 48 83 EA 10        sub         rdx,10h
  00000000000030BC: 0F 86 1E 01 00 00  jbe         L$cbc_dec_four
  00000000000030C2: 0F 10 77 40        movups      xmm6,xmmword ptr [rdi+40h]
  00000000000030C6: 44 0F 28 F5        movaps      xmm14,xmm5
  00000000000030CA: 44 0F 28 FE        movaps      xmm15,xmm6
  00000000000030CE: 0F 57 FF           xorps       xmm7,xmm7
  00000000000030D1: E8 8A D3 FF FF     call        _aesni_decrypt6
  00000000000030D6: 66 41 0F EF D2     pxor        xmm2,xmm10
  00000000000030DB: 45 0F 28 D7        movaps      xmm10,xmm15
  00000000000030DF: 66 41 0F EF DB     pxor        xmm3,xmm11
  00000000000030E4: F3 0F 7F 16        movdqu      xmmword ptr [rsi],xmm2
  00000000000030E8: 66 41 0F EF E4     pxor        xmm4,xmm12
  00000000000030ED: F3 0F 7F 5E 10     movdqu      xmmword ptr [rsi+10h],xmm3
  00000000000030F2: 66 0F EF DB        pxor        xmm3,xmm3
  00000000000030F6: 66 41 0F EF ED     pxor        xmm5,xmm13
  00000000000030FB: F3 0F 7F 66 20     movdqu      xmmword ptr [rsi+20h],xmm4
  0000000000003100: 66 0F EF E4        pxor        xmm4,xmm4
  0000000000003104: 66 41 0F EF F6     pxor        xmm6,xmm14
  0000000000003109: F3 0F 7F 6E 30     movdqu      xmmword ptr [rsi+30h],xmm5
  000000000000310E: 66 0F EF ED        pxor        xmm5,xmm5
  0000000000003112: 48 8D 76 40        lea         rsi,[rsi+40h]
  0000000000003116: 66 0F 6F D6        movdqa      xmm2,xmm6
  000000000000311A: 66 0F EF F6        pxor        xmm6,xmm6
  000000000000311E: 66 0F EF FF        pxor        xmm7,xmm7
  0000000000003122: 48 83 EA 10        sub         rdx,10h
  0000000000003126: E9 11 01 00 00     jmp         L$cbc_dec_tail_collected
  000000000000312B: 90                 nop
  000000000000312C: 90                 nop
  000000000000312D: 90                 nop
  000000000000312E: 90                 nop
  000000000000312F: 90                 nop
L$cbc_dec_one:
  0000000000003130: 44 0F 28 DA        movaps      xmm11,xmm2
  0000000000003134: 0F 10 01           movups      xmm0,xmmword ptr [rcx]
  0000000000003137: 0F 10 49 10        movups      xmm1,xmmword ptr [rcx+10h]
  000000000000313B: 48 8D 49 20        lea         rcx,[rcx+20h]
  000000000000313F: 0F 57 D0           xorps       xmm2,xmm0
L$oop_dec1_15:
  0000000000003142: 66 0F 38 DE D1     aesdec      xmm2,xmm1
  0000000000003147: FF C8              dec         eax
  0000000000003149: 0F 10 09           movups      xmm1,xmmword ptr [rcx]
  000000000000314C: 48 8D 49 10        lea         rcx,[rcx+10h]
  0000000000003150: 0F 85 EC FF FF FF  jne         L$oop_dec1_15
  0000000000003156: 66 0F 38 DF D1     aesdeclast  xmm2,xmm1
  000000000000315B: 41 0F 57 D2        xorps       xmm2,xmm10
  000000000000315F: 45 0F 28 D3        movaps      xmm10,xmm11
  0000000000003163: E9 D4 00 00 00     jmp         L$cbc_dec_tail_collected
  0000000000003168: 90                 nop
  0000000000003169: 90                 nop
  000000000000316A: 90                 nop
  000000000000316B: 90                 nop
  000000000000316C: 90                 nop
  000000000000316D: 90                 nop
  000000000000316E: 90                 nop
  000000000000316F: 90                 nop
L$cbc_dec_two:
  0000000000003170: 44 0F 28 E3        movaps      xmm12,xmm3
  0000000000003174: E8 87 CF FF FF     call        _aesni_decrypt2
  0000000000003179: 66 41 0F EF D2     pxor        xmm2,xmm10
  000000000000317E: 45 0F 28 D4        movaps      xmm10,xmm12
  0000000000003182: 66 41 0F EF DB     pxor        xmm3,xmm11
  0000000000003187: F3 0F 7F 16        movdqu      xmmword ptr [rsi],xmm2
  000000000000318B: 66 0F 6F D3        movdqa      xmm2,xmm3
  000000000000318F: 66 0F EF DB        pxor        xmm3,xmm3
  0000000000003193: 48 8D 76 10        lea         rsi,[rsi+10h]
  0000000000003197: E9 A0 00 00 00     jmp         L$cbc_dec_tail_collected
  000000000000319C: 90                 nop
  000000000000319D: 90                 nop
  000000000000319E: 90                 nop
  000000000000319F: 90                 nop
L$cbc_dec_three:
  00000000000031A0: 44 0F 28 EC        movaps      xmm13,xmm4
  00000000000031A4: E8 37 D0 FF FF     call        _aesni_decrypt3
  00000000000031A9: 66 41 0F EF D2     pxor        xmm2,xmm10
  00000000000031AE: 45 0F 28 D5        movaps      xmm10,xmm13
  00000000000031B2: 66 41 0F EF DB     pxor        xmm3,xmm11
  00000000000031B7: F3 0F 7F 16        movdqu      xmmword ptr [rsi],xmm2
  00000000000031BB: 66 41 0F EF E4     pxor        xmm4,xmm12
  00000000000031C0: F3 0F 7F 5E 10     movdqu      xmmword ptr [rsi+10h],xmm3
  00000000000031C5: 66 0F EF DB        pxor        xmm3,xmm3
  00000000000031C9: 66 0F 6F D4        movdqa      xmm2,xmm4
  00000000000031CD: 66 0F EF E4        pxor        xmm4,xmm4
  00000000000031D1: 48 8D 76 20        lea         rsi,[rsi+20h]
  00000000000031D5: E9 62 00 00 00     jmp         L$cbc_dec_tail_collected
  00000000000031DA: 90                 nop
  00000000000031DB: 90                 nop
  00000000000031DC: 90                 nop
  00000000000031DD: 90                 nop
  00000000000031DE: 90                 nop
  00000000000031DF: 90                 nop
L$cbc_dec_four:
  00000000000031E0: 44 0F 28 F5        movaps      xmm14,xmm5
  00000000000031E4: E8 07 D1 FF FF     call        _aesni_decrypt4
  00000000000031E9: 66 41 0F EF D2     pxor        xmm2,xmm10
  00000000000031EE: 45 0F 28 D6        movaps      xmm10,xmm14
  00000000000031F2: 66 41 0F EF DB     pxor        xmm3,xmm11
  00000000000031F7: F3 0F 7F 16        movdqu      xmmword ptr [rsi],xmm2
  00000000000031FB: 66 41 0F EF E4     pxor        xmm4,xmm12
  0000000000003200: F3 0F 7F 5E 10     movdqu      xmmword ptr [rsi+10h],xmm3
  0000000000003205: 66 0F EF DB        pxor        xmm3,xmm3
  0000000000003209: 66 41 0F EF ED     pxor        xmm5,xmm13
  000000000000320E: F3 0F 7F 66 20     movdqu      xmmword ptr [rsi+20h],xmm4
  0000000000003213: 66 0F EF E4        pxor        xmm4,xmm4
  0000000000003217: 66 0F 6F D5        movdqa      xmm2,xmm5
  000000000000321B: 66 0F EF ED        pxor        xmm5,xmm5
  000000000000321F: 48 8D 76 30        lea         rsi,[rsi+30h]
  0000000000003223: E9 14 00 00 00     jmp         L$cbc_dec_tail_collected
  0000000000003228: 90                 nop
  0000000000003229: 90                 nop
  000000000000322A: 90                 nop
  000000000000322B: 90                 nop
  000000000000322C: 90                 nop
  000000000000322D: 90                 nop
  000000000000322E: 90                 nop
  000000000000322F: 90                 nop
L$cbc_dec_clear_tail_collected:
  0000000000003230: 66 0F EF DB        pxor        xmm3,xmm3
  0000000000003234: 66 0F EF E4        pxor        xmm4,xmm4
  0000000000003238: 66 0F EF ED        pxor        xmm5,xmm5
L$cbc_dec_tail_collected:
  000000000000323C: 45 0F 11 10        movups      xmmword ptr [r8],xmm10
  0000000000003240: 48 83 E2 0F        and         rdx,0Fh
  0000000000003244: 0F 85 16 00 00 00  jne         L$cbc_dec_tail_partial
  000000000000324A: 0F 11 16           movups      xmmword ptr [rsi],xmm2
  000000000000324D: 66 0F EF D2        pxor        xmm2,xmm2
  0000000000003251: E9 2A 00 00 00     jmp         L$cbc_dec_ret
  0000000000003256: 90                 nop
  0000000000003257: 90                 nop
  0000000000003258: 90                 nop
  0000000000003259: 90                 nop
  000000000000325A: 90                 nop
  000000000000325B: 90                 nop
  000000000000325C: 90                 nop
  000000000000325D: 90                 nop
  000000000000325E: 90                 nop
  000000000000325F: 90                 nop
L$cbc_dec_tail_partial:
  0000000000003260: 0F 29 14 24        movaps      xmmword ptr [rsp],xmm2
  0000000000003264: 66 0F EF D2        pxor        xmm2,xmm2
  0000000000003268: B9 10 00 00 00     mov         ecx,10h
  000000000000326D: 48 89 F7           mov         rdi,rsi
  0000000000003270: 48 29 D1           sub         rcx,rdx
  0000000000003273: 48 8D 34 24        lea         rsi,[rsp]
  0000000000003277: F3 A4              rep movs    byte ptr [rdi],byte ptr [rsi]
  0000000000003279: 66 90              nop
  000000000000327B: 66 0F 7F 14 24     movdqa      xmmword ptr [rsp],xmm2
L$cbc_dec_ret:
  0000000000003280: 0F 57 C0           xorps       xmm0,xmm0
  0000000000003283: 66 0F EF C9        pxor        xmm1,xmm1
  0000000000003287: 0F 28 74 24 10     movaps      xmm6,xmmword ptr [rsp+10h]
  000000000000328C: 0F 29 44 24 10     movaps      xmmword ptr [rsp+10h],xmm0
  0000000000003291: 0F 28 7C 24 20     movaps      xmm7,xmmword ptr [rsp+20h]
  0000000000003296: 0F 29 44 24 20     movaps      xmmword ptr [rsp+20h],xmm0
  000000000000329B: 44 0F 28 44 24 30  movaps      xmm8,xmmword ptr [rsp+30h]
  00000000000032A1: 0F 29 44 24 30     movaps      xmmword ptr [rsp+30h],xmm0
  00000000000032A6: 44 0F 28 4C 24 40  movaps      xmm9,xmmword ptr [rsp+40h]
  00000000000032AC: 0F 29 44 24 40     movaps      xmmword ptr [rsp+40h],xmm0
  00000000000032B1: 44 0F 28 54 24 50  movaps      xmm10,xmmword ptr [rsp+50h]
  00000000000032B7: 0F 29 44 24 50     movaps      xmmword ptr [rsp+50h],xmm0
  00000000000032BC: 44 0F 28 5C 24 60  movaps      xmm11,xmmword ptr [rsp+60h]
  00000000000032C2: 0F 29 44 24 60     movaps      xmmword ptr [rsp+60h],xmm0
  00000000000032C7: 44 0F 28 64 24 70  movaps      xmm12,xmmword ptr [rsp+70h]
  00000000000032CD: 0F 29 44 24 70     movaps      xmmword ptr [rsp+70h],xmm0
  00000000000032D2: 44 0F 28 AC 24 80  movaps      xmm13,xmmword ptr [rsp+80h]
                    00 00 00
  00000000000032DB: 0F 29 84 24 80 00  movaps      xmmword ptr [rsp+80h],xmm0
                    00 00
  00000000000032E3: 44 0F 28 B4 24 90  movaps      xmm14,xmmword ptr [rsp+90h]
                    00 00 00
  00000000000032EC: 0F 29 84 24 90 00  movaps      xmmword ptr [rsp+90h],xmm0
                    00 00
  00000000000032F4: 44 0F 28 BC 24 A0  movaps      xmm15,xmmword ptr [rsp+0A0h]
                    00 00 00
  00000000000032FD: 0F 29 84 24 A0 00  movaps      xmmword ptr [rsp+0A0h],xmm0
                    00 00
  0000000000003305: 49 8B 6B F8        mov         rbp,qword ptr [r11-8]
  0000000000003309: 49 8D 23           lea         rsp,[r11]
L$cbc_ret:
  000000000000330C: 48 8B 7C 24 08     mov         rdi,qword ptr [rsp+8]
  0000000000003311: 48 8B 74 24 10     mov         rsi,qword ptr [rsp+10h]
  0000000000003316: F3 C3              rep ret
L$SEH_end_aes_hw_cbc_encrypt:
  0000000000003318: 90                 nop
  0000000000003319: 90                 nop
  000000000000331A: 90                 nop
  000000000000331B: 90                 nop
  000000000000331C: 90                 nop
  000000000000331D: 90                 nop
  000000000000331E: 90                 nop
  000000000000331F: 90                 nop
aws_lc_0_21_0_aes_hw_set_decrypt_key:
  0000000000003320: 48 83 EC 08        sub         rsp,8
  0000000000003324: E8 77 00 00 00     call        aws_lc_0_21_0_aes_hw_set_encrypt_key
  0000000000003329: C1 E2 04           shl         edx,4
  000000000000332C: 85 C0              test        eax,eax
  000000000000332E: 0F 85 5A 00 00 00  jne         L$dec_key_ret
  0000000000003334: 49 8D 4C 10 10     lea         rcx,[r8+rdx+10h]
  0000000000003339: 41 0F 10 00        movups      xmm0,xmmword ptr [r8]
  000000000000333D: 0F 10 09           movups      xmm1,xmmword ptr [rcx]
  0000000000003340: 0F 11 01           movups      xmmword ptr [rcx],xmm0
  0000000000003343: 41 0F 11 08        movups      xmmword ptr [r8],xmm1
  0000000000003347: 4D 8D 40 10        lea         r8,[r8+10h]
  000000000000334B: 48 8D 49 F0        lea         rcx,[rcx-10h]
L$dec_key_inverse:
  000000000000334F: 41 0F 10 00        movups      xmm0,xmmword ptr [r8]
  0000000000003353: 0F 10 09           movups      xmm1,xmmword ptr [rcx]
  0000000000003356: 66 0F 38 DB C0     aesimc      xmm0,xmm0
  000000000000335B: 66 0F 38 DB C9     aesimc      xmm1,xmm1
  0000000000003360: 4D 8D 40 10        lea         r8,[r8+10h]
  0000000000003364: 48 8D 49 F0        lea         rcx,[rcx-10h]
  0000000000003368: 0F 11 41 10        movups      xmmword ptr [rcx+10h],xmm0
  000000000000336C: 41 0F 11 48 F0     movups      xmmword ptr [r8-10h],xmm1
  0000000000003371: 4C 39 C1           cmp         rcx,r8
  0000000000003374: 0F 87 D5 FF FF FF  ja          L$dec_key_inverse
  000000000000337A: 41 0F 10 00        movups      xmm0,xmmword ptr [r8]
  000000000000337E: 66 0F 38 DB C0     aesimc      xmm0,xmm0
  0000000000003383: 66 0F EF C9        pxor        xmm1,xmm1
  0000000000003387: 0F 11 01           movups      xmmword ptr [rcx],xmm0
  000000000000338A: 66 0F EF C0        pxor        xmm0,xmm0
L$dec_key_ret:
  000000000000338E: 48 83 C4 08        add         rsp,8
  0000000000003392: F3 C3              rep ret
L$SEH_end_set_decrypt_key:
  0000000000003394: 90                 nop
  0000000000003395: 90                 nop
  0000000000003396: 90                 nop
  0000000000003397: 90                 nop
  0000000000003398: 90                 nop
  0000000000003399: 90                 nop
  000000000000339A: 90                 nop
  000000000000339B: 90                 nop
  000000000000339C: 90                 nop
  000000000000339D: 90                 nop
  000000000000339E: 90                 nop
  000000000000339F: 90                 nop
aws_lc_0_21_0_aes_hw_set_encrypt_key:
  00000000000033A0: 48 83 EC 08        sub         rsp,8
  00000000000033A4: 48 C7 C0 FF FF FF  mov         rax,0FFFFFFFFFFFFFFFFh
                    FF
  00000000000033AB: 48 85 C9           test        rcx,rcx
  00000000000033AE: 0F 84 83 04 00 00  je          L$enc_key_ret
  00000000000033B4: 4D 85 C0           test        r8,r8
  00000000000033B7: 0F 84 7A 04 00 00  je          L$enc_key_ret
  00000000000033BD: 0F 10 01           movups      xmm0,xmmword ptr [rcx]
  00000000000033C0: 0F 57 E4           xorps       xmm4,xmm4
  00000000000033C3: 4C 8D 15 00 00 00  lea         r10,[aws_lc_0_21_0_OPENSSL_ia32cap_P]
                    00
  00000000000033CA: 45 8B 52 04        mov         r10d,dword ptr [r10+4]
  00000000000033CE: 41 81 E2 00 08 00  and         r10d,10000800h
                    10
  00000000000033D5: 49 8D 40 10        lea         rax,[r8+10h]
  00000000000033D9: 81 FA 00 01 00 00  cmp         edx,100h
  00000000000033DF: 0F 84 CB 02 00 00  je          L$14rounds
  00000000000033E5: 81 FA C0 00 00 00  cmp         edx,0C0h
  00000000000033EB: 0F 84 9F 01 00 00  je          L$12rounds
  00000000000033F1: 81 FA 80 00 00 00  cmp         edx,80h
  00000000000033F7: 0F 85 33 04 00 00  jne         L$bad_keybits
L$10rounds:
  00000000000033FD: BA 09 00 00 00     mov         edx,9
  0000000000003402: 41 81 FA 00 00 00  cmp         r10d,10000000h
                    10
  0000000000003409: 0F 84 81 00 00 00  je          L$10rounds_alt
  000000000000340F: 41 0F 11 00        movups      xmmword ptr [r8],xmm0
  0000000000003413: 66 0F 3A DF C8 01  aeskeygenassist xmm1,xmm0,1
  0000000000003419: E8 49 04 00 00     call        L$key_expansion_128_cold
  000000000000341E: 66 0F 3A DF C8 02  aeskeygenassist xmm1,xmm0,2
  0000000000003424: E8 37 04 00 00     call        L$key_expansion_128
  0000000000003429: 66 0F 3A DF C8 04  aeskeygenassist xmm1,xmm0,4
  000000000000342F: E8 2C 04 00 00     call        L$key_expansion_128
  0000000000003434: 66 0F 3A DF C8 08  aeskeygenassist xmm1,xmm0,8
  000000000000343A: E8 21 04 00 00     call        L$key_expansion_128
  000000000000343F: 66 0F 3A DF C8 10  aeskeygenassist xmm1,xmm0,10h
  0000000000003445: E8 16 04 00 00     call        L$key_expansion_128
  000000000000344A: 66 0F 3A DF C8 20  aeskeygenassist xmm1,xmm0,20h
  0000000000003450: E8 0B 04 00 00     call        L$key_expansion_128
  0000000000003455: 66 0F 3A DF C8 40  aeskeygenassist xmm1,xmm0,40h
  000000000000345B: E8 00 04 00 00     call        L$key_expansion_128
  0000000000003460: 66 0F 3A DF C8 80  aeskeygenassist xmm1,xmm0,80h
  0000000000003466: E8 F5 03 00 00     call        L$key_expansion_128
  000000000000346B: 66 0F 3A DF C8 1B  aeskeygenassist xmm1,xmm0,1Bh
  0000000000003471: E8 EA 03 00 00     call        L$key_expansion_128
  0000000000003476: 66 0F 3A DF C8 36  aeskeygenassist xmm1,xmm0,36h
  000000000000347C: E8 DF 03 00 00     call        L$key_expansion_128
  0000000000003481: 0F 11 00           movups      xmmword ptr [rax],xmm0
  0000000000003484: 89 50 50           mov         dword ptr [rax+50h],edx
  0000000000003487: 31 C0              xor         eax,eax
  0000000000003489: E9 A9 03 00 00     jmp         L$enc_key_ret
  000000000000348E: 90                 nop
  000000000000348F: 90                 nop
L$10rounds_alt:
  0000000000003490: 66 0F 6F 2D 50 00  movdqa      xmm5,xmmword ptr [.rdata+50h]
                    00 00
  0000000000003498: 41 BA 08 00 00 00  mov         r10d,8
  000000000000349E: 66 0F 6F 25 70 00  movdqa      xmm4,xmmword ptr [.rdata+70h]
                    00 00
  00000000000034A6: 66 0F 6F D0        movdqa      xmm2,xmm0
  00000000000034AA: F3 41 0F 7F 00     movdqu      xmmword ptr [r8],xmm0
  00000000000034AF: E9 0C 00 00 00     jmp         L$oop_key128
  00000000000034B4: 90                 nop
  00000000000034B5: 90                 nop
  00000000000034B6: 90                 nop
  00000000000034B7: 90                 nop
  00000000000034B8: 90                 nop
  00000000000034B9: 90                 nop
  00000000000034BA: 90                 nop
  00000000000034BB: 90                 nop
  00000000000034BC: 90                 nop
  00000000000034BD: 90                 nop
  00000000000034BE: 90                 nop
  00000000000034BF: 90                 nop
L$oop_key128:
  00000000000034C0: 66 0F 38 00 C5     pshufb      xmm0,xmm5
  00000000000034C5: 66 0F 38 DD C4     aesenclast  xmm0,xmm4
  00000000000034CA: 66 0F 72 F4 01     pslld       xmm4,1
  00000000000034CF: 48 8D 40 10        lea         rax,[rax+10h]
  00000000000034D3: 66 0F 6F DA        movdqa      xmm3,xmm2
  00000000000034D7: 66 0F 73 FA 04     pslldq      xmm2,4
  00000000000034DC: 66 0F EF DA        pxor        xmm3,xmm2
  00000000000034E0: 66 0F 73 FA 04     pslldq      xmm2,4
  00000000000034E5: 66 0F EF DA        pxor        xmm3,xmm2
  00000000000034E9: 66 0F 73 FA 04     pslldq      xmm2,4
  00000000000034EE: 66 0F EF D3        pxor        xmm2,xmm3
  00000000000034F2: 66 0F EF C2        pxor        xmm0,xmm2
  00000000000034F6: F3 0F 7F 40 F0     movdqu      xmmword ptr [rax-10h],xmm0
  00000000000034FB: 66 0F 6F D0        movdqa      xmm2,xmm0
  00000000000034FF: 41 FF CA           dec         r10d
  0000000000003502: 0F 85 B8 FF FF FF  jne         L$oop_key128
  0000000000003508: 66 0F 6F 25 80 00  movdqa      xmm4,xmmword ptr [.rdata+80h]
                    00 00
  0000000000003510: 66 0F 38 00 C5     pshufb      xmm0,xmm5
  0000000000003515: 66 0F 38 DD C4     aesenclast  xmm0,xmm4
  000000000000351A: 66 0F 72 F4 01     pslld       xmm4,1
  000000000000351F: 66 0F 6F DA        movdqa      xmm3,xmm2
  0000000000003523: 66 0F 73 FA 04     pslldq      xmm2,4
  0000000000003528: 66 0F EF DA        pxor        xmm3,xmm2
  000000000000352C: 66 0F 73 FA 04     pslldq      xmm2,4
  0000000000003531: 66 0F EF DA        pxor        xmm3,xmm2
  0000000000003535: 66 0F 73 FA 04     pslldq      xmm2,4
  000000000000353A: 66 0F EF D3        pxor        xmm2,xmm3
  000000000000353E: 66 0F EF C2        pxor        xmm0,xmm2
  0000000000003542: F3 0F 7F 00        movdqu      xmmword ptr [rax],xmm0
  0000000000003546: 66 0F 6F D0        movdqa      xmm2,xmm0
  000000000000354A: 66 0F 38 00 C5     pshufb      xmm0,xmm5
  000000000000354F: 66 0F 38 DD C4     aesenclast  xmm0,xmm4
  0000000000003554: 66 0F 6F DA        movdqa      xmm3,xmm2
  0000000000003558: 66 0F 73 FA 04     pslldq      xmm2,4
  000000000000355D: 66 0F EF DA        pxor        xmm3,xmm2
  0000000000003561: 66 0F 73 FA 04     pslldq      xmm2,4
  0000000000003566: 66 0F EF DA        pxor        xmm3,xmm2
  000000000000356A: 66 0F 73 FA 04     pslldq      xmm2,4
  000000000000356F: 66 0F EF D3        pxor        xmm2,xmm3
  0000000000003573: 66 0F EF C2        pxor        xmm0,xmm2
  0000000000003577: F3 0F 7F 40 10     movdqu      xmmword ptr [rax+10h],xmm0
  000000000000357C: 89 50 60           mov         dword ptr [rax+60h],edx
  000000000000357F: 31 C0              xor         eax,eax
  0000000000003581: E9 B1 02 00 00     jmp         L$enc_key_ret
  0000000000003586: 90                 nop
  0000000000003587: 90                 nop
  0000000000003588: 90                 nop
  0000000000003589: 90                 nop
  000000000000358A: 90                 nop
  000000000000358B: 90                 nop
  000000000000358C: 90                 nop
  000000000000358D: 90                 nop
  000000000000358E: 90                 nop
  000000000000358F: 90                 nop
L$12rounds:
  0000000000003590: F3 0F 7E 51 10     movq        xmm2,mmword ptr [rcx+10h]
  0000000000003595: BA 0B 00 00 00     mov         edx,0Bh
  000000000000359A: 41 81 FA 00 00 00  cmp         r10d,10000000h
                    10
  00000000000035A1: 0F 84 79 00 00 00  je          L$12rounds_alt
  00000000000035A7: 41 0F 11 00        movups      xmmword ptr [r8],xmm0
  00000000000035AB: 66 0F 3A DF CA 01  aeskeygenassist xmm1,xmm2,1
  00000000000035B1: E8 D1 02 00 00     call        L$key_expansion_192a_cold
  00000000000035B6: 66 0F 3A DF CA 02  aeskeygenassist xmm1,xmm2,2
  00000000000035BC: E8 FF 02 00 00     call        L$key_expansion_192b
  00000000000035C1: 66 0F 3A DF CA 04  aeskeygenassist xmm1,xmm2,4
  00000000000035C7: E8 B4 02 00 00     call        L$key_expansion_192a
  00000000000035CC: 66 0F 3A DF CA 08  aeskeygenassist xmm1,xmm2,8
  00000000000035D2: E8 E9 02 00 00     call        L$key_expansion_192b
  00000000000035D7: 66 0F 3A DF CA 10  aeskeygenassist xmm1,xmm2,10h
  00000000000035DD: E8 9E 02 00 00     call        L$key_expansion_192a
  00000000000035E2: 66 0F 3A DF CA 20  aeskeygenassist xmm1,xmm2,20h
  00000000000035E8: E8 D3 02 00 00     call        L$key_expansion_192b
  00000000000035ED: 66 0F 3A DF CA 40  aeskeygenassist xmm1,xmm2,40h
  00000000000035F3: E8 88 02 00 00     call        L$key_expansion_192a
  00000000000035F8: 66 0F 3A DF CA 80  aeskeygenassist xmm1,xmm2,80h
  00000000000035FE: E8 BD 02 00 00     call        L$key_expansion_192b
  0000000000003603: 0F 11 00           movups      xmmword ptr [rax],xmm0
  0000000000003606: 89 50 30           mov         dword ptr [rax+30h],edx
  0000000000003609: 48 31 C0           xor         rax,rax
  000000000000360C: E9 26 02 00 00     jmp         L$enc_key_ret
  0000000000003611: 90                 nop
  0000000000003612: 90                 nop
  0000000000003613: 90                 nop
  0000000000003614: 90                 nop
  0000000000003615: 90                 nop
  0000000000003616: 90                 nop
  0000000000003617: 90                 nop
  0000000000003618: 90                 nop
  0000000000003619: 90                 nop
  000000000000361A: 90                 nop
  000000000000361B: 90                 nop
  000000000000361C: 90                 nop
  000000000000361D: 90                 nop
  000000000000361E: 90                 nop
  000000000000361F: 90                 nop
L$12rounds_alt:
  0000000000003620: 66 0F 6F 2D 60 00  movdqa      xmm5,xmmword ptr [.rdata+60h]
                    00 00
  0000000000003628: 66 0F 6F 25 70 00  movdqa      xmm4,xmmword ptr [.rdata+70h]
                    00 00
  0000000000003630: 41 BA 08 00 00 00  mov         r10d,8
  0000000000003636: F3 41 0F 7F 00     movdqu      xmmword ptr [r8],xmm0
  000000000000363B: E9 00 00 00 00     jmp         L$oop_key192
L$oop_key192:
  0000000000003640: 66 0F D6 10        movq        mmword ptr [rax],xmm2
  0000000000003644: 66 0F 6F CA        movdqa      xmm1,xmm2
  0000000000003648: 66 0F 38 00 D5     pshufb      xmm2,xmm5
  000000000000364D: 66 0F 38 DD D4     aesenclast  xmm2,xmm4
  0000000000003652: 66 0F 72 F4 01     pslld       xmm4,1
  0000000000003657: 48 8D 40 18        lea         rax,[rax+18h]
  000000000000365B: 66 0F 6F D8        movdqa      xmm3,xmm0
  000000000000365F: 66 0F 73 F8 04     pslldq      xmm0,4
  0000000000003664: 66 0F EF D8        pxor        xmm3,xmm0
  0000000000003668: 66 0F 73 F8 04     pslldq      xmm0,4
  000000000000366D: 66 0F EF D8        pxor        xmm3,xmm0
  0000000000003671: 66 0F 73 F8 04     pslldq      xmm0,4
  0000000000003676: 66 0F EF C3        pxor        xmm0,xmm3
  000000000000367A: 66 0F 70 D8 FF     pshufd      xmm3,xmm0,0FFh
  000000000000367F: 66 0F EF D9        pxor        xmm3,xmm1
  0000000000003683: 66 0F 73 F9 04     pslldq      xmm1,4
  0000000000003688: 66 0F EF D9        pxor        xmm3,xmm1
  000000000000368C: 66 0F EF C2        pxor        xmm0,xmm2
  0000000000003690: 66 0F EF D3        pxor        xmm2,xmm3
  0000000000003694: F3 0F 7F 40 F0     movdqu      xmmword ptr [rax-10h],xmm0
  0000000000003699: 41 FF CA           dec         r10d
  000000000000369C: 0F 85 9E FF FF FF  jne         L$oop_key192
  00000000000036A2: 89 50 20           mov         dword ptr [rax+20h],edx
  00000000000036A5: 31 C0              xor         eax,eax
  00000000000036A7: E9 8B 01 00 00     jmp         L$enc_key_ret
  00000000000036AC: 90                 nop
  00000000000036AD: 90                 nop
  00000000000036AE: 90                 nop
  00000000000036AF: 90                 nop
L$14rounds:
  00000000000036B0: 0F 10 51 10        movups      xmm2,xmmword ptr [rcx+10h]
  00000000000036B4: BA 0D 00 00 00     mov         edx,0Dh
  00000000000036B9: 48 8D 40 10        lea         rax,[rax+10h]
  00000000000036BD: 41 81 FA 00 00 00  cmp         r10d,10000000h
                    10
  00000000000036C4: 0F 84 A6 00 00 00  je          L$14rounds_alt
  00000000000036CA: 41 0F 11 00        movups      xmmword ptr [r8],xmm0
  00000000000036CE: 41 0F 11 50 10     movups      xmmword ptr [r8+10h],xmm2
  00000000000036D3: 66 0F 3A DF CA 01  aeskeygenassist xmm1,xmm2,1
  00000000000036D9: E8 09 02 00 00     call        L$key_expansion_256a_cold
  00000000000036DE: 66 0F 3A DF C8 01  aeskeygenassist xmm1,xmm0,1
  00000000000036E4: E8 17 02 00 00     call        L$key_expansion_256b
  00000000000036E9: 66 0F 3A DF CA 02  aeskeygenassist xmm1,xmm2,2
  00000000000036EF: E8 EC 01 00 00     call        L$key_expansion_256a
  00000000000036F4: 66 0F 3A DF C8 02  aeskeygenassist xmm1,xmm0,2
  00000000000036FA: E8 01 02 00 00     call        L$key_expansion_256b
  00000000000036FF: 66 0F 3A DF CA 04  aeskeygenassist xmm1,xmm2,4
  0000000000003705: E8 D6 01 00 00     call        L$key_expansion_256a
  000000000000370A: 66 0F 3A DF C8 04  aeskeygenassist xmm1,xmm0,4
  0000000000003710: E8 EB 01 00 00     call        L$key_expansion_256b
  0000000000003715: 66 0F 3A DF CA 08  aeskeygenassist xmm1,xmm2,8
  000000000000371B: E8 C0 01 00 00     call        L$key_expansion_256a
  0000000000003720: 66 0F 3A DF C8 08  aeskeygenassist xmm1,xmm0,8
  0000000000003726: E8 D5 01 00 00     call        L$key_expansion_256b
  000000000000372B: 66 0F 3A DF CA 10  aeskeygenassist xmm1,xmm2,10h
  0000000000003731: E8 AA 01 00 00     call        L$key_expansion_256a
  0000000000003736: 66 0F 3A DF C8 10  aeskeygenassist xmm1,xmm0,10h
  000000000000373C: E8 BF 01 00 00     call        L$key_expansion_256b
  0000000000003741: 66 0F 3A DF CA 20  aeskeygenassist xmm1,xmm2,20h
  0000000000003747: E8 94 01 00 00     call        L$key_expansion_256a
  000000000000374C: 66 0F 3A DF C8 20  aeskeygenassist xmm1,xmm0,20h
  0000000000003752: E8 A9 01 00 00     call        L$key_expansion_256b
  0000000000003757: 66 0F 3A DF CA 40  aeskeygenassist xmm1,xmm2,40h
  000000000000375D: E8 7E 01 00 00     call        L$key_expansion_256a
  0000000000003762: 0F 11 00           movups      xmmword ptr [rax],xmm0
  0000000000003765: 89 50 10           mov         dword ptr [rax+10h],edx
  0000000000003768: 48 31 C0           xor         rax,rax
  000000000000376B: E9 C7 00 00 00     jmp         L$enc_key_ret
L$14rounds_alt:
  0000000000003770: 66 0F 6F 2D 50 00  movdqa      xmm5,xmmword ptr [.rdata+50h]
                    00 00
  0000000000003778: 66 0F 6F 25 70 00  movdqa      xmm4,xmmword ptr [.rdata+70h]
                    00 00
  0000000000003780: 41 BA 07 00 00 00  mov         r10d,7
  0000000000003786: F3 41 0F 7F 00     movdqu      xmmword ptr [r8],xmm0
  000000000000378B: 66 0F 6F CA        movdqa      xmm1,xmm2
  000000000000378F: F3 41 0F 7F 50 10  movdqu      xmmword ptr [r8+10h],xmm2
  0000000000003795: E9 06 00 00 00     jmp         L$oop_key256
  000000000000379A: 90                 nop
  000000000000379B: 90                 nop
  000000000000379C: 90                 nop
  000000000000379D: 90                 nop
  000000000000379E: 90                 nop
  000000000000379F: 90                 nop
L$oop_key256:
  00000000000037A0: 66 0F 38 00 D5     pshufb      xmm2,xmm5
  00000000000037A5: 66 0F 38 DD D4     aesenclast  xmm2,xmm4
  00000000000037AA: 66 0F 6F D8        movdqa      xmm3,xmm0
  00000000000037AE: 66 0F 73 F8 04     pslldq      xmm0,4
  00000000000037B3: 66 0F EF D8        pxor        xmm3,xmm0
  00000000000037B7: 66 0F 73 F8 04     pslldq      xmm0,4
  00000000000037BC: 66 0F EF D8        pxor        xmm3,xmm0
  00000000000037C0: 66 0F 73 F8 04     pslldq      xmm0,4
  00000000000037C5: 66 0F EF C3        pxor        xmm0,xmm3
  00000000000037C9: 66 0F 72 F4 01     pslld       xmm4,1
  00000000000037CE: 66 0F EF C2        pxor        xmm0,xmm2
  00000000000037D2: F3 0F 7F 00        movdqu      xmmword ptr [rax],xmm0
  00000000000037D6: 41 FF CA           dec         r10d
  00000000000037D9: 0F 84 43 00 00 00  je          L$done_key256
  00000000000037DF: 66 0F 70 D0 FF     pshufd      xmm2,xmm0,0FFh
  00000000000037E4: 66 0F EF DB        pxor        xmm3,xmm3
  00000000000037E8: 66 0F 38 DD D3     aesenclast  xmm2,xmm3
  00000000000037ED: 66 0F 6F D9        movdqa      xmm3,xmm1
  00000000000037F1: 66 0F 73 F9 04     pslldq      xmm1,4
  00000000000037F6: 66 0F EF D9        pxor        xmm3,xmm1
  00000000000037FA: 66 0F 73 F9 04     pslldq      xmm1,4
  00000000000037FF: 66 0F EF D9        pxor        xmm3,xmm1
  0000000000003803: 66 0F 73 F9 04     pslldq      xmm1,4
  0000000000003808: 66 0F EF CB        pxor        xmm1,xmm3
  000000000000380C: 66 0F EF D1        pxor        xmm2,xmm1
  0000000000003810: F3 0F 7F 50 10     movdqu      xmmword ptr [rax+10h],xmm2
  0000000000003815: 48 8D 40 20        lea         rax,[rax+20h]
  0000000000003819: 66 0F 6F CA        movdqa      xmm1,xmm2
  000000000000381D: E9 7E FF FF FF     jmp         L$oop_key256
L$done_key256:
  0000000000003822: 89 50 10           mov         dword ptr [rax+10h],edx
  0000000000003825: 31 C0              xor         eax,eax
  0000000000003827: E9 0B 00 00 00     jmp         L$enc_key_ret
  000000000000382C: 90                 nop
  000000000000382D: 90                 nop
  000000000000382E: 90                 nop
  000000000000382F: 90                 nop
L$bad_keybits:
  0000000000003830: 48 C7 C0 FE FF FF  mov         rax,0FFFFFFFFFFFFFFFEh
                    FF
L$enc_key_ret:
  0000000000003837: 66 0F EF C0        pxor        xmm0,xmm0
  000000000000383B: 66 0F EF C9        pxor        xmm1,xmm1
  000000000000383F: 66 0F EF D2        pxor        xmm2,xmm2
  0000000000003843: 66 0F EF DB        pxor        xmm3,xmm3
  0000000000003847: 66 0F EF E4        pxor        xmm4,xmm4
  000000000000384B: 66 0F EF ED        pxor        xmm5,xmm5
  000000000000384F: 48 83 C4 08        add         rsp,8
  0000000000003853: F3 C3              rep ret
L$SEH_end_set_encrypt_key:
  0000000000003855: 90                 nop
  0000000000003856: 90                 nop
  0000000000003857: 90                 nop
  0000000000003858: 90                 nop
  0000000000003859: 90                 nop
  000000000000385A: 90                 nop
  000000000000385B: 90                 nop
  000000000000385C: 90                 nop
  000000000000385D: 90                 nop
  000000000000385E: 90                 nop
  000000000000385F: 90                 nop
L$key_expansion_128:
  0000000000003860: 0F 11 00           movups      xmmword ptr [rax],xmm0
  0000000000003863: 48 8D 40 10        lea         rax,[rax+10h]
L$key_expansion_128_cold:
  0000000000003867: 0F C6 E0 10        shufps      xmm4,xmm0,10h
  000000000000386B: 0F 57 C4           xorps       xmm0,xmm4
  000000000000386E: 0F C6 E0 8C        shufps      xmm4,xmm0,8Ch
  0000000000003872: 0F 57 C4           xorps       xmm0,xmm4
  0000000000003875: 0F C6 C9 FF        shufps      xmm1,xmm1,0FFh
  0000000000003879: 0F 57 C1           xorps       xmm0,xmm1
  000000000000387C: F3 C3              rep ret
  000000000000387E: 90                 nop
  000000000000387F: 90                 nop
L$key_expansion_192a:
  0000000000003880: 0F 11 00           movups      xmmword ptr [rax],xmm0
  0000000000003883: 48 8D 40 10        lea         rax,[rax+10h]
L$key_expansion_192a_cold:
  0000000000003887: 0F 28 EA           movaps      xmm5,xmm2
L$key_expansion_192b_warm:
  000000000000388A: 0F C6 E0 10        shufps      xmm4,xmm0,10h
  000000000000388E: 66 0F 6F DA        movdqa      xmm3,xmm2
  0000000000003892: 0F 57 C4           xorps       xmm0,xmm4
  0000000000003895: 0F C6 E0 8C        shufps      xmm4,xmm0,8Ch
  0000000000003899: 66 0F 73 FB 04     pslldq      xmm3,4
  000000000000389E: 0F 57 C4           xorps       xmm0,xmm4
  00000000000038A1: 66 0F 70 C9 55     pshufd      xmm1,xmm1,55h
  00000000000038A6: 66 0F EF D3        pxor        xmm2,xmm3
  00000000000038AA: 66 0F EF C1        pxor        xmm0,xmm1
  00000000000038AE: 66 0F 70 D8 FF     pshufd      xmm3,xmm0,0FFh
  00000000000038B3: 66 0F EF D3        pxor        xmm2,xmm3
  00000000000038B7: F3 C3              rep ret
  00000000000038B9: 90                 nop
  00000000000038BA: 90                 nop
  00000000000038BB: 90                 nop
  00000000000038BC: 90                 nop
  00000000000038BD: 90                 nop
  00000000000038BE: 90                 nop
  00000000000038BF: 90                 nop
L$key_expansion_192b:
  00000000000038C0: 0F 28 D8           movaps      xmm3,xmm0
  00000000000038C3: 0F C6 E8 44        shufps      xmm5,xmm0,44h
  00000000000038C7: 0F 11 28           movups      xmmword ptr [rax],xmm5
  00000000000038CA: 0F C6 DA 4E        shufps      xmm3,xmm2,4Eh
  00000000000038CE: 0F 11 58 10        movups      xmmword ptr [rax+10h],xmm3
  00000000000038D2: 48 8D 40 20        lea         rax,[rax+20h]
  00000000000038D6: E9 AF FF FF FF     jmp         L$key_expansion_192b_warm
  00000000000038DB: 90                 nop
  00000000000038DC: 90                 nop
  00000000000038DD: 90                 nop
  00000000000038DE: 90                 nop
  00000000000038DF: 90                 nop
L$key_expansion_256a:
  00000000000038E0: 0F 11 10           movups      xmmword ptr [rax],xmm2
  00000000000038E3: 48 8D 40 10        lea         rax,[rax+10h]
L$key_expansion_256a_cold:
  00000000000038E7: 0F C6 E0 10        shufps      xmm4,xmm0,10h
  00000000000038EB: 0F 57 C4           xorps       xmm0,xmm4
  00000000000038EE: 0F C6 E0 8C        shufps      xmm4,xmm0,8Ch
  00000000000038F2: 0F 57 C4           xorps       xmm0,xmm4
  00000000000038F5: 0F C6 C9 FF        shufps      xmm1,xmm1,0FFh
  00000000000038F9: 0F 57 C1           xorps       xmm0,xmm1
  00000000000038FC: F3 C3              rep ret
  00000000000038FE: 90                 nop
  00000000000038FF: 90                 nop
L$key_expansion_256b:
  0000000000003900: 0F 11 00           movups      xmmword ptr [rax],xmm0
  0000000000003903: 48 8D 40 10        lea         rax,[rax+10h]
  0000000000003907: 0F C6 E2 10        shufps      xmm4,xmm2,10h
  000000000000390B: 0F 57 D4           xorps       xmm2,xmm4
  000000000000390E: 0F C6 E2 8C        shufps      xmm4,xmm2,8Ch
  0000000000003912: 0F 57 D4           xorps       xmm2,xmm4
  0000000000003915: 0F C6 C9 AA        shufps      xmm1,xmm1,0AAh
  0000000000003919: 0F 57 D1           xorps       xmm2,xmm1
  000000000000391C: F3 C3              rep ret
  000000000000391E: 90                 nop
  000000000000391F: 90                 nop
ecb_ccm64_se_handler:
  0000000000003920: 56                 push        rsi
  0000000000003921: 57                 push        rdi
  0000000000003922: 53                 push        rbx
  0000000000003923: 55                 push        rbp
  0000000000003924: 41 54              push        r12
  0000000000003926: 41 55              push        r13
  0000000000003928: 41 56              push        r14
  000000000000392A: 41 57              push        r15
  000000000000392C: 9C                 pushfq
  000000000000392D: 48 83 EC 40        sub         rsp,40h
  0000000000003931: 49 8B 40 78        mov         rax,qword ptr [r8+78h]
  0000000000003935: 49 8B 98 F8 00 00  mov         rbx,qword ptr [r8+0F8h]
                    00
  000000000000393C: 49 8B 71 08        mov         rsi,qword ptr [r9+8]
  0000000000003940: 4D 8B 59 38        mov         r11,qword ptr [r9+38h]
  0000000000003944: 45 8B 13           mov         r10d,dword ptr [r11]
  0000000000003947: 4E 8D 14 16        lea         r10,[rsi+r10]
  000000000000394B: 4C 39 D3           cmp         rbx,r10
  000000000000394E: 0F 82 3C 01 00 00  jb          L$common_seh_tail
  0000000000003954: 49 8B 80 98 00 00  mov         rax,qword ptr [r8+98h]
                    00
  000000000000395B: 45 8B 53 04        mov         r10d,dword ptr [r11+4]
  000000000000395F: 4E 8D 14 16        lea         r10,[rsi+r10]
  0000000000003963: 4C 39 D3           cmp         rbx,r10
  0000000000003966: 0F 83 24 01 00 00  jae         L$common_seh_tail
  000000000000396C: 48 8D 30           lea         rsi,[rax]
  000000000000396F: 49 8D B8 00 02 00  lea         rdi,[r8+200h]
                    00
  0000000000003976: B9 08 00 00 00     mov         ecx,8
  000000000000397B: FC                 cld
  000000000000397C: F3 48 A5           rep movs    qword ptr [rdi],qword ptr [rsi]
  000000000000397F: 48 8D 40 58        lea         rax,[rax+58h]
  0000000000003983: E9 08 01 00 00     jmp         L$common_seh_tail
  0000000000003988: 90                 nop
  0000000000003989: 90                 nop
  000000000000398A: 90                 nop
  000000000000398B: 90                 nop
  000000000000398C: 90                 nop
  000000000000398D: 90                 nop
  000000000000398E: 90                 nop
  000000000000398F: 90                 nop
ctr_xts_se_handler:
  0000000000003990: 56                 push        rsi
  0000000000003991: 57                 push        rdi
  0000000000003992: 53                 push        rbx
  0000000000003993: 55                 push        rbp
  0000000000003994: 41 54              push        r12
  0000000000003996: 41 55              push        r13
  0000000000003998: 41 56              push        r14
  000000000000399A: 41 57              push        r15
  000000000000399C: 9C                 pushfq
  000000000000399D: 48 83 EC 40        sub         rsp,40h
  00000000000039A1: 49 8B 40 78        mov         rax,qword ptr [r8+78h]
  00000000000039A5: 49 8B 98 F8 00 00  mov         rbx,qword ptr [r8+0F8h]
                    00
  00000000000039AC: 49 8B 71 08        mov         rsi,qword ptr [r9+8]
  00000000000039B0: 4D 8B 59 38        mov         r11,qword ptr [r9+38h]
  00000000000039B4: 45 8B 13           mov         r10d,dword ptr [r11]
  00000000000039B7: 4E 8D 14 16        lea         r10,[rsi+r10]
  00000000000039BB: 4C 39 D3           cmp         rbx,r10
  00000000000039BE: 0F 82 CC 00 00 00  jb          L$common_seh_tail
  00000000000039C4: 49 8B 80 98 00 00  mov         rax,qword ptr [r8+98h]
                    00
  00000000000039CB: 45 8B 53 04        mov         r10d,dword ptr [r11+4]
  00000000000039CF: 4E 8D 14 16        lea         r10,[rsi+r10]
  00000000000039D3: 4C 39 D3           cmp         rbx,r10
  00000000000039D6: 0F 83 B4 00 00 00  jae         L$common_seh_tail
  00000000000039DC: 49 8B 80 D0 00 00  mov         rax,qword ptr [r8+0D0h]
                    00
  00000000000039E3: 48 8D B0 58 FF FF  lea         rsi,[rax-0A8h]
                    FF
  00000000000039EA: 49 8D B8 00 02 00  lea         rdi,[r8+200h]
                    00
  00000000000039F1: B9 14 00 00 00     mov         ecx,14h
  00000000000039F6: FC                 cld
  00000000000039F7: F3 48 A5           rep movs    qword ptr [rdi],qword ptr [rsi]
  00000000000039FA: 48 8B 68 F8        mov         rbp,qword ptr [rax-8]
  00000000000039FE: 49 89 A8 A0 00 00  mov         qword ptr [r8+0A0h],rbp
                    00
  0000000000003A05: E9 86 00 00 00     jmp         L$common_seh_tail
  0000000000003A0A: 90                 nop
  0000000000003A0B: 90                 nop
  0000000000003A0C: 90                 nop
  0000000000003A0D: 90                 nop
  0000000000003A0E: 90                 nop
  0000000000003A0F: 90                 nop
cbc_se_handler:
  0000000000003A10: 56                 push        rsi
  0000000000003A11: 57                 push        rdi
  0000000000003A12: 53                 push        rbx
  0000000000003A13: 55                 push        rbp
  0000000000003A14: 41 54              push        r12
  0000000000003A16: 41 55              push        r13
  0000000000003A18: 41 56              push        r14
  0000000000003A1A: 41 57              push        r15
  0000000000003A1C: 9C                 pushfq
  0000000000003A1D: 48 83 EC 40        sub         rsp,40h
  0000000000003A21: 49 8B 80 98 00 00  mov         rax,qword ptr [r8+98h]
                    00
  0000000000003A28: 49 8B 98 F8 00 00  mov         rbx,qword ptr [r8+0F8h]
                    00
  0000000000003A2F: 4C 8D 15 DA EF FF  lea         r10,[L$cbc_decrypt_bulk]
                    FF
  0000000000003A36: 4C 39 D3           cmp         rbx,r10
  0000000000003A39: 0F 82 51 00 00 00  jb          L$common_seh_tail
  0000000000003A3F: 49 8B 40 78        mov         rax,qword ptr [r8+78h]
  0000000000003A43: 4C 8D 15 19 F0 FF  lea         r10,[L$cbc_decrypt_body]
                    FF
  0000000000003A4A: 4C 39 D3           cmp         rbx,r10
  0000000000003A4D: 0F 82 3D 00 00 00  jb          L$common_seh_tail
  0000000000003A53: 49 8B 80 98 00 00  mov         rax,qword ptr [r8+98h]
                    00
  0000000000003A5A: 4C 8D 15 AB F8 FF  lea         r10,[L$cbc_ret]
                    FF
  0000000000003A61: 4C 39 D3           cmp         rbx,r10
  0000000000003A64: 0F 83 26 00 00 00  jae         L$common_seh_tail
  0000000000003A6A: 48 8D 70 10        lea         rsi,[rax+10h]
  0000000000003A6E: 49 8D B8 00 02 00  lea         rdi,[r8+200h]
                    00
  0000000000003A75: B9 14 00 00 00     mov         ecx,14h
  0000000000003A7A: FC                 cld
  0000000000003A7B: F3 48 A5           rep movs    qword ptr [rdi],qword ptr [rsi]
  0000000000003A7E: 49 8B 80 D0 00 00  mov         rax,qword ptr [r8+0D0h]
                    00
  0000000000003A85: 48 8B 68 F8        mov         rbp,qword ptr [rax-8]
  0000000000003A89: 49 89 A8 A0 00 00  mov         qword ptr [r8+0A0h],rbp
                    00
L$common_seh_tail:
  0000000000003A90: 48 8B 78 08        mov         rdi,qword ptr [rax+8]
  0000000000003A94: 48 8B 70 10        mov         rsi,qword ptr [rax+10h]
  0000000000003A98: 49 89 80 98 00 00  mov         qword ptr [r8+98h],rax
                    00
  0000000000003A9F: 49 89 B0 A8 00 00  mov         qword ptr [r8+0A8h],rsi
                    00
  0000000000003AA6: 49 89 B8 B0 00 00  mov         qword ptr [r8+0B0h],rdi
                    00
  0000000000003AAD: 49 8B 79 28        mov         rdi,qword ptr [r9+28h]
  0000000000003AB1: 4C 89 C6           mov         rsi,r8
  0000000000003AB4: B9 9A 00 00 00     mov         ecx,9Ah
  0000000000003AB9: FC                 cld
  0000000000003ABA: F3 48 A5           rep movs    qword ptr [rdi],qword ptr [rsi]
  0000000000003ABD: 4C 89 CE           mov         rsi,r9
  0000000000003AC0: 48 31 C9           xor         rcx,rcx
  0000000000003AC3: 48 8B 56 08        mov         rdx,qword ptr [rsi+8]
  0000000000003AC7: 4C 8B 06           mov         r8,qword ptr [rsi]
  0000000000003ACA: 4C 8B 4E 10        mov         r9,qword ptr [rsi+10h]
  0000000000003ACE: 4C 8B 56 28        mov         r10,qword ptr [rsi+28h]
  0000000000003AD2: 4C 8D 5E 38        lea         r11,[rsi+38h]
  0000000000003AD6: 4C 8D 66 18        lea         r12,[rsi+18h]
  0000000000003ADA: 4C 89 54 24 20     mov         qword ptr [rsp+20h],r10
  0000000000003ADF: 4C 89 5C 24 28     mov         qword ptr [rsp+28h],r11
  0000000000003AE4: 4C 89 64 24 30     mov         qword ptr [rsp+30h],r12
  0000000000003AE9: 48 89 4C 24 38     mov         qword ptr [rsp+38h],rcx
  0000000000003AEE: FF 15 00 00 00 00  call        qword ptr [__imp_RtlVirtualUnwind]
  0000000000003AF4: B8 01 00 00 00     mov         eax,1
  0000000000003AF9: 48 83 C4 40        add         rsp,40h
  0000000000003AFD: 9D                 popfq
  0000000000003AFE: 41 5F              pop         r15
  0000000000003B00: 41 5E              pop         r14
  0000000000003B02: 41 5D              pop         r13
  0000000000003B04: 41 5C              pop         r12
  0000000000003B06: 5D                 pop         rbp
  0000000000003B07: 5B                 pop         rbx
  0000000000003B08: 5F                 pop         rdi
  0000000000003B09: 5E                 pop         rsi
  0000000000003B0A: F3 C3              rep ret

  Summary

          1C .debug$T
          3C .pdata
         100 .rdata
        3B0C .text
          30 .xdata
