Copyright (C) Microsoft Corporation.  All rights reserved.


Dump of file aesni-sha1-x86_64.obj

File Type: COFF OBJECT

aws_lc_0_21_0_aesni_cbc_sha1_enc:
  0000000000000000: 44 8B 15 00 00 00  mov         r10d,dword ptr [aws_lc_0_21_0_OPENSSL_ia32cap_P]
                    00
  0000000000000007: 4C 8B 1D 04 00 00  mov         r11,qword ptr [aws_lc_0_21_0_OPENSSL_ia32cap_P+4]
                    00
  000000000000000E: 49 0F BA E3 3D     bt          r11,3Dh
  0000000000000013: 0F 82 E7 24 00 00  jb          aesni_cbc_sha1_enc_shaext
  0000000000000019: 41 81 E3 00 00 00  and         r11d,10000000h
                    10
  0000000000000020: 41 81 E2 00 00 00  and         r10d,40000000h
                    40
  0000000000000027: 45 09 DA           or          r10d,r11d
  000000000000002A: 41 81 FA 00 00 00  cmp         r10d,50000000h
                    50
  0000000000000031: 0F 84 89 12 00 00  je          aesni_cbc_sha1_enc_avx
  0000000000000037: E9 04 00 00 00     jmp         aesni_cbc_sha1_enc_ssse3
  000000000000003C: F3 C3              rep ret
  000000000000003E: 90                 nop
  000000000000003F: 90                 nop
aesni_cbc_sha1_enc_ssse3:
  0000000000000040: 48 89 7C 24 08     mov         qword ptr [rsp+8],rdi
  0000000000000045: 48 89 74 24 10     mov         qword ptr [rsp+10h],rsi
  000000000000004A: 48 89 E0           mov         rax,rsp
L$SEH_begin_aesni_cbc_sha1_enc_ssse3:
  000000000000004D: 48 89 CF           mov         rdi,rcx
  0000000000000050: 48 89 D6           mov         rsi,rdx
  0000000000000053: 4C 89 C2           mov         rdx,r8
  0000000000000056: 4C 89 C9           mov         rcx,r9
  0000000000000059: 4C 8B 44 24 28     mov         r8,qword ptr [rsp+28h]
  000000000000005E: 4C 8B 4C 24 30     mov         r9,qword ptr [rsp+30h]
  0000000000000063: 4C 8B 54 24 38     mov         r10,qword ptr [rsp+38h]
  0000000000000068: 53                 push        rbx
  0000000000000069: 55                 push        rbp
  000000000000006A: 41 54              push        r12
  000000000000006C: 41 55              push        r13
  000000000000006E: 41 56              push        r14
  0000000000000070: 41 57              push        r15
  0000000000000072: 48 8D A4 24 F8 FE  lea         rsp,[rsp-108h]
                    FF FF
  000000000000007A: 0F 29 74 24 60     movaps      xmmword ptr [rsp+60h],xmm6
  000000000000007F: 0F 29 7C 24 70     movaps      xmmword ptr [rsp+70h],xmm7
  0000000000000084: 44 0F 29 84 24 80  movaps      xmmword ptr [rsp+80h],xmm8
                    00 00 00
  000000000000008D: 44 0F 29 8C 24 90  movaps      xmmword ptr [rsp+90h],xmm9
                    00 00 00
  0000000000000096: 44 0F 29 94 24 A0  movaps      xmmword ptr [rsp+0A0h],xmm10
                    00 00 00
  000000000000009F: 44 0F 29 9C 24 B0  movaps      xmmword ptr [rsp+0B0h],xmm11
                    00 00 00
  00000000000000A8: 44 0F 29 A4 24 C0  movaps      xmmword ptr [rsp+0C0h],xmm12
                    00 00 00
  00000000000000B1: 44 0F 29 AC 24 D0  movaps      xmmword ptr [rsp+0D0h],xmm13
                    00 00 00
  00000000000000BA: 44 0F 29 B4 24 E0  movaps      xmmword ptr [rsp+0E0h],xmm14
                    00 00 00
  00000000000000C3: 44 0F 29 BC 24 F0  movaps      xmmword ptr [rsp+0F0h],xmm15
                    00 00 00
L$prologue_ssse3:
  00000000000000CC: 49 89 FC           mov         r12,rdi
  00000000000000CF: 49 89 F5           mov         r13,rsi
  00000000000000D2: 49 89 D6           mov         r14,rdx
  00000000000000D5: 4C 8D 79 70        lea         r15,[rcx+70h]
  00000000000000D9: F3 41 0F 6F 10     movdqu      xmm2,xmmword ptr [r8]
  00000000000000DE: 4C 89 44 24 58     mov         qword ptr [rsp+58h],r8
  00000000000000E3: 49 C1 E6 06        shl         r14,6
  00000000000000E7: 4D 29 E5           sub         r13,r12
  00000000000000EA: 45 8B 87 80 00 00  mov         r8d,dword ptr [r15+80h]
                    00
  00000000000000F1: 4D 01 D6           add         r14,r10
  00000000000000F4: 4C 8D 1D 00 00 00  lea         r11,[.rdata]
                    00
  00000000000000FB: 41 8B 01           mov         eax,dword ptr [r9]
  00000000000000FE: 41 8B 59 04        mov         ebx,dword ptr [r9+4]
  0000000000000102: 41 8B 49 08        mov         ecx,dword ptr [r9+8]
  0000000000000106: 41 8B 51 0C        mov         edx,dword ptr [r9+0Ch]
  000000000000010A: 89 DE              mov         esi,ebx
  000000000000010C: 41 8B 69 10        mov         ebp,dword ptr [r9+10h]
  0000000000000110: 89 CF              mov         edi,ecx
  0000000000000112: 31 D7              xor         edi,edx
  0000000000000114: 21 FE              and         esi,edi
  0000000000000116: 66 41 0F 6F 5B 40  movdqa      xmm3,xmmword ptr [r11+40h]
  000000000000011C: 66 45 0F 6F 2B     movdqa      xmm13,xmmword ptr [r11]
  0000000000000121: F3 41 0F 6F 22     movdqu      xmm4,xmmword ptr [r10]
  0000000000000126: F3 41 0F 6F 6A 10  movdqu      xmm5,xmmword ptr [r10+10h]
  000000000000012C: F3 41 0F 6F 72 20  movdqu      xmm6,xmmword ptr [r10+20h]
  0000000000000132: F3 41 0F 6F 7A 30  movdqu      xmm7,xmmword ptr [r10+30h]
  0000000000000138: 66 0F 38 00 E3     pshufb      xmm4,xmm3
  000000000000013D: 66 0F 38 00 EB     pshufb      xmm5,xmm3
  0000000000000142: 66 0F 38 00 F3     pshufb      xmm6,xmm3
  0000000000000147: 49 83 C2 40        add         r10,40h
  000000000000014B: 66 41 0F FE E5     paddd       xmm4,xmm13
  0000000000000150: 66 0F 38 00 FB     pshufb      xmm7,xmm3
  0000000000000155: 66 41 0F FE ED     paddd       xmm5,xmm13
  000000000000015A: 66 41 0F FE F5     paddd       xmm6,xmm13
  000000000000015F: 66 0F 7F 24 24     movdqa      xmmword ptr [rsp],xmm4
  0000000000000164: 66 41 0F FA E5     psubd       xmm4,xmm13
  0000000000000169: 66 0F 7F 6C 24 10  movdqa      xmmword ptr [rsp+10h],xmm5
  000000000000016F: 66 41 0F FA ED     psubd       xmm5,xmm13
  0000000000000174: 66 0F 7F 74 24 20  movdqa      xmmword ptr [rsp+20h],xmm6
  000000000000017A: 66 41 0F FA F5     psubd       xmm6,xmm13
  000000000000017F: 45 0F 10 7F 90     movups      xmm15,xmmword ptr [r15-70h]
  0000000000000184: 41 0F 10 47 A0     movups      xmm0,xmmword ptr [r15-60h]
  0000000000000189: E9 12 00 00 00     jmp         L$oop_ssse3
  000000000000018E: 90                 nop
  000000000000018F: 90                 nop
  0000000000000190: 90                 nop
  0000000000000191: 90                 nop
  0000000000000192: 90                 nop
  0000000000000193: 90                 nop
  0000000000000194: 90                 nop
  0000000000000195: 90                 nop
  0000000000000196: 90                 nop
  0000000000000197: 90                 nop
  0000000000000198: 90                 nop
  0000000000000199: 90                 nop
  000000000000019A: 90                 nop
  000000000000019B: 90                 nop
  000000000000019C: 90                 nop
  000000000000019D: 90                 nop
  000000000000019E: 90                 nop
  000000000000019F: 90                 nop
L$oop_ssse3:
  00000000000001A0: C1 CB 02           ror         ebx,2
  00000000000001A3: 45 0F 10 34 24     movups      xmm14,xmmword ptr [r12]
  00000000000001A8: 45 0F 57 F7        xorps       xmm14,xmm15
  00000000000001AC: 41 0F 57 D6        xorps       xmm2,xmm14
  00000000000001B0: 41 0F 10 4F B0     movups      xmm1,xmmword ptr [r15-50h]
  00000000000001B5: 66 0F 38 DC D0     aesenc      xmm2,xmm0
  00000000000001BA: 66 44 0F 70 C4 EE  pshufd      xmm8,xmm4,0EEh
  00000000000001C0: 31 D6              xor         esi,edx
  00000000000001C2: 66 44 0F 6F E7     movdqa      xmm12,xmm7
  00000000000001C7: 66 44 0F FE EF     paddd       xmm13,xmm7
  00000000000001CC: 89 C7              mov         edi,eax
  00000000000001CE: 03 2C 24           add         ebp,dword ptr [rsp]
  00000000000001D1: 66 44 0F 6C C5     punpcklqdq  xmm8,xmm5
  00000000000001D6: 31 CB              xor         ebx,ecx
  00000000000001D8: C1 C0 05           rol         eax,5
  00000000000001DB: 01 F5              add         ebp,esi
  00000000000001DD: 66 41 0F 73 DC 04  psrldq      xmm12,4
  00000000000001E3: 21 DF              and         edi,ebx
  00000000000001E5: 31 CB              xor         ebx,ecx
  00000000000001E7: 66 44 0F EF C4     pxor        xmm8,xmm4
  00000000000001EC: 01 C5              add         ebp,eax
  00000000000001EE: C1 C8 07           ror         eax,7
  00000000000001F1: 66 44 0F EF E6     pxor        xmm12,xmm6
  00000000000001F6: 31 CF              xor         edi,ecx
  00000000000001F8: 89 EE              mov         esi,ebp
  00000000000001FA: 03 54 24 04        add         edx,dword ptr [rsp+4]
  00000000000001FE: 66 45 0F EF C4     pxor        xmm8,xmm12
  0000000000000203: 31 D8              xor         eax,ebx
  0000000000000205: C1 C5 05           rol         ebp,5
  0000000000000208: 66 44 0F 7F 6C 24  movdqa      xmmword ptr [rsp+30h],xmm13
                    30
  000000000000020F: 01 FA              add         edx,edi
  0000000000000211: 41 0F 10 47 C0     movups      xmm0,xmmword ptr [r15-40h]
  0000000000000216: 66 0F 38 DC D1     aesenc      xmm2,xmm1
  000000000000021B: 21 C6              and         esi,eax
  000000000000021D: 66 41 0F 6F D8     movdqa      xmm3,xmm8
  0000000000000222: 31 D8              xor         eax,ebx
  0000000000000224: 01 EA              add         edx,ebp
  0000000000000226: C1 CD 07           ror         ebp,7
  0000000000000229: 66 45 0F 6F E0     movdqa      xmm12,xmm8
  000000000000022E: 31 DE              xor         esi,ebx
  0000000000000230: 66 0F 73 FB 0C     pslldq      xmm3,0Ch
  0000000000000235: 66 45 0F FE C0     paddd       xmm8,xmm8
  000000000000023A: 89 D7              mov         edi,edx
  000000000000023C: 03 4C 24 08        add         ecx,dword ptr [rsp+8]
  0000000000000240: 66 41 0F 72 D4 1F  psrld       xmm12,1Fh
  0000000000000246: 31 C5              xor         ebp,eax
  0000000000000248: C1 C2 05           rol         edx,5
  000000000000024B: 01 F1              add         ecx,esi
  000000000000024D: 66 44 0F 6F EB     movdqa      xmm13,xmm3
  0000000000000252: 21 EF              and         edi,ebp
  0000000000000254: 31 C5              xor         ebp,eax
  0000000000000256: 66 0F 72 D3 1E     psrld       xmm3,1Eh
  000000000000025B: 01 D1              add         ecx,edx
  000000000000025D: C1 CA 07           ror         edx,7
  0000000000000260: 66 45 0F EB C4     por         xmm8,xmm12
  0000000000000265: 31 C7              xor         edi,eax
  0000000000000267: 89 CE              mov         esi,ecx
  0000000000000269: 03 5C 24 0C        add         ebx,dword ptr [rsp+0Ch]
  000000000000026D: 41 0F 10 4F D0     movups      xmm1,xmmword ptr [r15-30h]
  0000000000000272: 66 0F 38 DC D0     aesenc      xmm2,xmm0
  0000000000000277: 66 41 0F 72 F5 02  pslld       xmm13,2
  000000000000027D: 66 44 0F EF C3     pxor        xmm8,xmm3
  0000000000000282: 31 EA              xor         edx,ebp
  0000000000000284: 66 41 0F 6F 1B     movdqa      xmm3,xmmword ptr [r11]
  0000000000000289: C1 C1 05           rol         ecx,5
  000000000000028C: 01 FB              add         ebx,edi
  000000000000028E: 21 D6              and         esi,edx
  0000000000000290: 66 45 0F EF C5     pxor        xmm8,xmm13
  0000000000000295: 31 EA              xor         edx,ebp
  0000000000000297: 01 CB              add         ebx,ecx
  0000000000000299: C1 C9 07           ror         ecx,7
  000000000000029C: 66 44 0F 70 CD EE  pshufd      xmm9,xmm5,0EEh
  00000000000002A2: 31 EE              xor         esi,ebp
  00000000000002A4: 66 45 0F 6F E8     movdqa      xmm13,xmm8
  00000000000002A9: 66 41 0F FE D8     paddd       xmm3,xmm8
  00000000000002AE: 89 DF              mov         edi,ebx
  00000000000002B0: 03 44 24 10        add         eax,dword ptr [rsp+10h]
  00000000000002B4: 66 44 0F 6C CE     punpcklqdq  xmm9,xmm6
  00000000000002B9: 31 D1              xor         ecx,edx
  00000000000002BB: C1 C3 05           rol         ebx,5
  00000000000002BE: 01 F0              add         eax,esi
  00000000000002C0: 66 41 0F 73 DD 04  psrldq      xmm13,4
  00000000000002C6: 21 CF              and         edi,ecx
  00000000000002C8: 31 D1              xor         ecx,edx
  00000000000002CA: 66 44 0F EF CD     pxor        xmm9,xmm5
  00000000000002CF: 01 D8              add         eax,ebx
  00000000000002D1: C1 CB 07           ror         ebx,7
  00000000000002D4: 41 0F 10 47 E0     movups      xmm0,xmmword ptr [r15-20h]
  00000000000002D9: 66 0F 38 DC D1     aesenc      xmm2,xmm1
  00000000000002DE: 66 44 0F EF EF     pxor        xmm13,xmm7
  00000000000002E3: 31 D7              xor         edi,edx
  00000000000002E5: 89 C6              mov         esi,eax
  00000000000002E7: 03 6C 24 14        add         ebp,dword ptr [rsp+14h]
  00000000000002EB: 66 45 0F EF CD     pxor        xmm9,xmm13
  00000000000002F0: 31 CB              xor         ebx,ecx
  00000000000002F2: C1 C0 05           rol         eax,5
  00000000000002F5: 66 0F 7F 1C 24     movdqa      xmmword ptr [rsp],xmm3
  00000000000002FA: 01 FD              add         ebp,edi
  00000000000002FC: 21 DE              and         esi,ebx
  00000000000002FE: 66 45 0F 6F E1     movdqa      xmm12,xmm9
  0000000000000303: 31 CB              xor         ebx,ecx
  0000000000000305: 01 C5              add         ebp,eax
  0000000000000307: C1 C8 07           ror         eax,7
  000000000000030A: 66 45 0F 6F E9     movdqa      xmm13,xmm9
  000000000000030F: 31 CE              xor         esi,ecx
  0000000000000311: 66 41 0F 73 FC 0C  pslldq      xmm12,0Ch
  0000000000000317: 66 45 0F FE C9     paddd       xmm9,xmm9
  000000000000031C: 89 EF              mov         edi,ebp
  000000000000031E: 03 54 24 18        add         edx,dword ptr [rsp+18h]
  0000000000000322: 66 41 0F 72 D5 1F  psrld       xmm13,1Fh
  0000000000000328: 31 D8              xor         eax,ebx
  000000000000032A: C1 C5 05           rol         ebp,5
  000000000000032D: 01 F2              add         edx,esi
  000000000000032F: 41 0F 10 4F F0     movups      xmm1,xmmword ptr [r15-10h]
  0000000000000334: 66 0F 38 DC D0     aesenc      xmm2,xmm0
  0000000000000339: 66 41 0F 6F DC     movdqa      xmm3,xmm12
  000000000000033E: 21 C7              and         edi,eax
  0000000000000340: 31 D8              xor         eax,ebx
  0000000000000342: 66 41 0F 72 D4 1E  psrld       xmm12,1Eh
  0000000000000348: 01 EA              add         edx,ebp
  000000000000034A: C1 CD 07           ror         ebp,7
  000000000000034D: 66 45 0F EB CD     por         xmm9,xmm13
  0000000000000352: 31 DF              xor         edi,ebx
  0000000000000354: 89 D6              mov         esi,edx
  0000000000000356: 03 4C 24 1C        add         ecx,dword ptr [rsp+1Ch]
  000000000000035A: 66 0F 72 F3 02     pslld       xmm3,2
  000000000000035F: 66 45 0F EF CC     pxor        xmm9,xmm12
  0000000000000364: 31 C5              xor         ebp,eax
  0000000000000366: 66 45 0F 6F 63 10  movdqa      xmm12,xmmword ptr [r11+10h]
  000000000000036C: C1 C2 05           rol         edx,5
  000000000000036F: 01 F9              add         ecx,edi
  0000000000000371: 21 EE              and         esi,ebp
  0000000000000373: 66 44 0F EF CB     pxor        xmm9,xmm3
  0000000000000378: 31 C5              xor         ebp,eax
  000000000000037A: 01 D1              add         ecx,edx
  000000000000037C: C1 CA 07           ror         edx,7
  000000000000037F: 66 44 0F 70 D6 EE  pshufd      xmm10,xmm6,0EEh
  0000000000000385: 31 C6              xor         esi,eax
  0000000000000387: 66 41 0F 6F D9     movdqa      xmm3,xmm9
  000000000000038C: 66 45 0F FE E1     paddd       xmm12,xmm9
  0000000000000391: 89 CF              mov         edi,ecx
  0000000000000393: 03 5C 24 20        add         ebx,dword ptr [rsp+20h]
  0000000000000397: 41 0F 10 07        movups      xmm0,xmmword ptr [r15]
  000000000000039B: 66 0F 38 DC D1     aesenc      xmm2,xmm1
  00000000000003A0: 66 44 0F 6C D7     punpcklqdq  xmm10,xmm7
  00000000000003A5: 31 EA              xor         edx,ebp
  00000000000003A7: C1 C1 05           rol         ecx,5
  00000000000003AA: 01 F3              add         ebx,esi
  00000000000003AC: 66 0F 73 DB 04     psrldq      xmm3,4
  00000000000003B1: 21 D7              and         edi,edx
  00000000000003B3: 31 EA              xor         edx,ebp
  00000000000003B5: 66 44 0F EF D6     pxor        xmm10,xmm6
  00000000000003BA: 01 CB              add         ebx,ecx
  00000000000003BC: C1 C9 07           ror         ecx,7
  00000000000003BF: 66 41 0F EF D8     pxor        xmm3,xmm8
  00000000000003C4: 31 EF              xor         edi,ebp
  00000000000003C6: 89 DE              mov         esi,ebx
  00000000000003C8: 03 44 24 24        add         eax,dword ptr [rsp+24h]
  00000000000003CC: 66 44 0F EF D3     pxor        xmm10,xmm3
  00000000000003D1: 31 D1              xor         ecx,edx
  00000000000003D3: C1 C3 05           rol         ebx,5
  00000000000003D6: 66 44 0F 7F 64 24  movdqa      xmmword ptr [rsp+10h],xmm12
                    10
  00000000000003DD: 01 F8              add         eax,edi
  00000000000003DF: 21 CE              and         esi,ecx
  00000000000003E1: 66 45 0F 6F EA     movdqa      xmm13,xmm10
  00000000000003E6: 31 D1              xor         ecx,edx
  00000000000003E8: 01 D8              add         eax,ebx
  00000000000003EA: C1 CB 07           ror         ebx,7
  00000000000003ED: 41 0F 10 4F 10     movups      xmm1,xmmword ptr [r15+10h]
  00000000000003F2: 66 0F 38 DC D0     aesenc      xmm2,xmm0
  00000000000003F7: 66 41 0F 6F DA     movdqa      xmm3,xmm10
  00000000000003FC: 31 D6              xor         esi,edx
  00000000000003FE: 66 41 0F 73 FD 0C  pslldq      xmm13,0Ch
  0000000000000404: 66 45 0F FE D2     paddd       xmm10,xmm10
  0000000000000409: 89 C7              mov         edi,eax
  000000000000040B: 03 6C 24 28        add         ebp,dword ptr [rsp+28h]
  000000000000040F: 66 0F 72 D3 1F     psrld       xmm3,1Fh
  0000000000000414: 31 CB              xor         ebx,ecx
  0000000000000416: C1 C0 05           rol         eax,5
  0000000000000419: 01 F5              add         ebp,esi
  000000000000041B: 66 45 0F 6F E5     movdqa      xmm12,xmm13
  0000000000000420: 21 DF              and         edi,ebx
  0000000000000422: 31 CB              xor         ebx,ecx
  0000000000000424: 66 41 0F 72 D5 1E  psrld       xmm13,1Eh
  000000000000042A: 01 C5              add         ebp,eax
  000000000000042C: C1 C8 07           ror         eax,7
  000000000000042F: 66 44 0F EB D3     por         xmm10,xmm3
  0000000000000434: 31 CF              xor         edi,ecx
  0000000000000436: 89 EE              mov         esi,ebp
  0000000000000438: 03 54 24 2C        add         edx,dword ptr [rsp+2Ch]
  000000000000043C: 66 41 0F 72 F4 02  pslld       xmm12,2
  0000000000000442: 66 45 0F EF D5     pxor        xmm10,xmm13
  0000000000000447: 31 D8              xor         eax,ebx
  0000000000000449: 66 45 0F 6F 6B 10  movdqa      xmm13,xmmword ptr [r11+10h]
  000000000000044F: C1 C5 05           rol         ebp,5
  0000000000000452: 01 FA              add         edx,edi
  0000000000000454: 41 0F 10 47 20     movups      xmm0,xmmword ptr [r15+20h]
  0000000000000459: 66 0F 38 DC D1     aesenc      xmm2,xmm1
  000000000000045E: 21 C6              and         esi,eax
  0000000000000460: 66 45 0F EF D4     pxor        xmm10,xmm12
  0000000000000465: 31 D8              xor         eax,ebx
  0000000000000467: 01 EA              add         edx,ebp
  0000000000000469: C1 CD 07           ror         ebp,7
  000000000000046C: 66 44 0F 70 DF EE  pshufd      xmm11,xmm7,0EEh
  0000000000000472: 31 DE              xor         esi,ebx
  0000000000000474: 66 45 0F 6F E2     movdqa      xmm12,xmm10
  0000000000000479: 66 45 0F FE EA     paddd       xmm13,xmm10
  000000000000047E: 89 D7              mov         edi,edx
  0000000000000480: 03 4C 24 30        add         ecx,dword ptr [rsp+30h]
  0000000000000484: 66 45 0F 6C D8     punpcklqdq  xmm11,xmm8
  0000000000000489: 31 C5              xor         ebp,eax
  000000000000048B: C1 C2 05           rol         edx,5
  000000000000048E: 01 F1              add         ecx,esi
  0000000000000490: 66 41 0F 73 DC 04  psrldq      xmm12,4
  0000000000000496: 21 EF              and         edi,ebp
  0000000000000498: 31 C5              xor         ebp,eax
  000000000000049A: 66 44 0F EF DF     pxor        xmm11,xmm7
  000000000000049F: 01 D1              add         ecx,edx
  00000000000004A1: C1 CA 07           ror         edx,7
  00000000000004A4: 66 45 0F EF E1     pxor        xmm12,xmm9
  00000000000004A9: 31 C7              xor         edi,eax
  00000000000004AB: 89 CE              mov         esi,ecx
  00000000000004AD: 03 5C 24 34        add         ebx,dword ptr [rsp+34h]
  00000000000004B1: 41 0F 10 4F 30     movups      xmm1,xmmword ptr [r15+30h]
  00000000000004B6: 66 0F 38 DC D0     aesenc      xmm2,xmm0
  00000000000004BB: 66 45 0F EF DC     pxor        xmm11,xmm12
  00000000000004C0: 31 EA              xor         edx,ebp
  00000000000004C2: C1 C1 05           rol         ecx,5
  00000000000004C5: 66 44 0F 7F 6C 24  movdqa      xmmword ptr [rsp+20h],xmm13
                    20
  00000000000004CC: 01 FB              add         ebx,edi
  00000000000004CE: 21 D6              and         esi,edx
  00000000000004D0: 66 41 0F 6F DB     movdqa      xmm3,xmm11
  00000000000004D5: 31 EA              xor         edx,ebp
  00000000000004D7: 01 CB              add         ebx,ecx
  00000000000004D9: C1 C9 07           ror         ecx,7
  00000000000004DC: 66 45 0F 6F E3     movdqa      xmm12,xmm11
  00000000000004E1: 31 EE              xor         esi,ebp
  00000000000004E3: 66 0F 73 FB 0C     pslldq      xmm3,0Ch
  00000000000004E8: 66 45 0F FE DB     paddd       xmm11,xmm11
  00000000000004ED: 89 DF              mov         edi,ebx
  00000000000004EF: 03 44 24 38        add         eax,dword ptr [rsp+38h]
  00000000000004F3: 66 41 0F 72 D4 1F  psrld       xmm12,1Fh
  00000000000004F9: 31 D1              xor         ecx,edx
  00000000000004FB: C1 C3 05           rol         ebx,5
  00000000000004FE: 01 F0              add         eax,esi
  0000000000000500: 66 44 0F 6F EB     movdqa      xmm13,xmm3
  0000000000000505: 21 CF              and         edi,ecx
  0000000000000507: 31 D1              xor         ecx,edx
  0000000000000509: 66 0F 72 D3 1E     psrld       xmm3,1Eh
  000000000000050E: 01 D8              add         eax,ebx
  0000000000000510: C1 CB 07           ror         ebx,7
  0000000000000513: 41 83 F8 0B        cmp         r8d,0Bh
  0000000000000517: 0F 82 2E 00 00 00  jb          L$aesenclast1
  000000000000051D: 41 0F 10 47 40     movups      xmm0,xmmword ptr [r15+40h]
  0000000000000522: 66 0F 38 DC D1     aesenc      xmm2,xmm1
  0000000000000527: 41 0F 10 4F 50     movups      xmm1,xmmword ptr [r15+50h]
  000000000000052C: 66 0F 38 DC D0     aesenc      xmm2,xmm0
  0000000000000531: 0F 84 14 00 00 00  je          L$aesenclast1
  0000000000000537: 41 0F 10 47 60     movups      xmm0,xmmword ptr [r15+60h]
  000000000000053C: 66 0F 38 DC D1     aesenc      xmm2,xmm1
  0000000000000541: 41 0F 10 4F 70     movups      xmm1,xmmword ptr [r15+70h]
  0000000000000546: 66 0F 38 DC D0     aesenc      xmm2,xmm0
L$aesenclast1:
  000000000000054B: 66 0F 38 DD D1     aesenclast  xmm2,xmm1
  0000000000000550: 41 0F 10 47 A0     movups      xmm0,xmmword ptr [r15-60h]
  0000000000000555: 66 45 0F EB DC     por         xmm11,xmm12
  000000000000055A: 31 D7              xor         edi,edx
  000000000000055C: 89 C6              mov         esi,eax
  000000000000055E: 03 6C 24 3C        add         ebp,dword ptr [rsp+3Ch]
  0000000000000562: 66 41 0F 72 F5 02  pslld       xmm13,2
  0000000000000568: 66 44 0F EF DB     pxor        xmm11,xmm3
  000000000000056D: 31 CB              xor         ebx,ecx
  000000000000056F: 66 41 0F 6F 5B 10  movdqa      xmm3,xmmword ptr [r11+10h]
  0000000000000575: C1 C0 05           rol         eax,5
  0000000000000578: 01 FD              add         ebp,edi
  000000000000057A: 21 DE              and         esi,ebx
  000000000000057C: 66 45 0F EF DD     pxor        xmm11,xmm13
  0000000000000581: 66 45 0F 70 EA EE  pshufd      xmm13,xmm10,0EEh
  0000000000000587: 31 CB              xor         ebx,ecx
  0000000000000589: 01 C5              add         ebp,eax
  000000000000058B: C1 C8 07           ror         eax,7
  000000000000058E: 66 41 0F EF E0     pxor        xmm4,xmm8
  0000000000000593: 31 CE              xor         esi,ecx
  0000000000000595: 89 EF              mov         edi,ebp
  0000000000000597: 03 14 24           add         edx,dword ptr [rsp]
  000000000000059A: 66 45 0F 6C EB     punpcklqdq  xmm13,xmm11
  000000000000059F: 31 D8              xor         eax,ebx
  00000000000005A1: C1 C5 05           rol         ebp,5
  00000000000005A4: 66 0F EF E5        pxor        xmm4,xmm5
  00000000000005A8: 01 F2              add         edx,esi
  00000000000005AA: 45 0F 10 74 24 10  movups      xmm14,xmmword ptr [r12+10h]
  00000000000005B0: 45 0F 57 F7        xorps       xmm14,xmm15
  00000000000005B4: 43 0F 11 14 2C     movups      xmmword ptr [r12+r13],xmm2
  00000000000005B9: 41 0F 57 D6        xorps       xmm2,xmm14
  00000000000005BD: 41 0F 10 4F B0     movups      xmm1,xmmword ptr [r15-50h]
  00000000000005C2: 66 0F 38 DC D0     aesenc      xmm2,xmm0
  00000000000005C7: 21 C7              and         edi,eax
  00000000000005C9: 66 44 0F 6F E3     movdqa      xmm12,xmm3
  00000000000005CE: 31 D8              xor         eax,ebx
  00000000000005D0: 66 41 0F FE DB     paddd       xmm3,xmm11
  00000000000005D5: 01 EA              add         edx,ebp
  00000000000005D7: 66 41 0F EF E5     pxor        xmm4,xmm13
  00000000000005DC: C1 CD 07           ror         ebp,7
  00000000000005DF: 31 DF              xor         edi,ebx
  00000000000005E1: 89 D6              mov         esi,edx
  00000000000005E3: 03 4C 24 04        add         ecx,dword ptr [rsp+4]
  00000000000005E7: 66 44 0F 6F EC     movdqa      xmm13,xmm4
  00000000000005EC: 31 C5              xor         ebp,eax
  00000000000005EE: C1 C2 05           rol         edx,5
  00000000000005F1: 66 0F 7F 5C 24 30  movdqa      xmmword ptr [rsp+30h],xmm3
  00000000000005F7: 01 F9              add         ecx,edi
  00000000000005F9: 21 EE              and         esi,ebp
  00000000000005FB: 31 C5              xor         ebp,eax
  00000000000005FD: 66 0F 72 F4 02     pslld       xmm4,2
  0000000000000602: 01 D1              add         ecx,edx
  0000000000000604: C1 CA 07           ror         edx,7
  0000000000000607: 66 41 0F 72 D5 1E  psrld       xmm13,1Eh
  000000000000060D: 31 C6              xor         esi,eax
  000000000000060F: 89 CF              mov         edi,ecx
  0000000000000611: 03 5C 24 08        add         ebx,dword ptr [rsp+8]
  0000000000000615: 41 0F 10 47 C0     movups      xmm0,xmmword ptr [r15-40h]
  000000000000061A: 66 0F 38 DC D1     aesenc      xmm2,xmm1
  000000000000061F: 66 41 0F EB E5     por         xmm4,xmm13
  0000000000000624: 31 EA              xor         edx,ebp
  0000000000000626: C1 C1 05           rol         ecx,5
  0000000000000629: 66 41 0F 70 DB EE  pshufd      xmm3,xmm11,0EEh
  000000000000062F: 01 F3              add         ebx,esi
  0000000000000631: 21 D7              and         edi,edx
  0000000000000633: 31 EA              xor         edx,ebp
  0000000000000635: 01 CB              add         ebx,ecx
  0000000000000637: 03 44 24 0C        add         eax,dword ptr [rsp+0Ch]
  000000000000063B: 31 EF              xor         edi,ebp
  000000000000063D: 89 DE              mov         esi,ebx
  000000000000063F: C1 C3 05           rol         ebx,5
  0000000000000642: 01 F8              add         eax,edi
  0000000000000644: 31 D6              xor         esi,edx
  0000000000000646: C1 C9 07           ror         ecx,7
  0000000000000649: 01 D8              add         eax,ebx
  000000000000064B: 66 41 0F EF E9     pxor        xmm5,xmm9
  0000000000000650: 03 6C 24 10        add         ebp,dword ptr [rsp+10h]
  0000000000000654: 41 0F 10 4F D0     movups      xmm1,xmmword ptr [r15-30h]
  0000000000000659: 66 0F 38 DC D0     aesenc      xmm2,xmm0
  000000000000065E: 31 CE              xor         esi,ecx
  0000000000000660: 66 0F 6C DC        punpcklqdq  xmm3,xmm4
  0000000000000664: 89 C7              mov         edi,eax
  0000000000000666: C1 C0 05           rol         eax,5
  0000000000000669: 66 0F EF EE        pxor        xmm5,xmm6
  000000000000066D: 01 F5              add         ebp,esi
  000000000000066F: 31 CF              xor         edi,ecx
  0000000000000671: 66 45 0F 6F EC     movdqa      xmm13,xmm12
  0000000000000676: C1 CB 07           ror         ebx,7
  0000000000000679: 66 44 0F FE E4     paddd       xmm12,xmm4
  000000000000067E: 01 C5              add         ebp,eax
  0000000000000680: 66 0F EF EB        pxor        xmm5,xmm3
  0000000000000684: 03 54 24 14        add         edx,dword ptr [rsp+14h]
  0000000000000688: 31 DF              xor         edi,ebx
  000000000000068A: 89 EE              mov         esi,ebp
  000000000000068C: C1 C5 05           rol         ebp,5
  000000000000068F: 66 0F 6F DD        movdqa      xmm3,xmm5
  0000000000000693: 01 FA              add         edx,edi
  0000000000000695: 31 DE              xor         esi,ebx
  0000000000000697: 66 44 0F 7F 24 24  movdqa      xmmword ptr [rsp],xmm12
  000000000000069D: C1 C8 07           ror         eax,7
  00000000000006A0: 01 EA              add         edx,ebp
  00000000000006A2: 03 4C 24 18        add         ecx,dword ptr [rsp+18h]
  00000000000006A6: 66 0F 72 F5 02     pslld       xmm5,2
  00000000000006AB: 31 C6              xor         esi,eax
  00000000000006AD: 89 D7              mov         edi,edx
  00000000000006AF: 66 0F 72 D3 1E     psrld       xmm3,1Eh
  00000000000006B4: C1 C2 05           rol         edx,5
  00000000000006B7: 01 F1              add         ecx,esi
  00000000000006B9: 41 0F 10 47 E0     movups      xmm0,xmmword ptr [r15-20h]
  00000000000006BE: 66 0F 38 DC D1     aesenc      xmm2,xmm1
  00000000000006C3: 31 C7              xor         edi,eax
  00000000000006C5: C1 CD 07           ror         ebp,7
  00000000000006C8: 66 0F EB EB        por         xmm5,xmm3
  00000000000006CC: 01 D1              add         ecx,edx
  00000000000006CE: 03 5C 24 1C        add         ebx,dword ptr [rsp+1Ch]
  00000000000006D2: 66 44 0F 70 E4 EE  pshufd      xmm12,xmm4,0EEh
  00000000000006D8: 31 EF              xor         edi,ebp
  00000000000006DA: 89 CE              mov         esi,ecx
  00000000000006DC: C1 C1 05           rol         ecx,5
  00000000000006DF: 01 FB              add         ebx,edi
  00000000000006E1: 31 EE              xor         esi,ebp
  00000000000006E3: C1 CA 07           ror         edx,7
  00000000000006E6: 01 CB              add         ebx,ecx
  00000000000006E8: 66 41 0F EF F2     pxor        xmm6,xmm10
  00000000000006ED: 03 44 24 20        add         eax,dword ptr [rsp+20h]
  00000000000006F1: 31 D6              xor         esi,edx
  00000000000006F3: 66 44 0F 6C E5     punpcklqdq  xmm12,xmm5
  00000000000006F8: 89 DF              mov         edi,ebx
  00000000000006FA: C1 C3 05           rol         ebx,5
  00000000000006FD: 66 0F EF F7        pxor        xmm6,xmm7
  0000000000000701: 01 F0              add         eax,esi
  0000000000000703: 31 D7              xor         edi,edx
  0000000000000705: 66 41 0F 6F 5B 20  movdqa      xmm3,xmmword ptr [r11+20h]
  000000000000070B: C1 C9 07           ror         ecx,7
  000000000000070E: 66 44 0F FE ED     paddd       xmm13,xmm5
  0000000000000713: 01 D8              add         eax,ebx
  0000000000000715: 66 41 0F EF F4     pxor        xmm6,xmm12
  000000000000071A: 03 6C 24 24        add         ebp,dword ptr [rsp+24h]
  000000000000071E: 41 0F 10 4F F0     movups      xmm1,xmmword ptr [r15-10h]
  0000000000000723: 66 0F 38 DC D0     aesenc      xmm2,xmm0
  0000000000000728: 31 CF              xor         edi,ecx
  000000000000072A: 89 C6              mov         esi,eax
  000000000000072C: C1 C0 05           rol         eax,5
  000000000000072F: 66 44 0F 6F E6     movdqa      xmm12,xmm6
  0000000000000734: 01 FD              add         ebp,edi
  0000000000000736: 31 CE              xor         esi,ecx
  0000000000000738: 66 44 0F 7F 6C 24  movdqa      xmmword ptr [rsp+10h],xmm13
                    10
  000000000000073F: C1 CB 07           ror         ebx,7
  0000000000000742: 01 C5              add         ebp,eax
  0000000000000744: 03 54 24 28        add         edx,dword ptr [rsp+28h]
  0000000000000748: 66 0F 72 F6 02     pslld       xmm6,2
  000000000000074D: 31 DE              xor         esi,ebx
  000000000000074F: 89 EF              mov         edi,ebp
  0000000000000751: 66 41 0F 72 D4 1E  psrld       xmm12,1Eh
  0000000000000757: C1 C5 05           rol         ebp,5
  000000000000075A: 01 F2              add         edx,esi
  000000000000075C: 31 DF              xor         edi,ebx
  000000000000075E: C1 C8 07           ror         eax,7
  0000000000000761: 66 41 0F EB F4     por         xmm6,xmm12
  0000000000000766: 01 EA              add         edx,ebp
  0000000000000768: 03 4C 24 2C        add         ecx,dword ptr [rsp+2Ch]
  000000000000076C: 66 44 0F 70 ED EE  pshufd      xmm13,xmm5,0EEh
  0000000000000772: 31 C7              xor         edi,eax
  0000000000000774: 89 D6              mov         esi,edx
  0000000000000776: C1 C2 05           rol         edx,5
  0000000000000779: 01 F9              add         ecx,edi
  000000000000077B: 41 0F 10 07        movups      xmm0,xmmword ptr [r15]
  000000000000077F: 66 0F 38 DC D1     aesenc      xmm2,xmm1
  0000000000000784: 31 C6              xor         esi,eax
  0000000000000786: C1 CD 07           ror         ebp,7
  0000000000000789: 01 D1              add         ecx,edx
  000000000000078B: 66 41 0F EF FB     pxor        xmm7,xmm11
  0000000000000790: 03 5C 24 30        add         ebx,dword ptr [rsp+30h]
  0000000000000794: 31 EE              xor         esi,ebp
  0000000000000796: 66 44 0F 6C EE     punpcklqdq  xmm13,xmm6
  000000000000079B: 89 CF              mov         edi,ecx
  000000000000079D: C1 C1 05           rol         ecx,5
  00000000000007A0: 66 41 0F EF F8     pxor        xmm7,xmm8
  00000000000007A5: 01 F3              add         ebx,esi
  00000000000007A7: 31 EF              xor         edi,ebp
  00000000000007A9: 66 44 0F 6F E3     movdqa      xmm12,xmm3
  00000000000007AE: C1 CA 07           ror         edx,7
  00000000000007B1: 66 0F FE DE        paddd       xmm3,xmm6
  00000000000007B5: 01 CB              add         ebx,ecx
  00000000000007B7: 66 41 0F EF FD     pxor        xmm7,xmm13
  00000000000007BC: 03 44 24 34        add         eax,dword ptr [rsp+34h]
  00000000000007C0: 31 D7              xor         edi,edx
  00000000000007C2: 89 DE              mov         esi,ebx
  00000000000007C4: C1 C3 05           rol         ebx,5
  00000000000007C7: 66 44 0F 6F EF     movdqa      xmm13,xmm7
  00000000000007CC: 01 F8              add         eax,edi
  00000000000007CE: 31 D6              xor         esi,edx
  00000000000007D0: 66 0F 7F 5C 24 20  movdqa      xmmword ptr [rsp+20h],xmm3
  00000000000007D6: C1 C9 07           ror         ecx,7
  00000000000007D9: 01 D8              add         eax,ebx
  00000000000007DB: 03 6C 24 38        add         ebp,dword ptr [rsp+38h]
  00000000000007DF: 41 0F 10 4F 10     movups      xmm1,xmmword ptr [r15+10h]
  00000000000007E4: 66 0F 38 DC D0     aesenc      xmm2,xmm0
  00000000000007E9: 66 0F 72 F7 02     pslld       xmm7,2
  00000000000007EE: 31 CE              xor         esi,ecx
  00000000000007F0: 89 C7              mov         edi,eax
  00000000000007F2: 66 41 0F 72 D5 1E  psrld       xmm13,1Eh
  00000000000007F8: C1 C0 05           rol         eax,5
  00000000000007FB: 01 F5              add         ebp,esi
  00000000000007FD: 31 CF              xor         edi,ecx
  00000000000007FF: C1 CB 07           ror         ebx,7
  0000000000000802: 66 41 0F EB FD     por         xmm7,xmm13
  0000000000000807: 01 C5              add         ebp,eax
  0000000000000809: 03 54 24 3C        add         edx,dword ptr [rsp+3Ch]
  000000000000080D: 66 0F 70 DE EE     pshufd      xmm3,xmm6,0EEh
  0000000000000812: 31 DF              xor         edi,ebx
  0000000000000814: 89 EE              mov         esi,ebp
  0000000000000816: C1 C5 05           rol         ebp,5
  0000000000000819: 01 FA              add         edx,edi
  000000000000081B: 31 DE              xor         esi,ebx
  000000000000081D: C1 C8 07           ror         eax,7
  0000000000000820: 01 EA              add         edx,ebp
  0000000000000822: 66 44 0F EF C4     pxor        xmm8,xmm4
  0000000000000827: 03 0C 24           add         ecx,dword ptr [rsp]
  000000000000082A: 31 C6              xor         esi,eax
  000000000000082C: 66 0F 6C DF        punpcklqdq  xmm3,xmm7
  0000000000000830: 89 D7              mov         edi,edx
  0000000000000832: C1 C2 05           rol         edx,5
  0000000000000835: 66 45 0F EF C1     pxor        xmm8,xmm9
  000000000000083A: 01 F1              add         ecx,esi
  000000000000083C: 41 0F 10 47 20     movups      xmm0,xmmword ptr [r15+20h]
  0000000000000841: 66 0F 38 DC D1     aesenc      xmm2,xmm1
  0000000000000846: 31 C7              xor         edi,eax
  0000000000000848: 66 45 0F 6F EC     movdqa      xmm13,xmm12
  000000000000084D: C1 CD 07           ror         ebp,7
  0000000000000850: 66 44 0F FE E7     paddd       xmm12,xmm7
  0000000000000855: 01 D1              add         ecx,edx
  0000000000000857: 66 44 0F EF C3     pxor        xmm8,xmm3
  000000000000085C: 03 5C 24 04        add         ebx,dword ptr [rsp+4]
  0000000000000860: 31 EF              xor         edi,ebp
  0000000000000862: 89 CE              mov         esi,ecx
  0000000000000864: C1 C1 05           rol         ecx,5
  0000000000000867: 66 41 0F 6F D8     movdqa      xmm3,xmm8
  000000000000086C: 01 FB              add         ebx,edi
  000000000000086E: 31 EE              xor         esi,ebp
  0000000000000870: 66 44 0F 7F 64 24  movdqa      xmmword ptr [rsp+30h],xmm12
                    30
  0000000000000877: C1 CA 07           ror         edx,7
  000000000000087A: 01 CB              add         ebx,ecx
  000000000000087C: 03 44 24 08        add         eax,dword ptr [rsp+8]
  0000000000000880: 66 41 0F 72 F0 02  pslld       xmm8,2
  0000000000000886: 31 D6              xor         esi,edx
  0000000000000888: 89 DF              mov         edi,ebx
  000000000000088A: 66 0F 72 D3 1E     psrld       xmm3,1Eh
  000000000000088F: C1 C3 05           rol         ebx,5
  0000000000000892: 01 F0              add         eax,esi
  0000000000000894: 31 D7              xor         edi,edx
  0000000000000896: C1 C9 07           ror         ecx,7
  0000000000000899: 66 44 0F EB C3     por         xmm8,xmm3
  000000000000089E: 01 D8              add         eax,ebx
  00000000000008A0: 03 6C 24 0C        add         ebp,dword ptr [rsp+0Ch]
  00000000000008A4: 41 0F 10 4F 30     movups      xmm1,xmmword ptr [r15+30h]
  00000000000008A9: 66 0F 38 DC D0     aesenc      xmm2,xmm0
  00000000000008AE: 66 44 0F 70 E7 EE  pshufd      xmm12,xmm7,0EEh
  00000000000008B4: 31 CF              xor         edi,ecx
  00000000000008B6: 89 C6              mov         esi,eax
  00000000000008B8: C1 C0 05           rol         eax,5
  00000000000008BB: 01 FD              add         ebp,edi
  00000000000008BD: 31 CE              xor         esi,ecx
  00000000000008BF: C1 CB 07           ror         ebx,7
  00000000000008C2: 01 C5              add         ebp,eax
  00000000000008C4: 66 44 0F EF CD     pxor        xmm9,xmm5
  00000000000008C9: 03 54 24 10        add         edx,dword ptr [rsp+10h]
  00000000000008CD: 31 DE              xor         esi,ebx
  00000000000008CF: 66 45 0F 6C E0     punpcklqdq  xmm12,xmm8
  00000000000008D4: 89 EF              mov         edi,ebp
  00000000000008D6: C1 C5 05           rol         ebp,5
  00000000000008D9: 66 45 0F EF CA     pxor        xmm9,xmm10
  00000000000008DE: 01 F2              add         edx,esi
  00000000000008E0: 31 DF              xor         edi,ebx
  00000000000008E2: 66 41 0F 6F DD     movdqa      xmm3,xmm13
  00000000000008E7: C1 C8 07           ror         eax,7
  00000000000008EA: 66 45 0F FE E8     paddd       xmm13,xmm8
  00000000000008EF: 01 EA              add         edx,ebp
  00000000000008F1: 66 45 0F EF CC     pxor        xmm9,xmm12
  00000000000008F6: 03 4C 24 14        add         ecx,dword ptr [rsp+14h]
  00000000000008FA: 31 C7              xor         edi,eax
  00000000000008FC: 89 D6              mov         esi,edx
  00000000000008FE: C1 C2 05           rol         edx,5
  0000000000000901: 66 45 0F 6F E1     movdqa      xmm12,xmm9
  0000000000000906: 01 F9              add         ecx,edi
  0000000000000908: 41 83 F8 0B        cmp         r8d,0Bh
  000000000000090C: 0F 82 2E 00 00 00  jb          L$aesenclast2
  0000000000000912: 41 0F 10 47 40     movups      xmm0,xmmword ptr [r15+40h]
  0000000000000917: 66 0F 38 DC D1     aesenc      xmm2,xmm1
  000000000000091C: 41 0F 10 4F 50     movups      xmm1,xmmword ptr [r15+50h]
  0000000000000921: 66 0F 38 DC D0     aesenc      xmm2,xmm0
  0000000000000926: 0F 84 14 00 00 00  je          L$aesenclast2
  000000000000092C: 41 0F 10 47 60     movups      xmm0,xmmword ptr [r15+60h]
  0000000000000931: 66 0F 38 DC D1     aesenc      xmm2,xmm1
  0000000000000936: 41 0F 10 4F 70     movups      xmm1,xmmword ptr [r15+70h]
  000000000000093B: 66 0F 38 DC D0     aesenc      xmm2,xmm0
L$aesenclast2:
  0000000000000940: 66 0F 38 DD D1     aesenclast  xmm2,xmm1
  0000000000000945: 41 0F 10 47 A0     movups      xmm0,xmmword ptr [r15-60h]
  000000000000094A: 31 C6              xor         esi,eax
  000000000000094C: 66 44 0F 7F 2C 24  movdqa      xmmword ptr [rsp],xmm13
  0000000000000952: C1 CD 07           ror         ebp,7
  0000000000000955: 01 D1              add         ecx,edx
  0000000000000957: 03 5C 24 18        add         ebx,dword ptr [rsp+18h]
  000000000000095B: 66 41 0F 72 F1 02  pslld       xmm9,2
  0000000000000961: 31 EE              xor         esi,ebp
  0000000000000963: 89 CF              mov         edi,ecx
  0000000000000965: 66 41 0F 72 D4 1E  psrld       xmm12,1Eh
  000000000000096B: C1 C1 05           rol         ecx,5
  000000000000096E: 01 F3              add         ebx,esi
  0000000000000970: 31 EF              xor         edi,ebp
  0000000000000972: C1 CA 07           ror         edx,7
  0000000000000975: 66 45 0F EB CC     por         xmm9,xmm12
  000000000000097A: 01 CB              add         ebx,ecx
  000000000000097C: 03 44 24 1C        add         eax,dword ptr [rsp+1Ch]
  0000000000000980: 66 45 0F 70 E8 EE  pshufd      xmm13,xmm8,0EEh
  0000000000000986: C1 C9 07           ror         ecx,7
  0000000000000989: 89 DE              mov         esi,ebx
  000000000000098B: 31 D7              xor         edi,edx
  000000000000098D: C1 C3 05           rol         ebx,5
  0000000000000990: 01 F8              add         eax,edi
  0000000000000992: 31 CE              xor         esi,ecx
  0000000000000994: 31 D1              xor         ecx,edx
  0000000000000996: 01 D8              add         eax,ebx
  0000000000000998: 66 44 0F EF D6     pxor        xmm10,xmm6
  000000000000099D: 03 6C 24 20        add         ebp,dword ptr [rsp+20h]
  00000000000009A1: 45 0F 10 74 24 20  movups      xmm14,xmmword ptr [r12+20h]
  00000000000009A7: 45 0F 57 F7        xorps       xmm14,xmm15
  00000000000009AB: 43 0F 11 54 25 10  movups      xmmword ptr [r13+r12+10h],xmm2
  00000000000009B1: 41 0F 57 D6        xorps       xmm2,xmm14
  00000000000009B5: 41 0F 10 4F B0     movups      xmm1,xmmword ptr [r15-50h]
  00000000000009BA: 66 0F 38 DC D0     aesenc      xmm2,xmm0
  00000000000009BF: 21 CE              and         esi,ecx
  00000000000009C1: 31 D1              xor         ecx,edx
  00000000000009C3: C1 CB 07           ror         ebx,7
  00000000000009C6: 66 45 0F 6C E9     punpcklqdq  xmm13,xmm9
  00000000000009CB: 89 C7              mov         edi,eax
  00000000000009CD: 31 CE              xor         esi,ecx
  00000000000009CF: 66 45 0F EF D3     pxor        xmm10,xmm11
  00000000000009D4: C1 C0 05           rol         eax,5
  00000000000009D7: 01 F5              add         ebp,esi
  00000000000009D9: 66 44 0F 6F E3     movdqa      xmm12,xmm3
  00000000000009DE: 31 DF              xor         edi,ebx
  00000000000009E0: 66 41 0F FE D9     paddd       xmm3,xmm9
  00000000000009E5: 31 CB              xor         ebx,ecx
  00000000000009E7: 66 45 0F EF D5     pxor        xmm10,xmm13
  00000000000009EC: 01 C5              add         ebp,eax
  00000000000009EE: 03 54 24 24        add         edx,dword ptr [rsp+24h]
  00000000000009F2: 21 DF              and         edi,ebx
  00000000000009F4: 31 CB              xor         ebx,ecx
  00000000000009F6: C1 C8 07           ror         eax,7
  00000000000009F9: 66 45 0F 6F EA     movdqa      xmm13,xmm10
  00000000000009FE: 89 EE              mov         esi,ebp
  0000000000000A00: 31 DF              xor         edi,ebx
  0000000000000A02: 66 0F 7F 5C 24 10  movdqa      xmmword ptr [rsp+10h],xmm3
  0000000000000A08: C1 C5 05           rol         ebp,5
  0000000000000A0B: 01 FA              add         edx,edi
  0000000000000A0D: 41 0F 10 47 C0     movups      xmm0,xmmword ptr [r15-40h]
  0000000000000A12: 66 0F 38 DC D1     aesenc      xmm2,xmm1
  0000000000000A17: 31 C6              xor         esi,eax
  0000000000000A19: 66 41 0F 72 F2 02  pslld       xmm10,2
  0000000000000A1F: 31 D8              xor         eax,ebx
  0000000000000A21: 01 EA              add         edx,ebp
  0000000000000A23: 66 41 0F 72 D5 1E  psrld       xmm13,1Eh
  0000000000000A29: 03 4C 24 28        add         ecx,dword ptr [rsp+28h]
  0000000000000A2D: 21 C6              and         esi,eax
  0000000000000A2F: 31 D8              xor         eax,ebx
  0000000000000A31: 66 45 0F EB D5     por         xmm10,xmm13
  0000000000000A36: C1 CD 07           ror         ebp,7
  0000000000000A39: 89 D7              mov         edi,edx
  0000000000000A3B: 31 C6              xor         esi,eax
  0000000000000A3D: C1 C2 05           rol         edx,5
  0000000000000A40: 66 41 0F 70 D9 EE  pshufd      xmm3,xmm9,0EEh
  0000000000000A46: 01 F1              add         ecx,esi
  0000000000000A48: 31 EF              xor         edi,ebp
  0000000000000A4A: 31 C5              xor         ebp,eax
  0000000000000A4C: 01 D1              add         ecx,edx
  0000000000000A4E: 03 5C 24 2C        add         ebx,dword ptr [rsp+2Ch]
  0000000000000A52: 21 EF              and         edi,ebp
  0000000000000A54: 31 C5              xor         ebp,eax
  0000000000000A56: C1 CA 07           ror         edx,7
  0000000000000A59: 41 0F 10 4F D0     movups      xmm1,xmmword ptr [r15-30h]
  0000000000000A5E: 66 0F 38 DC D0     aesenc      xmm2,xmm0
  0000000000000A63: 89 CE              mov         esi,ecx
  0000000000000A65: 31 EF              xor         edi,ebp
  0000000000000A67: C1 C1 05           rol         ecx,5
  0000000000000A6A: 01 FB              add         ebx,edi
  0000000000000A6C: 31 D6              xor         esi,edx
  0000000000000A6E: 31 EA              xor         edx,ebp
  0000000000000A70: 01 CB              add         ebx,ecx
  0000000000000A72: 66 44 0F EF DF     pxor        xmm11,xmm7
  0000000000000A77: 03 44 24 30        add         eax,dword ptr [rsp+30h]
  0000000000000A7B: 21 D6              and         esi,edx
  0000000000000A7D: 31 EA              xor         edx,ebp
  0000000000000A7F: C1 C9 07           ror         ecx,7
  0000000000000A82: 66 41 0F 6C DA     punpcklqdq  xmm3,xmm10
  0000000000000A87: 89 DF              mov         edi,ebx
  0000000000000A89: 31 D6              xor         esi,edx
  0000000000000A8B: 66 44 0F EF DC     pxor        xmm11,xmm4
  0000000000000A90: C1 C3 05           rol         ebx,5
  0000000000000A93: 01 F0              add         eax,esi
  0000000000000A95: 66 45 0F 6F 6B 30  movdqa      xmm13,xmmword ptr [r11+30h]
  0000000000000A9B: 31 CF              xor         edi,ecx
  0000000000000A9D: 66 45 0F FE E2     paddd       xmm12,xmm10
  0000000000000AA2: 31 D1              xor         ecx,edx
  0000000000000AA4: 66 44 0F EF DB     pxor        xmm11,xmm3
  0000000000000AA9: 01 D8              add         eax,ebx
  0000000000000AAB: 03 6C 24 34        add         ebp,dword ptr [rsp+34h]
  0000000000000AAF: 41 0F 10 47 E0     movups      xmm0,xmmword ptr [r15-20h]
  0000000000000AB4: 66 0F 38 DC D1     aesenc      xmm2,xmm1
  0000000000000AB9: 21 CF              and         edi,ecx
  0000000000000ABB: 31 D1              xor         ecx,edx
  0000000000000ABD: C1 CB 07           ror         ebx,7
  0000000000000AC0: 66 41 0F 6F DB     movdqa      xmm3,xmm11
  0000000000000AC5: 89 C6              mov         esi,eax
  0000000000000AC7: 31 CF              xor         edi,ecx
  0000000000000AC9: 66 44 0F 7F 64 24  movdqa      xmmword ptr [rsp+20h],xmm12
                    20
  0000000000000AD0: C1 C0 05           rol         eax,5
  0000000000000AD3: 01 FD              add         ebp,edi
  0000000000000AD5: 31 DE              xor         esi,ebx
  0000000000000AD7: 66 41 0F 72 F3 02  pslld       xmm11,2
  0000000000000ADD: 31 CB              xor         ebx,ecx
  0000000000000ADF: 01 C5              add         ebp,eax
  0000000000000AE1: 66 0F 72 D3 1E     psrld       xmm3,1Eh
  0000000000000AE6: 03 54 24 38        add         edx,dword ptr [rsp+38h]
  0000000000000AEA: 21 DE              and         esi,ebx
  0000000000000AEC: 31 CB              xor         ebx,ecx
  0000000000000AEE: 66 44 0F EB DB     por         xmm11,xmm3
  0000000000000AF3: C1 C8 07           ror         eax,7
  0000000000000AF6: 89 EF              mov         edi,ebp
  0000000000000AF8: 31 DE              xor         esi,ebx
  0000000000000AFA: C1 C5 05           rol         ebp,5
  0000000000000AFD: 66 45 0F 70 E2 EE  pshufd      xmm12,xmm10,0EEh
  0000000000000B03: 01 F2              add         edx,esi
  0000000000000B05: 41 0F 10 4F F0     movups      xmm1,xmmword ptr [r15-10h]
  0000000000000B0A: 66 0F 38 DC D0     aesenc      xmm2,xmm0
  0000000000000B0F: 31 C7              xor         edi,eax
  0000000000000B11: 31 D8              xor         eax,ebx
  0000000000000B13: 01 EA              add         edx,ebp
  0000000000000B15: 03 4C 24 3C        add         ecx,dword ptr [rsp+3Ch]
  0000000000000B19: 21 C7              and         edi,eax
  0000000000000B1B: 31 D8              xor         eax,ebx
  0000000000000B1D: C1 CD 07           ror         ebp,7
  0000000000000B20: 89 D6              mov         esi,edx
  0000000000000B22: 31 C7              xor         edi,eax
  0000000000000B24: C1 C2 05           rol         edx,5
  0000000000000B27: 01 F9              add         ecx,edi
  0000000000000B29: 31 EE              xor         esi,ebp
  0000000000000B2B: 31 C5              xor         ebp,eax
  0000000000000B2D: 01 D1              add         ecx,edx
  0000000000000B2F: 66 41 0F EF E0     pxor        xmm4,xmm8
  0000000000000B34: 03 1C 24           add         ebx,dword ptr [rsp]
  0000000000000B37: 21 EE              and         esi,ebp
  0000000000000B39: 31 C5              xor         ebp,eax
  0000000000000B3B: C1 CA 07           ror         edx,7
  0000000000000B3E: 41 0F 10 07        movups      xmm0,xmmword ptr [r15]
  0000000000000B42: 66 0F 38 DC D1     aesenc      xmm2,xmm1
  0000000000000B47: 66 45 0F 6C E3     punpcklqdq  xmm12,xmm11
  0000000000000B4C: 89 CF              mov         edi,ecx
  0000000000000B4E: 31 EE              xor         esi,ebp
  0000000000000B50: 66 0F EF E5        pxor        xmm4,xmm5
  0000000000000B54: C1 C1 05           rol         ecx,5
  0000000000000B57: 01 F3              add         ebx,esi
  0000000000000B59: 66 41 0F 6F DD     movdqa      xmm3,xmm13
  0000000000000B5E: 31 D7              xor         edi,edx
  0000000000000B60: 66 45 0F FE EB     paddd       xmm13,xmm11
  0000000000000B65: 31 EA              xor         edx,ebp
  0000000000000B67: 66 41 0F EF E4     pxor        xmm4,xmm12
  0000000000000B6C: 01 CB              add         ebx,ecx
  0000000000000B6E: 03 44 24 04        add         eax,dword ptr [rsp+4]
  0000000000000B72: 21 D7              and         edi,edx
  0000000000000B74: 31 EA              xor         edx,ebp
  0000000000000B76: C1 C9 07           ror         ecx,7
  0000000000000B79: 66 44 0F 6F E4     movdqa      xmm12,xmm4
  0000000000000B7E: 89 DE              mov         esi,ebx
  0000000000000B80: 31 D7              xor         edi,edx
  0000000000000B82: 66 44 0F 7F 6C 24  movdqa      xmmword ptr [rsp+30h],xmm13
                    30
  0000000000000B89: C1 C3 05           rol         ebx,5
  0000000000000B8C: 01 F8              add         eax,edi
  0000000000000B8E: 31 CE              xor         esi,ecx
  0000000000000B90: 66 0F 72 F4 02     pslld       xmm4,2
  0000000000000B95: 31 D1              xor         ecx,edx
  0000000000000B97: 01 D8              add         eax,ebx
  0000000000000B99: 66 41 0F 72 D4 1E  psrld       xmm12,1Eh
  0000000000000B9F: 03 6C 24 08        add         ebp,dword ptr [rsp+8]
  0000000000000BA3: 41 0F 10 4F 10     movups      xmm1,xmmword ptr [r15+10h]
  0000000000000BA8: 66 0F 38 DC D0     aesenc      xmm2,xmm0
  0000000000000BAD: 21 CE              and         esi,ecx
  0000000000000BAF: 31 D1              xor         ecx,edx
  0000000000000BB1: 66 41 0F EB E4     por         xmm4,xmm12
  0000000000000BB6: C1 CB 07           ror         ebx,7
  0000000000000BB9: 89 C7              mov         edi,eax
  0000000000000BBB: 31 CE              xor         esi,ecx
  0000000000000BBD: C1 C0 05           rol         eax,5
  0000000000000BC0: 66 45 0F 70 EB EE  pshufd      xmm13,xmm11,0EEh
  0000000000000BC6: 01 F5              add         ebp,esi
  0000000000000BC8: 31 DF              xor         edi,ebx
  0000000000000BCA: 31 CB              xor         ebx,ecx
  0000000000000BCC: 01 C5              add         ebp,eax
  0000000000000BCE: 03 54 24 0C        add         edx,dword ptr [rsp+0Ch]
  0000000000000BD2: 21 DF              and         edi,ebx
  0000000000000BD4: 31 CB              xor         ebx,ecx
  0000000000000BD6: C1 C8 07           ror         eax,7
  0000000000000BD9: 89 EE              mov         esi,ebp
  0000000000000BDB: 31 DF              xor         edi,ebx
  0000000000000BDD: C1 C5 05           rol         ebp,5
  0000000000000BE0: 01 FA              add         edx,edi
  0000000000000BE2: 41 0F 10 47 20     movups      xmm0,xmmword ptr [r15+20h]
  0000000000000BE7: 66 0F 38 DC D1     aesenc      xmm2,xmm1
  0000000000000BEC: 31 C6              xor         esi,eax
  0000000000000BEE: 31 D8              xor         eax,ebx
  0000000000000BF0: 01 EA              add         edx,ebp
  0000000000000BF2: 66 41 0F EF E9     pxor        xmm5,xmm9
  0000000000000BF7: 03 4C 24 10        add         ecx,dword ptr [rsp+10h]
  0000000000000BFB: 21 C6              and         esi,eax
  0000000000000BFD: 31 D8              xor         eax,ebx
  0000000000000BFF: C1 CD 07           ror         ebp,7
  0000000000000C02: 66 44 0F 6C EC     punpcklqdq  xmm13,xmm4
  0000000000000C07: 89 D7              mov         edi,edx
  0000000000000C09: 31 C6              xor         esi,eax
  0000000000000C0B: 66 0F EF EE        pxor        xmm5,xmm6
  0000000000000C0F: C1 C2 05           rol         edx,5
  0000000000000C12: 01 F1              add         ecx,esi
  0000000000000C14: 66 44 0F 6F E3     movdqa      xmm12,xmm3
  0000000000000C19: 31 EF              xor         edi,ebp
  0000000000000C1B: 66 0F FE DC        paddd       xmm3,xmm4
  0000000000000C1F: 31 C5              xor         ebp,eax
  0000000000000C21: 66 41 0F EF ED     pxor        xmm5,xmm13
  0000000000000C26: 01 D1              add         ecx,edx
  0000000000000C28: 03 5C 24 14        add         ebx,dword ptr [rsp+14h]
  0000000000000C2C: 21 EF              and         edi,ebp
  0000000000000C2E: 31 C5              xor         ebp,eax
  0000000000000C30: C1 CA 07           ror         edx,7
  0000000000000C33: 41 0F 10 4F 30     movups      xmm1,xmmword ptr [r15+30h]
  0000000000000C38: 66 0F 38 DC D0     aesenc      xmm2,xmm0
  0000000000000C3D: 66 44 0F 6F ED     movdqa      xmm13,xmm5
  0000000000000C42: 89 CE              mov         esi,ecx
  0000000000000C44: 31 EF              xor         edi,ebp
  0000000000000C46: 66 0F 7F 1C 24     movdqa      xmmword ptr [rsp],xmm3
  0000000000000C4B: C1 C1 05           rol         ecx,5
  0000000000000C4E: 01 FB              add         ebx,edi
  0000000000000C50: 31 D6              xor         esi,edx
  0000000000000C52: 66 0F 72 F5 02     pslld       xmm5,2
  0000000000000C57: 31 EA              xor         edx,ebp
  0000000000000C59: 01 CB              add         ebx,ecx
  0000000000000C5B: 66 41 0F 72 D5 1E  psrld       xmm13,1Eh
  0000000000000C61: 03 44 24 18        add         eax,dword ptr [rsp+18h]
  0000000000000C65: 21 D6              and         esi,edx
  0000000000000C67: 31 EA              xor         edx,ebp
  0000000000000C69: 66 41 0F EB ED     por         xmm5,xmm13
  0000000000000C6E: C1 C9 07           ror         ecx,7
  0000000000000C71: 89 DF              mov         edi,ebx
  0000000000000C73: 31 D6              xor         esi,edx
  0000000000000C75: C1 C3 05           rol         ebx,5
  0000000000000C78: 66 0F 70 DC EE     pshufd      xmm3,xmm4,0EEh
  0000000000000C7D: 01 F0              add         eax,esi
  0000000000000C7F: 31 CF              xor         edi,ecx
  0000000000000C81: 31 D1              xor         ecx,edx
  0000000000000C83: 01 D8              add         eax,ebx
  0000000000000C85: 03 6C 24 1C        add         ebp,dword ptr [rsp+1Ch]
  0000000000000C89: 41 83 F8 0B        cmp         r8d,0Bh
  0000000000000C8D: 0F 82 2E 00 00 00  jb          L$aesenclast3
  0000000000000C93: 41 0F 10 47 40     movups      xmm0,xmmword ptr [r15+40h]
  0000000000000C98: 66 0F 38 DC D1     aesenc      xmm2,xmm1
  0000000000000C9D: 41 0F 10 4F 50     movups      xmm1,xmmword ptr [r15+50h]
  0000000000000CA2: 66 0F 38 DC D0     aesenc      xmm2,xmm0
  0000000000000CA7: 0F 84 14 00 00 00  je          L$aesenclast3
  0000000000000CAD: 41 0F 10 47 60     movups      xmm0,xmmword ptr [r15+60h]
  0000000000000CB2: 66 0F 38 DC D1     aesenc      xmm2,xmm1
  0000000000000CB7: 41 0F 10 4F 70     movups      xmm1,xmmword ptr [r15+70h]
  0000000000000CBC: 66 0F 38 DC D0     aesenc      xmm2,xmm0
L$aesenclast3:
  0000000000000CC1: 66 0F 38 DD D1     aesenclast  xmm2,xmm1
  0000000000000CC6: 41 0F 10 47 A0     movups      xmm0,xmmword ptr [r15-60h]
  0000000000000CCB: 21 CF              and         edi,ecx
  0000000000000CCD: 31 D1              xor         ecx,edx
  0000000000000CCF: C1 CB 07           ror         ebx,7
  0000000000000CD2: 89 C6              mov         esi,eax
  0000000000000CD4: 31 CF              xor         edi,ecx
  0000000000000CD6: C1 C0 05           rol         eax,5
  0000000000000CD9: 01 FD              add         ebp,edi
  0000000000000CDB: 31 DE              xor         esi,ebx
  0000000000000CDD: 31 CB              xor         ebx,ecx
  0000000000000CDF: 01 C5              add         ebp,eax
  0000000000000CE1: 66 41 0F EF F2     pxor        xmm6,xmm10
  0000000000000CE6: 03 54 24 20        add         edx,dword ptr [rsp+20h]
  0000000000000CEA: 21 DE              and         esi,ebx
  0000000000000CEC: 31 CB              xor         ebx,ecx
  0000000000000CEE: C1 C8 07           ror         eax,7
  0000000000000CF1: 66 0F 6C DD        punpcklqdq  xmm3,xmm5
  0000000000000CF5: 89 EF              mov         edi,ebp
  0000000000000CF7: 31 DE              xor         esi,ebx
  0000000000000CF9: 66 0F EF F7        pxor        xmm6,xmm7
  0000000000000CFD: C1 C5 05           rol         ebp,5
  0000000000000D00: 01 F2              add         edx,esi
  0000000000000D02: 45 0F 10 74 24 30  movups      xmm14,xmmword ptr [r12+30h]
  0000000000000D08: 45 0F 57 F7        xorps       xmm14,xmm15
  0000000000000D0C: 43 0F 11 54 25 20  movups      xmmword ptr [r13+r12+20h],xmm2
  0000000000000D12: 41 0F 57 D6        xorps       xmm2,xmm14
  0000000000000D16: 41 0F 10 4F B0     movups      xmm1,xmmword ptr [r15-50h]
  0000000000000D1B: 66 0F 38 DC D0     aesenc      xmm2,xmm0
  0000000000000D20: 66 45 0F 6F EC     movdqa      xmm13,xmm12
  0000000000000D25: 31 C7              xor         edi,eax
  0000000000000D27: 66 44 0F FE E5     paddd       xmm12,xmm5
  0000000000000D2C: 31 D8              xor         eax,ebx
  0000000000000D2E: 66 0F EF F3        pxor        xmm6,xmm3
  0000000000000D32: 01 EA              add         edx,ebp
  0000000000000D34: 03 4C 24 24        add         ecx,dword ptr [rsp+24h]
  0000000000000D38: 21 C7              and         edi,eax
  0000000000000D3A: 31 D8              xor         eax,ebx
  0000000000000D3C: C1 CD 07           ror         ebp,7
  0000000000000D3F: 66 0F 6F DE        movdqa      xmm3,xmm6
  0000000000000D43: 89 D6              mov         esi,edx
  0000000000000D45: 31 C7              xor         edi,eax
  0000000000000D47: 66 44 0F 7F 64 24  movdqa      xmmword ptr [rsp+10h],xmm12
                    10
  0000000000000D4E: C1 C2 05           rol         edx,5
  0000000000000D51: 01 F9              add         ecx,edi
  0000000000000D53: 31 EE              xor         esi,ebp
  0000000000000D55: 66 0F 72 F6 02     pslld       xmm6,2
  0000000000000D5A: 31 C5              xor         ebp,eax
  0000000000000D5C: 01 D1              add         ecx,edx
  0000000000000D5E: 66 0F 72 D3 1E     psrld       xmm3,1Eh
  0000000000000D63: 03 5C 24 28        add         ebx,dword ptr [rsp+28h]
  0000000000000D67: 21 EE              and         esi,ebp
  0000000000000D69: 31 C5              xor         ebp,eax
  0000000000000D6B: 66 0F EB F3        por         xmm6,xmm3
  0000000000000D6F: C1 CA 07           ror         edx,7
  0000000000000D72: 41 0F 10 47 C0     movups      xmm0,xmmword ptr [r15-40h]
  0000000000000D77: 66 0F 38 DC D1     aesenc      xmm2,xmm1
  0000000000000D7C: 89 CF              mov         edi,ecx
  0000000000000D7E: 31 EE              xor         esi,ebp
  0000000000000D80: C1 C1 05           rol         ecx,5
  0000000000000D83: 66 44 0F 70 E5 EE  pshufd      xmm12,xmm5,0EEh
  0000000000000D89: 01 F3              add         ebx,esi
  0000000000000D8B: 31 D7              xor         edi,edx
  0000000000000D8D: 31 EA              xor         edx,ebp
  0000000000000D8F: 01 CB              add         ebx,ecx
  0000000000000D91: 03 44 24 2C        add         eax,dword ptr [rsp+2Ch]
  0000000000000D95: 21 D7              and         edi,edx
  0000000000000D97: 31 EA              xor         edx,ebp
  0000000000000D99: C1 C9 07           ror         ecx,7
  0000000000000D9C: 89 DE              mov         esi,ebx
  0000000000000D9E: 31 D7              xor         edi,edx
  0000000000000DA0: C1 C3 05           rol         ebx,5
  0000000000000DA3: 01 F8              add         eax,edi
  0000000000000DA5: 31 D6              xor         esi,edx
  0000000000000DA7: 01 D8              add         eax,ebx
  0000000000000DA9: 66 41 0F EF FB     pxor        xmm7,xmm11
  0000000000000DAE: 03 6C 24 30        add         ebp,dword ptr [rsp+30h]
  0000000000000DB2: 41 0F 10 4F D0     movups      xmm1,xmmword ptr [r15-30h]
  0000000000000DB7: 66 0F 38 DC D0     aesenc      xmm2,xmm0
  0000000000000DBC: 31 CE              xor         esi,ecx
  0000000000000DBE: 66 44 0F 6C E6     punpcklqdq  xmm12,xmm6
  0000000000000DC3: 89 C7              mov         edi,eax
  0000000000000DC5: C1 C0 05           rol         eax,5
  0000000000000DC8: 66 41 0F EF F8     pxor        xmm7,xmm8
  0000000000000DCD: 01 F5              add         ebp,esi
  0000000000000DCF: 31 CF              xor         edi,ecx
  0000000000000DD1: 66 41 0F 6F DD     movdqa      xmm3,xmm13
  0000000000000DD6: C1 CB 07           ror         ebx,7
  0000000000000DD9: 66 44 0F FE EE     paddd       xmm13,xmm6
  0000000000000DDE: 01 C5              add         ebp,eax
  0000000000000DE0: 66 41 0F EF FC     pxor        xmm7,xmm12
  0000000000000DE5: 03 54 24 34        add         edx,dword ptr [rsp+34h]
  0000000000000DE9: 31 DF              xor         edi,ebx
  0000000000000DEB: 89 EE              mov         esi,ebp
  0000000000000DED: C1 C5 05           rol         ebp,5
  0000000000000DF0: 66 44 0F 6F E7     movdqa      xmm12,xmm7
  0000000000000DF5: 01 FA              add         edx,edi
  0000000000000DF7: 31 DE              xor         esi,ebx
  0000000000000DF9: 66 44 0F 7F 6C 24  movdqa      xmmword ptr [rsp+20h],xmm13
                    20
  0000000000000E00: C1 C8 07           ror         eax,7
  0000000000000E03: 01 EA              add         edx,ebp
  0000000000000E05: 03 4C 24 38        add         ecx,dword ptr [rsp+38h]
  0000000000000E09: 66 0F 72 F7 02     pslld       xmm7,2
  0000000000000E0E: 31 C6              xor         esi,eax
  0000000000000E10: 89 D7              mov         edi,edx
  0000000000000E12: 66 41 0F 72 D4 1E  psrld       xmm12,1Eh
  0000000000000E18: C1 C2 05           rol         edx,5
  0000000000000E1B: 01 F1              add         ecx,esi
  0000000000000E1D: 41 0F 10 47 E0     movups      xmm0,xmmword ptr [r15-20h]
  0000000000000E22: 66 0F 38 DC D1     aesenc      xmm2,xmm1
  0000000000000E27: 31 C7              xor         edi,eax
  0000000000000E29: C1 CD 07           ror         ebp,7
  0000000000000E2C: 66 41 0F EB FC     por         xmm7,xmm12
  0000000000000E31: 01 D1              add         ecx,edx
  0000000000000E33: 03 5C 24 3C        add         ebx,dword ptr [rsp+3Ch]
  0000000000000E37: 31 EF              xor         edi,ebp
  0000000000000E39: 89 CE              mov         esi,ecx
  0000000000000E3B: C1 C1 05           rol         ecx,5
  0000000000000E3E: 01 FB              add         ebx,edi
  0000000000000E40: 31 EE              xor         esi,ebp
  0000000000000E42: C1 CA 07           ror         edx,7
  0000000000000E45: 01 CB              add         ebx,ecx
  0000000000000E47: 03 04 24           add         eax,dword ptr [rsp]
  0000000000000E4A: 31 D6              xor         esi,edx
  0000000000000E4C: 89 DF              mov         edi,ebx
  0000000000000E4E: C1 C3 05           rol         ebx,5
  0000000000000E51: 66 0F FE DF        paddd       xmm3,xmm7
  0000000000000E55: 01 F0              add         eax,esi
  0000000000000E57: 31 D7              xor         edi,edx
  0000000000000E59: 66 0F 7F 5C 24 30  movdqa      xmmword ptr [rsp+30h],xmm3
  0000000000000E5F: C1 C9 07           ror         ecx,7
  0000000000000E62: 01 D8              add         eax,ebx
  0000000000000E64: 03 6C 24 04        add         ebp,dword ptr [rsp+4]
  0000000000000E68: 41 0F 10 4F F0     movups      xmm1,xmmword ptr [r15-10h]
  0000000000000E6D: 66 0F 38 DC D0     aesenc      xmm2,xmm0
  0000000000000E72: 31 CF              xor         edi,ecx
  0000000000000E74: 89 C6              mov         esi,eax
  0000000000000E76: C1 C0 05           rol         eax,5
  0000000000000E79: 01 FD              add         ebp,edi
  0000000000000E7B: 31 CE              xor         esi,ecx
  0000000000000E7D: C1 CB 07           ror         ebx,7
  0000000000000E80: 01 C5              add         ebp,eax
  0000000000000E82: 03 54 24 08        add         edx,dword ptr [rsp+8]
  0000000000000E86: 31 DE              xor         esi,ebx
  0000000000000E88: 89 EF              mov         edi,ebp
  0000000000000E8A: C1 C5 05           rol         ebp,5
  0000000000000E8D: 01 F2              add         edx,esi
  0000000000000E8F: 31 DF              xor         edi,ebx
  0000000000000E91: C1 C8 07           ror         eax,7
  0000000000000E94: 01 EA              add         edx,ebp
  0000000000000E96: 03 4C 24 0C        add         ecx,dword ptr [rsp+0Ch]
  0000000000000E9A: 31 C7              xor         edi,eax
  0000000000000E9C: 89 D6              mov         esi,edx
  0000000000000E9E: C1 C2 05           rol         edx,5
  0000000000000EA1: 01 F9              add         ecx,edi
  0000000000000EA3: 41 0F 10 07        movups      xmm0,xmmword ptr [r15]
  0000000000000EA7: 66 0F 38 DC D1     aesenc      xmm2,xmm1
  0000000000000EAC: 31 C6              xor         esi,eax
  0000000000000EAE: C1 CD 07           ror         ebp,7
  0000000000000EB1: 01 D1              add         ecx,edx
  0000000000000EB3: 4D 39 F2           cmp         r10,r14
  0000000000000EB6: 0F 84 F5 01 00 00  je          L$done_ssse3
  0000000000000EBC: 66 41 0F 6F 5B 40  movdqa      xmm3,xmmword ptr [r11+40h]
  0000000000000EC2: 66 45 0F 6F 2B     movdqa      xmm13,xmmword ptr [r11]
  0000000000000EC7: F3 41 0F 6F 22     movdqu      xmm4,xmmword ptr [r10]
  0000000000000ECC: F3 41 0F 6F 6A 10  movdqu      xmm5,xmmword ptr [r10+10h]
  0000000000000ED2: F3 41 0F 6F 72 20  movdqu      xmm6,xmmword ptr [r10+20h]
  0000000000000ED8: F3 41 0F 6F 7A 30  movdqu      xmm7,xmmword ptr [r10+30h]
  0000000000000EDE: 66 0F 38 00 E3     pshufb      xmm4,xmm3
  0000000000000EE3: 49 83 C2 40        add         r10,40h
  0000000000000EE7: 03 5C 24 10        add         ebx,dword ptr [rsp+10h]
  0000000000000EEB: 31 EE              xor         esi,ebp
  0000000000000EED: 89 CF              mov         edi,ecx
  0000000000000EEF: 66 0F 38 00 EB     pshufb      xmm5,xmm3
  0000000000000EF4: C1 C1 05           rol         ecx,5
  0000000000000EF7: 01 F3              add         ebx,esi
  0000000000000EF9: 31 EF              xor         edi,ebp
  0000000000000EFB: C1 CA 07           ror         edx,7
  0000000000000EFE: 66 41 0F FE E5     paddd       xmm4,xmm13
  0000000000000F03: 01 CB              add         ebx,ecx
  0000000000000F05: 03 44 24 14        add         eax,dword ptr [rsp+14h]
  0000000000000F09: 31 D7              xor         edi,edx
  0000000000000F0B: 89 DE              mov         esi,ebx
  0000000000000F0D: 66 0F 7F 24 24     movdqa      xmmword ptr [rsp],xmm4
  0000000000000F12: C1 C3 05           rol         ebx,5
  0000000000000F15: 01 F8              add         eax,edi
  0000000000000F17: 31 D6              xor         esi,edx
  0000000000000F19: C1 C9 07           ror         ecx,7
  0000000000000F1C: 66 41 0F FA E5     psubd       xmm4,xmm13
  0000000000000F21: 01 D8              add         eax,ebx
  0000000000000F23: 03 6C 24 18        add         ebp,dword ptr [rsp+18h]
  0000000000000F27: 41 0F 10 4F 10     movups      xmm1,xmmword ptr [r15+10h]
  0000000000000F2C: 66 0F 38 DC D0     aesenc      xmm2,xmm0
  0000000000000F31: 31 CE              xor         esi,ecx
  0000000000000F33: 89 C7              mov         edi,eax
  0000000000000F35: C1 C0 05           rol         eax,5
  0000000000000F38: 01 F5              add         ebp,esi
  0000000000000F3A: 31 CF              xor         edi,ecx
  0000000000000F3C: C1 CB 07           ror         ebx,7
  0000000000000F3F: 01 C5              add         ebp,eax
  0000000000000F41: 03 54 24 1C        add         edx,dword ptr [rsp+1Ch]
  0000000000000F45: 31 DF              xor         edi,ebx
  0000000000000F47: 89 EE              mov         esi,ebp
  0000000000000F49: C1 C5 05           rol         ebp,5
  0000000000000F4C: 01 FA              add         edx,edi
  0000000000000F4E: 31 DE              xor         esi,ebx
  0000000000000F50: C1 C8 07           ror         eax,7
  0000000000000F53: 01 EA              add         edx,ebp
  0000000000000F55: 03 4C 24 20        add         ecx,dword ptr [rsp+20h]
  0000000000000F59: 31 C6              xor         esi,eax
  0000000000000F5B: 89 D7              mov         edi,edx
  0000000000000F5D: 66 0F 38 00 F3     pshufb      xmm6,xmm3
  0000000000000F62: C1 C2 05           rol         edx,5
  0000000000000F65: 01 F1              add         ecx,esi
  0000000000000F67: 41 0F 10 47 20     movups      xmm0,xmmword ptr [r15+20h]
  0000000000000F6C: 66 0F 38 DC D1     aesenc      xmm2,xmm1
  0000000000000F71: 31 C7              xor         edi,eax
  0000000000000F73: C1 CD 07           ror         ebp,7
  0000000000000F76: 66 41 0F FE ED     paddd       xmm5,xmm13
  0000000000000F7B: 01 D1              add         ecx,edx
  0000000000000F7D: 03 5C 24 24        add         ebx,dword ptr [rsp+24h]
  0000000000000F81: 31 EF              xor         edi,ebp
  0000000000000F83: 89 CE              mov         esi,ecx
  0000000000000F85: 66 0F 7F 6C 24 10  movdqa      xmmword ptr [rsp+10h],xmm5
  0000000000000F8B: C1 C1 05           rol         ecx,5
  0000000000000F8E: 01 FB              add         ebx,edi
  0000000000000F90: 31 EE              xor         esi,ebp
  0000000000000F92: C1 CA 07           ror         edx,7
  0000000000000F95: 66 41 0F FA ED     psubd       xmm5,xmm13
  0000000000000F9A: 01 CB              add         ebx,ecx
  0000000000000F9C: 03 44 24 28        add         eax,dword ptr [rsp+28h]
  0000000000000FA0: 31 D6              xor         esi,edx
  0000000000000FA2: 89 DF              mov         edi,ebx
  0000000000000FA4: C1 C3 05           rol         ebx,5
  0000000000000FA7: 01 F0              add         eax,esi
  0000000000000FA9: 31 D7              xor         edi,edx
  0000000000000FAB: C1 C9 07           ror         ecx,7
  0000000000000FAE: 01 D8              add         eax,ebx
  0000000000000FB0: 03 6C 24 2C        add         ebp,dword ptr [rsp+2Ch]
  0000000000000FB4: 41 0F 10 4F 30     movups      xmm1,xmmword ptr [r15+30h]
  0000000000000FB9: 66 0F 38 DC D0     aesenc      xmm2,xmm0
  0000000000000FBE: 31 CF              xor         edi,ecx
  0000000000000FC0: 89 C6              mov         esi,eax
  0000000000000FC2: C1 C0 05           rol         eax,5
  0000000000000FC5: 01 FD              add         ebp,edi
  0000000000000FC7: 31 CE              xor         esi,ecx
  0000000000000FC9: C1 CB 07           ror         ebx,7
  0000000000000FCC: 01 C5              add         ebp,eax
  0000000000000FCE: 03 54 24 30        add         edx,dword ptr [rsp+30h]
  0000000000000FD2: 31 DE              xor         esi,ebx
  0000000000000FD4: 89 EF              mov         edi,ebp
  0000000000000FD6: 66 0F 38 00 FB     pshufb      xmm7,xmm3
  0000000000000FDB: C1 C5 05           rol         ebp,5
  0000000000000FDE: 01 F2              add         edx,esi
  0000000000000FE0: 31 DF              xor         edi,ebx
  0000000000000FE2: C1 C8 07           ror         eax,7
  0000000000000FE5: 66 41 0F FE F5     paddd       xmm6,xmm13
  0000000000000FEA: 01 EA              add         edx,ebp
  0000000000000FEC: 03 4C 24 34        add         ecx,dword ptr [rsp+34h]
  0000000000000FF0: 31 C7              xor         edi,eax
  0000000000000FF2: 89 D6              mov         esi,edx
  0000000000000FF4: 66 0F 7F 74 24 20  movdqa      xmmword ptr [rsp+20h],xmm6
  0000000000000FFA: C1 C2 05           rol         edx,5
  0000000000000FFD: 01 F9              add         ecx,edi
  0000000000000FFF: 41 83 F8 0B        cmp         r8d,0Bh
  0000000000001003: 0F 82 2E 00 00 00  jb          L$aesenclast4
  0000000000001009: 41 0F 10 47 40     movups      xmm0,xmmword ptr [r15+40h]
  000000000000100E: 66 0F 38 DC D1     aesenc      xmm2,xmm1
  0000000000001013: 41 0F 10 4F 50     movups      xmm1,xmmword ptr [r15+50h]
  0000000000001018: 66 0F 38 DC D0     aesenc      xmm2,xmm0
  000000000000101D: 0F 84 14 00 00 00  je          L$aesenclast4
  0000000000001023: 41 0F 10 47 60     movups      xmm0,xmmword ptr [r15+60h]
  0000000000001028: 66 0F 38 DC D1     aesenc      xmm2,xmm1
  000000000000102D: 41 0F 10 4F 70     movups      xmm1,xmmword ptr [r15+70h]
  0000000000001032: 66 0F 38 DC D0     aesenc      xmm2,xmm0
L$aesenclast4:
  0000000000001037: 66 0F 38 DD D1     aesenclast  xmm2,xmm1
  000000000000103C: 41 0F 10 47 A0     movups      xmm0,xmmword ptr [r15-60h]
  0000000000001041: 31 C6              xor         esi,eax
  0000000000001043: C1 CD 07           ror         ebp,7
  0000000000001046: 66 41 0F FA F5     psubd       xmm6,xmm13
  000000000000104B: 01 D1              add         ecx,edx
  000000000000104D: 03 5C 24 38        add         ebx,dword ptr [rsp+38h]
  0000000000001051: 31 EE              xor         esi,ebp
  0000000000001053: 89 CF              mov         edi,ecx
  0000000000001055: C1 C1 05           rol         ecx,5
  0000000000001058: 01 F3              add         ebx,esi
  000000000000105A: 31 EF              xor         edi,ebp
  000000000000105C: C1 CA 07           ror         edx,7
  000000000000105F: 01 CB              add         ebx,ecx
  0000000000001061: 03 44 24 3C        add         eax,dword ptr [rsp+3Ch]
  0000000000001065: 31 D7              xor         edi,edx
  0000000000001067: 89 DE              mov         esi,ebx
  0000000000001069: C1 C3 05           rol         ebx,5
  000000000000106C: 01 F8              add         eax,edi
  000000000000106E: C1 C9 07           ror         ecx,7
  0000000000001071: 01 D8              add         eax,ebx
  0000000000001073: 43 0F 11 54 25 30  movups      xmmword ptr [r13+r12+30h],xmm2
  0000000000001079: 4D 8D 64 24 40     lea         r12,[r12+40h]
  000000000000107E: 41 03 01           add         eax,dword ptr [r9]
  0000000000001081: 41 03 71 04        add         esi,dword ptr [r9+4]
  0000000000001085: 41 03 49 08        add         ecx,dword ptr [r9+8]
  0000000000001089: 41 03 51 0C        add         edx,dword ptr [r9+0Ch]
  000000000000108D: 41 89 01           mov         dword ptr [r9],eax
  0000000000001090: 41 03 69 10        add         ebp,dword ptr [r9+10h]
  0000000000001094: 41 89 71 04        mov         dword ptr [r9+4],esi
  0000000000001098: 89 F3              mov         ebx,esi
  000000000000109A: 41 89 49 08        mov         dword ptr [r9+8],ecx
  000000000000109E: 89 CF              mov         edi,ecx
  00000000000010A0: 41 89 51 0C        mov         dword ptr [r9+0Ch],edx
  00000000000010A4: 31 D7              xor         edi,edx
  00000000000010A6: 41 89 69 10        mov         dword ptr [r9+10h],ebp
  00000000000010AA: 21 FE              and         esi,edi
  00000000000010AC: E9 EF F0 FF FF     jmp         L$oop_ssse3
L$done_ssse3:
  00000000000010B1: 03 5C 24 10        add         ebx,dword ptr [rsp+10h]
  00000000000010B5: 31 EE              xor         esi,ebp
  00000000000010B7: 89 CF              mov         edi,ecx
  00000000000010B9: C1 C1 05           rol         ecx,5
  00000000000010BC: 01 F3              add         ebx,esi
  00000000000010BE: 31 EF              xor         edi,ebp
  00000000000010C0: C1 CA 07           ror         edx,7
  00000000000010C3: 01 CB              add         ebx,ecx
  00000000000010C5: 03 44 24 14        add         eax,dword ptr [rsp+14h]
  00000000000010C9: 31 D7              xor         edi,edx
  00000000000010CB: 89 DE              mov         esi,ebx
  00000000000010CD: C1 C3 05           rol         ebx,5
  00000000000010D0: 01 F8              add         eax,edi
  00000000000010D2: 31 D6              xor         esi,edx
  00000000000010D4: C1 C9 07           ror         ecx,7
  00000000000010D7: 01 D8              add         eax,ebx
  00000000000010D9: 03 6C 24 18        add         ebp,dword ptr [rsp+18h]
  00000000000010DD: 41 0F 10 4F 10     movups      xmm1,xmmword ptr [r15+10h]
  00000000000010E2: 66 0F 38 DC D0     aesenc      xmm2,xmm0
  00000000000010E7: 31 CE              xor         esi,ecx
  00000000000010E9: 89 C7              mov         edi,eax
  00000000000010EB: C1 C0 05           rol         eax,5
  00000000000010EE: 01 F5              add         ebp,esi
  00000000000010F0: 31 CF              xor         edi,ecx
  00000000000010F2: C1 CB 07           ror         ebx,7
  00000000000010F5: 01 C5              add         ebp,eax
  00000000000010F7: 03 54 24 1C        add         edx,dword ptr [rsp+1Ch]
  00000000000010FB: 31 DF              xor         edi,ebx
  00000000000010FD: 89 EE              mov         esi,ebp
  00000000000010FF: C1 C5 05           rol         ebp,5
  0000000000001102: 01 FA              add         edx,edi
  0000000000001104: 31 DE              xor         esi,ebx
  0000000000001106: C1 C8 07           ror         eax,7
  0000000000001109: 01 EA              add         edx,ebp
  000000000000110B: 03 4C 24 20        add         ecx,dword ptr [rsp+20h]
  000000000000110F: 31 C6              xor         esi,eax
  0000000000001111: 89 D7              mov         edi,edx
  0000000000001113: C1 C2 05           rol         edx,5
  0000000000001116: 01 F1              add         ecx,esi
  0000000000001118: 41 0F 10 47 20     movups      xmm0,xmmword ptr [r15+20h]
  000000000000111D: 66 0F 38 DC D1     aesenc      xmm2,xmm1
  0000000000001122: 31 C7              xor         edi,eax
  0000000000001124: C1 CD 07           ror         ebp,7
  0000000000001127: 01 D1              add         ecx,edx
  0000000000001129: 03 5C 24 24        add         ebx,dword ptr [rsp+24h]
  000000000000112D: 31 EF              xor         edi,ebp
  000000000000112F: 89 CE              mov         esi,ecx
  0000000000001131: C1 C1 05           rol         ecx,5
  0000000000001134: 01 FB              add         ebx,edi
  0000000000001136: 31 EE              xor         esi,ebp
  0000000000001138: C1 CA 07           ror         edx,7
  000000000000113B: 01 CB              add         ebx,ecx
  000000000000113D: 03 44 24 28        add         eax,dword ptr [rsp+28h]
  0000000000001141: 31 D6              xor         esi,edx
  0000000000001143: 89 DF              mov         edi,ebx
  0000000000001145: C1 C3 05           rol         ebx,5
  0000000000001148: 01 F0              add         eax,esi
  000000000000114A: 31 D7              xor         edi,edx
  000000000000114C: C1 C9 07           ror         ecx,7
  000000000000114F: 01 D8              add         eax,ebx
  0000000000001151: 03 6C 24 2C        add         ebp,dword ptr [rsp+2Ch]
  0000000000001155: 41 0F 10 4F 30     movups      xmm1,xmmword ptr [r15+30h]
  000000000000115A: 66 0F 38 DC D0     aesenc      xmm2,xmm0
  000000000000115F: 31 CF              xor         edi,ecx
  0000000000001161: 89 C6              mov         esi,eax
  0000000000001163: C1 C0 05           rol         eax,5
  0000000000001166: 01 FD              add         ebp,edi
  0000000000001168: 31 CE              xor         esi,ecx
  000000000000116A: C1 CB 07           ror         ebx,7
  000000000000116D: 01 C5              add         ebp,eax
  000000000000116F: 03 54 24 30        add         edx,dword ptr [rsp+30h]
  0000000000001173: 31 DE              xor         esi,ebx
  0000000000001175: 89 EF              mov         edi,ebp
  0000000000001177: C1 C5 05           rol         ebp,5
  000000000000117A: 01 F2              add         edx,esi
  000000000000117C: 31 DF              xor         edi,ebx
  000000000000117E: C1 C8 07           ror         eax,7
  0000000000001181: 01 EA              add         edx,ebp
  0000000000001183: 03 4C 24 34        add         ecx,dword ptr [rsp+34h]
  0000000000001187: 31 C7              xor         edi,eax
  0000000000001189: 89 D6              mov         esi,edx
  000000000000118B: C1 C2 05           rol         edx,5
  000000000000118E: 01 F9              add         ecx,edi
  0000000000001190: 41 83 F8 0B        cmp         r8d,0Bh
  0000000000001194: 0F 82 2E 00 00 00  jb          L$aesenclast5
  000000000000119A: 41 0F 10 47 40     movups      xmm0,xmmword ptr [r15+40h]
  000000000000119F: 66 0F 38 DC D1     aesenc      xmm2,xmm1
  00000000000011A4: 41 0F 10 4F 50     movups      xmm1,xmmword ptr [r15+50h]
  00000000000011A9: 66 0F 38 DC D0     aesenc      xmm2,xmm0
  00000000000011AE: 0F 84 14 00 00 00  je          L$aesenclast5
  00000000000011B4: 41 0F 10 47 60     movups      xmm0,xmmword ptr [r15+60h]
  00000000000011B9: 66 0F 38 DC D1     aesenc      xmm2,xmm1
  00000000000011BE: 41 0F 10 4F 70     movups      xmm1,xmmword ptr [r15+70h]
  00000000000011C3: 66 0F 38 DC D0     aesenc      xmm2,xmm0
L$aesenclast5:
  00000000000011C8: 66 0F 38 DD D1     aesenclast  xmm2,xmm1
  00000000000011CD: 41 0F 10 47 A0     movups      xmm0,xmmword ptr [r15-60h]
  00000000000011D2: 31 C6              xor         esi,eax
  00000000000011D4: C1 CD 07           ror         ebp,7
  00000000000011D7: 01 D1              add         ecx,edx
  00000000000011D9: 03 5C 24 38        add         ebx,dword ptr [rsp+38h]
  00000000000011DD: 31 EE              xor         esi,ebp
  00000000000011DF: 89 CF              mov         edi,ecx
  00000000000011E1: C1 C1 05           rol         ecx,5
  00000000000011E4: 01 F3              add         ebx,esi
  00000000000011E6: 31 EF              xor         edi,ebp
  00000000000011E8: C1 CA 07           ror         edx,7
  00000000000011EB: 01 CB              add         ebx,ecx
  00000000000011ED: 03 44 24 3C        add         eax,dword ptr [rsp+3Ch]
  00000000000011F1: 31 D7              xor         edi,edx
  00000000000011F3: 89 DE              mov         esi,ebx
  00000000000011F5: C1 C3 05           rol         ebx,5
  00000000000011F8: 01 F8              add         eax,edi
  00000000000011FA: C1 C9 07           ror         ecx,7
  00000000000011FD: 01 D8              add         eax,ebx
  00000000000011FF: 43 0F 11 54 25 30  movups      xmmword ptr [r13+r12+30h],xmm2
  0000000000001205: 4C 8B 44 24 58     mov         r8,qword ptr [rsp+58h]
  000000000000120A: 41 03 01           add         eax,dword ptr [r9]
  000000000000120D: 41 03 71 04        add         esi,dword ptr [r9+4]
  0000000000001211: 41 03 49 08        add         ecx,dword ptr [r9+8]
  0000000000001215: 41 89 01           mov         dword ptr [r9],eax
  0000000000001218: 41 03 51 0C        add         edx,dword ptr [r9+0Ch]
  000000000000121C: 41 89 71 04        mov         dword ptr [r9+4],esi
  0000000000001220: 41 03 69 10        add         ebp,dword ptr [r9+10h]
  0000000000001224: 41 89 49 08        mov         dword ptr [r9+8],ecx
  0000000000001228: 41 89 51 0C        mov         dword ptr [r9+0Ch],edx
  000000000000122C: 41 89 69 10        mov         dword ptr [r9+10h],ebp
  0000000000001230: 41 0F 11 10        movups      xmmword ptr [r8],xmm2
  0000000000001234: 0F 28 74 24 60     movaps      xmm6,xmmword ptr [rsp+60h]
  0000000000001239: 0F 28 7C 24 70     movaps      xmm7,xmmword ptr [rsp+70h]
  000000000000123E: 44 0F 28 84 24 80  movaps      xmm8,xmmword ptr [rsp+80h]
                    00 00 00
  0000000000001247: 44 0F 28 8C 24 90  movaps      xmm9,xmmword ptr [rsp+90h]
                    00 00 00
  0000000000001250: 44 0F 28 94 24 A0  movaps      xmm10,xmmword ptr [rsp+0A0h]
                    00 00 00
  0000000000001259: 44 0F 28 9C 24 B0  movaps      xmm11,xmmword ptr [rsp+0B0h]
                    00 00 00
  0000000000001262: 44 0F 28 A4 24 C0  movaps      xmm12,xmmword ptr [rsp+0C0h]
                    00 00 00
  000000000000126B: 44 0F 28 AC 24 D0  movaps      xmm13,xmmword ptr [rsp+0D0h]
                    00 00 00
  0000000000001274: 44 0F 28 B4 24 E0  movaps      xmm14,xmmword ptr [rsp+0E0h]
                    00 00 00
  000000000000127D: 44 0F 28 BC 24 F0  movaps      xmm15,xmmword ptr [rsp+0F0h]
                    00 00 00
  0000000000001286: 48 8D B4 24 08 01  lea         rsi,[rsp+108h]
                    00 00
  000000000000128E: 4C 8B 3E           mov         r15,qword ptr [rsi]
  0000000000001291: 4C 8B 76 08        mov         r14,qword ptr [rsi+8]
  0000000000001295: 4C 8B 6E 10        mov         r13,qword ptr [rsi+10h]
  0000000000001299: 4C 8B 66 18        mov         r12,qword ptr [rsi+18h]
  000000000000129D: 48 8B 6E 20        mov         rbp,qword ptr [rsi+20h]
  00000000000012A1: 48 8B 5E 28        mov         rbx,qword ptr [rsi+28h]
  00000000000012A5: 48 8D 66 30        lea         rsp,[rsi+30h]
L$epilogue_ssse3:
  00000000000012A9: 48 8B 7C 24 08     mov         rdi,qword ptr [rsp+8]
  00000000000012AE: 48 8B 74 24 10     mov         rsi,qword ptr [rsp+10h]
  00000000000012B3: F3 C3              rep ret
L$SEH_end_aesni_cbc_sha1_enc_ssse3:
  00000000000012B5: 90                 nop
  00000000000012B6: 90                 nop
  00000000000012B7: 90                 nop
  00000000000012B8: 90                 nop
  00000000000012B9: 90                 nop
  00000000000012BA: 90                 nop
  00000000000012BB: 90                 nop
  00000000000012BC: 90                 nop
  00000000000012BD: 90                 nop
  00000000000012BE: 90                 nop
  00000000000012BF: 90                 nop
aesni_cbc_sha1_enc_avx:
  00000000000012C0: 48 89 7C 24 08     mov         qword ptr [rsp+8],rdi
  00000000000012C5: 48 89 74 24 10     mov         qword ptr [rsp+10h],rsi
  00000000000012CA: 48 89 E0           mov         rax,rsp
L$SEH_begin_aesni_cbc_sha1_enc_avx:
  00000000000012CD: 48 89 CF           mov         rdi,rcx
  00000000000012D0: 48 89 D6           mov         rsi,rdx
  00000000000012D3: 4C 89 C2           mov         rdx,r8
  00000000000012D6: 4C 89 C9           mov         rcx,r9
  00000000000012D9: 4C 8B 44 24 28     mov         r8,qword ptr [rsp+28h]
  00000000000012DE: 4C 8B 4C 24 30     mov         r9,qword ptr [rsp+30h]
  00000000000012E3: 4C 8B 54 24 38     mov         r10,qword ptr [rsp+38h]
  00000000000012E8: 53                 push        rbx
  00000000000012E9: 55                 push        rbp
  00000000000012EA: 41 54              push        r12
  00000000000012EC: 41 55              push        r13
  00000000000012EE: 41 56              push        r14
  00000000000012F0: 41 57              push        r15
  00000000000012F2: 48 8D A4 24 F8 FE  lea         rsp,[rsp-108h]
                    FF FF
  00000000000012FA: 0F 29 74 24 60     movaps      xmmword ptr [rsp+60h],xmm6
  00000000000012FF: 0F 29 7C 24 70     movaps      xmmword ptr [rsp+70h],xmm7
  0000000000001304: 44 0F 29 84 24 80  movaps      xmmword ptr [rsp+80h],xmm8
                    00 00 00
  000000000000130D: 44 0F 29 8C 24 90  movaps      xmmword ptr [rsp+90h],xmm9
                    00 00 00
  0000000000001316: 44 0F 29 94 24 A0  movaps      xmmword ptr [rsp+0A0h],xmm10
                    00 00 00
  000000000000131F: 44 0F 29 9C 24 B0  movaps      xmmword ptr [rsp+0B0h],xmm11
                    00 00 00
  0000000000001328: 44 0F 29 A4 24 C0  movaps      xmmword ptr [rsp+0C0h],xmm12
                    00 00 00
  0000000000001331: 44 0F 29 AC 24 D0  movaps      xmmword ptr [rsp+0D0h],xmm13
                    00 00 00
  000000000000133A: 44 0F 29 B4 24 E0  movaps      xmmword ptr [rsp+0E0h],xmm14
                    00 00 00
  0000000000001343: 44 0F 29 BC 24 F0  movaps      xmmword ptr [rsp+0F0h],xmm15
                    00 00 00
L$prologue_avx:
  000000000000134C: C5 FC 77           vzeroall
  000000000000134F: 49 89 FC           mov         r12,rdi
  0000000000001352: 49 89 F5           mov         r13,rsi
  0000000000001355: 49 89 D6           mov         r14,rdx
  0000000000001358: 4C 8D 79 70        lea         r15,[rcx+70h]
  000000000000135C: C4 41 7A 6F 20     vmovdqu     xmm12,xmmword ptr [r8]
  0000000000001361: 4C 89 44 24 58     mov         qword ptr [rsp+58h],r8
  0000000000001366: 49 C1 E6 06        shl         r14,6
  000000000000136A: 4D 29 E5           sub         r13,r12
  000000000000136D: 45 8B 87 80 00 00  mov         r8d,dword ptr [r15+80h]
                    00
  0000000000001374: 4D 01 D6           add         r14,r10
  0000000000001377: 4C 8D 1D 00 00 00  lea         r11,[.rdata]
                    00
  000000000000137E: 41 8B 01           mov         eax,dword ptr [r9]
  0000000000001381: 41 8B 59 04        mov         ebx,dword ptr [r9+4]
  0000000000001385: 41 8B 49 08        mov         ecx,dword ptr [r9+8]
  0000000000001389: 41 8B 51 0C        mov         edx,dword ptr [r9+0Ch]
  000000000000138D: 89 DE              mov         esi,ebx
  000000000000138F: 41 8B 69 10        mov         ebp,dword ptr [r9+10h]
  0000000000001393: 89 CF              mov         edi,ecx
  0000000000001395: 31 D7              xor         edi,edx
  0000000000001397: 21 FE              and         esi,edi
  0000000000001399: C4 C1 79 6F 73 40  vmovdqa     xmm6,xmmword ptr [r11+40h]
  000000000000139F: C4 41 79 6F 13     vmovdqa     xmm10,xmmword ptr [r11]
  00000000000013A4: C4 C1 7A 6F 02     vmovdqu     xmm0,xmmword ptr [r10]
  00000000000013A9: C4 C1 7A 6F 4A 10  vmovdqu     xmm1,xmmword ptr [r10+10h]
  00000000000013AF: C4 C1 7A 6F 52 20  vmovdqu     xmm2,xmmword ptr [r10+20h]
  00000000000013B5: C4 C1 7A 6F 5A 30  vmovdqu     xmm3,xmmword ptr [r10+30h]
  00000000000013BB: C4 E2 79 00 C6     vpshufb     xmm0,xmm0,xmm6
  00000000000013C0: 49 83 C2 40        add         r10,40h
  00000000000013C4: C4 E2 71 00 CE     vpshufb     xmm1,xmm1,xmm6
  00000000000013C9: C4 E2 69 00 D6     vpshufb     xmm2,xmm2,xmm6
  00000000000013CE: C4 E2 61 00 DE     vpshufb     xmm3,xmm3,xmm6
  00000000000013D3: C4 C1 79 FE E2     vpaddd      xmm4,xmm0,xmm10
  00000000000013D8: C4 C1 71 FE EA     vpaddd      xmm5,xmm1,xmm10
  00000000000013DD: C4 C1 69 FE F2     vpaddd      xmm6,xmm2,xmm10
  00000000000013E2: C5 F9 7F 24 24     vmovdqa     xmmword ptr [rsp],xmm4
  00000000000013E7: C5 F9 7F 6C 24 10  vmovdqa     xmmword ptr [rsp+10h],xmm5
  00000000000013ED: C5 F9 7F 74 24 20  vmovdqa     xmmword ptr [rsp+20h],xmm6
  00000000000013F3: C4 41 78 10 7F 90  vmovups     xmm15,xmmword ptr [r15-70h]
  00000000000013F9: C4 41 78 10 77 A0  vmovups     xmm14,xmmword ptr [r15-60h]
  00000000000013FF: E9 1C 00 00 00     jmp         L$oop_avx
  0000000000001404: 90                 nop
  0000000000001405: 90                 nop
  0000000000001406: 90                 nop
  0000000000001407: 90                 nop
  0000000000001408: 90                 nop
  0000000000001409: 90                 nop
  000000000000140A: 90                 nop
  000000000000140B: 90                 nop
  000000000000140C: 90                 nop
  000000000000140D: 90                 nop
  000000000000140E: 90                 nop
  000000000000140F: 90                 nop
  0000000000001410: 90                 nop
  0000000000001411: 90                 nop
  0000000000001412: 90                 nop
  0000000000001413: 90                 nop
  0000000000001414: 90                 nop
  0000000000001415: 90                 nop
  0000000000001416: 90                 nop
  0000000000001417: 90                 nop
  0000000000001418: 90                 nop
  0000000000001419: 90                 nop
  000000000000141A: 90                 nop
  000000000000141B: 90                 nop
  000000000000141C: 90                 nop
  000000000000141D: 90                 nop
  000000000000141E: 90                 nop
  000000000000141F: 90                 nop
L$oop_avx:
  0000000000001420: 0F AC DB 02        shrd        ebx,ebx,2
  0000000000001424: C4 41 7A 6F 2C 24  vmovdqu     xmm13,xmmword ptr [r12]
  000000000000142A: C4 41 11 EF EF     vpxor       xmm13,xmm13,xmm15
  000000000000142F: C4 41 19 EF E5     vpxor       xmm12,xmm12,xmm13
  0000000000001434: C4 42 19 DC E6     vaesenc     xmm12,xmm12,xmm14
  0000000000001439: C4 41 78 10 7F B0  vmovups     xmm15,xmmword ptr [r15-50h]
  000000000000143F: 31 D6              xor         esi,edx
  0000000000001441: C4 E3 71 0F E0 08  vpalignr    xmm4,xmm1,xmm0,8
  0000000000001447: 89 C7              mov         edi,eax
  0000000000001449: 03 2C 24           add         ebp,dword ptr [rsp]
  000000000000144C: C5 29 FE CB        vpaddd      xmm9,xmm10,xmm3
  0000000000001450: 31 CB              xor         ebx,ecx
  0000000000001452: 0F A4 C0 05        shld        eax,eax,5
  0000000000001456: C5 B9 73 DB 04     vpsrldq     xmm8,xmm3,4
  000000000000145B: 01 F5              add         ebp,esi
  000000000000145D: 21 DF              and         edi,ebx
  000000000000145F: C5 D9 EF E0        vpxor       xmm4,xmm4,xmm0
  0000000000001463: 31 CB              xor         ebx,ecx
  0000000000001465: 01 C5              add         ebp,eax
  0000000000001467: C5 39 EF C2        vpxor       xmm8,xmm8,xmm2
  000000000000146B: 0F AC C0 07        shrd        eax,eax,7
  000000000000146F: 31 CF              xor         edi,ecx
  0000000000001471: 89 EE              mov         esi,ebp
  0000000000001473: 03 54 24 04        add         edx,dword ptr [rsp+4]
  0000000000001477: C4 C1 59 EF E0     vpxor       xmm4,xmm4,xmm8
  000000000000147C: 31 D8              xor         eax,ebx
  000000000000147E: 0F A4 ED 05        shld        ebp,ebp,5
  0000000000001482: C5 79 7F 4C 24 30  vmovdqa     xmmword ptr [rsp+30h],xmm9
  0000000000001488: 01 FA              add         edx,edi
  000000000000148A: C4 42 19 DC E7     vaesenc     xmm12,xmm12,xmm15
  000000000000148F: C4 41 78 10 77 C0  vmovups     xmm14,xmmword ptr [r15-40h]
  0000000000001495: 21 C6              and         esi,eax
  0000000000001497: C5 B9 72 D4 1F     vpsrld      xmm8,xmm4,1Fh
  000000000000149C: 31 D8              xor         eax,ebx
  000000000000149E: 01 EA              add         edx,ebp
  00000000000014A0: 0F AC ED 07        shrd        ebp,ebp,7
  00000000000014A4: 31 DE              xor         esi,ebx
  00000000000014A6: C5 B1 73 FC 0C     vpslldq     xmm9,xmm4,0Ch
  00000000000014AB: C5 D9 FE E4        vpaddd      xmm4,xmm4,xmm4
  00000000000014AF: 89 D7              mov         edi,edx
  00000000000014B1: 03 4C 24 08        add         ecx,dword ptr [rsp+8]
  00000000000014B5: 31 C5              xor         ebp,eax
  00000000000014B7: 0F A4 D2 05        shld        edx,edx,5
  00000000000014BB: C4 C1 59 EB E0     vpor        xmm4,xmm4,xmm8
  00000000000014C0: C4 C1 39 72 D1 1E  vpsrld      xmm8,xmm9,1Eh
  00000000000014C6: 01 F1              add         ecx,esi
  00000000000014C8: 21 EF              and         edi,ebp
  00000000000014CA: 31 C5              xor         ebp,eax
  00000000000014CC: 01 D1              add         ecx,edx
  00000000000014CE: C4 C1 31 72 F1 02  vpslld      xmm9,xmm9,2
  00000000000014D4: C4 C1 59 EF E0     vpxor       xmm4,xmm4,xmm8
  00000000000014D9: 0F AC D2 07        shrd        edx,edx,7
  00000000000014DD: 31 C7              xor         edi,eax
  00000000000014DF: 89 CE              mov         esi,ecx
  00000000000014E1: 03 5C 24 0C        add         ebx,dword ptr [rsp+0Ch]
  00000000000014E5: C4 42 19 DC E6     vaesenc     xmm12,xmm12,xmm14
  00000000000014EA: C4 41 78 10 7F D0  vmovups     xmm15,xmmword ptr [r15-30h]
  00000000000014F0: C4 C1 59 EF E1     vpxor       xmm4,xmm4,xmm9
  00000000000014F5: 31 EA              xor         edx,ebp
  00000000000014F7: 0F A4 C9 05        shld        ecx,ecx,5
  00000000000014FB: 01 FB              add         ebx,edi
  00000000000014FD: 21 D6              and         esi,edx
  00000000000014FF: 31 EA              xor         edx,ebp
  0000000000001501: 01 CB              add         ebx,ecx
  0000000000001503: 0F AC C9 07        shrd        ecx,ecx,7
  0000000000001507: 31 EE              xor         esi,ebp
  0000000000001509: C4 E3 69 0F E9 08  vpalignr    xmm5,xmm2,xmm1,8
  000000000000150F: 89 DF              mov         edi,ebx
  0000000000001511: 03 44 24 10        add         eax,dword ptr [rsp+10h]
  0000000000001515: C5 29 FE CC        vpaddd      xmm9,xmm10,xmm4
  0000000000001519: 31 D1              xor         ecx,edx
  000000000000151B: 0F A4 DB 05        shld        ebx,ebx,5
  000000000000151F: C5 B9 73 DC 04     vpsrldq     xmm8,xmm4,4
  0000000000001524: 01 F0              add         eax,esi
  0000000000001526: 21 CF              and         edi,ecx
  0000000000001528: C5 D1 EF E9        vpxor       xmm5,xmm5,xmm1
  000000000000152C: 31 D1              xor         ecx,edx
  000000000000152E: 01 D8              add         eax,ebx
  0000000000001530: C5 39 EF C3        vpxor       xmm8,xmm8,xmm3
  0000000000001534: 0F AC DB 07        shrd        ebx,ebx,7
  0000000000001538: C4 42 19 DC E7     vaesenc     xmm12,xmm12,xmm15
  000000000000153D: C4 41 78 10 77 E0  vmovups     xmm14,xmmword ptr [r15-20h]
  0000000000001543: 31 D7              xor         edi,edx
  0000000000001545: 89 C6              mov         esi,eax
  0000000000001547: 03 6C 24 14        add         ebp,dword ptr [rsp+14h]
  000000000000154B: C4 C1 51 EF E8     vpxor       xmm5,xmm5,xmm8
  0000000000001550: 31 CB              xor         ebx,ecx
  0000000000001552: 0F A4 C0 05        shld        eax,eax,5
  0000000000001556: C5 79 7F 0C 24     vmovdqa     xmmword ptr [rsp],xmm9
  000000000000155B: 01 FD              add         ebp,edi
  000000000000155D: 21 DE              and         esi,ebx
  000000000000155F: C5 B9 72 D5 1F     vpsrld      xmm8,xmm5,1Fh
  0000000000001564: 31 CB              xor         ebx,ecx
  0000000000001566: 01 C5              add         ebp,eax
  0000000000001568: 0F AC C0 07        shrd        eax,eax,7
  000000000000156C: 31 CE              xor         esi,ecx
  000000000000156E: C5 B1 73 FD 0C     vpslldq     xmm9,xmm5,0Ch
  0000000000001573: C5 D1 FE ED        vpaddd      xmm5,xmm5,xmm5
  0000000000001577: 89 EF              mov         edi,ebp
  0000000000001579: 03 54 24 18        add         edx,dword ptr [rsp+18h]
  000000000000157D: 31 D8              xor         eax,ebx
  000000000000157F: 0F A4 ED 05        shld        ebp,ebp,5
  0000000000001583: C4 C1 51 EB E8     vpor        xmm5,xmm5,xmm8
  0000000000001588: C4 C1 39 72 D1 1E  vpsrld      xmm8,xmm9,1Eh
  000000000000158E: 01 F2              add         edx,esi
  0000000000001590: C4 42 19 DC E6     vaesenc     xmm12,xmm12,xmm14
  0000000000001595: C4 41 78 10 7F F0  vmovups     xmm15,xmmword ptr [r15-10h]
  000000000000159B: 21 C7              and         edi,eax
  000000000000159D: 31 D8              xor         eax,ebx
  000000000000159F: 01 EA              add         edx,ebp
  00000000000015A1: C4 C1 31 72 F1 02  vpslld      xmm9,xmm9,2
  00000000000015A7: C4 C1 51 EF E8     vpxor       xmm5,xmm5,xmm8
  00000000000015AC: 0F AC ED 07        shrd        ebp,ebp,7
  00000000000015B0: 31 DF              xor         edi,ebx
  00000000000015B2: 89 D6              mov         esi,edx
  00000000000015B4: 03 4C 24 1C        add         ecx,dword ptr [rsp+1Ch]
  00000000000015B8: C4 C1 51 EF E9     vpxor       xmm5,xmm5,xmm9
  00000000000015BD: 31 C5              xor         ebp,eax
  00000000000015BF: 0F A4 D2 05        shld        edx,edx,5
  00000000000015C3: C4 41 79 6F 53 10  vmovdqa     xmm10,xmmword ptr [r11+10h]
  00000000000015C9: 01 F9              add         ecx,edi
  00000000000015CB: 21 EE              and         esi,ebp
  00000000000015CD: 31 C5              xor         ebp,eax
  00000000000015CF: 01 D1              add         ecx,edx
  00000000000015D1: 0F AC D2 07        shrd        edx,edx,7
  00000000000015D5: 31 C6              xor         esi,eax
  00000000000015D7: C4 E3 61 0F F2 08  vpalignr    xmm6,xmm3,xmm2,8
  00000000000015DD: 89 CF              mov         edi,ecx
  00000000000015DF: 03 5C 24 20        add         ebx,dword ptr [rsp+20h]
  00000000000015E3: C4 42 19 DC E7     vaesenc     xmm12,xmm12,xmm15
  00000000000015E8: C4 41 78 10 37     vmovups     xmm14,xmmword ptr [r15]
  00000000000015ED: C5 29 FE CD        vpaddd      xmm9,xmm10,xmm5
  00000000000015F1: 31 EA              xor         edx,ebp
  00000000000015F3: 0F A4 C9 05        shld        ecx,ecx,5
  00000000000015F7: C5 B9 73 DD 04     vpsrldq     xmm8,xmm5,4
  00000000000015FC: 01 F3              add         ebx,esi
  00000000000015FE: 21 D7              and         edi,edx
  0000000000001600: C5 C9 EF F2        vpxor       xmm6,xmm6,xmm2
  0000000000001604: 31 EA              xor         edx,ebp
  0000000000001606: 01 CB              add         ebx,ecx
  0000000000001608: C5 39 EF C4        vpxor       xmm8,xmm8,xmm4
  000000000000160C: 0F AC C9 07        shrd        ecx,ecx,7
  0000000000001610: 31 EF              xor         edi,ebp
  0000000000001612: 89 DE              mov         esi,ebx
  0000000000001614: 03 44 24 24        add         eax,dword ptr [rsp+24h]
  0000000000001618: C4 C1 49 EF F0     vpxor       xmm6,xmm6,xmm8
  000000000000161D: 31 D1              xor         ecx,edx
  000000000000161F: 0F A4 DB 05        shld        ebx,ebx,5
  0000000000001623: C5 79 7F 4C 24 10  vmovdqa     xmmword ptr [rsp+10h],xmm9
  0000000000001629: 01 F8              add         eax,edi
  000000000000162B: 21 CE              and         esi,ecx
  000000000000162D: C5 B9 72 D6 1F     vpsrld      xmm8,xmm6,1Fh
  0000000000001632: 31 D1              xor         ecx,edx
  0000000000001634: 01 D8              add         eax,ebx
  0000000000001636: 0F AC DB 07        shrd        ebx,ebx,7
  000000000000163A: C4 42 19 DC E6     vaesenc     xmm12,xmm12,xmm14
  000000000000163F: C4 41 78 10 7F 10  vmovups     xmm15,xmmword ptr [r15+10h]
  0000000000001645: 31 D6              xor         esi,edx
  0000000000001647: C5 B1 73 FE 0C     vpslldq     xmm9,xmm6,0Ch
  000000000000164C: C5 C9 FE F6        vpaddd      xmm6,xmm6,xmm6
  0000000000001650: 89 C7              mov         edi,eax
  0000000000001652: 03 6C 24 28        add         ebp,dword ptr [rsp+28h]
  0000000000001656: 31 CB              xor         ebx,ecx
  0000000000001658: 0F A4 C0 05        shld        eax,eax,5
  000000000000165C: C4 C1 49 EB F0     vpor        xmm6,xmm6,xmm8
  0000000000001661: C4 C1 39 72 D1 1E  vpsrld      xmm8,xmm9,1Eh
  0000000000001667: 01 F5              add         ebp,esi
  0000000000001669: 21 DF              and         edi,ebx
  000000000000166B: 31 CB              xor         ebx,ecx
  000000000000166D: 01 C5              add         ebp,eax
  000000000000166F: C4 C1 31 72 F1 02  vpslld      xmm9,xmm9,2
  0000000000001675: C4 C1 49 EF F0     vpxor       xmm6,xmm6,xmm8
  000000000000167A: 0F AC C0 07        shrd        eax,eax,7
  000000000000167E: 31 CF              xor         edi,ecx
  0000000000001680: 89 EE              mov         esi,ebp
  0000000000001682: 03 54 24 2C        add         edx,dword ptr [rsp+2Ch]
  0000000000001686: C4 C1 49 EF F1     vpxor       xmm6,xmm6,xmm9
  000000000000168B: 31 D8              xor         eax,ebx
  000000000000168D: 0F A4 ED 05        shld        ebp,ebp,5
  0000000000001691: 01 FA              add         edx,edi
  0000000000001693: C4 42 19 DC E7     vaesenc     xmm12,xmm12,xmm15
  0000000000001698: C4 41 78 10 77 20  vmovups     xmm14,xmmword ptr [r15+20h]
  000000000000169E: 21 C6              and         esi,eax
  00000000000016A0: 31 D8              xor         eax,ebx
  00000000000016A2: 01 EA              add         edx,ebp
  00000000000016A4: 0F AC ED 07        shrd        ebp,ebp,7
  00000000000016A8: 31 DE              xor         esi,ebx
  00000000000016AA: C4 E3 59 0F FB 08  vpalignr    xmm7,xmm4,xmm3,8
  00000000000016B0: 89 D7              mov         edi,edx
  00000000000016B2: 03 4C 24 30        add         ecx,dword ptr [rsp+30h]
  00000000000016B6: C5 29 FE CE        vpaddd      xmm9,xmm10,xmm6
  00000000000016BA: 31 C5              xor         ebp,eax
  00000000000016BC: 0F A4 D2 05        shld        edx,edx,5
  00000000000016C0: C5 B9 73 DE 04     vpsrldq     xmm8,xmm6,4
  00000000000016C5: 01 F1              add         ecx,esi
  00000000000016C7: 21 EF              and         edi,ebp
  00000000000016C9: C5 C1 EF FB        vpxor       xmm7,xmm7,xmm3
  00000000000016CD: 31 C5              xor         ebp,eax
  00000000000016CF: 01 D1              add         ecx,edx
  00000000000016D1: C5 39 EF C5        vpxor       xmm8,xmm8,xmm5
  00000000000016D5: 0F AC D2 07        shrd        edx,edx,7
  00000000000016D9: 31 C7              xor         edi,eax
  00000000000016DB: 89 CE              mov         esi,ecx
  00000000000016DD: 03 5C 24 34        add         ebx,dword ptr [rsp+34h]
  00000000000016E1: C4 42 19 DC E6     vaesenc     xmm12,xmm12,xmm14
  00000000000016E6: C4 41 78 10 7F 30  vmovups     xmm15,xmmword ptr [r15+30h]
  00000000000016EC: C4 C1 41 EF F8     vpxor       xmm7,xmm7,xmm8
  00000000000016F1: 31 EA              xor         edx,ebp
  00000000000016F3: 0F A4 C9 05        shld        ecx,ecx,5
  00000000000016F7: C5 79 7F 4C 24 20  vmovdqa     xmmword ptr [rsp+20h],xmm9
  00000000000016FD: 01 FB              add         ebx,edi
  00000000000016FF: 21 D6              and         esi,edx
  0000000000001701: C5 B9 72 D7 1F     vpsrld      xmm8,xmm7,1Fh
  0000000000001706: 31 EA              xor         edx,ebp
  0000000000001708: 01 CB              add         ebx,ecx
  000000000000170A: 0F AC C9 07        shrd        ecx,ecx,7
  000000000000170E: 31 EE              xor         esi,ebp
  0000000000001710: C5 B1 73 FF 0C     vpslldq     xmm9,xmm7,0Ch
  0000000000001715: C5 C1 FE FF        vpaddd      xmm7,xmm7,xmm7
  0000000000001719: 89 DF              mov         edi,ebx
  000000000000171B: 03 44 24 38        add         eax,dword ptr [rsp+38h]
  000000000000171F: 31 D1              xor         ecx,edx
  0000000000001721: 0F A4 DB 05        shld        ebx,ebx,5
  0000000000001725: C4 C1 41 EB F8     vpor        xmm7,xmm7,xmm8
  000000000000172A: C4 C1 39 72 D1 1E  vpsrld      xmm8,xmm9,1Eh
  0000000000001730: 01 F0              add         eax,esi
  0000000000001732: 21 CF              and         edi,ecx
  0000000000001734: 31 D1              xor         ecx,edx
  0000000000001736: 01 D8              add         eax,ebx
  0000000000001738: C4 C1 31 72 F1 02  vpslld      xmm9,xmm9,2
  000000000000173E: C4 C1 41 EF F8     vpxor       xmm7,xmm7,xmm8
  0000000000001743: 0F AC DB 07        shrd        ebx,ebx,7
  0000000000001747: 41 83 F8 0B        cmp         r8d,0Bh
  000000000000174B: 0F 82 32 00 00 00  jb          L$vaesenclast6
  0000000000001751: C4 42 19 DC E7     vaesenc     xmm12,xmm12,xmm15
  0000000000001756: C4 41 78 10 77 40  vmovups     xmm14,xmmword ptr [r15+40h]
  000000000000175C: C4 42 19 DC E6     vaesenc     xmm12,xmm12,xmm14
  0000000000001761: C4 41 78 10 7F 50  vmovups     xmm15,xmmword ptr [r15+50h]
  0000000000001767: 0F 84 16 00 00 00  je          L$vaesenclast6
  000000000000176D: C4 42 19 DC E7     vaesenc     xmm12,xmm12,xmm15
  0000000000001772: C4 41 78 10 77 60  vmovups     xmm14,xmmword ptr [r15+60h]
  0000000000001778: C4 42 19 DC E6     vaesenc     xmm12,xmm12,xmm14
  000000000000177D: C4 41 78 10 7F 70  vmovups     xmm15,xmmword ptr [r15+70h]
L$vaesenclast6:
  0000000000001783: C4 42 19 DD E7     vaesenclast xmm12,xmm12,xmm15
  0000000000001788: C4 41 78 10 7F 90  vmovups     xmm15,xmmword ptr [r15-70h]
  000000000000178E: C4 41 78 10 77 A0  vmovups     xmm14,xmmword ptr [r15-60h]
  0000000000001794: 31 D7              xor         edi,edx
  0000000000001796: 89 C6              mov         esi,eax
  0000000000001798: 03 6C 24 3C        add         ebp,dword ptr [rsp+3Ch]
  000000000000179C: C4 C1 41 EF F9     vpxor       xmm7,xmm7,xmm9
  00000000000017A1: 31 CB              xor         ebx,ecx
  00000000000017A3: 0F A4 C0 05        shld        eax,eax,5
  00000000000017A7: 01 FD              add         ebp,edi
  00000000000017A9: 21 DE              and         esi,ebx
  00000000000017AB: 31 CB              xor         ebx,ecx
  00000000000017AD: 01 C5              add         ebp,eax
  00000000000017AF: C4 63 41 0F C6 08  vpalignr    xmm8,xmm7,xmm6,8
  00000000000017B5: C5 F9 EF C4        vpxor       xmm0,xmm0,xmm4
  00000000000017B9: 0F AC C0 07        shrd        eax,eax,7
  00000000000017BD: 31 CE              xor         esi,ecx
  00000000000017BF: 89 EF              mov         edi,ebp
  00000000000017C1: 03 14 24           add         edx,dword ptr [rsp]
  00000000000017C4: C5 F9 EF C1        vpxor       xmm0,xmm0,xmm1
  00000000000017C8: 31 D8              xor         eax,ebx
  00000000000017CA: 0F A4 ED 05        shld        ebp,ebp,5
  00000000000017CE: C5 29 FE CF        vpaddd      xmm9,xmm10,xmm7
  00000000000017D2: 01 F2              add         edx,esi
  00000000000017D4: C4 41 7A 6F 6C 24  vmovdqu     xmm13,xmmword ptr [r12+10h]
                    10
  00000000000017DB: C4 41 11 EF EF     vpxor       xmm13,xmm13,xmm15
  00000000000017E0: C4 01 78 11 24 2C  vmovups     xmmword ptr [r12+r13],xmm12
  00000000000017E6: C4 41 19 EF E5     vpxor       xmm12,xmm12,xmm13
  00000000000017EB: C4 42 19 DC E6     vaesenc     xmm12,xmm12,xmm14
  00000000000017F0: C4 41 78 10 7F B0  vmovups     xmm15,xmmword ptr [r15-50h]
  00000000000017F6: 21 C7              and         edi,eax
  00000000000017F8: C4 C1 79 EF C0     vpxor       xmm0,xmm0,xmm8
  00000000000017FD: 31 D8              xor         eax,ebx
  00000000000017FF: 01 EA              add         edx,ebp
  0000000000001801: 0F AC ED 07        shrd        ebp,ebp,7
  0000000000001805: 31 DF              xor         edi,ebx
  0000000000001807: C5 B9 72 D0 1E     vpsrld      xmm8,xmm0,1Eh
  000000000000180C: C5 79 7F 4C 24 30  vmovdqa     xmmword ptr [rsp+30h],xmm9
  0000000000001812: 89 D6              mov         esi,edx
  0000000000001814: 03 4C 24 04        add         ecx,dword ptr [rsp+4]
  0000000000001818: 31 C5              xor         ebp,eax
  000000000000181A: 0F A4 D2 05        shld        edx,edx,5
  000000000000181E: C5 F9 72 F0 02     vpslld      xmm0,xmm0,2
  0000000000001823: 01 F9              add         ecx,edi
  0000000000001825: 21 EE              and         esi,ebp
  0000000000001827: 31 C5              xor         ebp,eax
  0000000000001829: 01 D1              add         ecx,edx
  000000000000182B: 0F AC D2 07        shrd        edx,edx,7
  000000000000182F: 31 C6              xor         esi,eax
  0000000000001831: 89 CF              mov         edi,ecx
  0000000000001833: 03 5C 24 08        add         ebx,dword ptr [rsp+8]
  0000000000001837: C4 42 19 DC E7     vaesenc     xmm12,xmm12,xmm15
  000000000000183C: C4 41 78 10 77 C0  vmovups     xmm14,xmmword ptr [r15-40h]
  0000000000001842: C4 C1 79 EB C0     vpor        xmm0,xmm0,xmm8
  0000000000001847: 31 EA              xor         edx,ebp
  0000000000001849: 0F A4 C9 05        shld        ecx,ecx,5
  000000000000184D: 01 F3              add         ebx,esi
  000000000000184F: 21 D7              and         edi,edx
  0000000000001851: 31 EA              xor         edx,ebp
  0000000000001853: 01 CB              add         ebx,ecx
  0000000000001855: 03 44 24 0C        add         eax,dword ptr [rsp+0Ch]
  0000000000001859: 31 EF              xor         edi,ebp
  000000000000185B: 89 DE              mov         esi,ebx
  000000000000185D: 0F A4 DB 05        shld        ebx,ebx,5
  0000000000001861: 01 F8              add         eax,edi
  0000000000001863: 31 D6              xor         esi,edx
  0000000000001865: 0F AC C9 07        shrd        ecx,ecx,7
  0000000000001869: 01 D8              add         eax,ebx
  000000000000186B: C4 63 79 0F C7 08  vpalignr    xmm8,xmm0,xmm7,8
  0000000000001871: C5 F1 EF CD        vpxor       xmm1,xmm1,xmm5
  0000000000001875: 03 6C 24 10        add         ebp,dword ptr [rsp+10h]
  0000000000001879: C4 42 19 DC E6     vaesenc     xmm12,xmm12,xmm14
  000000000000187E: C4 41 78 10 7F D0  vmovups     xmm15,xmmword ptr [r15-30h]
  0000000000001884: 31 CE              xor         esi,ecx
  0000000000001886: 89 C7              mov         edi,eax
  0000000000001888: 0F A4 C0 05        shld        eax,eax,5
  000000000000188C: C5 F1 EF CA        vpxor       xmm1,xmm1,xmm2
  0000000000001890: 01 F5              add         ebp,esi
  0000000000001892: 31 CF              xor         edi,ecx
  0000000000001894: C5 29 FE C8        vpaddd      xmm9,xmm10,xmm0
  0000000000001898: 0F AC DB 07        shrd        ebx,ebx,7
  000000000000189C: 01 C5              add         ebp,eax
  000000000000189E: C4 C1 71 EF C8     vpxor       xmm1,xmm1,xmm8
  00000000000018A3: 03 54 24 14        add         edx,dword ptr [rsp+14h]
  00000000000018A7: 31 DF              xor         edi,ebx
  00000000000018A9: 89 EE              mov         esi,ebp
  00000000000018AB: 0F A4 ED 05        shld        ebp,ebp,5
  00000000000018AF: C5 B9 72 D1 1E     vpsrld      xmm8,xmm1,1Eh
  00000000000018B4: C5 79 7F 0C 24     vmovdqa     xmmword ptr [rsp],xmm9
  00000000000018B9: 01 FA              add         edx,edi
  00000000000018BB: 31 DE              xor         esi,ebx
  00000000000018BD: 0F AC C0 07        shrd        eax,eax,7
  00000000000018C1: 01 EA              add         edx,ebp
  00000000000018C3: C5 F1 72 F1 02     vpslld      xmm1,xmm1,2
  00000000000018C8: 03 4C 24 18        add         ecx,dword ptr [rsp+18h]
  00000000000018CC: 31 C6              xor         esi,eax
  00000000000018CE: 89 D7              mov         edi,edx
  00000000000018D0: 0F A4 D2 05        shld        edx,edx,5
  00000000000018D4: 01 F1              add         ecx,esi
  00000000000018D6: C4 42 19 DC E7     vaesenc     xmm12,xmm12,xmm15
  00000000000018DB: C4 41 78 10 77 E0  vmovups     xmm14,xmmword ptr [r15-20h]
  00000000000018E1: 31 C7              xor         edi,eax
  00000000000018E3: 0F AC ED 07        shrd        ebp,ebp,7
  00000000000018E7: 01 D1              add         ecx,edx
  00000000000018E9: C4 C1 71 EB C8     vpor        xmm1,xmm1,xmm8
  00000000000018EE: 03 5C 24 1C        add         ebx,dword ptr [rsp+1Ch]
  00000000000018F2: 31 EF              xor         edi,ebp
  00000000000018F4: 89 CE              mov         esi,ecx
  00000000000018F6: 0F A4 C9 05        shld        ecx,ecx,5
  00000000000018FA: 01 FB              add         ebx,edi
  00000000000018FC: 31 EE              xor         esi,ebp
  00000000000018FE: 0F AC D2 07        shrd        edx,edx,7
  0000000000001902: 01 CB              add         ebx,ecx
  0000000000001904: C4 63 71 0F C0 08  vpalignr    xmm8,xmm1,xmm0,8
  000000000000190A: C5 E9 EF D6        vpxor       xmm2,xmm2,xmm6
  000000000000190E: 03 44 24 20        add         eax,dword ptr [rsp+20h]
  0000000000001912: 31 D6              xor         esi,edx
  0000000000001914: 89 DF              mov         edi,ebx
  0000000000001916: 0F A4 DB 05        shld        ebx,ebx,5
  000000000000191A: C5 E9 EF D3        vpxor       xmm2,xmm2,xmm3
  000000000000191E: 01 F0              add         eax,esi
  0000000000001920: 31 D7              xor         edi,edx
  0000000000001922: C5 29 FE C9        vpaddd      xmm9,xmm10,xmm1
  0000000000001926: C4 41 79 6F 53 20  vmovdqa     xmm10,xmmword ptr [r11+20h]
  000000000000192C: 0F AC C9 07        shrd        ecx,ecx,7
  0000000000001930: 01 D8              add         eax,ebx
  0000000000001932: C4 C1 69 EF D0     vpxor       xmm2,xmm2,xmm8
  0000000000001937: 03 6C 24 24        add         ebp,dword ptr [rsp+24h]
  000000000000193B: C4 42 19 DC E6     vaesenc     xmm12,xmm12,xmm14
  0000000000001940: C4 41 78 10 7F F0  vmovups     xmm15,xmmword ptr [r15-10h]
  0000000000001946: 31 CF              xor         edi,ecx
  0000000000001948: 89 C6              mov         esi,eax
  000000000000194A: 0F A4 C0 05        shld        eax,eax,5
  000000000000194E: C5 B9 72 D2 1E     vpsrld      xmm8,xmm2,1Eh
  0000000000001953: C5 79 7F 4C 24 10  vmovdqa     xmmword ptr [rsp+10h],xmm9
  0000000000001959: 01 FD              add         ebp,edi
  000000000000195B: 31 CE              xor         esi,ecx
  000000000000195D: 0F AC DB 07        shrd        ebx,ebx,7
  0000000000001961: 01 C5              add         ebp,eax
  0000000000001963: C5 E9 72 F2 02     vpslld      xmm2,xmm2,2
  0000000000001968: 03 54 24 28        add         edx,dword ptr [rsp+28h]
  000000000000196C: 31 DE              xor         esi,ebx
  000000000000196E: 89 EF              mov         edi,ebp
  0000000000001970: 0F A4 ED 05        shld        ebp,ebp,5
  0000000000001974: 01 F2              add         edx,esi
  0000000000001976: 31 DF              xor         edi,ebx
  0000000000001978: 0F AC C0 07        shrd        eax,eax,7
  000000000000197C: 01 EA              add         edx,ebp
  000000000000197E: C4 C1 69 EB D0     vpor        xmm2,xmm2,xmm8
  0000000000001983: 03 4C 24 2C        add         ecx,dword ptr [rsp+2Ch]
  0000000000001987: 31 C7              xor         edi,eax
  0000000000001989: 89 D6              mov         esi,edx
  000000000000198B: 0F A4 D2 05        shld        edx,edx,5
  000000000000198F: 01 F9              add         ecx,edi
  0000000000001991: C4 42 19 DC E7     vaesenc     xmm12,xmm12,xmm15
  0000000000001996: C4 41 78 10 37     vmovups     xmm14,xmmword ptr [r15]
  000000000000199B: 31 C6              xor         esi,eax
  000000000000199D: 0F AC ED 07        shrd        ebp,ebp,7
  00000000000019A1: 01 D1              add         ecx,edx
  00000000000019A3: C4 63 69 0F C1 08  vpalignr    xmm8,xmm2,xmm1,8
  00000000000019A9: C5 E1 EF DF        vpxor       xmm3,xmm3,xmm7
  00000000000019AD: 03 5C 24 30        add         ebx,dword ptr [rsp+30h]
  00000000000019B1: 31 EE              xor         esi,ebp
  00000000000019B3: 89 CF              mov         edi,ecx
  00000000000019B5: 0F A4 C9 05        shld        ecx,ecx,5
  00000000000019B9: C5 E1 EF DC        vpxor       xmm3,xmm3,xmm4
  00000000000019BD: 01 F3              add         ebx,esi
  00000000000019BF: 31 EF              xor         edi,ebp
  00000000000019C1: C5 29 FE CA        vpaddd      xmm9,xmm10,xmm2
  00000000000019C5: 0F AC D2 07        shrd        edx,edx,7
  00000000000019C9: 01 CB              add         ebx,ecx
  00000000000019CB: C4 C1 61 EF D8     vpxor       xmm3,xmm3,xmm8
  00000000000019D0: 03 44 24 34        add         eax,dword ptr [rsp+34h]
  00000000000019D4: 31 D7              xor         edi,edx
  00000000000019D6: 89 DE              mov         esi,ebx
  00000000000019D8: 0F A4 DB 05        shld        ebx,ebx,5
  00000000000019DC: C5 B9 72 D3 1E     vpsrld      xmm8,xmm3,1Eh
  00000000000019E1: C5 79 7F 4C 24 20  vmovdqa     xmmword ptr [rsp+20h],xmm9
  00000000000019E7: 01 F8              add         eax,edi
  00000000000019E9: 31 D6              xor         esi,edx
  00000000000019EB: 0F AC C9 07        shrd        ecx,ecx,7
  00000000000019EF: 01 D8              add         eax,ebx
  00000000000019F1: C5 E1 72 F3 02     vpslld      xmm3,xmm3,2
  00000000000019F6: 03 6C 24 38        add         ebp,dword ptr [rsp+38h]
  00000000000019FA: C4 42 19 DC E6     vaesenc     xmm12,xmm12,xmm14
  00000000000019FF: C4 41 78 10 7F 10  vmovups     xmm15,xmmword ptr [r15+10h]
  0000000000001A05: 31 CE              xor         esi,ecx
  0000000000001A07: 89 C7              mov         edi,eax
  0000000000001A09: 0F A4 C0 05        shld        eax,eax,5
  0000000000001A0D: 01 F5              add         ebp,esi
  0000000000001A0F: 31 CF              xor         edi,ecx
  0000000000001A11: 0F AC DB 07        shrd        ebx,ebx,7
  0000000000001A15: 01 C5              add         ebp,eax
  0000000000001A17: C4 C1 61 EB D8     vpor        xmm3,xmm3,xmm8
  0000000000001A1C: 03 54 24 3C        add         edx,dword ptr [rsp+3Ch]
  0000000000001A20: 31 DF              xor         edi,ebx
  0000000000001A22: 89 EE              mov         esi,ebp
  0000000000001A24: 0F A4 ED 05        shld        ebp,ebp,5
  0000000000001A28: 01 FA              add         edx,edi
  0000000000001A2A: 31 DE              xor         esi,ebx
  0000000000001A2C: 0F AC C0 07        shrd        eax,eax,7
  0000000000001A30: 01 EA              add         edx,ebp
  0000000000001A32: C4 63 61 0F C2 08  vpalignr    xmm8,xmm3,xmm2,8
  0000000000001A38: C5 D9 EF E0        vpxor       xmm4,xmm4,xmm0
  0000000000001A3C: 03 0C 24           add         ecx,dword ptr [rsp]
  0000000000001A3F: 31 C6              xor         esi,eax
  0000000000001A41: 89 D7              mov         edi,edx
  0000000000001A43: 0F A4 D2 05        shld        edx,edx,5
  0000000000001A47: C5 D9 EF E5        vpxor       xmm4,xmm4,xmm5
  0000000000001A4B: 01 F1              add         ecx,esi
  0000000000001A4D: C4 42 19 DC E7     vaesenc     xmm12,xmm12,xmm15
  0000000000001A52: C4 41 78 10 77 20  vmovups     xmm14,xmmword ptr [r15+20h]
  0000000000001A58: 31 C7              xor         edi,eax
  0000000000001A5A: C5 29 FE CB        vpaddd      xmm9,xmm10,xmm3
  0000000000001A5E: 0F AC ED 07        shrd        ebp,ebp,7
  0000000000001A62: 01 D1              add         ecx,edx
  0000000000001A64: C4 C1 59 EF E0     vpxor       xmm4,xmm4,xmm8
  0000000000001A69: 03 5C 24 04        add         ebx,dword ptr [rsp+4]
  0000000000001A6D: 31 EF              xor         edi,ebp
  0000000000001A6F: 89 CE              mov         esi,ecx
  0000000000001A71: 0F A4 C9 05        shld        ecx,ecx,5
  0000000000001A75: C5 B9 72 D4 1E     vpsrld      xmm8,xmm4,1Eh
  0000000000001A7A: C5 79 7F 4C 24 30  vmovdqa     xmmword ptr [rsp+30h],xmm9
  0000000000001A80: 01 FB              add         ebx,edi
  0000000000001A82: 31 EE              xor         esi,ebp
  0000000000001A84: 0F AC D2 07        shrd        edx,edx,7
  0000000000001A88: 01 CB              add         ebx,ecx
  0000000000001A8A: C5 D9 72 F4 02     vpslld      xmm4,xmm4,2
  0000000000001A8F: 03 44 24 08        add         eax,dword ptr [rsp+8]
  0000000000001A93: 31 D6              xor         esi,edx
  0000000000001A95: 89 DF              mov         edi,ebx
  0000000000001A97: 0F A4 DB 05        shld        ebx,ebx,5
  0000000000001A9B: 01 F0              add         eax,esi
  0000000000001A9D: 31 D7              xor         edi,edx
  0000000000001A9F: 0F AC C9 07        shrd        ecx,ecx,7
  0000000000001AA3: 01 D8              add         eax,ebx
  0000000000001AA5: C4 C1 59 EB E0     vpor        xmm4,xmm4,xmm8
  0000000000001AAA: 03 6C 24 0C        add         ebp,dword ptr [rsp+0Ch]
  0000000000001AAE: C4 42 19 DC E6     vaesenc     xmm12,xmm12,xmm14
  0000000000001AB3: C4 41 78 10 7F 30  vmovups     xmm15,xmmword ptr [r15+30h]
  0000000000001AB9: 31 CF              xor         edi,ecx
  0000000000001ABB: 89 C6              mov         esi,eax
  0000000000001ABD: 0F A4 C0 05        shld        eax,eax,5
  0000000000001AC1: 01 FD              add         ebp,edi
  0000000000001AC3: 31 CE              xor         esi,ecx
  0000000000001AC5: 0F AC DB 07        shrd        ebx,ebx,7
  0000000000001AC9: 01 C5              add         ebp,eax
  0000000000001ACB: C4 63 59 0F C3 08  vpalignr    xmm8,xmm4,xmm3,8
  0000000000001AD1: C5 D1 EF E9        vpxor       xmm5,xmm5,xmm1
  0000000000001AD5: 03 54 24 10        add         edx,dword ptr [rsp+10h]
  0000000000001AD9: 31 DE              xor         esi,ebx
  0000000000001ADB: 89 EF              mov         edi,ebp
  0000000000001ADD: 0F A4 ED 05        shld        ebp,ebp,5
  0000000000001AE1: C5 D1 EF EE        vpxor       xmm5,xmm5,xmm6
  0000000000001AE5: 01 F2              add         edx,esi
  0000000000001AE7: 31 DF              xor         edi,ebx
  0000000000001AE9: C5 29 FE CC        vpaddd      xmm9,xmm10,xmm4
  0000000000001AED: 0F AC C0 07        shrd        eax,eax,7
  0000000000001AF1: 01 EA              add         edx,ebp
  0000000000001AF3: C4 C1 51 EF E8     vpxor       xmm5,xmm5,xmm8
  0000000000001AF8: 03 4C 24 14        add         ecx,dword ptr [rsp+14h]
  0000000000001AFC: 31 C7              xor         edi,eax
  0000000000001AFE: 89 D6              mov         esi,edx
  0000000000001B00: 0F A4 D2 05        shld        edx,edx,5
  0000000000001B04: C5 B9 72 D5 1E     vpsrld      xmm8,xmm5,1Eh
  0000000000001B09: C5 79 7F 0C 24     vmovdqa     xmmword ptr [rsp],xmm9
  0000000000001B0E: 01 F9              add         ecx,edi
  0000000000001B10: 41 83 F8 0B        cmp         r8d,0Bh
  0000000000001B14: 0F 82 32 00 00 00  jb          L$vaesenclast7
  0000000000001B1A: C4 42 19 DC E7     vaesenc     xmm12,xmm12,xmm15
  0000000000001B1F: C4 41 78 10 77 40  vmovups     xmm14,xmmword ptr [r15+40h]
  0000000000001B25: C4 42 19 DC E6     vaesenc     xmm12,xmm12,xmm14
  0000000000001B2A: C4 41 78 10 7F 50  vmovups     xmm15,xmmword ptr [r15+50h]
  0000000000001B30: 0F 84 16 00 00 00  je          L$vaesenclast7
  0000000000001B36: C4 42 19 DC E7     vaesenc     xmm12,xmm12,xmm15
  0000000000001B3B: C4 41 78 10 77 60  vmovups     xmm14,xmmword ptr [r15+60h]
  0000000000001B41: C4 42 19 DC E6     vaesenc     xmm12,xmm12,xmm14
  0000000000001B46: C4 41 78 10 7F 70  vmovups     xmm15,xmmword ptr [r15+70h]
L$vaesenclast7:
  0000000000001B4C: C4 42 19 DD E7     vaesenclast xmm12,xmm12,xmm15
  0000000000001B51: C4 41 78 10 7F 90  vmovups     xmm15,xmmword ptr [r15-70h]
  0000000000001B57: C4 41 78 10 77 A0  vmovups     xmm14,xmmword ptr [r15-60h]
  0000000000001B5D: 31 C6              xor         esi,eax
  0000000000001B5F: 0F AC ED 07        shrd        ebp,ebp,7
  0000000000001B63: 01 D1              add         ecx,edx
  0000000000001B65: C5 D1 72 F5 02     vpslld      xmm5,xmm5,2
  0000000000001B6A: 03 5C 24 18        add         ebx,dword ptr [rsp+18h]
  0000000000001B6E: 31 EE              xor         esi,ebp
  0000000000001B70: 89 CF              mov         edi,ecx
  0000000000001B72: 0F A4 C9 05        shld        ecx,ecx,5
  0000000000001B76: 01 F3              add         ebx,esi
  0000000000001B78: 31 EF              xor         edi,ebp
  0000000000001B7A: 0F AC D2 07        shrd        edx,edx,7
  0000000000001B7E: 01 CB              add         ebx,ecx
  0000000000001B80: C4 C1 51 EB E8     vpor        xmm5,xmm5,xmm8
  0000000000001B85: 03 44 24 1C        add         eax,dword ptr [rsp+1Ch]
  0000000000001B89: 0F AC C9 07        shrd        ecx,ecx,7
  0000000000001B8D: 89 DE              mov         esi,ebx
  0000000000001B8F: 31 D7              xor         edi,edx
  0000000000001B91: 0F A4 DB 05        shld        ebx,ebx,5
  0000000000001B95: 01 F8              add         eax,edi
  0000000000001B97: 31 CE              xor         esi,ecx
  0000000000001B99: 31 D1              xor         ecx,edx
  0000000000001B9B: 01 D8              add         eax,ebx
  0000000000001B9D: C4 63 51 0F C4 08  vpalignr    xmm8,xmm5,xmm4,8
  0000000000001BA3: C5 C9 EF F2        vpxor       xmm6,xmm6,xmm2
  0000000000001BA7: 03 6C 24 20        add         ebp,dword ptr [rsp+20h]
  0000000000001BAB: C4 41 7A 6F 6C 24  vmovdqu     xmm13,xmmword ptr [r12+20h]
                    20
  0000000000001BB2: C4 41 11 EF EF     vpxor       xmm13,xmm13,xmm15
  0000000000001BB7: C4 01 78 11 64 25  vmovups     xmmword ptr [r13+r12+10h],xmm12
                    10
  0000000000001BBE: C4 41 19 EF E5     vpxor       xmm12,xmm12,xmm13
  0000000000001BC3: C4 42 19 DC E6     vaesenc     xmm12,xmm12,xmm14
  0000000000001BC8: C4 41 78 10 7F B0  vmovups     xmm15,xmmword ptr [r15-50h]
  0000000000001BCE: 21 CE              and         esi,ecx
  0000000000001BD0: 31 D1              xor         ecx,edx
  0000000000001BD2: 0F AC DB 07        shrd        ebx,ebx,7
  0000000000001BD6: C5 C9 EF F7        vpxor       xmm6,xmm6,xmm7
  0000000000001BDA: 89 C7              mov         edi,eax
  0000000000001BDC: 31 CE              xor         esi,ecx
  0000000000001BDE: C5 29 FE CD        vpaddd      xmm9,xmm10,xmm5
  0000000000001BE2: 0F A4 C0 05        shld        eax,eax,5
  0000000000001BE6: 01 F5              add         ebp,esi
  0000000000001BE8: C4 C1 49 EF F0     vpxor       xmm6,xmm6,xmm8
  0000000000001BED: 31 DF              xor         edi,ebx
  0000000000001BEF: 31 CB              xor         ebx,ecx
  0000000000001BF1: 01 C5              add         ebp,eax
  0000000000001BF3: 03 54 24 24        add         edx,dword ptr [rsp+24h]
  0000000000001BF7: C5 B9 72 D6 1E     vpsrld      xmm8,xmm6,1Eh
  0000000000001BFC: C5 79 7F 4C 24 10  vmovdqa     xmmword ptr [rsp+10h],xmm9
  0000000000001C02: 21 DF              and         edi,ebx
  0000000000001C04: 31 CB              xor         ebx,ecx
  0000000000001C06: 0F AC C0 07        shrd        eax,eax,7
  0000000000001C0A: 89 EE              mov         esi,ebp
  0000000000001C0C: C5 C9 72 F6 02     vpslld      xmm6,xmm6,2
  0000000000001C11: 31 DF              xor         edi,ebx
  0000000000001C13: 0F A4 ED 05        shld        ebp,ebp,5
  0000000000001C17: 01 FA              add         edx,edi
  0000000000001C19: C4 42 19 DC E7     vaesenc     xmm12,xmm12,xmm15
  0000000000001C1E: C4 41 78 10 77 C0  vmovups     xmm14,xmmword ptr [r15-40h]
  0000000000001C24: 31 C6              xor         esi,eax
  0000000000001C26: 31 D8              xor         eax,ebx
  0000000000001C28: 01 EA              add         edx,ebp
  0000000000001C2A: 03 4C 24 28        add         ecx,dword ptr [rsp+28h]
  0000000000001C2E: 21 C6              and         esi,eax
  0000000000001C30: C4 C1 49 EB F0     vpor        xmm6,xmm6,xmm8
  0000000000001C35: 31 D8              xor         eax,ebx
  0000000000001C37: 0F AC ED 07        shrd        ebp,ebp,7
  0000000000001C3B: 89 D7              mov         edi,edx
  0000000000001C3D: 31 C6              xor         esi,eax
  0000000000001C3F: 0F A4 D2 05        shld        edx,edx,5
  0000000000001C43: 01 F1              add         ecx,esi
  0000000000001C45: 31 EF              xor         edi,ebp
  0000000000001C47: 31 C5              xor         ebp,eax
  0000000000001C49: 01 D1              add         ecx,edx
  0000000000001C4B: 03 5C 24 2C        add         ebx,dword ptr [rsp+2Ch]
  0000000000001C4F: 21 EF              and         edi,ebp
  0000000000001C51: 31 C5              xor         ebp,eax
  0000000000001C53: 0F AC D2 07        shrd        edx,edx,7
  0000000000001C57: C4 42 19 DC E6     vaesenc     xmm12,xmm12,xmm14
  0000000000001C5C: C4 41 78 10 7F D0  vmovups     xmm15,xmmword ptr [r15-30h]
  0000000000001C62: 89 CE              mov         esi,ecx
  0000000000001C64: 31 EF              xor         edi,ebp
  0000000000001C66: 0F A4 C9 05        shld        ecx,ecx,5
  0000000000001C6A: 01 FB              add         ebx,edi
  0000000000001C6C: 31 D6              xor         esi,edx
  0000000000001C6E: 31 EA              xor         edx,ebp
  0000000000001C70: 01 CB              add         ebx,ecx
  0000000000001C72: C4 63 49 0F C5 08  vpalignr    xmm8,xmm6,xmm5,8
  0000000000001C78: C5 C1 EF FB        vpxor       xmm7,xmm7,xmm3
  0000000000001C7C: 03 44 24 30        add         eax,dword ptr [rsp+30h]
  0000000000001C80: 21 D6              and         esi,edx
  0000000000001C82: 31 EA              xor         edx,ebp
  0000000000001C84: 0F AC C9 07        shrd        ecx,ecx,7
  0000000000001C88: C5 C1 EF F8        vpxor       xmm7,xmm7,xmm0
  0000000000001C8C: 89 DF              mov         edi,ebx
  0000000000001C8E: 31 D6              xor         esi,edx
  0000000000001C90: C5 29 FE CE        vpaddd      xmm9,xmm10,xmm6
  0000000000001C94: C4 41 79 6F 53 30  vmovdqa     xmm10,xmmword ptr [r11+30h]
  0000000000001C9A: 0F A4 DB 05        shld        ebx,ebx,5
  0000000000001C9E: 01 F0              add         eax,esi
  0000000000001CA0: C4 C1 41 EF F8     vpxor       xmm7,xmm7,xmm8
  0000000000001CA5: 31 CF              xor         edi,ecx
  0000000000001CA7: 31 D1              xor         ecx,edx
  0000000000001CA9: 01 D8              add         eax,ebx
  0000000000001CAB: 03 6C 24 34        add         ebp,dword ptr [rsp+34h]
  0000000000001CAF: C4 42 19 DC E7     vaesenc     xmm12,xmm12,xmm15
  0000000000001CB4: C4 41 78 10 77 E0  vmovups     xmm14,xmmword ptr [r15-20h]
  0000000000001CBA: C5 B9 72 D7 1E     vpsrld      xmm8,xmm7,1Eh
  0000000000001CBF: C5 79 7F 4C 24 20  vmovdqa     xmmword ptr [rsp+20h],xmm9
  0000000000001CC5: 21 CF              and         edi,ecx
  0000000000001CC7: 31 D1              xor         ecx,edx
  0000000000001CC9: 0F AC DB 07        shrd        ebx,ebx,7
  0000000000001CCD: 89 C6              mov         esi,eax
  0000000000001CCF: C5 C1 72 F7 02     vpslld      xmm7,xmm7,2
  0000000000001CD4: 31 CF              xor         edi,ecx
  0000000000001CD6: 0F A4 C0 05        shld        eax,eax,5
  0000000000001CDA: 01 FD              add         ebp,edi
  0000000000001CDC: 31 DE              xor         esi,ebx
  0000000000001CDE: 31 CB              xor         ebx,ecx
  0000000000001CE0: 01 C5              add         ebp,eax
  0000000000001CE2: 03 54 24 38        add         edx,dword ptr [rsp+38h]
  0000000000001CE6: 21 DE              and         esi,ebx
  0000000000001CE8: C4 C1 41 EB F8     vpor        xmm7,xmm7,xmm8
  0000000000001CED: 31 CB              xor         ebx,ecx
  0000000000001CEF: 0F AC C0 07        shrd        eax,eax,7
  0000000000001CF3: 89 EF              mov         edi,ebp
  0000000000001CF5: 31 DE              xor         esi,ebx
  0000000000001CF7: 0F A4 ED 05        shld        ebp,ebp,5
  0000000000001CFB: 01 F2              add         edx,esi
  0000000000001CFD: C4 42 19 DC E6     vaesenc     xmm12,xmm12,xmm14
  0000000000001D02: C4 41 78 10 7F F0  vmovups     xmm15,xmmword ptr [r15-10h]
  0000000000001D08: 31 C7              xor         edi,eax
  0000000000001D0A: 31 D8              xor         eax,ebx
  0000000000001D0C: 01 EA              add         edx,ebp
  0000000000001D0E: 03 4C 24 3C        add         ecx,dword ptr [rsp+3Ch]
  0000000000001D12: 21 C7              and         edi,eax
  0000000000001D14: 31 D8              xor         eax,ebx
  0000000000001D16: 0F AC ED 07        shrd        ebp,ebp,7
  0000000000001D1A: 89 D6              mov         esi,edx
  0000000000001D1C: 31 C7              xor         edi,eax
  0000000000001D1E: 0F A4 D2 05        shld        edx,edx,5
  0000000000001D22: 01 F9              add         ecx,edi
  0000000000001D24: 31 EE              xor         esi,ebp
  0000000000001D26: 31 C5              xor         ebp,eax
  0000000000001D28: 01 D1              add         ecx,edx
  0000000000001D2A: C4 63 41 0F C6 08  vpalignr    xmm8,xmm7,xmm6,8
  0000000000001D30: C5 F9 EF C4        vpxor       xmm0,xmm0,xmm4
  0000000000001D34: 03 1C 24           add         ebx,dword ptr [rsp]
  0000000000001D37: 21 EE              and         esi,ebp
  0000000000001D39: 31 C5              xor         ebp,eax
  0000000000001D3B: 0F AC D2 07        shrd        edx,edx,7
  0000000000001D3F: C4 42 19 DC E7     vaesenc     xmm12,xmm12,xmm15
  0000000000001D44: C4 41 78 10 37     vmovups     xmm14,xmmword ptr [r15]
  0000000000001D49: C5 F9 EF C1        vpxor       xmm0,xmm0,xmm1
  0000000000001D4D: 89 CF              mov         edi,ecx
  0000000000001D4F: 31 EE              xor         esi,ebp
  0000000000001D51: C5 29 FE CF        vpaddd      xmm9,xmm10,xmm7
  0000000000001D55: 0F A4 C9 05        shld        ecx,ecx,5
  0000000000001D59: 01 F3              add         ebx,esi
  0000000000001D5B: C4 C1 79 EF C0     vpxor       xmm0,xmm0,xmm8
  0000000000001D60: 31 D7              xor         edi,edx
  0000000000001D62: 31 EA              xor         edx,ebp
  0000000000001D64: 01 CB              add         ebx,ecx
  0000000000001D66: 03 44 24 04        add         eax,dword ptr [rsp+4]
  0000000000001D6A: C5 B9 72 D0 1E     vpsrld      xmm8,xmm0,1Eh
  0000000000001D6F: C5 79 7F 4C 24 30  vmovdqa     xmmword ptr [rsp+30h],xmm9
  0000000000001D75: 21 D7              and         edi,edx
  0000000000001D77: 31 EA              xor         edx,ebp
  0000000000001D79: 0F AC C9 07        shrd        ecx,ecx,7
  0000000000001D7D: 89 DE              mov         esi,ebx
  0000000000001D7F: C5 F9 72 F0 02     vpslld      xmm0,xmm0,2
  0000000000001D84: 31 D7              xor         edi,edx
  0000000000001D86: 0F A4 DB 05        shld        ebx,ebx,5
  0000000000001D8A: 01 F8              add         eax,edi
  0000000000001D8C: 31 CE              xor         esi,ecx
  0000000000001D8E: 31 D1              xor         ecx,edx
  0000000000001D90: 01 D8              add         eax,ebx
  0000000000001D92: 03 6C 24 08        add         ebp,dword ptr [rsp+8]
  0000000000001D96: C4 42 19 DC E6     vaesenc     xmm12,xmm12,xmm14
  0000000000001D9B: C4 41 78 10 7F 10  vmovups     xmm15,xmmword ptr [r15+10h]
  0000000000001DA1: 21 CE              and         esi,ecx
  0000000000001DA3: C4 C1 79 EB C0     vpor        xmm0,xmm0,xmm8
  0000000000001DA8: 31 D1              xor         ecx,edx
  0000000000001DAA: 0F AC DB 07        shrd        ebx,ebx,7
  0000000000001DAE: 89 C7              mov         edi,eax
  0000000000001DB0: 31 CE              xor         esi,ecx
  0000000000001DB2: 0F A4 C0 05        shld        eax,eax,5
  0000000000001DB6: 01 F5              add         ebp,esi
  0000000000001DB8: 31 DF              xor         edi,ebx
  0000000000001DBA: 31 CB              xor         ebx,ecx
  0000000000001DBC: 01 C5              add         ebp,eax
  0000000000001DBE: 03 54 24 0C        add         edx,dword ptr [rsp+0Ch]
  0000000000001DC2: 21 DF              and         edi,ebx
  0000000000001DC4: 31 CB              xor         ebx,ecx
  0000000000001DC6: 0F AC C0 07        shrd        eax,eax,7
  0000000000001DCA: 89 EE              mov         esi,ebp
  0000000000001DCC: 31 DF              xor         edi,ebx
  0000000000001DCE: 0F A4 ED 05        shld        ebp,ebp,5
  0000000000001DD2: 01 FA              add         edx,edi
  0000000000001DD4: C4 42 19 DC E7     vaesenc     xmm12,xmm12,xmm15
  0000000000001DD9: C4 41 78 10 77 20  vmovups     xmm14,xmmword ptr [r15+20h]
  0000000000001DDF: 31 C6              xor         esi,eax
  0000000000001DE1: 31 D8              xor         eax,ebx
  0000000000001DE3: 01 EA              add         edx,ebp
  0000000000001DE5: C4 63 79 0F C7 08  vpalignr    xmm8,xmm0,xmm7,8
  0000000000001DEB: C5 F1 EF CD        vpxor       xmm1,xmm1,xmm5
  0000000000001DEF: 03 4C 24 10        add         ecx,dword ptr [rsp+10h]
  0000000000001DF3: 21 C6              and         esi,eax
  0000000000001DF5: 31 D8              xor         eax,ebx
  0000000000001DF7: 0F AC ED 07        shrd        ebp,ebp,7
  0000000000001DFB: C5 F1 EF CA        vpxor       xmm1,xmm1,xmm2
  0000000000001DFF: 89 D7              mov         edi,edx
  0000000000001E01: 31 C6              xor         esi,eax
  0000000000001E03: C5 29 FE C8        vpaddd      xmm9,xmm10,xmm0
  0000000000001E07: 0F A4 D2 05        shld        edx,edx,5
  0000000000001E0B: 01 F1              add         ecx,esi
  0000000000001E0D: C4 C1 71 EF C8     vpxor       xmm1,xmm1,xmm8
  0000000000001E12: 31 EF              xor         edi,ebp
  0000000000001E14: 31 C5              xor         ebp,eax
  0000000000001E16: 01 D1              add         ecx,edx
  0000000000001E18: 03 5C 24 14        add         ebx,dword ptr [rsp+14h]
  0000000000001E1C: C5 B9 72 D1 1E     vpsrld      xmm8,xmm1,1Eh
  0000000000001E21: C5 79 7F 0C 24     vmovdqa     xmmword ptr [rsp],xmm9
  0000000000001E26: 21 EF              and         edi,ebp
  0000000000001E28: 31 C5              xor         ebp,eax
  0000000000001E2A: 0F AC D2 07        shrd        edx,edx,7
  0000000000001E2E: C4 42 19 DC E6     vaesenc     xmm12,xmm12,xmm14
  0000000000001E33: C4 41 78 10 7F 30  vmovups     xmm15,xmmword ptr [r15+30h]
  0000000000001E39: 89 CE              mov         esi,ecx
  0000000000001E3B: C5 F1 72 F1 02     vpslld      xmm1,xmm1,2
  0000000000001E40: 31 EF              xor         edi,ebp
  0000000000001E42: 0F A4 C9 05        shld        ecx,ecx,5
  0000000000001E46: 01 FB              add         ebx,edi
  0000000000001E48: 31 D6              xor         esi,edx
  0000000000001E4A: 31 EA              xor         edx,ebp
  0000000000001E4C: 01 CB              add         ebx,ecx
  0000000000001E4E: 03 44 24 18        add         eax,dword ptr [rsp+18h]
  0000000000001E52: 21 D6              and         esi,edx
  0000000000001E54: C4 C1 71 EB C8     vpor        xmm1,xmm1,xmm8
  0000000000001E59: 31 EA              xor         edx,ebp
  0000000000001E5B: 0F AC C9 07        shrd        ecx,ecx,7
  0000000000001E5F: 89 DF              mov         edi,ebx
  0000000000001E61: 31 D6              xor         esi,edx
  0000000000001E63: 0F A4 DB 05        shld        ebx,ebx,5
  0000000000001E67: 01 F0              add         eax,esi
  0000000000001E69: 31 CF              xor         edi,ecx
  0000000000001E6B: 31 D1              xor         ecx,edx
  0000000000001E6D: 01 D8              add         eax,ebx
  0000000000001E6F: 03 6C 24 1C        add         ebp,dword ptr [rsp+1Ch]
  0000000000001E73: 41 83 F8 0B        cmp         r8d,0Bh
  0000000000001E77: 0F 82 32 00 00 00  jb          L$vaesenclast8
  0000000000001E7D: C4 42 19 DC E7     vaesenc     xmm12,xmm12,xmm15
  0000000000001E82: C4 41 78 10 77 40  vmovups     xmm14,xmmword ptr [r15+40h]
  0000000000001E88: C4 42 19 DC E6     vaesenc     xmm12,xmm12,xmm14
  0000000000001E8D: C4 41 78 10 7F 50  vmovups     xmm15,xmmword ptr [r15+50h]
  0000000000001E93: 0F 84 16 00 00 00  je          L$vaesenclast8
  0000000000001E99: C4 42 19 DC E7     vaesenc     xmm12,xmm12,xmm15
  0000000000001E9E: C4 41 78 10 77 60  vmovups     xmm14,xmmword ptr [r15+60h]
  0000000000001EA4: C4 42 19 DC E6     vaesenc     xmm12,xmm12,xmm14
  0000000000001EA9: C4 41 78 10 7F 70  vmovups     xmm15,xmmword ptr [r15+70h]
L$vaesenclast8:
  0000000000001EAF: C4 42 19 DD E7     vaesenclast xmm12,xmm12,xmm15
  0000000000001EB4: C4 41 78 10 7F 90  vmovups     xmm15,xmmword ptr [r15-70h]
  0000000000001EBA: C4 41 78 10 77 A0  vmovups     xmm14,xmmword ptr [r15-60h]
  0000000000001EC0: 21 CF              and         edi,ecx
  0000000000001EC2: 31 D1              xor         ecx,edx
  0000000000001EC4: 0F AC DB 07        shrd        ebx,ebx,7
  0000000000001EC8: 89 C6              mov         esi,eax
  0000000000001ECA: 31 CF              xor         edi,ecx
  0000000000001ECC: 0F A4 C0 05        shld        eax,eax,5
  0000000000001ED0: 01 FD              add         ebp,edi
  0000000000001ED2: 31 DE              xor         esi,ebx
  0000000000001ED4: 31 CB              xor         ebx,ecx
  0000000000001ED6: 01 C5              add         ebp,eax
  0000000000001ED8: C4 63 71 0F C0 08  vpalignr    xmm8,xmm1,xmm0,8
  0000000000001EDE: C5 E9 EF D6        vpxor       xmm2,xmm2,xmm6
  0000000000001EE2: 03 54 24 20        add         edx,dword ptr [rsp+20h]
  0000000000001EE6: 21 DE              and         esi,ebx
  0000000000001EE8: 31 CB              xor         ebx,ecx
  0000000000001EEA: 0F AC C0 07        shrd        eax,eax,7
  0000000000001EEE: C5 E9 EF D3        vpxor       xmm2,xmm2,xmm3
  0000000000001EF2: 89 EF              mov         edi,ebp
  0000000000001EF4: 31 DE              xor         esi,ebx
  0000000000001EF6: C5 29 FE C9        vpaddd      xmm9,xmm10,xmm1
  0000000000001EFA: 0F A4 ED 05        shld        ebp,ebp,5
  0000000000001EFE: 01 F2              add         edx,esi
  0000000000001F00: C4 41 7A 6F 6C 24  vmovdqu     xmm13,xmmword ptr [r12+30h]
                    30
  0000000000001F07: C4 41 11 EF EF     vpxor       xmm13,xmm13,xmm15
  0000000000001F0C: C4 01 78 11 64 25  vmovups     xmmword ptr [r13+r12+20h],xmm12
                    20
  0000000000001F13: C4 41 19 EF E5     vpxor       xmm12,xmm12,xmm13
  0000000000001F18: C4 42 19 DC E6     vaesenc     xmm12,xmm12,xmm14
  0000000000001F1D: C4 41 78 10 7F B0  vmovups     xmm15,xmmword ptr [r15-50h]
  0000000000001F23: C4 C1 69 EF D0     vpxor       xmm2,xmm2,xmm8
  0000000000001F28: 31 C7              xor         edi,eax
  0000000000001F2A: 31 D8              xor         eax,ebx
  0000000000001F2C: 01 EA              add         edx,ebp
  0000000000001F2E: 03 4C 24 24        add         ecx,dword ptr [rsp+24h]
  0000000000001F32: C5 B9 72 D2 1E     vpsrld      xmm8,xmm2,1Eh
  0000000000001F37: C5 79 7F 4C 24 10  vmovdqa     xmmword ptr [rsp+10h],xmm9
  0000000000001F3D: 21 C7              and         edi,eax
  0000000000001F3F: 31 D8              xor         eax,ebx
  0000000000001F41: 0F AC ED 07        shrd        ebp,ebp,7
  0000000000001F45: 89 D6              mov         esi,edx
  0000000000001F47: C5 E9 72 F2 02     vpslld      xmm2,xmm2,2
  0000000000001F4C: 31 C7              xor         edi,eax
  0000000000001F4E: 0F A4 D2 05        shld        edx,edx,5
  0000000000001F52: 01 F9              add         ecx,edi
  0000000000001F54: 31 EE              xor         esi,ebp
  0000000000001F56: 31 C5              xor         ebp,eax
  0000000000001F58: 01 D1              add         ecx,edx
  0000000000001F5A: 03 5C 24 28        add         ebx,dword ptr [rsp+28h]
  0000000000001F5E: 21 EE              and         esi,ebp
  0000000000001F60: C4 C1 69 EB D0     vpor        xmm2,xmm2,xmm8
  0000000000001F65: 31 C5              xor         ebp,eax
  0000000000001F67: 0F AC D2 07        shrd        edx,edx,7
  0000000000001F6B: C4 42 19 DC E7     vaesenc     xmm12,xmm12,xmm15
  0000000000001F70: C4 41 78 10 77 C0  vmovups     xmm14,xmmword ptr [r15-40h]
  0000000000001F76: 89 CF              mov         edi,ecx
  0000000000001F78: 31 EE              xor         esi,ebp
  0000000000001F7A: 0F A4 C9 05        shld        ecx,ecx,5
  0000000000001F7E: 01 F3              add         ebx,esi
  0000000000001F80: 31 D7              xor         edi,edx
  0000000000001F82: 31 EA              xor         edx,ebp
  0000000000001F84: 01 CB              add         ebx,ecx
  0000000000001F86: 03 44 24 2C        add         eax,dword ptr [rsp+2Ch]
  0000000000001F8A: 21 D7              and         edi,edx
  0000000000001F8C: 31 EA              xor         edx,ebp
  0000000000001F8E: 0F AC C9 07        shrd        ecx,ecx,7
  0000000000001F92: 89 DE              mov         esi,ebx
  0000000000001F94: 31 D7              xor         edi,edx
  0000000000001F96: 0F A4 DB 05        shld        ebx,ebx,5
  0000000000001F9A: 01 F8              add         eax,edi
  0000000000001F9C: 31 D6              xor         esi,edx
  0000000000001F9E: 01 D8              add         eax,ebx
  0000000000001FA0: C4 63 69 0F C1 08  vpalignr    xmm8,xmm2,xmm1,8
  0000000000001FA6: C5 E1 EF DF        vpxor       xmm3,xmm3,xmm7
  0000000000001FAA: 03 6C 24 30        add         ebp,dword ptr [rsp+30h]
  0000000000001FAE: C4 42 19 DC E6     vaesenc     xmm12,xmm12,xmm14
  0000000000001FB3: C4 41 78 10 7F D0  vmovups     xmm15,xmmword ptr [r15-30h]
  0000000000001FB9: 31 CE              xor         esi,ecx
  0000000000001FBB: 89 C7              mov         edi,eax
  0000000000001FBD: 0F A4 C0 05        shld        eax,eax,5
  0000000000001FC1: C5 E1 EF DC        vpxor       xmm3,xmm3,xmm4
  0000000000001FC5: 01 F5              add         ebp,esi
  0000000000001FC7: 31 CF              xor         edi,ecx
  0000000000001FC9: C5 29 FE CA        vpaddd      xmm9,xmm10,xmm2
  0000000000001FCD: 0F AC DB 07        shrd        ebx,ebx,7
  0000000000001FD1: 01 C5              add         ebp,eax
  0000000000001FD3: C4 C1 61 EF D8     vpxor       xmm3,xmm3,xmm8
  0000000000001FD8: 03 54 24 34        add         edx,dword ptr [rsp+34h]
  0000000000001FDC: 31 DF              xor         edi,ebx
  0000000000001FDE: 89 EE              mov         esi,ebp
  0000000000001FE0: 0F A4 ED 05        shld        ebp,ebp,5
  0000000000001FE4: C5 B9 72 D3 1E     vpsrld      xmm8,xmm3,1Eh
  0000000000001FE9: C5 79 7F 4C 24 20  vmovdqa     xmmword ptr [rsp+20h],xmm9
  0000000000001FEF: 01 FA              add         edx,edi
  0000000000001FF1: 31 DE              xor         esi,ebx
  0000000000001FF3: 0F AC C0 07        shrd        eax,eax,7
  0000000000001FF7: 01 EA              add         edx,ebp
  0000000000001FF9: C5 E1 72 F3 02     vpslld      xmm3,xmm3,2
  0000000000001FFE: 03 4C 24 38        add         ecx,dword ptr [rsp+38h]
  0000000000002002: 31 C6              xor         esi,eax
  0000000000002004: 89 D7              mov         edi,edx
  0000000000002006: 0F A4 D2 05        shld        edx,edx,5
  000000000000200A: 01 F1              add         ecx,esi
  000000000000200C: C4 42 19 DC E7     vaesenc     xmm12,xmm12,xmm15
  0000000000002011: C4 41 78 10 77 E0  vmovups     xmm14,xmmword ptr [r15-20h]
  0000000000002017: 31 C7              xor         edi,eax
  0000000000002019: 0F AC ED 07        shrd        ebp,ebp,7
  000000000000201D: 01 D1              add         ecx,edx
  000000000000201F: C4 C1 61 EB D8     vpor        xmm3,xmm3,xmm8
  0000000000002024: 03 5C 24 3C        add         ebx,dword ptr [rsp+3Ch]
  0000000000002028: 31 EF              xor         edi,ebp
  000000000000202A: 89 CE              mov         esi,ecx
  000000000000202C: 0F A4 C9 05        shld        ecx,ecx,5
  0000000000002030: 01 FB              add         ebx,edi
  0000000000002032: 31 EE              xor         esi,ebp
  0000000000002034: 0F AC D2 07        shrd        edx,edx,7
  0000000000002038: 01 CB              add         ebx,ecx
  000000000000203A: 03 04 24           add         eax,dword ptr [rsp]
  000000000000203D: C5 29 FE CB        vpaddd      xmm9,xmm10,xmm3
  0000000000002041: 31 D6              xor         esi,edx
  0000000000002043: 89 DF              mov         edi,ebx
  0000000000002045: 0F A4 DB 05        shld        ebx,ebx,5
  0000000000002049: 01 F0              add         eax,esi
  000000000000204B: C5 79 7F 4C 24 30  vmovdqa     xmmword ptr [rsp+30h],xmm9
  0000000000002051: 31 D7              xor         edi,edx
  0000000000002053: 0F AC C9 07        shrd        ecx,ecx,7
  0000000000002057: 01 D8              add         eax,ebx
  0000000000002059: 03 6C 24 04        add         ebp,dword ptr [rsp+4]
  000000000000205D: C4 42 19 DC E6     vaesenc     xmm12,xmm12,xmm14
  0000000000002062: C4 41 78 10 7F F0  vmovups     xmm15,xmmword ptr [r15-10h]
  0000000000002068: 31 CF              xor         edi,ecx
  000000000000206A: 89 C6              mov         esi,eax
  000000000000206C: 0F A4 C0 05        shld        eax,eax,5
  0000000000002070: 01 FD              add         ebp,edi
  0000000000002072: 31 CE              xor         esi,ecx
  0000000000002074: 0F AC DB 07        shrd        ebx,ebx,7
  0000000000002078: 01 C5              add         ebp,eax
  000000000000207A: 03 54 24 08        add         edx,dword ptr [rsp+8]
  000000000000207E: 31 DE              xor         esi,ebx
  0000000000002080: 89 EF              mov         edi,ebp
  0000000000002082: 0F A4 ED 05        shld        ebp,ebp,5
  0000000000002086: 01 F2              add         edx,esi
  0000000000002088: 31 DF              xor         edi,ebx
  000000000000208A: 0F AC C0 07        shrd        eax,eax,7
  000000000000208E: 01 EA              add         edx,ebp
  0000000000002090: 03 4C 24 0C        add         ecx,dword ptr [rsp+0Ch]
  0000000000002094: 31 C7              xor         edi,eax
  0000000000002096: 89 D6              mov         esi,edx
  0000000000002098: 0F A4 D2 05        shld        edx,edx,5
  000000000000209C: 01 F9              add         ecx,edi
  000000000000209E: C4 42 19 DC E7     vaesenc     xmm12,xmm12,xmm15
  00000000000020A3: C4 41 78 10 37     vmovups     xmm14,xmmword ptr [r15]
  00000000000020A8: 31 C6              xor         esi,eax
  00000000000020AA: 0F AC ED 07        shrd        ebp,ebp,7
  00000000000020AE: 01 D1              add         ecx,edx
  00000000000020B0: 4D 39 F2           cmp         r10,r14
  00000000000020B3: 0F 84 0D 02 00 00  je          L$done_avx
  00000000000020B9: C4 41 79 6F 4B 40  vmovdqa     xmm9,xmmword ptr [r11+40h]
  00000000000020BF: C4 41 79 6F 13     vmovdqa     xmm10,xmmword ptr [r11]
  00000000000020C4: C4 C1 7A 6F 02     vmovdqu     xmm0,xmmword ptr [r10]
  00000000000020C9: C4 C1 7A 6F 4A 10  vmovdqu     xmm1,xmmword ptr [r10+10h]
  00000000000020CF: C4 C1 7A 6F 52 20  vmovdqu     xmm2,xmmword ptr [r10+20h]
  00000000000020D5: C4 C1 7A 6F 5A 30  vmovdqu     xmm3,xmmword ptr [r10+30h]
  00000000000020DB: C4 C2 79 00 C1     vpshufb     xmm0,xmm0,xmm9
  00000000000020E0: 49 83 C2 40        add         r10,40h
  00000000000020E4: 03 5C 24 10        add         ebx,dword ptr [rsp+10h]
  00000000000020E8: 31 EE              xor         esi,ebp
  00000000000020EA: C4 C2 71 00 C9     vpshufb     xmm1,xmm1,xmm9
  00000000000020EF: 89 CF              mov         edi,ecx
  00000000000020F1: 0F A4 C9 05        shld        ecx,ecx,5
  00000000000020F5: C4 41 79 FE C2     vpaddd      xmm8,xmm0,xmm10
  00000000000020FA: 01 F3              add         ebx,esi
  00000000000020FC: 31 EF              xor         edi,ebp
  00000000000020FE: 0F AC D2 07        shrd        edx,edx,7
  0000000000002102: 01 CB              add         ebx,ecx
  0000000000002104: C5 79 7F 04 24     vmovdqa     xmmword ptr [rsp],xmm8
  0000000000002109: 03 44 24 14        add         eax,dword ptr [rsp+14h]
  000000000000210D: 31 D7              xor         edi,edx
  000000000000210F: 89 DE              mov         esi,ebx
  0000000000002111: 0F A4 DB 05        shld        ebx,ebx,5
  0000000000002115: 01 F8              add         eax,edi
  0000000000002117: 31 D6              xor         esi,edx
  0000000000002119: 0F AC C9 07        shrd        ecx,ecx,7
  000000000000211D: 01 D8              add         eax,ebx
  000000000000211F: 03 6C 24 18        add         ebp,dword ptr [rsp+18h]
  0000000000002123: C4 42 19 DC E6     vaesenc     xmm12,xmm12,xmm14
  0000000000002128: C4 41 78 10 7F 10  vmovups     xmm15,xmmword ptr [r15+10h]
  000000000000212E: 31 CE              xor         esi,ecx
  0000000000002130: 89 C7              mov         edi,eax
  0000000000002132: 0F A4 C0 05        shld        eax,eax,5
  0000000000002136: 01 F5              add         ebp,esi
  0000000000002138: 31 CF              xor         edi,ecx
  000000000000213A: 0F AC DB 07        shrd        ebx,ebx,7
  000000000000213E: 01 C5              add         ebp,eax
  0000000000002140: 03 54 24 1C        add         edx,dword ptr [rsp+1Ch]
  0000000000002144: 31 DF              xor         edi,ebx
  0000000000002146: 89 EE              mov         esi,ebp
  0000000000002148: 0F A4 ED 05        shld        ebp,ebp,5
  000000000000214C: 01 FA              add         edx,edi
  000000000000214E: 31 DE              xor         esi,ebx
  0000000000002150: 0F AC C0 07        shrd        eax,eax,7
  0000000000002154: 01 EA              add         edx,ebp
  0000000000002156: 03 4C 24 20        add         ecx,dword ptr [rsp+20h]
  000000000000215A: 31 C6              xor         esi,eax
  000000000000215C: C4 C2 69 00 D1     vpshufb     xmm2,xmm2,xmm9
  0000000000002161: 89 D7              mov         edi,edx
  0000000000002163: 0F A4 D2 05        shld        edx,edx,5
  0000000000002167: C4 41 71 FE C2     vpaddd      xmm8,xmm1,xmm10
  000000000000216C: 01 F1              add         ecx,esi
  000000000000216E: C4 42 19 DC E7     vaesenc     xmm12,xmm12,xmm15
  0000000000002173: C4 41 78 10 77 20  vmovups     xmm14,xmmword ptr [r15+20h]
  0000000000002179: 31 C7              xor         edi,eax
  000000000000217B: 0F AC ED 07        shrd        ebp,ebp,7
  000000000000217F: 01 D1              add         ecx,edx
  0000000000002181: C5 79 7F 44 24 10  vmovdqa     xmmword ptr [rsp+10h],xmm8
  0000000000002187: 03 5C 24 24        add         ebx,dword ptr [rsp+24h]
  000000000000218B: 31 EF              xor         edi,ebp
  000000000000218D: 89 CE              mov         esi,ecx
  000000000000218F: 0F A4 C9 05        shld        ecx,ecx,5
  0000000000002193: 01 FB              add         ebx,edi
  0000000000002195: 31 EE              xor         esi,ebp
  0000000000002197: 0F AC D2 07        shrd        edx,edx,7
  000000000000219B: 01 CB              add         ebx,ecx
  000000000000219D: 03 44 24 28        add         eax,dword ptr [rsp+28h]
  00000000000021A1: 31 D6              xor         esi,edx
  00000000000021A3: 89 DF              mov         edi,ebx
  00000000000021A5: 0F A4 DB 05        shld        ebx,ebx,5
  00000000000021A9: 01 F0              add         eax,esi
  00000000000021AB: 31 D7              xor         edi,edx
  00000000000021AD: 0F AC C9 07        shrd        ecx,ecx,7
  00000000000021B1: 01 D8              add         eax,ebx
  00000000000021B3: 03 6C 24 2C        add         ebp,dword ptr [rsp+2Ch]
  00000000000021B7: C4 42 19 DC E6     vaesenc     xmm12,xmm12,xmm14
  00000000000021BC: C4 41 78 10 7F 30  vmovups     xmm15,xmmword ptr [r15+30h]
  00000000000021C2: 31 CF              xor         edi,ecx
  00000000000021C4: 89 C6              mov         esi,eax
  00000000000021C6: 0F A4 C0 05        shld        eax,eax,5
  00000000000021CA: 01 FD              add         ebp,edi
  00000000000021CC: 31 CE              xor         esi,ecx
  00000000000021CE: 0F AC DB 07        shrd        ebx,ebx,7
  00000000000021D2: 01 C5              add         ebp,eax
  00000000000021D4: 03 54 24 30        add         edx,dword ptr [rsp+30h]
  00000000000021D8: 31 DE              xor         esi,ebx
  00000000000021DA: C4 C2 61 00 D9     vpshufb     xmm3,xmm3,xmm9
  00000000000021DF: 89 EF              mov         edi,ebp
  00000000000021E1: 0F A4 ED 05        shld        ebp,ebp,5
  00000000000021E5: C4 41 69 FE C2     vpaddd      xmm8,xmm2,xmm10
  00000000000021EA: 01 F2              add         edx,esi
  00000000000021EC: 31 DF              xor         edi,ebx
  00000000000021EE: 0F AC C0 07        shrd        eax,eax,7
  00000000000021F2: 01 EA              add         edx,ebp
  00000000000021F4: C5 79 7F 44 24 20  vmovdqa     xmmword ptr [rsp+20h],xmm8
  00000000000021FA: 03 4C 24 34        add         ecx,dword ptr [rsp+34h]
  00000000000021FE: 31 C7              xor         edi,eax
  0000000000002200: 89 D6              mov         esi,edx
  0000000000002202: 0F A4 D2 05        shld        edx,edx,5
  0000000000002206: 01 F9              add         ecx,edi
  0000000000002208: 41 83 F8 0B        cmp         r8d,0Bh
  000000000000220C: 0F 82 32 00 00 00  jb          L$vaesenclast9
  0000000000002212: C4 42 19 DC E7     vaesenc     xmm12,xmm12,xmm15
  0000000000002217: C4 41 78 10 77 40  vmovups     xmm14,xmmword ptr [r15+40h]
  000000000000221D: C4 42 19 DC E6     vaesenc     xmm12,xmm12,xmm14
  0000000000002222: C4 41 78 10 7F 50  vmovups     xmm15,xmmword ptr [r15+50h]
  0000000000002228: 0F 84 16 00 00 00  je          L$vaesenclast9
  000000000000222E: C4 42 19 DC E7     vaesenc     xmm12,xmm12,xmm15
  0000000000002233: C4 41 78 10 77 60  vmovups     xmm14,xmmword ptr [r15+60h]
  0000000000002239: C4 42 19 DC E6     vaesenc     xmm12,xmm12,xmm14
  000000000000223E: C4 41 78 10 7F 70  vmovups     xmm15,xmmword ptr [r15+70h]
L$vaesenclast9:
  0000000000002244: C4 42 19 DD E7     vaesenclast xmm12,xmm12,xmm15
  0000000000002249: C4 41 78 10 7F 90  vmovups     xmm15,xmmword ptr [r15-70h]
  000000000000224F: C4 41 78 10 77 A0  vmovups     xmm14,xmmword ptr [r15-60h]
  0000000000002255: 31 C6              xor         esi,eax
  0000000000002257: 0F AC ED 07        shrd        ebp,ebp,7
  000000000000225B: 01 D1              add         ecx,edx
  000000000000225D: 03 5C 24 38        add         ebx,dword ptr [rsp+38h]
  0000000000002261: 31 EE              xor         esi,ebp
  0000000000002263: 89 CF              mov         edi,ecx
  0000000000002265: 0F A4 C9 05        shld        ecx,ecx,5
  0000000000002269: 01 F3              add         ebx,esi
  000000000000226B: 31 EF              xor         edi,ebp
  000000000000226D: 0F AC D2 07        shrd        edx,edx,7
  0000000000002271: 01 CB              add         ebx,ecx
  0000000000002273: 03 44 24 3C        add         eax,dword ptr [rsp+3Ch]
  0000000000002277: 31 D7              xor         edi,edx
  0000000000002279: 89 DE              mov         esi,ebx
  000000000000227B: 0F A4 DB 05        shld        ebx,ebx,5
  000000000000227F: 01 F8              add         eax,edi
  0000000000002281: 0F AC C9 07        shrd        ecx,ecx,7
  0000000000002285: 01 D8              add         eax,ebx
  0000000000002287: C4 01 78 11 64 25  vmovups     xmmword ptr [r13+r12+30h],xmm12
                    30
  000000000000228E: 4D 8D 64 24 40     lea         r12,[r12+40h]
  0000000000002293: 41 03 01           add         eax,dword ptr [r9]
  0000000000002296: 41 03 71 04        add         esi,dword ptr [r9+4]
  000000000000229A: 41 03 49 08        add         ecx,dword ptr [r9+8]
  000000000000229E: 41 03 51 0C        add         edx,dword ptr [r9+0Ch]
  00000000000022A2: 41 89 01           mov         dword ptr [r9],eax
  00000000000022A5: 41 03 69 10        add         ebp,dword ptr [r9+10h]
  00000000000022A9: 41 89 71 04        mov         dword ptr [r9+4],esi
  00000000000022AD: 89 F3              mov         ebx,esi
  00000000000022AF: 41 89 49 08        mov         dword ptr [r9+8],ecx
  00000000000022B3: 89 CF              mov         edi,ecx
  00000000000022B5: 41 89 51 0C        mov         dword ptr [r9+0Ch],edx
  00000000000022B9: 31 D7              xor         edi,edx
  00000000000022BB: 41 89 69 10        mov         dword ptr [r9+10h],ebp
  00000000000022BF: 21 FE              and         esi,edi
  00000000000022C1: E9 5A F1 FF FF     jmp         L$oop_avx
L$done_avx:
  00000000000022C6: 03 5C 24 10        add         ebx,dword ptr [rsp+10h]
  00000000000022CA: 31 EE              xor         esi,ebp
  00000000000022CC: 89 CF              mov         edi,ecx
  00000000000022CE: 0F A4 C9 05        shld        ecx,ecx,5
  00000000000022D2: 01 F3              add         ebx,esi
  00000000000022D4: 31 EF              xor         edi,ebp
  00000000000022D6: 0F AC D2 07        shrd        edx,edx,7
  00000000000022DA: 01 CB              add         ebx,ecx
  00000000000022DC: 03 44 24 14        add         eax,dword ptr [rsp+14h]
  00000000000022E0: 31 D7              xor         edi,edx
  00000000000022E2: 89 DE              mov         esi,ebx
  00000000000022E4: 0F A4 DB 05        shld        ebx,ebx,5
  00000000000022E8: 01 F8              add         eax,edi
  00000000000022EA: 31 D6              xor         esi,edx
  00000000000022EC: 0F AC C9 07        shrd        ecx,ecx,7
  00000000000022F0: 01 D8              add         eax,ebx
  00000000000022F2: 03 6C 24 18        add         ebp,dword ptr [rsp+18h]
  00000000000022F6: C4 42 19 DC E6     vaesenc     xmm12,xmm12,xmm14
  00000000000022FB: C4 41 78 10 7F 10  vmovups     xmm15,xmmword ptr [r15+10h]
  0000000000002301: 31 CE              xor         esi,ecx
  0000000000002303: 89 C7              mov         edi,eax
  0000000000002305: 0F A4 C0 05        shld        eax,eax,5
  0000000000002309: 01 F5              add         ebp,esi
  000000000000230B: 31 CF              xor         edi,ecx
  000000000000230D: 0F AC DB 07        shrd        ebx,ebx,7
  0000000000002311: 01 C5              add         ebp,eax
  0000000000002313: 03 54 24 1C        add         edx,dword ptr [rsp+1Ch]
  0000000000002317: 31 DF              xor         edi,ebx
  0000000000002319: 89 EE              mov         esi,ebp
  000000000000231B: 0F A4 ED 05        shld        ebp,ebp,5
  000000000000231F: 01 FA              add         edx,edi
  0000000000002321: 31 DE              xor         esi,ebx
  0000000000002323: 0F AC C0 07        shrd        eax,eax,7
  0000000000002327: 01 EA              add         edx,ebp
  0000000000002329: 03 4C 24 20        add         ecx,dword ptr [rsp+20h]
  000000000000232D: 31 C6              xor         esi,eax
  000000000000232F: 89 D7              mov         edi,edx
  0000000000002331: 0F A4 D2 05        shld        edx,edx,5
  0000000000002335: 01 F1              add         ecx,esi
  0000000000002337: C4 42 19 DC E7     vaesenc     xmm12,xmm12,xmm15
  000000000000233C: C4 41 78 10 77 20  vmovups     xmm14,xmmword ptr [r15+20h]
  0000000000002342: 31 C7              xor         edi,eax
  0000000000002344: 0F AC ED 07        shrd        ebp,ebp,7
  0000000000002348: 01 D1              add         ecx,edx
  000000000000234A: 03 5C 24 24        add         ebx,dword ptr [rsp+24h]
  000000000000234E: 31 EF              xor         edi,ebp
  0000000000002350: 89 CE              mov         esi,ecx
  0000000000002352: 0F A4 C9 05        shld        ecx,ecx,5
  0000000000002356: 01 FB              add         ebx,edi
  0000000000002358: 31 EE              xor         esi,ebp
  000000000000235A: 0F AC D2 07        shrd        edx,edx,7
  000000000000235E: 01 CB              add         ebx,ecx
  0000000000002360: 03 44 24 28        add         eax,dword ptr [rsp+28h]
  0000000000002364: 31 D6              xor         esi,edx
  0000000000002366: 89 DF              mov         edi,ebx
  0000000000002368: 0F A4 DB 05        shld        ebx,ebx,5
  000000000000236C: 01 F0              add         eax,esi
  000000000000236E: 31 D7              xor         edi,edx
  0000000000002370: 0F AC C9 07        shrd        ecx,ecx,7
  0000000000002374: 01 D8              add         eax,ebx
  0000000000002376: 03 6C 24 2C        add         ebp,dword ptr [rsp+2Ch]
  000000000000237A: C4 42 19 DC E6     vaesenc     xmm12,xmm12,xmm14
  000000000000237F: C4 41 78 10 7F 30  vmovups     xmm15,xmmword ptr [r15+30h]
  0000000000002385: 31 CF              xor         edi,ecx
  0000000000002387: 89 C6              mov         esi,eax
  0000000000002389: 0F A4 C0 05        shld        eax,eax,5
  000000000000238D: 01 FD              add         ebp,edi
  000000000000238F: 31 CE              xor         esi,ecx
  0000000000002391: 0F AC DB 07        shrd        ebx,ebx,7
  0000000000002395: 01 C5              add         ebp,eax
  0000000000002397: 03 54 24 30        add         edx,dword ptr [rsp+30h]
  000000000000239B: 31 DE              xor         esi,ebx
  000000000000239D: 89 EF              mov         edi,ebp
  000000000000239F: 0F A4 ED 05        shld        ebp,ebp,5
  00000000000023A3: 01 F2              add         edx,esi
  00000000000023A5: 31 DF              xor         edi,ebx
  00000000000023A7: 0F AC C0 07        shrd        eax,eax,7
  00000000000023AB: 01 EA              add         edx,ebp
  00000000000023AD: 03 4C 24 34        add         ecx,dword ptr [rsp+34h]
  00000000000023B1: 31 C7              xor         edi,eax
  00000000000023B3: 89 D6              mov         esi,edx
  00000000000023B5: 0F A4 D2 05        shld        edx,edx,5
  00000000000023B9: 01 F9              add         ecx,edi
  00000000000023BB: 41 83 F8 0B        cmp         r8d,0Bh
  00000000000023BF: 0F 82 32 00 00 00  jb          L$vaesenclast10
  00000000000023C5: C4 42 19 DC E7     vaesenc     xmm12,xmm12,xmm15
  00000000000023CA: C4 41 78 10 77 40  vmovups     xmm14,xmmword ptr [r15+40h]
  00000000000023D0: C4 42 19 DC E6     vaesenc     xmm12,xmm12,xmm14
  00000000000023D5: C4 41 78 10 7F 50  vmovups     xmm15,xmmword ptr [r15+50h]
  00000000000023DB: 0F 84 16 00 00 00  je          L$vaesenclast10
  00000000000023E1: C4 42 19 DC E7     vaesenc     xmm12,xmm12,xmm15
  00000000000023E6: C4 41 78 10 77 60  vmovups     xmm14,xmmword ptr [r15+60h]
  00000000000023EC: C4 42 19 DC E6     vaesenc     xmm12,xmm12,xmm14
  00000000000023F1: C4 41 78 10 7F 70  vmovups     xmm15,xmmword ptr [r15+70h]
L$vaesenclast10:
  00000000000023F7: C4 42 19 DD E7     vaesenclast xmm12,xmm12,xmm15
  00000000000023FC: C4 41 78 10 7F 90  vmovups     xmm15,xmmword ptr [r15-70h]
  0000000000002402: C4 41 78 10 77 A0  vmovups     xmm14,xmmword ptr [r15-60h]
  0000000000002408: 31 C6              xor         esi,eax
  000000000000240A: 0F AC ED 07        shrd        ebp,ebp,7
  000000000000240E: 01 D1              add         ecx,edx
  0000000000002410: 03 5C 24 38        add         ebx,dword ptr [rsp+38h]
  0000000000002414: 31 EE              xor         esi,ebp
  0000000000002416: 89 CF              mov         edi,ecx
  0000000000002418: 0F A4 C9 05        shld        ecx,ecx,5
  000000000000241C: 01 F3              add         ebx,esi
  000000000000241E: 31 EF              xor         edi,ebp
  0000000000002420: 0F AC D2 07        shrd        edx,edx,7
  0000000000002424: 01 CB              add         ebx,ecx
  0000000000002426: 03 44 24 3C        add         eax,dword ptr [rsp+3Ch]
  000000000000242A: 31 D7              xor         edi,edx
  000000000000242C: 89 DE              mov         esi,ebx
  000000000000242E: 0F A4 DB 05        shld        ebx,ebx,5
  0000000000002432: 01 F8              add         eax,edi
  0000000000002434: 0F AC C9 07        shrd        ecx,ecx,7
  0000000000002438: 01 D8              add         eax,ebx
  000000000000243A: C4 01 78 11 64 25  vmovups     xmmword ptr [r13+r12+30h],xmm12
                    30
  0000000000002441: 4C 8B 44 24 58     mov         r8,qword ptr [rsp+58h]
  0000000000002446: 41 03 01           add         eax,dword ptr [r9]
  0000000000002449: 41 03 71 04        add         esi,dword ptr [r9+4]
  000000000000244D: 41 03 49 08        add         ecx,dword ptr [r9+8]
  0000000000002451: 41 89 01           mov         dword ptr [r9],eax
  0000000000002454: 41 03 51 0C        add         edx,dword ptr [r9+0Ch]
  0000000000002458: 41 89 71 04        mov         dword ptr [r9+4],esi
  000000000000245C: 41 03 69 10        add         ebp,dword ptr [r9+10h]
  0000000000002460: 41 89 49 08        mov         dword ptr [r9+8],ecx
  0000000000002464: 41 89 51 0C        mov         dword ptr [r9+0Ch],edx
  0000000000002468: 41 89 69 10        mov         dword ptr [r9+10h],ebp
  000000000000246C: C4 41 78 11 20     vmovups     xmmword ptr [r8],xmm12
  0000000000002471: C5 FC 77           vzeroall
  0000000000002474: 0F 28 74 24 60     movaps      xmm6,xmmword ptr [rsp+60h]
  0000000000002479: 0F 28 7C 24 70     movaps      xmm7,xmmword ptr [rsp+70h]
  000000000000247E: 44 0F 28 84 24 80  movaps      xmm8,xmmword ptr [rsp+80h]
                    00 00 00
  0000000000002487: 44 0F 28 8C 24 90  movaps      xmm9,xmmword ptr [rsp+90h]
                    00 00 00
  0000000000002490: 44 0F 28 94 24 A0  movaps      xmm10,xmmword ptr [rsp+0A0h]
                    00 00 00
  0000000000002499: 44 0F 28 9C 24 B0  movaps      xmm11,xmmword ptr [rsp+0B0h]
                    00 00 00
  00000000000024A2: 44 0F 28 A4 24 C0  movaps      xmm12,xmmword ptr [rsp+0C0h]
                    00 00 00
  00000000000024AB: 44 0F 28 AC 24 D0  movaps      xmm13,xmmword ptr [rsp+0D0h]
                    00 00 00
  00000000000024B4: 44 0F 28 B4 24 E0  movaps      xmm14,xmmword ptr [rsp+0E0h]
                    00 00 00
  00000000000024BD: 44 0F 28 BC 24 F0  movaps      xmm15,xmmword ptr [rsp+0F0h]
                    00 00 00
  00000000000024C6: 48 8D B4 24 08 01  lea         rsi,[rsp+108h]
                    00 00
  00000000000024CE: 4C 8B 3E           mov         r15,qword ptr [rsi]
  00000000000024D1: 4C 8B 76 08        mov         r14,qword ptr [rsi+8]
  00000000000024D5: 4C 8B 6E 10        mov         r13,qword ptr [rsi+10h]
  00000000000024D9: 4C 8B 66 18        mov         r12,qword ptr [rsi+18h]
  00000000000024DD: 48 8B 6E 20        mov         rbp,qword ptr [rsi+20h]
  00000000000024E1: 48 8B 5E 28        mov         rbx,qword ptr [rsi+28h]
  00000000000024E5: 48 8D 66 30        lea         rsp,[rsi+30h]
L$epilogue_avx:
  00000000000024E9: 48 8B 7C 24 08     mov         rdi,qword ptr [rsp+8]
  00000000000024EE: 48 8B 74 24 10     mov         rsi,qword ptr [rsp+10h]
  00000000000024F3: F3 C3              rep ret
L$SEH_end_aesni_cbc_sha1_enc_avx:
  00000000000024F5: 90                 nop
  00000000000024F6: 90                 nop
  00000000000024F7: 90                 nop
  00000000000024F8: 90                 nop
  00000000000024F9: 90                 nop
  00000000000024FA: 90                 nop
  00000000000024FB: 90                 nop
  00000000000024FC: 90                 nop
  00000000000024FD: 90                 nop
  00000000000024FE: 90                 nop
  00000000000024FF: 90                 nop
aesni_cbc_sha1_enc_shaext:
  0000000000002500: 48 89 7C 24 08     mov         qword ptr [rsp+8],rdi
  0000000000002505: 48 89 74 24 10     mov         qword ptr [rsp+10h],rsi
  000000000000250A: 48 89 E0           mov         rax,rsp
L$SEH_begin_aesni_cbc_sha1_enc_shaext:
  000000000000250D: 48 89 CF           mov         rdi,rcx
  0000000000002510: 48 89 D6           mov         rsi,rdx
  0000000000002513: 4C 89 C2           mov         rdx,r8
  0000000000002516: 4C 89 C9           mov         rcx,r9
  0000000000002519: 4C 8B 44 24 28     mov         r8,qword ptr [rsp+28h]
  000000000000251E: 4C 8B 4C 24 30     mov         r9,qword ptr [rsp+30h]
  0000000000002523: 4C 8B 54 24 38     mov         r10,qword ptr [rsp+38h]
  0000000000002528: 48 8D A4 24 58 FF  lea         rsp,[rsp-0A8h]
                    FF FF
  0000000000002530: 0F 29 B0 58 FF FF  movaps      xmmword ptr [rax-0A8h],xmm6
                    FF
  0000000000002537: 0F 29 B8 68 FF FF  movaps      xmmword ptr [rax-98h],xmm7
                    FF
  000000000000253E: 44 0F 29 80 78 FF  movaps      xmmword ptr [rax-88h],xmm8
                    FF FF
  0000000000002546: 44 0F 29 48 88     movaps      xmmword ptr [rax-78h],xmm9
  000000000000254B: 44 0F 29 50 98     movaps      xmmword ptr [rax-68h],xmm10
  0000000000002550: 44 0F 29 58 A8     movaps      xmmword ptr [rax-58h],xmm11
  0000000000002555: 44 0F 29 60 B8     movaps      xmmword ptr [rax-48h],xmm12
  000000000000255A: 44 0F 29 68 C8     movaps      xmmword ptr [rax-38h],xmm13
  000000000000255F: 44 0F 29 70 D8     movaps      xmmword ptr [rax-28h],xmm14
  0000000000002564: 44 0F 29 78 E8     movaps      xmmword ptr [rax-18h],xmm15
L$prologue_shaext:
  0000000000002569: F3 45 0F 6F 01     movdqu      xmm8,xmmword ptr [r9]
  000000000000256E: 66 45 0F 6E 49 10  movd        xmm9,dword ptr [r9+10h]
  0000000000002574: 66 0F 6F 3D 50 00  movdqa      xmm7,xmmword ptr [.rdata+50h]
                    00 00
  000000000000257C: 44 8B 99 F0 00 00  mov         r11d,dword ptr [rcx+0F0h]
                    00
  0000000000002583: 48 29 FE           sub         rsi,rdi
  0000000000002586: 44 0F 10 39        movups      xmm15,xmmword ptr [rcx]
  000000000000258A: 41 0F 10 10        movups      xmm2,xmmword ptr [r8]
  000000000000258E: 0F 10 41 10        movups      xmm0,xmmword ptr [rcx+10h]
  0000000000002592: 48 8D 49 70        lea         rcx,[rcx+70h]
  0000000000002596: 66 45 0F 70 C0 1B  pshufd      xmm8,xmm8,1Bh
  000000000000259C: 66 45 0F 70 C9 1B  pshufd      xmm9,xmm9,1Bh
  00000000000025A2: E9 09 00 00 00     jmp         L$oop_shaext
  00000000000025A7: 90                 nop
  00000000000025A8: 90                 nop
  00000000000025A9: 90                 nop
  00000000000025AA: 90                 nop
  00000000000025AB: 90                 nop
  00000000000025AC: 90                 nop
  00000000000025AD: 90                 nop
  00000000000025AE: 90                 nop
  00000000000025AF: 90                 nop
L$oop_shaext:
  00000000000025B0: 44 0F 10 37        movups      xmm14,xmmword ptr [rdi]
  00000000000025B4: 45 0F 57 F7        xorps       xmm14,xmm15
  00000000000025B8: 41 0F 57 D6        xorps       xmm2,xmm14
  00000000000025BC: 0F 10 49 B0        movups      xmm1,xmmword ptr [rcx-50h]
  00000000000025C0: 66 0F 38 DC D0     aesenc      xmm2,xmm0
  00000000000025C5: F3 41 0F 6F 1A     movdqu      xmm3,xmmword ptr [r10]
  00000000000025CA: 66 45 0F 6F E1     movdqa      xmm12,xmm9
  00000000000025CF: 66 0F 38 00 DF     pshufb      xmm3,xmm7
  00000000000025D4: F3 41 0F 6F 62 10  movdqu      xmm4,xmmword ptr [r10+10h]
  00000000000025DA: 66 45 0F 6F D8     movdqa      xmm11,xmm8
  00000000000025DF: 0F 10 41 C0        movups      xmm0,xmmword ptr [rcx-40h]
  00000000000025E3: 66 0F 38 DC D1     aesenc      xmm2,xmm1
  00000000000025E8: 66 0F 38 00 E7     pshufb      xmm4,xmm7
  00000000000025ED: 66 44 0F FE CB     paddd       xmm9,xmm3
  00000000000025F2: F3 41 0F 6F 6A 20  movdqu      xmm5,xmmword ptr [r10+20h]
  00000000000025F8: 4D 8D 52 40        lea         r10,[r10+40h]
  00000000000025FC: 66 41 0F EF DC     pxor        xmm3,xmm12
  0000000000002601: 0F 10 49 D0        movups      xmm1,xmmword ptr [rcx-30h]
  0000000000002605: 66 0F 38 DC D0     aesenc      xmm2,xmm0
  000000000000260A: 66 41 0F EF DC     pxor        xmm3,xmm12
  000000000000260F: 66 45 0F 6F D0     movdqa      xmm10,xmm8
  0000000000002614: 66 0F 38 00 EF     pshufb      xmm5,xmm7
  0000000000002619: 45 0F 3A CC C1 00  sha1rnds4   xmm8,xmm9,0
  000000000000261F: 44 0F 38 C8 D4     sha1nexte   xmm10,xmm4
  0000000000002624: 0F 10 41 E0        movups      xmm0,xmmword ptr [rcx-20h]
  0000000000002628: 66 0F 38 DC D1     aesenc      xmm2,xmm1
  000000000000262D: 0F 38 C9 DC        sha1msg1    xmm3,xmm4
  0000000000002631: F3 41 0F 6F 72 F0  movdqu      xmm6,xmmword ptr [r10-10h]
  0000000000002637: 66 45 0F 6F C8     movdqa      xmm9,xmm8
  000000000000263C: 66 0F 38 00 F7     pshufb      xmm6,xmm7
  0000000000002641: 0F 10 49 F0        movups      xmm1,xmmword ptr [rcx-10h]
  0000000000002645: 66 0F 38 DC D0     aesenc      xmm2,xmm0
  000000000000264A: 45 0F 3A CC C2 00  sha1rnds4   xmm8,xmm10,0
  0000000000002650: 44 0F 38 C8 CD     sha1nexte   xmm9,xmm5
  0000000000002655: 66 0F EF DD        pxor        xmm3,xmm5
  0000000000002659: 0F 38 C9 E5        sha1msg1    xmm4,xmm5
  000000000000265D: 0F 10 01           movups      xmm0,xmmword ptr [rcx]
  0000000000002660: 66 0F 38 DC D1     aesenc      xmm2,xmm1
  0000000000002665: 66 45 0F 6F D0     movdqa      xmm10,xmm8
  000000000000266A: 45 0F 3A CC C1 00  sha1rnds4   xmm8,xmm9,0
  0000000000002670: 44 0F 38 C8 D6     sha1nexte   xmm10,xmm6
  0000000000002675: 0F 10 49 10        movups      xmm1,xmmword ptr [rcx+10h]
  0000000000002679: 66 0F 38 DC D0     aesenc      xmm2,xmm0
  000000000000267E: 0F 38 CA DE        sha1msg2    xmm3,xmm6
  0000000000002682: 66 0F EF E6        pxor        xmm4,xmm6
  0000000000002686: 0F 38 C9 EE        sha1msg1    xmm5,xmm6
  000000000000268A: 0F 10 41 20        movups      xmm0,xmmword ptr [rcx+20h]
  000000000000268E: 66 0F 38 DC D1     aesenc      xmm2,xmm1
  0000000000002693: 66 45 0F 6F C8     movdqa      xmm9,xmm8
  0000000000002698: 45 0F 3A CC C2 00  sha1rnds4   xmm8,xmm10,0
  000000000000269E: 44 0F 38 C8 CB     sha1nexte   xmm9,xmm3
  00000000000026A3: 0F 10 49 30        movups      xmm1,xmmword ptr [rcx+30h]
  00000000000026A7: 66 0F 38 DC D0     aesenc      xmm2,xmm0
  00000000000026AC: 0F 38 CA E3        sha1msg2    xmm4,xmm3
  00000000000026B0: 66 0F EF EB        pxor        xmm5,xmm3
  00000000000026B4: 0F 38 C9 F3        sha1msg1    xmm6,xmm3
  00000000000026B8: 41 83 FB 0B        cmp         r11d,0Bh
  00000000000026BC: 0F 82 2A 00 00 00  jb          L$aesenclast11
  00000000000026C2: 0F 10 41 40        movups      xmm0,xmmword ptr [rcx+40h]
  00000000000026C6: 66 0F 38 DC D1     aesenc      xmm2,xmm1
  00000000000026CB: 0F 10 49 50        movups      xmm1,xmmword ptr [rcx+50h]
  00000000000026CF: 66 0F 38 DC D0     aesenc      xmm2,xmm0
  00000000000026D4: 0F 84 12 00 00 00  je          L$aesenclast11
  00000000000026DA: 0F 10 41 60        movups      xmm0,xmmword ptr [rcx+60h]
  00000000000026DE: 66 0F 38 DC D1     aesenc      xmm2,xmm1
  00000000000026E3: 0F 10 49 70        movups      xmm1,xmmword ptr [rcx+70h]
  00000000000026E7: 66 0F 38 DC D0     aesenc      xmm2,xmm0
L$aesenclast11:
  00000000000026EC: 66 0F 38 DD D1     aesenclast  xmm2,xmm1
  00000000000026F1: 0F 10 41 A0        movups      xmm0,xmmword ptr [rcx-60h]
  00000000000026F5: 66 45 0F 6F D0     movdqa      xmm10,xmm8
  00000000000026FA: 45 0F 3A CC C1 00  sha1rnds4   xmm8,xmm9,0
  0000000000002700: 44 0F 38 C8 D4     sha1nexte   xmm10,xmm4
  0000000000002705: 44 0F 10 77 10     movups      xmm14,xmmword ptr [rdi+10h]
  000000000000270A: 45 0F 57 F7        xorps       xmm14,xmm15
  000000000000270E: 0F 11 14 3E        movups      xmmword ptr [rsi+rdi],xmm2
  0000000000002712: 41 0F 57 D6        xorps       xmm2,xmm14
  0000000000002716: 0F 10 49 B0        movups      xmm1,xmmword ptr [rcx-50h]
  000000000000271A: 66 0F 38 DC D0     aesenc      xmm2,xmm0
  000000000000271F: 0F 38 CA EC        sha1msg2    xmm5,xmm4
  0000000000002723: 66 0F EF F4        pxor        xmm6,xmm4
  0000000000002727: 0F 38 C9 DC        sha1msg1    xmm3,xmm4
  000000000000272B: 0F 10 41 C0        movups      xmm0,xmmword ptr [rcx-40h]
  000000000000272F: 66 0F 38 DC D1     aesenc      xmm2,xmm1
  0000000000002734: 66 45 0F 6F C8     movdqa      xmm9,xmm8
  0000000000002739: 45 0F 3A CC C2 01  sha1rnds4   xmm8,xmm10,1
  000000000000273F: 44 0F 38 C8 CD     sha1nexte   xmm9,xmm5
  0000000000002744: 0F 10 49 D0        movups      xmm1,xmmword ptr [rcx-30h]
  0000000000002748: 66 0F 38 DC D0     aesenc      xmm2,xmm0
  000000000000274D: 0F 38 CA F5        sha1msg2    xmm6,xmm5
  0000000000002751: 66 0F EF DD        pxor        xmm3,xmm5
  0000000000002755: 0F 38 C9 E5        sha1msg1    xmm4,xmm5
  0000000000002759: 0F 10 41 E0        movups      xmm0,xmmword ptr [rcx-20h]
  000000000000275D: 66 0F 38 DC D1     aesenc      xmm2,xmm1
  0000000000002762: 66 45 0F 6F D0     movdqa      xmm10,xmm8
  0000000000002767: 45 0F 3A CC C1 01  sha1rnds4   xmm8,xmm9,1
  000000000000276D: 44 0F 38 C8 D6     sha1nexte   xmm10,xmm6
  0000000000002772: 0F 10 49 F0        movups      xmm1,xmmword ptr [rcx-10h]
  0000000000002776: 66 0F 38 DC D0     aesenc      xmm2,xmm0
  000000000000277B: 0F 38 CA DE        sha1msg2    xmm3,xmm6
  000000000000277F: 66 0F EF E6        pxor        xmm4,xmm6
  0000000000002783: 0F 38 C9 EE        sha1msg1    xmm5,xmm6
  0000000000002787: 0F 10 01           movups      xmm0,xmmword ptr [rcx]
  000000000000278A: 66 0F 38 DC D1     aesenc      xmm2,xmm1
  000000000000278F: 66 45 0F 6F C8     movdqa      xmm9,xmm8
  0000000000002794: 45 0F 3A CC C2 01  sha1rnds4   xmm8,xmm10,1
  000000000000279A: 44 0F 38 C8 CB     sha1nexte   xmm9,xmm3
  000000000000279F: 0F 10 49 10        movups      xmm1,xmmword ptr [rcx+10h]
  00000000000027A3: 66 0F 38 DC D0     aesenc      xmm2,xmm0
  00000000000027A8: 0F 38 CA E3        sha1msg2    xmm4,xmm3
  00000000000027AC: 66 0F EF EB        pxor        xmm5,xmm3
  00000000000027B0: 0F 38 C9 F3        sha1msg1    xmm6,xmm3
  00000000000027B4: 0F 10 41 20        movups      xmm0,xmmword ptr [rcx+20h]
  00000000000027B8: 66 0F 38 DC D1     aesenc      xmm2,xmm1
  00000000000027BD: 66 45 0F 6F D0     movdqa      xmm10,xmm8
  00000000000027C2: 45 0F 3A CC C1 01  sha1rnds4   xmm8,xmm9,1
  00000000000027C8: 44 0F 38 C8 D4     sha1nexte   xmm10,xmm4
  00000000000027CD: 0F 10 49 30        movups      xmm1,xmmword ptr [rcx+30h]
  00000000000027D1: 66 0F 38 DC D0     aesenc      xmm2,xmm0
  00000000000027D6: 0F 38 CA EC        sha1msg2    xmm5,xmm4
  00000000000027DA: 66 0F EF F4        pxor        xmm6,xmm4
  00000000000027DE: 0F 38 C9 DC        sha1msg1    xmm3,xmm4
  00000000000027E2: 41 83 FB 0B        cmp         r11d,0Bh
  00000000000027E6: 0F 82 2A 00 00 00  jb          L$aesenclast12
  00000000000027EC: 0F 10 41 40        movups      xmm0,xmmword ptr [rcx+40h]
  00000000000027F0: 66 0F 38 DC D1     aesenc      xmm2,xmm1
  00000000000027F5: 0F 10 49 50        movups      xmm1,xmmword ptr [rcx+50h]
  00000000000027F9: 66 0F 38 DC D0     aesenc      xmm2,xmm0
  00000000000027FE: 0F 84 12 00 00 00  je          L$aesenclast12
  0000000000002804: 0F 10 41 60        movups      xmm0,xmmword ptr [rcx+60h]
  0000000000002808: 66 0F 38 DC D1     aesenc      xmm2,xmm1
  000000000000280D: 0F 10 49 70        movups      xmm1,xmmword ptr [rcx+70h]
  0000000000002811: 66 0F 38 DC D0     aesenc      xmm2,xmm0
L$aesenclast12:
  0000000000002816: 66 0F 38 DD D1     aesenclast  xmm2,xmm1
  000000000000281B: 0F 10 41 A0        movups      xmm0,xmmword ptr [rcx-60h]
  000000000000281F: 66 45 0F 6F C8     movdqa      xmm9,xmm8
  0000000000002824: 45 0F 3A CC C2 01  sha1rnds4   xmm8,xmm10,1
  000000000000282A: 44 0F 38 C8 CD     sha1nexte   xmm9,xmm5
  000000000000282F: 44 0F 10 77 20     movups      xmm14,xmmword ptr [rdi+20h]
  0000000000002834: 45 0F 57 F7        xorps       xmm14,xmm15
  0000000000002838: 0F 11 54 3E 10     movups      xmmword ptr [rsi+rdi+10h],xmm2
  000000000000283D: 41 0F 57 D6        xorps       xmm2,xmm14
  0000000000002841: 0F 10 49 B0        movups      xmm1,xmmword ptr [rcx-50h]
  0000000000002845: 66 0F 38 DC D0     aesenc      xmm2,xmm0
  000000000000284A: 0F 38 CA F5        sha1msg2    xmm6,xmm5
  000000000000284E: 66 0F EF DD        pxor        xmm3,xmm5
  0000000000002852: 0F 38 C9 E5        sha1msg1    xmm4,xmm5
  0000000000002856: 0F 10 41 C0        movups      xmm0,xmmword ptr [rcx-40h]
  000000000000285A: 66 0F 38 DC D1     aesenc      xmm2,xmm1
  000000000000285F: 66 45 0F 6F D0     movdqa      xmm10,xmm8
  0000000000002864: 45 0F 3A CC C1 02  sha1rnds4   xmm8,xmm9,2
  000000000000286A: 44 0F 38 C8 D6     sha1nexte   xmm10,xmm6
  000000000000286F: 0F 10 49 D0        movups      xmm1,xmmword ptr [rcx-30h]
  0000000000002873: 66 0F 38 DC D0     aesenc      xmm2,xmm0
  0000000000002878: 0F 38 CA DE        sha1msg2    xmm3,xmm6
  000000000000287C: 66 0F EF E6        pxor        xmm4,xmm6
  0000000000002880: 0F 38 C9 EE        sha1msg1    xmm5,xmm6
  0000000000002884: 0F 10 41 E0        movups      xmm0,xmmword ptr [rcx-20h]
  0000000000002888: 66 0F 38 DC D1     aesenc      xmm2,xmm1
  000000000000288D: 66 45 0F 6F C8     movdqa      xmm9,xmm8
  0000000000002892: 45 0F 3A CC C2 02  sha1rnds4   xmm8,xmm10,2
  0000000000002898: 44 0F 38 C8 CB     sha1nexte   xmm9,xmm3
  000000000000289D: 0F 10 49 F0        movups      xmm1,xmmword ptr [rcx-10h]
  00000000000028A1: 66 0F 38 DC D0     aesenc      xmm2,xmm0
  00000000000028A6: 0F 38 CA E3        sha1msg2    xmm4,xmm3
  00000000000028AA: 66 0F EF EB        pxor        xmm5,xmm3
  00000000000028AE: 0F 38 C9 F3        sha1msg1    xmm6,xmm3
  00000000000028B2: 0F 10 01           movups      xmm0,xmmword ptr [rcx]
  00000000000028B5: 66 0F 38 DC D1     aesenc      xmm2,xmm1
  00000000000028BA: 66 45 0F 6F D0     movdqa      xmm10,xmm8
  00000000000028BF: 45 0F 3A CC C1 02  sha1rnds4   xmm8,xmm9,2
  00000000000028C5: 44 0F 38 C8 D4     sha1nexte   xmm10,xmm4
  00000000000028CA: 0F 10 49 10        movups      xmm1,xmmword ptr [rcx+10h]
  00000000000028CE: 66 0F 38 DC D0     aesenc      xmm2,xmm0
  00000000000028D3: 0F 38 CA EC        sha1msg2    xmm5,xmm4
  00000000000028D7: 66 0F EF F4        pxor        xmm6,xmm4
  00000000000028DB: 0F 38 C9 DC        sha1msg1    xmm3,xmm4
  00000000000028DF: 0F 10 41 20        movups      xmm0,xmmword ptr [rcx+20h]
  00000000000028E3: 66 0F 38 DC D1     aesenc      xmm2,xmm1
  00000000000028E8: 66 45 0F 6F C8     movdqa      xmm9,xmm8
  00000000000028ED: 45 0F 3A CC C2 02  sha1rnds4   xmm8,xmm10,2
  00000000000028F3: 44 0F 38 C8 CD     sha1nexte   xmm9,xmm5
  00000000000028F8: 0F 10 49 30        movups      xmm1,xmmword ptr [rcx+30h]
  00000000000028FC: 66 0F 38 DC D0     aesenc      xmm2,xmm0
  0000000000002901: 0F 38 CA F5        sha1msg2    xmm6,xmm5
  0000000000002905: 66 0F EF DD        pxor        xmm3,xmm5
  0000000000002909: 0F 38 C9 E5        sha1msg1    xmm4,xmm5
  000000000000290D: 41 83 FB 0B        cmp         r11d,0Bh
  0000000000002911: 0F 82 2A 00 00 00  jb          L$aesenclast13
  0000000000002917: 0F 10 41 40        movups      xmm0,xmmword ptr [rcx+40h]
  000000000000291B: 66 0F 38 DC D1     aesenc      xmm2,xmm1
  0000000000002920: 0F 10 49 50        movups      xmm1,xmmword ptr [rcx+50h]
  0000000000002924: 66 0F 38 DC D0     aesenc      xmm2,xmm0
  0000000000002929: 0F 84 12 00 00 00  je          L$aesenclast13
  000000000000292F: 0F 10 41 60        movups      xmm0,xmmword ptr [rcx+60h]
  0000000000002933: 66 0F 38 DC D1     aesenc      xmm2,xmm1
  0000000000002938: 0F 10 49 70        movups      xmm1,xmmword ptr [rcx+70h]
  000000000000293C: 66 0F 38 DC D0     aesenc      xmm2,xmm0
L$aesenclast13:
  0000000000002941: 66 0F 38 DD D1     aesenclast  xmm2,xmm1
  0000000000002946: 0F 10 41 A0        movups      xmm0,xmmword ptr [rcx-60h]
  000000000000294A: 66 45 0F 6F D0     movdqa      xmm10,xmm8
  000000000000294F: 45 0F 3A CC C1 02  sha1rnds4   xmm8,xmm9,2
  0000000000002955: 44 0F 38 C8 D6     sha1nexte   xmm10,xmm6
  000000000000295A: 44 0F 10 77 30     movups      xmm14,xmmword ptr [rdi+30h]
  000000000000295F: 45 0F 57 F7        xorps       xmm14,xmm15
  0000000000002963: 0F 11 54 3E 20     movups      xmmword ptr [rsi+rdi+20h],xmm2
  0000000000002968: 41 0F 57 D6        xorps       xmm2,xmm14
  000000000000296C: 0F 10 49 B0        movups      xmm1,xmmword ptr [rcx-50h]
  0000000000002970: 66 0F 38 DC D0     aesenc      xmm2,xmm0
  0000000000002975: 0F 38 CA DE        sha1msg2    xmm3,xmm6
  0000000000002979: 66 0F EF E6        pxor        xmm4,xmm6
  000000000000297D: 0F 38 C9 EE        sha1msg1    xmm5,xmm6
  0000000000002981: 0F 10 41 C0        movups      xmm0,xmmword ptr [rcx-40h]
  0000000000002985: 66 0F 38 DC D1     aesenc      xmm2,xmm1
  000000000000298A: 66 45 0F 6F C8     movdqa      xmm9,xmm8
  000000000000298F: 45 0F 3A CC C2 03  sha1rnds4   xmm8,xmm10,3
  0000000000002995: 44 0F 38 C8 CB     sha1nexte   xmm9,xmm3
  000000000000299A: 0F 10 49 D0        movups      xmm1,xmmword ptr [rcx-30h]
  000000000000299E: 66 0F 38 DC D0     aesenc      xmm2,xmm0
  00000000000029A3: 0F 38 CA E3        sha1msg2    xmm4,xmm3
  00000000000029A7: 66 0F EF EB        pxor        xmm5,xmm3
  00000000000029AB: 0F 38 C9 F3        sha1msg1    xmm6,xmm3
  00000000000029AF: 0F 10 41 E0        movups      xmm0,xmmword ptr [rcx-20h]
  00000000000029B3: 66 0F 38 DC D1     aesenc      xmm2,xmm1
  00000000000029B8: 66 45 0F 6F D0     movdqa      xmm10,xmm8
  00000000000029BD: 45 0F 3A CC C1 03  sha1rnds4   xmm8,xmm9,3
  00000000000029C3: 44 0F 38 C8 D4     sha1nexte   xmm10,xmm4
  00000000000029C8: 0F 38 CA EC        sha1msg2    xmm5,xmm4
  00000000000029CC: 66 0F EF F4        pxor        xmm6,xmm4
  00000000000029D0: 0F 10 49 F0        movups      xmm1,xmmword ptr [rcx-10h]
  00000000000029D4: 66 0F 38 DC D0     aesenc      xmm2,xmm0
  00000000000029D9: 66 45 0F 6F C8     movdqa      xmm9,xmm8
  00000000000029DE: 45 0F 3A CC C2 03  sha1rnds4   xmm8,xmm10,3
  00000000000029E4: 44 0F 38 C8 CD     sha1nexte   xmm9,xmm5
  00000000000029E9: 0F 38 CA F5        sha1msg2    xmm6,xmm5
  00000000000029ED: 0F 10 01           movups      xmm0,xmmword ptr [rcx]
  00000000000029F0: 66 0F 38 DC D1     aesenc      xmm2,xmm1
  00000000000029F5: 66 41 0F 6F EC     movdqa      xmm5,xmm12
  00000000000029FA: 66 45 0F 6F D0     movdqa      xmm10,xmm8
  00000000000029FF: 45 0F 3A CC C1 03  sha1rnds4   xmm8,xmm9,3
  0000000000002A05: 44 0F 38 C8 D6     sha1nexte   xmm10,xmm6
  0000000000002A0A: 0F 10 49 10        movups      xmm1,xmmword ptr [rcx+10h]
  0000000000002A0E: 66 0F 38 DC D0     aesenc      xmm2,xmm0
  0000000000002A13: 66 45 0F 6F C8     movdqa      xmm9,xmm8
  0000000000002A18: 45 0F 3A CC C2 03  sha1rnds4   xmm8,xmm10,3
  0000000000002A1E: 44 0F 38 C8 CD     sha1nexte   xmm9,xmm5
  0000000000002A23: 0F 10 41 20        movups      xmm0,xmmword ptr [rcx+20h]
  0000000000002A27: 66 0F 38 DC D1     aesenc      xmm2,xmm1
  0000000000002A2C: 0F 10 49 30        movups      xmm1,xmmword ptr [rcx+30h]
  0000000000002A30: 66 0F 38 DC D0     aesenc      xmm2,xmm0
  0000000000002A35: 41 83 FB 0B        cmp         r11d,0Bh
  0000000000002A39: 0F 82 2A 00 00 00  jb          L$aesenclast14
  0000000000002A3F: 0F 10 41 40        movups      xmm0,xmmword ptr [rcx+40h]
  0000000000002A43: 66 0F 38 DC D1     aesenc      xmm2,xmm1
  0000000000002A48: 0F 10 49 50        movups      xmm1,xmmword ptr [rcx+50h]
  0000000000002A4C: 66 0F 38 DC D0     aesenc      xmm2,xmm0
  0000000000002A51: 0F 84 12 00 00 00  je          L$aesenclast14
  0000000000002A57: 0F 10 41 60        movups      xmm0,xmmword ptr [rcx+60h]
  0000000000002A5B: 66 0F 38 DC D1     aesenc      xmm2,xmm1
  0000000000002A60: 0F 10 49 70        movups      xmm1,xmmword ptr [rcx+70h]
  0000000000002A64: 66 0F 38 DC D0     aesenc      xmm2,xmm0
L$aesenclast14:
  0000000000002A69: 66 0F 38 DD D1     aesenclast  xmm2,xmm1
  0000000000002A6E: 0F 10 41 A0        movups      xmm0,xmmword ptr [rcx-60h]
  0000000000002A72: 48 FF CA           dec         rdx
  0000000000002A75: 66 45 0F FE C3     paddd       xmm8,xmm11
  0000000000002A7A: 0F 11 54 3E 30     movups      xmmword ptr [rsi+rdi+30h],xmm2
  0000000000002A7F: 48 8D 7F 40        lea         rdi,[rdi+40h]
  0000000000002A83: 0F 85 27 FB FF FF  jne         L$oop_shaext
  0000000000002A89: 66 45 0F 70 C0 1B  pshufd      xmm8,xmm8,1Bh
  0000000000002A8F: 66 45 0F 70 C9 1B  pshufd      xmm9,xmm9,1Bh
  0000000000002A95: 41 0F 11 10        movups      xmmword ptr [r8],xmm2
  0000000000002A99: F3 45 0F 7F 01     movdqu      xmmword ptr [r9],xmm8
  0000000000002A9E: 66 45 0F 7E 49 10  movd        dword ptr [r9+10h],xmm9
  0000000000002AA4: 0F 28 B0 58 FF FF  movaps      xmm6,xmmword ptr [rax-0A8h]
                    FF
  0000000000002AAB: 0F 28 B8 68 FF FF  movaps      xmm7,xmmword ptr [rax-98h]
                    FF
  0000000000002AB2: 44 0F 28 80 78 FF  movaps      xmm8,xmmword ptr [rax-88h]
                    FF FF
  0000000000002ABA: 44 0F 28 48 88     movaps      xmm9,xmmword ptr [rax-78h]
  0000000000002ABF: 44 0F 28 50 98     movaps      xmm10,xmmword ptr [rax-68h]
  0000000000002AC4: 44 0F 28 58 A8     movaps      xmm11,xmmword ptr [rax-58h]
  0000000000002AC9: 44 0F 28 60 B8     movaps      xmm12,xmmword ptr [rax-48h]
  0000000000002ACE: 44 0F 28 68 C8     movaps      xmm13,xmmword ptr [rax-38h]
  0000000000002AD3: 44 0F 28 70 D8     movaps      xmm14,xmmword ptr [rax-28h]
  0000000000002AD8: 44 0F 28 78 E8     movaps      xmm15,xmmword ptr [rax-18h]
  0000000000002ADD: 48 89 C4           mov         rsp,rax
L$epilogue_shaext:
  0000000000002AE0: 48 8B 7C 24 08     mov         rdi,qword ptr [rsp+8]
  0000000000002AE5: 48 8B 74 24 10     mov         rsi,qword ptr [rsp+10h]
  0000000000002AEA: F3 C3              rep ret
L$SEH_end_aesni_cbc_sha1_enc_shaext:
  0000000000002AEC: 90                 nop
  0000000000002AED: 90                 nop
  0000000000002AEE: 90                 nop
  0000000000002AEF: 90                 nop
ssse3_handler:
  0000000000002AF0: 56                 push        rsi
  0000000000002AF1: 57                 push        rdi
  0000000000002AF2: 53                 push        rbx
  0000000000002AF3: 55                 push        rbp
  0000000000002AF4: 41 54              push        r12
  0000000000002AF6: 41 55              push        r13
  0000000000002AF8: 41 56              push        r14
  0000000000002AFA: 41 57              push        r15
  0000000000002AFC: 9C                 pushfq
  0000000000002AFD: 48 83 EC 40        sub         rsp,40h
  0000000000002B01: 49 8B 40 78        mov         rax,qword ptr [r8+78h]
  0000000000002B05: 49 8B 98 F8 00 00  mov         rbx,qword ptr [r8+0F8h]
                    00
  0000000000002B0C: 49 8B 71 08        mov         rsi,qword ptr [r9+8]
  0000000000002B10: 4D 8B 59 38        mov         r11,qword ptr [r9+38h]
  0000000000002B14: 45 8B 13           mov         r10d,dword ptr [r11]
  0000000000002B17: 4E 8D 14 16        lea         r10,[rsi+r10]
  0000000000002B1B: 4C 39 D3           cmp         rbx,r10
  0000000000002B1E: 0F 82 A7 00 00 00  jb          L$common_seh_tail
  0000000000002B24: 49 8B 80 98 00 00  mov         rax,qword ptr [r8+98h]
                    00
  0000000000002B2B: 45 8B 53 04        mov         r10d,dword ptr [r11+4]
  0000000000002B2F: 4E 8D 14 16        lea         r10,[rsi+r10]
  0000000000002B33: 4C 39 D3           cmp         rbx,r10
  0000000000002B36: 0F 83 8F 00 00 00  jae         L$common_seh_tail
  0000000000002B3C: 4C 8D 15 BD F9 FF  lea         r10,[aesni_cbc_sha1_enc_shaext]
                    FF
  0000000000002B43: 4C 39 D3           cmp         rbx,r10
  0000000000002B46: 0F 82 1F 00 00 00  jb          L$seh_no_shaext
  0000000000002B4C: 48 8D 30           lea         rsi,[rax]
  0000000000002B4F: 49 8D B8 00 02 00  lea         rdi,[r8+200h]
                    00
  0000000000002B56: B9 14 00 00 00     mov         ecx,14h
  0000000000002B5B: FC                 cld
  0000000000002B5C: F3 48 A5           rep movs    qword ptr [rdi],qword ptr [rsi]
  0000000000002B5F: 48 8D 80 A8 00 00  lea         rax,[rax+0A8h]
                    00
  0000000000002B66: E9 60 00 00 00     jmp         L$common_seh_tail
L$seh_no_shaext:
  0000000000002B6B: 48 8D 70 60        lea         rsi,[rax+60h]
  0000000000002B6F: 49 8D B8 00 02 00  lea         rdi,[r8+200h]
                    00
  0000000000002B76: B9 14 00 00 00     mov         ecx,14h
  0000000000002B7B: FC                 cld
  0000000000002B7C: F3 48 A5           rep movs    qword ptr [rdi],qword ptr [rsi]
  0000000000002B7F: 48 8D 80 08 01 00  lea         rax,[rax+108h]
                    00
  0000000000002B86: 4C 8B 38           mov         r15,qword ptr [rax]
  0000000000002B89: 4C 8B 70 08        mov         r14,qword ptr [rax+8]
  0000000000002B8D: 4C 8B 68 10        mov         r13,qword ptr [rax+10h]
  0000000000002B91: 4C 8B 60 18        mov         r12,qword ptr [rax+18h]
  0000000000002B95: 48 8B 68 20        mov         rbp,qword ptr [rax+20h]
  0000000000002B99: 48 8B 58 28        mov         rbx,qword ptr [rax+28h]
  0000000000002B9D: 48 8D 40 30        lea         rax,[rax+30h]
  0000000000002BA1: 49 89 98 90 00 00  mov         qword ptr [r8+90h],rbx
                    00
  0000000000002BA8: 49 89 A8 A0 00 00  mov         qword ptr [r8+0A0h],rbp
                    00
  0000000000002BAF: 4D 89 A0 D8 00 00  mov         qword ptr [r8+0D8h],r12
                    00
  0000000000002BB6: 4D 89 A8 E0 00 00  mov         qword ptr [r8+0E0h],r13
                    00
  0000000000002BBD: 4D 89 B0 E8 00 00  mov         qword ptr [r8+0E8h],r14
                    00
  0000000000002BC4: 4D 89 B8 F0 00 00  mov         qword ptr [r8+0F0h],r15
                    00
L$common_seh_tail:
  0000000000002BCB: 48 8B 78 08        mov         rdi,qword ptr [rax+8]
  0000000000002BCF: 48 8B 70 10        mov         rsi,qword ptr [rax+10h]
  0000000000002BD3: 49 89 80 98 00 00  mov         qword ptr [r8+98h],rax
                    00
  0000000000002BDA: 49 89 B0 A8 00 00  mov         qword ptr [r8+0A8h],rsi
                    00
  0000000000002BE1: 49 89 B8 B0 00 00  mov         qword ptr [r8+0B0h],rdi
                    00
  0000000000002BE8: 49 8B 79 28        mov         rdi,qword ptr [r9+28h]
  0000000000002BEC: 4C 89 C6           mov         rsi,r8
  0000000000002BEF: B9 9A 00 00 00     mov         ecx,9Ah
  0000000000002BF4: FC                 cld
  0000000000002BF5: F3 48 A5           rep movs    qword ptr [rdi],qword ptr [rsi]
  0000000000002BF8: 4C 89 CE           mov         rsi,r9
  0000000000002BFB: 48 31 C9           xor         rcx,rcx
  0000000000002BFE: 48 8B 56 08        mov         rdx,qword ptr [rsi+8]
  0000000000002C02: 4C 8B 06           mov         r8,qword ptr [rsi]
  0000000000002C05: 4C 8B 4E 10        mov         r9,qword ptr [rsi+10h]
  0000000000002C09: 4C 8B 56 28        mov         r10,qword ptr [rsi+28h]
  0000000000002C0D: 4C 8D 5E 38        lea         r11,[rsi+38h]
  0000000000002C11: 4C 8D 66 18        lea         r12,[rsi+18h]
  0000000000002C15: 4C 89 54 24 20     mov         qword ptr [rsp+20h],r10
  0000000000002C1A: 4C 89 5C 24 28     mov         qword ptr [rsp+28h],r11
  0000000000002C1F: 4C 89 64 24 30     mov         qword ptr [rsp+30h],r12
  0000000000002C24: 48 89 4C 24 38     mov         qword ptr [rsp+38h],rcx
  0000000000002C29: FF 15 00 00 00 00  call        qword ptr [__imp_RtlVirtualUnwind]
  0000000000002C2F: B8 01 00 00 00     mov         eax,1
  0000000000002C34: 48 83 C4 40        add         rsp,40h
  0000000000002C38: 9D                 popfq
  0000000000002C39: 41 5F              pop         r15
  0000000000002C3B: 41 5E              pop         r14
  0000000000002C3D: 41 5D              pop         r13
  0000000000002C3F: 41 5C              pop         r12
  0000000000002C41: 5D                 pop         rbp
  0000000000002C42: 5B                 pop         rbx
  0000000000002C43: 5F                 pop         rdi
  0000000000002C44: 5E                 pop         rsi
  0000000000002C45: F3 C3              rep ret

  Summary

          1C .debug$T
          24 .pdata
          A4 .rdata
        2C47 .text
          30 .xdata
