Copyright (C) Microsoft Corporation.  All rights reserved.


Dump of file chacha20_poly1305_x86_64.obj

File Type: COFF OBJECT

poly_hash_ad_internal:
  0000000000000000: 4D 31 D2           xor         r10,r10
  0000000000000003: 4D 31 DB           xor         r11,r11
  0000000000000006: 4D 31 E4           xor         r12,r12
  0000000000000009: 49 83 F8 0D        cmp         r8,0Dh
  000000000000000D: 0F 85 9C 00 00 00  jne         L$hash_ad_loop
L$poly_fast_tls_ad:
  0000000000000013: 4C 8B 11           mov         r10,qword ptr [rcx]
  0000000000000016: 4C 8B 59 05        mov         r11,qword ptr [rcx+5]
  000000000000001A: 49 C1 EB 18        shr         r11,18h
  000000000000001E: 41 BC 01 00 00 00  mov         r12d,1
  0000000000000024: 48 8B 85 A0 00 00  mov         rax,qword ptr [rbp+0A0h]
                    00
  000000000000002B: 49 89 C7           mov         r15,rax
  000000000000002E: 49 F7 E2           mul         rax,r10
  0000000000000031: 49 89 C5           mov         r13,rax
  0000000000000034: 49 89 D6           mov         r14,rdx
  0000000000000037: 48 8B 85 A0 00 00  mov         rax,qword ptr [rbp+0A0h]
                    00
  000000000000003E: 49 F7 E3           mul         rax,r11
  0000000000000041: 4D 0F AF FC        imul        r15,r12
  0000000000000045: 49 01 C6           add         r14,rax
  0000000000000048: 49 11 D7           adc         r15,rdx
  000000000000004B: 48 8B 85 A8 00 00  mov         rax,qword ptr [rbp+0A8h]
                    00
  0000000000000052: 49 89 C1           mov         r9,rax
  0000000000000055: 49 F7 E2           mul         rax,r10
  0000000000000058: 49 01 C6           add         r14,rax
  000000000000005B: 48 83 D2 00        adc         rdx,0
  000000000000005F: 49 89 D2           mov         r10,rdx
  0000000000000062: 48 8B 85 A8 00 00  mov         rax,qword ptr [rbp+0A8h]
                    00
  0000000000000069: 49 F7 E3           mul         rax,r11
  000000000000006C: 49 01 C7           add         r15,rax
  000000000000006F: 48 83 D2 00        adc         rdx,0
  0000000000000073: 4D 0F AF CC        imul        r9,r12
  0000000000000077: 4D 01 D7           add         r15,r10
  000000000000007A: 49 11 D1           adc         r9,rdx
  000000000000007D: 4D 89 EA           mov         r10,r13
  0000000000000080: 4D 89 F3           mov         r11,r14
  0000000000000083: 4D 89 FC           mov         r12,r15
  0000000000000086: 49 83 E4 03        and         r12,3
  000000000000008A: 4D 89 FD           mov         r13,r15
  000000000000008D: 49 83 E5 FC        and         r13,0FFFFFFFFFFFFFFFCh
  0000000000000091: 4D 89 CE           mov         r14,r9
  0000000000000094: 4D 0F AC CF 02     shrd        r15,r9,2
  0000000000000099: 49 C1 E9 02        shr         r9,2
  000000000000009D: 4D 01 EF           add         r15,r13
  00000000000000A0: 4D 11 F1           adc         r9,r14
  00000000000000A3: 4D 01 FA           add         r10,r15
  00000000000000A6: 4D 11 CB           adc         r11,r9
  00000000000000A9: 49 83 D4 00        adc         r12,0
  00000000000000AD: F3 C3              rep ret
L$hash_ad_loop:
  00000000000000AF: 49 83 F8 10        cmp         r8,10h
  00000000000000B3: 0F 82 A1 00 00 00  jb          L$hash_ad_tail
  00000000000000B9: 4C 03 11           add         r10,qword ptr [rcx]
  00000000000000BC: 4C 13 59 08        adc         r11,qword ptr [rcx+8]
  00000000000000C0: 49 83 D4 01        adc         r12,1
  00000000000000C4: 48 8B 85 A0 00 00  mov         rax,qword ptr [rbp+0A0h]
                    00
  00000000000000CB: 49 89 C7           mov         r15,rax
  00000000000000CE: 49 F7 E2           mul         rax,r10
  00000000000000D1: 49 89 C5           mov         r13,rax
  00000000000000D4: 49 89 D6           mov         r14,rdx
  00000000000000D7: 48 8B 85 A0 00 00  mov         rax,qword ptr [rbp+0A0h]
                    00
  00000000000000DE: 49 F7 E3           mul         rax,r11
  00000000000000E1: 4D 0F AF FC        imul        r15,r12
  00000000000000E5: 49 01 C6           add         r14,rax
  00000000000000E8: 49 11 D7           adc         r15,rdx
  00000000000000EB: 48 8B 85 A8 00 00  mov         rax,qword ptr [rbp+0A8h]
                    00
  00000000000000F2: 49 89 C1           mov         r9,rax
  00000000000000F5: 49 F7 E2           mul         rax,r10
  00000000000000F8: 49 01 C6           add         r14,rax
  00000000000000FB: 48 83 D2 00        adc         rdx,0
  00000000000000FF: 49 89 D2           mov         r10,rdx
  0000000000000102: 48 8B 85 A8 00 00  mov         rax,qword ptr [rbp+0A8h]
                    00
  0000000000000109: 49 F7 E3           mul         rax,r11
  000000000000010C: 49 01 C7           add         r15,rax
  000000000000010F: 48 83 D2 00        adc         rdx,0
  0000000000000113: 4D 0F AF CC        imul        r9,r12
  0000000000000117: 4D 01 D7           add         r15,r10
  000000000000011A: 49 11 D1           adc         r9,rdx
  000000000000011D: 4D 89 EA           mov         r10,r13
  0000000000000120: 4D 89 F3           mov         r11,r14
  0000000000000123: 4D 89 FC           mov         r12,r15
  0000000000000126: 49 83 E4 03        and         r12,3
  000000000000012A: 4D 89 FD           mov         r13,r15
  000000000000012D: 49 83 E5 FC        and         r13,0FFFFFFFFFFFFFFFCh
  0000000000000131: 4D 89 CE           mov         r14,r9
  0000000000000134: 4D 0F AC CF 02     shrd        r15,r9,2
  0000000000000139: 49 C1 E9 02        shr         r9,2
  000000000000013D: 4D 01 EF           add         r15,r13
  0000000000000140: 4D 11 F1           adc         r9,r14
  0000000000000143: 4D 01 FA           add         r10,r15
  0000000000000146: 4D 11 CB           adc         r11,r9
  0000000000000149: 49 83 D4 00        adc         r12,0
  000000000000014D: 48 8D 49 10        lea         rcx,[rcx+10h]
  0000000000000151: 49 83 E8 10        sub         r8,10h
  0000000000000155: E9 55 FF FF FF     jmp         L$hash_ad_loop
L$hash_ad_tail:
  000000000000015A: 49 83 F8 00        cmp         r8,0
  000000000000015E: 0F 84 BC 00 00 00  je          L$hash_ad_done
  0000000000000164: 4D 31 ED           xor         r13,r13
  0000000000000167: 4D 31 F6           xor         r14,r14
  000000000000016A: 4D 31 FF           xor         r15,r15
  000000000000016D: 4C 01 C1           add         rcx,r8
L$hash_ad_tail_loop:
  0000000000000170: 4D 0F A4 EE 08     shld        r14,r13,8
  0000000000000175: 49 C1 E5 08        shl         r13,8
  0000000000000179: 4C 0F B6 79 FF     movzx       r15,byte ptr [rcx-1]
  000000000000017E: 4D 31 FD           xor         r13,r15
  0000000000000181: 48 FF C9           dec         rcx
  0000000000000184: 49 FF C8           dec         r8
  0000000000000187: 0F 85 E3 FF FF FF  jne         L$hash_ad_tail_loop
  000000000000018D: 4D 01 EA           add         r10,r13
  0000000000000190: 4D 11 F3           adc         r11,r14
  0000000000000193: 49 83 D4 01        adc         r12,1
  0000000000000197: 48 8B 85 A0 00 00  mov         rax,qword ptr [rbp+0A0h]
                    00
  000000000000019E: 49 89 C7           mov         r15,rax
  00000000000001A1: 49 F7 E2           mul         rax,r10
  00000000000001A4: 49 89 C5           mov         r13,rax
  00000000000001A7: 49 89 D6           mov         r14,rdx
  00000000000001AA: 48 8B 85 A0 00 00  mov         rax,qword ptr [rbp+0A0h]
                    00
  00000000000001B1: 49 F7 E3           mul         rax,r11
  00000000000001B4: 4D 0F AF FC        imul        r15,r12
  00000000000001B8: 49 01 C6           add         r14,rax
  00000000000001BB: 49 11 D7           adc         r15,rdx
  00000000000001BE: 48 8B 85 A8 00 00  mov         rax,qword ptr [rbp+0A8h]
                    00
  00000000000001C5: 49 89 C1           mov         r9,rax
  00000000000001C8: 49 F7 E2           mul         rax,r10
  00000000000001CB: 49 01 C6           add         r14,rax
  00000000000001CE: 48 83 D2 00        adc         rdx,0
  00000000000001D2: 49 89 D2           mov         r10,rdx
  00000000000001D5: 48 8B 85 A8 00 00  mov         rax,qword ptr [rbp+0A8h]
                    00
  00000000000001DC: 49 F7 E3           mul         rax,r11
  00000000000001DF: 49 01 C7           add         r15,rax
  00000000000001E2: 48 83 D2 00        adc         rdx,0
  00000000000001E6: 4D 0F AF CC        imul        r9,r12
  00000000000001EA: 4D 01 D7           add         r15,r10
  00000000000001ED: 49 11 D1           adc         r9,rdx
  00000000000001F0: 4D 89 EA           mov         r10,r13
  00000000000001F3: 4D 89 F3           mov         r11,r14
  00000000000001F6: 4D 89 FC           mov         r12,r15
  00000000000001F9: 49 83 E4 03        and         r12,3
  00000000000001FD: 4D 89 FD           mov         r13,r15
  0000000000000200: 49 83 E5 FC        and         r13,0FFFFFFFFFFFFFFFCh
  0000000000000204: 4D 89 CE           mov         r14,r9
  0000000000000207: 4D 0F AC CF 02     shrd        r15,r9,2
  000000000000020C: 49 C1 E9 02        shr         r9,2
  0000000000000210: 4D 01 EF           add         r15,r13
  0000000000000213: 4D 11 F1           adc         r9,r14
  0000000000000216: 4D 01 FA           add         r10,r15
  0000000000000219: 4D 11 CB           adc         r11,r9
  000000000000021C: 49 83 D4 00        adc         r12,0
L$hash_ad_done:
  0000000000000220: F3 C3              rep ret
  0000000000000222: 90                 nop
  0000000000000223: 90                 nop
  0000000000000224: 90                 nop
  0000000000000225: 90                 nop
  0000000000000226: 90                 nop
  0000000000000227: 90                 nop
  0000000000000228: 90                 nop
  0000000000000229: 90                 nop
  000000000000022A: 90                 nop
  000000000000022B: 90                 nop
  000000000000022C: 90                 nop
  000000000000022D: 90                 nop
  000000000000022E: 90                 nop
  000000000000022F: 90                 nop
  0000000000000230: 90                 nop
  0000000000000231: 90                 nop
  0000000000000232: 90                 nop
  0000000000000233: 90                 nop
  0000000000000234: 90                 nop
  0000000000000235: 90                 nop
  0000000000000236: 90                 nop
  0000000000000237: 90                 nop
  0000000000000238: 90                 nop
  0000000000000239: 90                 nop
  000000000000023A: 90                 nop
  000000000000023B: 90                 nop
  000000000000023C: 90                 nop
  000000000000023D: 90                 nop
  000000000000023E: 90                 nop
  000000000000023F: 90                 nop
aws_lc_0_21_1_chacha20_poly1305_open:
  0000000000000240: 48 89 7C 24 08     mov         qword ptr [rsp+8],rdi
  0000000000000245: 48 89 74 24 10     mov         qword ptr [rsp+10h],rsi
  000000000000024A: 48 89 E0           mov         rax,rsp
L$SEH_begin_chacha20_poly1305_open:
  000000000000024D: 48 89 CF           mov         rdi,rcx
  0000000000000250: 48 89 D6           mov         rsi,rdx
  0000000000000253: 4C 89 C2           mov         rdx,r8
  0000000000000256: 4C 89 C9           mov         rcx,r9
  0000000000000259: 4C 8B 44 24 28     mov         r8,qword ptr [rsp+28h]
  000000000000025E: 4C 8B 4C 24 30     mov         r9,qword ptr [rsp+30h]
  0000000000000263: 55                 push        rbp
  0000000000000264: 53                 push        rbx
  0000000000000265: 41 54              push        r12
  0000000000000267: 41 55              push        r13
  0000000000000269: 41 56              push        r14
  000000000000026B: 41 57              push        r15
  000000000000026D: 41 51              push        r9
  000000000000026F: 48 81 EC E0 01 00  sub         rsp,1E0h
                    00
  0000000000000276: 48 8D 6C 24 20     lea         rbp,[rsp+20h]
  000000000000027B: 48 83 E5 E0        and         rbp,0FFFFFFFFFFFFFFE0h
  000000000000027F: 0F 29 75 00        movaps      xmmword ptr [rbp],xmm6
  0000000000000283: 0F 29 7D 10        movaps      xmmword ptr [rbp+10h],xmm7
  0000000000000287: 44 0F 29 45 20     movaps      xmmword ptr [rbp+20h],xmm8
  000000000000028C: 44 0F 29 4D 30     movaps      xmmword ptr [rbp+30h],xmm9
  0000000000000291: 44 0F 29 55 40     movaps      xmmword ptr [rbp+40h],xmm10
  0000000000000296: 44 0F 29 5D 50     movaps      xmmword ptr [rbp+50h],xmm11
  000000000000029B: 44 0F 29 65 60     movaps      xmmword ptr [rbp+60h],xmm12
  00000000000002A0: 44 0F 29 6D 70     movaps      xmmword ptr [rbp+70h],xmm13
  00000000000002A5: 44 0F 29 B5 80 00  movaps      xmmword ptr [rbp+80h],xmm14
                    00 00
  00000000000002AD: 44 0F 29 BD 90 00  movaps      xmmword ptr [rbp+90h],xmm15
                    00 00
  00000000000002B5: 48 89 D3           mov         rbx,rdx
  00000000000002B8: 4C 89 85 C0 00 00  mov         qword ptr [rbp+0C0h],r8
                    00
  00000000000002BF: 48 89 9D C8 00 00  mov         qword ptr [rbp+0C8h],rbx
                    00
  00000000000002C6: 8B 05 08 00 00 00  mov         eax,dword ptr [aws_lc_0_21_1_OPENSSL_ia32cap_P+8]
  00000000000002CC: 25 20 01 00 00     and         eax,120h
  00000000000002D1: 35 20 01 00 00     xor         eax,120h
  00000000000002D6: 0F 84 24 48 00 00  je          chacha20_poly1305_open_avx2
  00000000000002DC: 48 81 FB 80 00 00  cmp         rbx,80h
                    00
  00000000000002E3: 0F 86 E1 1E 00 00  jbe         L$open_sse_128
  00000000000002E9: 66 0F 6F 05 00 00  movdqa      xmm0,xmmword ptr [.rdata]
                    00 00
  00000000000002F1: F3 41 0F 6F 21     movdqu      xmm4,xmmword ptr [r9]
  00000000000002F6: F3 45 0F 6F 41 10  movdqu      xmm8,xmmword ptr [r9+10h]
  00000000000002FC: F3 45 0F 6F 61 20  movdqu      xmm12,xmmword ptr [r9+20h]
  0000000000000302: 66 41 0F 6F FC     movdqa      xmm7,xmm12
  0000000000000307: 66 0F 7F A5 D0 00  movdqa      xmmword ptr [rbp+0D0h],xmm4
                    00 00
  000000000000030F: 66 44 0F 7F 85 E0  movdqa      xmmword ptr [rbp+0E0h],xmm8
                    00 00 00
  0000000000000318: 66 44 0F 7F A5 00  movdqa      xmmword ptr [rbp+100h],xmm12
                    01 00 00
  0000000000000321: 41 BA 0A 00 00 00  mov         r10d,0Ah
L$open_sse_init_rounds:
  0000000000000327: 66 0F FE C4        paddd       xmm0,xmm4
  000000000000032B: 66 44 0F EF E0     pxor        xmm12,xmm0
  0000000000000330: 66 44 0F 38 00 25  pshufb      xmm12,xmmword ptr [.rdata+40h]
                    40 00 00 00
  000000000000033A: 66 45 0F FE C4     paddd       xmm8,xmm12
  000000000000033F: 66 41 0F EF E0     pxor        xmm4,xmm8
  0000000000000344: 66 0F 6F DC        movdqa      xmm3,xmm4
  0000000000000348: 66 0F 72 F3 0C     pslld       xmm3,0Ch
  000000000000034D: 66 0F 72 D4 14     psrld       xmm4,14h
  0000000000000352: 66 0F EF E3        pxor        xmm4,xmm3
  0000000000000356: 66 0F FE C4        paddd       xmm0,xmm4
  000000000000035A: 66 44 0F EF E0     pxor        xmm12,xmm0
  000000000000035F: 66 44 0F 38 00 25  pshufb      xmm12,xmmword ptr [.rdata+20h]
                    20 00 00 00
  0000000000000369: 66 45 0F FE C4     paddd       xmm8,xmm12
  000000000000036E: 66 41 0F EF E0     pxor        xmm4,xmm8
  0000000000000373: 66 0F 6F DC        movdqa      xmm3,xmm4
  0000000000000377: 66 0F 72 F3 07     pslld       xmm3,7
  000000000000037C: 66 0F 72 D4 19     psrld       xmm4,19h
  0000000000000381: 66 0F EF E3        pxor        xmm4,xmm3
  0000000000000385: 66 0F 3A 0F E4 04  palignr     xmm4,xmm4,4
  000000000000038B: 66 45 0F 3A 0F C0  palignr     xmm8,xmm8,8
                    08
  0000000000000392: 66 45 0F 3A 0F E4  palignr     xmm12,xmm12,0Ch
                    0C
  0000000000000399: 66 0F FE C4        paddd       xmm0,xmm4
  000000000000039D: 66 44 0F EF E0     pxor        xmm12,xmm0
  00000000000003A2: 66 44 0F 38 00 25  pshufb      xmm12,xmmword ptr [.rdata+40h]
                    40 00 00 00
  00000000000003AC: 66 45 0F FE C4     paddd       xmm8,xmm12
  00000000000003B1: 66 41 0F EF E0     pxor        xmm4,xmm8
  00000000000003B6: 66 0F 6F DC        movdqa      xmm3,xmm4
  00000000000003BA: 66 0F 72 F3 0C     pslld       xmm3,0Ch
  00000000000003BF: 66 0F 72 D4 14     psrld       xmm4,14h
  00000000000003C4: 66 0F EF E3        pxor        xmm4,xmm3
  00000000000003C8: 66 0F FE C4        paddd       xmm0,xmm4
  00000000000003CC: 66 44 0F EF E0     pxor        xmm12,xmm0
  00000000000003D1: 66 44 0F 38 00 25  pshufb      xmm12,xmmword ptr [.rdata+20h]
                    20 00 00 00
  00000000000003DB: 66 45 0F FE C4     paddd       xmm8,xmm12
  00000000000003E0: 66 41 0F EF E0     pxor        xmm4,xmm8
  00000000000003E5: 66 0F 6F DC        movdqa      xmm3,xmm4
  00000000000003E9: 66 0F 72 F3 07     pslld       xmm3,7
  00000000000003EE: 66 0F 72 D4 19     psrld       xmm4,19h
  00000000000003F3: 66 0F EF E3        pxor        xmm4,xmm3
  00000000000003F7: 66 0F 3A 0F E4 0C  palignr     xmm4,xmm4,0Ch
  00000000000003FD: 66 45 0F 3A 0F C0  palignr     xmm8,xmm8,8
                    08
  0000000000000404: 66 45 0F 3A 0F E4  palignr     xmm12,xmm12,4
                    04
  000000000000040B: 49 FF CA           dec         r10
  000000000000040E: 0F 85 13 FF FF FF  jne         L$open_sse_init_rounds
  0000000000000414: 66 0F FE 05 00 00  paddd       xmm0,xmmword ptr [.rdata]
                    00 00
  000000000000041C: 66 0F FE A5 D0 00  paddd       xmm4,xmmword ptr [rbp+0D0h]
                    00 00
  0000000000000424: 66 0F DB 05 A0 00  pand        xmm0,xmmword ptr [.rdata+0A0h]
                    00 00
  000000000000042C: 66 0F 7F 85 A0 00  movdqa      xmmword ptr [rbp+0A0h],xmm0
                    00 00
  0000000000000434: 66 0F 7F A5 B0 00  movdqa      xmmword ptr [rbp+0B0h],xmm4
                    00 00
  000000000000043C: 4D 89 C0           mov         r8,r8
  000000000000043F: E8 BC FB FF FF     call        poly_hash_ad_internal
L$open_sse_main_loop:
  0000000000000444: 48 81 FB 00 01 00  cmp         rbx,100h
                    00
  000000000000044B: 0F 82 D6 07 00 00  jb          L$open_sse_tail
  0000000000000451: 66 0F 6F 05 00 00  movdqa      xmm0,xmmword ptr [.rdata]
                    00 00
  0000000000000459: 66 0F 6F A5 D0 00  movdqa      xmm4,xmmword ptr [rbp+0D0h]
                    00 00
  0000000000000461: 66 44 0F 6F 85 E0  movdqa      xmm8,xmmword ptr [rbp+0E0h]
                    00 00 00
  000000000000046A: 66 0F 6F C8        movdqa      xmm1,xmm0
  000000000000046E: 66 0F 6F EC        movdqa      xmm5,xmm4
  0000000000000472: 66 45 0F 6F C8     movdqa      xmm9,xmm8
  0000000000000477: 66 0F 6F D0        movdqa      xmm2,xmm0
  000000000000047B: 66 0F 6F F4        movdqa      xmm6,xmm4
  000000000000047F: 66 45 0F 6F D0     movdqa      xmm10,xmm8
  0000000000000484: 66 0F 6F D8        movdqa      xmm3,xmm0
  0000000000000488: 66 0F 6F FC        movdqa      xmm7,xmm4
  000000000000048C: 66 45 0F 6F D8     movdqa      xmm11,xmm8
  0000000000000491: 66 44 0F 6F BD 00  movdqa      xmm15,xmmword ptr [rbp+100h]
                    01 00 00
  000000000000049A: 66 44 0F FE 3D 70  paddd       xmm15,xmmword ptr [.rdata+70h]
                    00 00 00
  00000000000004A3: 66 45 0F 6F F7     movdqa      xmm14,xmm15
  00000000000004A8: 66 44 0F FE 35 70  paddd       xmm14,xmmword ptr [.rdata+70h]
                    00 00 00
  00000000000004B1: 66 45 0F 6F EE     movdqa      xmm13,xmm14
  00000000000004B6: 66 44 0F FE 2D 70  paddd       xmm13,xmmword ptr [.rdata+70h]
                    00 00 00
  00000000000004BF: 66 45 0F 6F E5     movdqa      xmm12,xmm13
  00000000000004C4: 66 44 0F FE 25 70  paddd       xmm12,xmmword ptr [.rdata+70h]
                    00 00 00
  00000000000004CD: 66 44 0F 7F A5 00  movdqa      xmmword ptr [rbp+100h],xmm12
                    01 00 00
  00000000000004D6: 66 44 0F 7F AD 10  movdqa      xmmword ptr [rbp+110h],xmm13
                    01 00 00
  00000000000004DF: 66 44 0F 7F B5 20  movdqa      xmmword ptr [rbp+120h],xmm14
                    01 00 00
  00000000000004E8: 66 44 0F 7F BD 30  movdqa      xmmword ptr [rbp+130h],xmm15
                    01 00 00
  00000000000004F1: B9 04 00 00 00     mov         ecx,4
  00000000000004F6: 49 89 F0           mov         r8,rsi
L$open_sse_main_loop_rounds:
  00000000000004F9: 66 44 0F 7F 85 F0  movdqa      xmmword ptr [rbp+0F0h],xmm8
                    00 00 00
  0000000000000502: 66 44 0F 6F 05 40  movdqa      xmm8,xmmword ptr [.rdata+40h]
                    00 00 00
  000000000000050B: 66 0F FE DF        paddd       xmm3,xmm7
  000000000000050F: 66 0F FE D6        paddd       xmm2,xmm6
  0000000000000513: 66 0F FE CD        paddd       xmm1,xmm5
  0000000000000517: 66 0F FE C4        paddd       xmm0,xmm4
  000000000000051B: 66 44 0F EF FB     pxor        xmm15,xmm3
  0000000000000520: 66 44 0F EF F2     pxor        xmm14,xmm2
  0000000000000525: 66 44 0F EF E9     pxor        xmm13,xmm1
  000000000000052A: 66 44 0F EF E0     pxor        xmm12,xmm0
  000000000000052F: 66 45 0F 38 00 F8  pshufb      xmm15,xmm8
  0000000000000535: 66 45 0F 38 00 F0  pshufb      xmm14,xmm8
  000000000000053B: 66 45 0F 38 00 E8  pshufb      xmm13,xmm8
  0000000000000541: 66 45 0F 38 00 E0  pshufb      xmm12,xmm8
  0000000000000547: 66 44 0F 6F 85 F0  movdqa      xmm8,xmmword ptr [rbp+0F0h]
                    00 00 00
  0000000000000550: 66 45 0F FE DF     paddd       xmm11,xmm15
  0000000000000555: 66 45 0F FE D6     paddd       xmm10,xmm14
  000000000000055A: 66 45 0F FE CD     paddd       xmm9,xmm13
  000000000000055F: 66 45 0F FE C4     paddd       xmm8,xmm12
  0000000000000564: 66 41 0F EF FB     pxor        xmm7,xmm11
  0000000000000569: 4D 03 10           add         r10,qword ptr [r8]
  000000000000056C: 4D 13 58 08        adc         r11,qword ptr [r8+8]
  0000000000000570: 49 83 D4 01        adc         r12,1
  0000000000000574: 4D 8D 40 10        lea         r8,[r8+10h]
  0000000000000578: 66 41 0F EF F2     pxor        xmm6,xmm10
  000000000000057D: 66 41 0F EF E9     pxor        xmm5,xmm9
  0000000000000582: 66 41 0F EF E0     pxor        xmm4,xmm8
  0000000000000587: 66 44 0F 7F 85 F0  movdqa      xmmword ptr [rbp+0F0h],xmm8
                    00 00 00
  0000000000000590: 66 44 0F 6F C7     movdqa      xmm8,xmm7
  0000000000000595: 66 41 0F 72 D0 14  psrld       xmm8,14h
  000000000000059B: 66 0F 72 F7 0C     pslld       xmm7,0Ch
  00000000000005A0: 66 41 0F EF F8     pxor        xmm7,xmm8
  00000000000005A5: 66 44 0F 6F C6     movdqa      xmm8,xmm6
  00000000000005AA: 66 41 0F 72 D0 14  psrld       xmm8,14h
  00000000000005B0: 66 0F 72 F6 0C     pslld       xmm6,0Ch
  00000000000005B5: 66 41 0F EF F0     pxor        xmm6,xmm8
  00000000000005BA: 66 44 0F 6F C5     movdqa      xmm8,xmm5
  00000000000005BF: 66 41 0F 72 D0 14  psrld       xmm8,14h
  00000000000005C5: 66 0F 72 F5 0C     pslld       xmm5,0Ch
  00000000000005CA: 66 41 0F EF E8     pxor        xmm5,xmm8
  00000000000005CF: 66 44 0F 6F C4     movdqa      xmm8,xmm4
  00000000000005D4: 66 41 0F 72 D0 14  psrld       xmm8,14h
  00000000000005DA: 66 0F 72 F4 0C     pslld       xmm4,0Ch
  00000000000005DF: 66 41 0F EF E0     pxor        xmm4,xmm8
  00000000000005E4: 48 8B 85 A0 00 00  mov         rax,qword ptr [rbp+0A0h]
                    00
  00000000000005EB: 49 89 C7           mov         r15,rax
  00000000000005EE: 49 F7 E2           mul         rax,r10
  00000000000005F1: 49 89 C5           mov         r13,rax
  00000000000005F4: 49 89 D6           mov         r14,rdx
  00000000000005F7: 48 8B 85 A0 00 00  mov         rax,qword ptr [rbp+0A0h]
                    00
  00000000000005FE: 49 F7 E3           mul         rax,r11
  0000000000000601: 4D 0F AF FC        imul        r15,r12
  0000000000000605: 49 01 C6           add         r14,rax
  0000000000000608: 49 11 D7           adc         r15,rdx
  000000000000060B: 66 44 0F 6F 05 20  movdqa      xmm8,xmmword ptr [.rdata+20h]
                    00 00 00
  0000000000000614: 66 0F FE DF        paddd       xmm3,xmm7
  0000000000000618: 66 0F FE D6        paddd       xmm2,xmm6
  000000000000061C: 66 0F FE CD        paddd       xmm1,xmm5
  0000000000000620: 66 0F FE C4        paddd       xmm0,xmm4
  0000000000000624: 66 44 0F EF FB     pxor        xmm15,xmm3
  0000000000000629: 66 44 0F EF F2     pxor        xmm14,xmm2
  000000000000062E: 66 44 0F EF E9     pxor        xmm13,xmm1
  0000000000000633: 66 44 0F EF E0     pxor        xmm12,xmm0
  0000000000000638: 66 45 0F 38 00 F8  pshufb      xmm15,xmm8
  000000000000063E: 66 45 0F 38 00 F0  pshufb      xmm14,xmm8
  0000000000000644: 66 45 0F 38 00 E8  pshufb      xmm13,xmm8
  000000000000064A: 66 45 0F 38 00 E0  pshufb      xmm12,xmm8
  0000000000000650: 66 44 0F 6F 85 F0  movdqa      xmm8,xmmword ptr [rbp+0F0h]
                    00 00 00
  0000000000000659: 66 45 0F FE DF     paddd       xmm11,xmm15
  000000000000065E: 66 45 0F FE D6     paddd       xmm10,xmm14
  0000000000000663: 66 45 0F FE CD     paddd       xmm9,xmm13
  0000000000000668: 66 45 0F FE C4     paddd       xmm8,xmm12
  000000000000066D: 66 41 0F EF FB     pxor        xmm7,xmm11
  0000000000000672: 66 41 0F EF F2     pxor        xmm6,xmm10
  0000000000000677: 48 8B 85 A8 00 00  mov         rax,qword ptr [rbp+0A8h]
                    00
  000000000000067E: 49 89 C1           mov         r9,rax
  0000000000000681: 49 F7 E2           mul         rax,r10
  0000000000000684: 49 01 C6           add         r14,rax
  0000000000000687: 48 83 D2 00        adc         rdx,0
  000000000000068B: 49 89 D2           mov         r10,rdx
  000000000000068E: 48 8B 85 A8 00 00  mov         rax,qword ptr [rbp+0A8h]
                    00
  0000000000000695: 49 F7 E3           mul         rax,r11
  0000000000000698: 49 01 C7           add         r15,rax
  000000000000069B: 48 83 D2 00        adc         rdx,0
  000000000000069F: 66 41 0F EF E9     pxor        xmm5,xmm9
  00000000000006A4: 66 41 0F EF E0     pxor        xmm4,xmm8
  00000000000006A9: 66 44 0F 7F 85 F0  movdqa      xmmword ptr [rbp+0F0h],xmm8
                    00 00 00
  00000000000006B2: 66 44 0F 6F C7     movdqa      xmm8,xmm7
  00000000000006B7: 66 41 0F 72 D0 19  psrld       xmm8,19h
  00000000000006BD: 66 0F 72 F7 07     pslld       xmm7,7
  00000000000006C2: 66 41 0F EF F8     pxor        xmm7,xmm8
  00000000000006C7: 66 44 0F 6F C6     movdqa      xmm8,xmm6
  00000000000006CC: 66 41 0F 72 D0 19  psrld       xmm8,19h
  00000000000006D2: 66 0F 72 F6 07     pslld       xmm6,7
  00000000000006D7: 66 41 0F EF F0     pxor        xmm6,xmm8
  00000000000006DC: 66 44 0F 6F C5     movdqa      xmm8,xmm5
  00000000000006E1: 66 41 0F 72 D0 19  psrld       xmm8,19h
  00000000000006E7: 66 0F 72 F5 07     pslld       xmm5,7
  00000000000006EC: 66 41 0F EF E8     pxor        xmm5,xmm8
  00000000000006F1: 66 44 0F 6F C4     movdqa      xmm8,xmm4
  00000000000006F6: 66 41 0F 72 D0 19  psrld       xmm8,19h
  00000000000006FC: 66 0F 72 F4 07     pslld       xmm4,7
  0000000000000701: 66 41 0F EF E0     pxor        xmm4,xmm8
  0000000000000706: 66 44 0F 6F 85 F0  movdqa      xmm8,xmmword ptr [rbp+0F0h]
                    00 00 00
  000000000000070F: 4D 0F AF CC        imul        r9,r12
  0000000000000713: 4D 01 D7           add         r15,r10
  0000000000000716: 49 11 D1           adc         r9,rdx
  0000000000000719: 66 0F 3A 0F FF 04  palignr     xmm7,xmm7,4
  000000000000071F: 66 45 0F 3A 0F DB  palignr     xmm11,xmm11,8
                    08
  0000000000000726: 66 45 0F 3A 0F FF  palignr     xmm15,xmm15,0Ch
                    0C
  000000000000072D: 66 0F 3A 0F F6 04  palignr     xmm6,xmm6,4
  0000000000000733: 66 45 0F 3A 0F D2  palignr     xmm10,xmm10,8
                    08
  000000000000073A: 66 45 0F 3A 0F F6  palignr     xmm14,xmm14,0Ch
                    0C
  0000000000000741: 66 0F 3A 0F ED 04  palignr     xmm5,xmm5,4
  0000000000000747: 66 45 0F 3A 0F C9  palignr     xmm9,xmm9,8
                    08
  000000000000074E: 66 45 0F 3A 0F ED  palignr     xmm13,xmm13,0Ch
                    0C
  0000000000000755: 66 0F 3A 0F E4 04  palignr     xmm4,xmm4,4
  000000000000075B: 66 45 0F 3A 0F C0  palignr     xmm8,xmm8,8
                    08
  0000000000000762: 66 45 0F 3A 0F E4  palignr     xmm12,xmm12,0Ch
                    0C
  0000000000000769: 66 44 0F 7F 85 F0  movdqa      xmmword ptr [rbp+0F0h],xmm8
                    00 00 00
  0000000000000772: 66 44 0F 6F 05 40  movdqa      xmm8,xmmword ptr [.rdata+40h]
                    00 00 00
  000000000000077B: 66 0F FE DF        paddd       xmm3,xmm7
  000000000000077F: 66 0F FE D6        paddd       xmm2,xmm6
  0000000000000783: 66 0F FE CD        paddd       xmm1,xmm5
  0000000000000787: 66 0F FE C4        paddd       xmm0,xmm4
  000000000000078B: 66 44 0F EF FB     pxor        xmm15,xmm3
  0000000000000790: 66 44 0F EF F2     pxor        xmm14,xmm2
  0000000000000795: 4D 89 EA           mov         r10,r13
  0000000000000798: 4D 89 F3           mov         r11,r14
  000000000000079B: 4D 89 FC           mov         r12,r15
  000000000000079E: 49 83 E4 03        and         r12,3
  00000000000007A2: 4D 89 FD           mov         r13,r15
  00000000000007A5: 49 83 E5 FC        and         r13,0FFFFFFFFFFFFFFFCh
  00000000000007A9: 4D 89 CE           mov         r14,r9
  00000000000007AC: 4D 0F AC CF 02     shrd        r15,r9,2
  00000000000007B1: 49 C1 E9 02        shr         r9,2
  00000000000007B5: 4D 01 EF           add         r15,r13
  00000000000007B8: 4D 11 F1           adc         r9,r14
  00000000000007BB: 4D 01 FA           add         r10,r15
  00000000000007BE: 4D 11 CB           adc         r11,r9
  00000000000007C1: 49 83 D4 00        adc         r12,0
  00000000000007C5: 66 44 0F EF E9     pxor        xmm13,xmm1
  00000000000007CA: 66 44 0F EF E0     pxor        xmm12,xmm0
  00000000000007CF: 66 45 0F 38 00 F8  pshufb      xmm15,xmm8
  00000000000007D5: 66 45 0F 38 00 F0  pshufb      xmm14,xmm8
  00000000000007DB: 66 45 0F 38 00 E8  pshufb      xmm13,xmm8
  00000000000007E1: 66 45 0F 38 00 E0  pshufb      xmm12,xmm8
  00000000000007E7: 66 44 0F 6F 85 F0  movdqa      xmm8,xmmword ptr [rbp+0F0h]
                    00 00 00
  00000000000007F0: 66 45 0F FE DF     paddd       xmm11,xmm15
  00000000000007F5: 66 45 0F FE D6     paddd       xmm10,xmm14
  00000000000007FA: 66 45 0F FE CD     paddd       xmm9,xmm13
  00000000000007FF: 66 45 0F FE C4     paddd       xmm8,xmm12
  0000000000000804: 66 41 0F EF FB     pxor        xmm7,xmm11
  0000000000000809: 66 41 0F EF F2     pxor        xmm6,xmm10
  000000000000080E: 66 41 0F EF E9     pxor        xmm5,xmm9
  0000000000000813: 66 41 0F EF E0     pxor        xmm4,xmm8
  0000000000000818: 66 44 0F 7F 85 F0  movdqa      xmmword ptr [rbp+0F0h],xmm8
                    00 00 00
  0000000000000821: 66 44 0F 6F C7     movdqa      xmm8,xmm7
  0000000000000826: 66 41 0F 72 D0 14  psrld       xmm8,14h
  000000000000082C: 66 0F 72 F7 0C     pslld       xmm7,0Ch
  0000000000000831: 66 41 0F EF F8     pxor        xmm7,xmm8
  0000000000000836: 66 44 0F 6F C6     movdqa      xmm8,xmm6
  000000000000083B: 66 41 0F 72 D0 14  psrld       xmm8,14h
  0000000000000841: 66 0F 72 F6 0C     pslld       xmm6,0Ch
  0000000000000846: 66 41 0F EF F0     pxor        xmm6,xmm8
  000000000000084B: 66 44 0F 6F C5     movdqa      xmm8,xmm5
  0000000000000850: 66 41 0F 72 D0 14  psrld       xmm8,14h
  0000000000000856: 66 0F 72 F5 0C     pslld       xmm5,0Ch
  000000000000085B: 66 41 0F EF E8     pxor        xmm5,xmm8
  0000000000000860: 66 44 0F 6F C4     movdqa      xmm8,xmm4
  0000000000000865: 66 41 0F 72 D0 14  psrld       xmm8,14h
  000000000000086B: 66 0F 72 F4 0C     pslld       xmm4,0Ch
  0000000000000870: 66 41 0F EF E0     pxor        xmm4,xmm8
  0000000000000875: 66 44 0F 6F 05 20  movdqa      xmm8,xmmword ptr [.rdata+20h]
                    00 00 00
  000000000000087E: 66 0F FE DF        paddd       xmm3,xmm7
  0000000000000882: 66 0F FE D6        paddd       xmm2,xmm6
  0000000000000886: 66 0F FE CD        paddd       xmm1,xmm5
  000000000000088A: 66 0F FE C4        paddd       xmm0,xmm4
  000000000000088E: 66 44 0F EF FB     pxor        xmm15,xmm3
  0000000000000893: 66 44 0F EF F2     pxor        xmm14,xmm2
  0000000000000898: 66 44 0F EF E9     pxor        xmm13,xmm1
  000000000000089D: 66 44 0F EF E0     pxor        xmm12,xmm0
  00000000000008A2: 66 45 0F 38 00 F8  pshufb      xmm15,xmm8
  00000000000008A8: 66 45 0F 38 00 F0  pshufb      xmm14,xmm8
  00000000000008AE: 66 45 0F 38 00 E8  pshufb      xmm13,xmm8
  00000000000008B4: 66 45 0F 38 00 E0  pshufb      xmm12,xmm8
  00000000000008BA: 66 44 0F 6F 85 F0  movdqa      xmm8,xmmword ptr [rbp+0F0h]
                    00 00 00
  00000000000008C3: 66 45 0F FE DF     paddd       xmm11,xmm15
  00000000000008C8: 66 45 0F FE D6     paddd       xmm10,xmm14
  00000000000008CD: 66 45 0F FE CD     paddd       xmm9,xmm13
  00000000000008D2: 66 45 0F FE C4     paddd       xmm8,xmm12
  00000000000008D7: 66 41 0F EF FB     pxor        xmm7,xmm11
  00000000000008DC: 66 41 0F EF F2     pxor        xmm6,xmm10
  00000000000008E1: 66 41 0F EF E9     pxor        xmm5,xmm9
  00000000000008E6: 66 41 0F EF E0     pxor        xmm4,xmm8
  00000000000008EB: 66 44 0F 7F 85 F0  movdqa      xmmword ptr [rbp+0F0h],xmm8
                    00 00 00
  00000000000008F4: 66 44 0F 6F C7     movdqa      xmm8,xmm7
  00000000000008F9: 66 41 0F 72 D0 19  psrld       xmm8,19h
  00000000000008FF: 66 0F 72 F7 07     pslld       xmm7,7
  0000000000000904: 66 41 0F EF F8     pxor        xmm7,xmm8
  0000000000000909: 66 44 0F 6F C6     movdqa      xmm8,xmm6
  000000000000090E: 66 41 0F 72 D0 19  psrld       xmm8,19h
  0000000000000914: 66 0F 72 F6 07     pslld       xmm6,7
  0000000000000919: 66 41 0F EF F0     pxor        xmm6,xmm8
  000000000000091E: 66 44 0F 6F C5     movdqa      xmm8,xmm5
  0000000000000923: 66 41 0F 72 D0 19  psrld       xmm8,19h
  0000000000000929: 66 0F 72 F5 07     pslld       xmm5,7
  000000000000092E: 66 41 0F EF E8     pxor        xmm5,xmm8
  0000000000000933: 66 44 0F 6F C4     movdqa      xmm8,xmm4
  0000000000000938: 66 41 0F 72 D0 19  psrld       xmm8,19h
  000000000000093E: 66 0F 72 F4 07     pslld       xmm4,7
  0000000000000943: 66 41 0F EF E0     pxor        xmm4,xmm8
  0000000000000948: 66 44 0F 6F 85 F0  movdqa      xmm8,xmmword ptr [rbp+0F0h]
                    00 00 00
  0000000000000951: 66 0F 3A 0F FF 0C  palignr     xmm7,xmm7,0Ch
  0000000000000957: 66 45 0F 3A 0F DB  palignr     xmm11,xmm11,8
                    08
  000000000000095E: 66 45 0F 3A 0F FF  palignr     xmm15,xmm15,4
                    04
  0000000000000965: 66 0F 3A 0F F6 0C  palignr     xmm6,xmm6,0Ch
  000000000000096B: 66 45 0F 3A 0F D2  palignr     xmm10,xmm10,8
                    08
  0000000000000972: 66 45 0F 3A 0F F6  palignr     xmm14,xmm14,4
                    04
  0000000000000979: 66 0F 3A 0F ED 0C  palignr     xmm5,xmm5,0Ch
  000000000000097F: 66 45 0F 3A 0F C9  palignr     xmm9,xmm9,8
                    08
  0000000000000986: 66 45 0F 3A 0F ED  palignr     xmm13,xmm13,4
                    04
  000000000000098D: 66 0F 3A 0F E4 0C  palignr     xmm4,xmm4,0Ch
  0000000000000993: 66 45 0F 3A 0F C0  palignr     xmm8,xmm8,8
                    08
  000000000000099A: 66 45 0F 3A 0F E4  palignr     xmm12,xmm12,4
                    04
  00000000000009A1: 48 FF C9           dec         rcx
  00000000000009A4: 0F 8D 4F FB FF FF  jge         L$open_sse_main_loop_rounds
  00000000000009AA: 4D 03 10           add         r10,qword ptr [r8]
  00000000000009AD: 4D 13 58 08        adc         r11,qword ptr [r8+8]
  00000000000009B1: 49 83 D4 01        adc         r12,1
  00000000000009B5: 48 8B 85 A0 00 00  mov         rax,qword ptr [rbp+0A0h]
                    00
  00000000000009BC: 49 89 C7           mov         r15,rax
  00000000000009BF: 49 F7 E2           mul         rax,r10
  00000000000009C2: 49 89 C5           mov         r13,rax
  00000000000009C5: 49 89 D6           mov         r14,rdx
  00000000000009C8: 48 8B 85 A0 00 00  mov         rax,qword ptr [rbp+0A0h]
                    00
  00000000000009CF: 49 F7 E3           mul         rax,r11
  00000000000009D2: 4D 0F AF FC        imul        r15,r12
  00000000000009D6: 49 01 C6           add         r14,rax
  00000000000009D9: 49 11 D7           adc         r15,rdx
  00000000000009DC: 48 8B 85 A8 00 00  mov         rax,qword ptr [rbp+0A8h]
                    00
  00000000000009E3: 49 89 C1           mov         r9,rax
  00000000000009E6: 49 F7 E2           mul         rax,r10
  00000000000009E9: 49 01 C6           add         r14,rax
  00000000000009EC: 48 83 D2 00        adc         rdx,0
  00000000000009F0: 49 89 D2           mov         r10,rdx
  00000000000009F3: 48 8B 85 A8 00 00  mov         rax,qword ptr [rbp+0A8h]
                    00
  00000000000009FA: 49 F7 E3           mul         rax,r11
  00000000000009FD: 49 01 C7           add         r15,rax
  0000000000000A00: 48 83 D2 00        adc         rdx,0
  0000000000000A04: 4D 0F AF CC        imul        r9,r12
  0000000000000A08: 4D 01 D7           add         r15,r10
  0000000000000A0B: 49 11 D1           adc         r9,rdx
  0000000000000A0E: 4D 89 EA           mov         r10,r13
  0000000000000A11: 4D 89 F3           mov         r11,r14
  0000000000000A14: 4D 89 FC           mov         r12,r15
  0000000000000A17: 49 83 E4 03        and         r12,3
  0000000000000A1B: 4D 89 FD           mov         r13,r15
  0000000000000A1E: 49 83 E5 FC        and         r13,0FFFFFFFFFFFFFFFCh
  0000000000000A22: 4D 89 CE           mov         r14,r9
  0000000000000A25: 4D 0F AC CF 02     shrd        r15,r9,2
  0000000000000A2A: 49 C1 E9 02        shr         r9,2
  0000000000000A2E: 4D 01 EF           add         r15,r13
  0000000000000A31: 4D 11 F1           adc         r9,r14
  0000000000000A34: 4D 01 FA           add         r10,r15
  0000000000000A37: 4D 11 CB           adc         r11,r9
  0000000000000A3A: 49 83 D4 00        adc         r12,0
  0000000000000A3E: 4D 8D 40 10        lea         r8,[r8+10h]
  0000000000000A42: 48 83 F9 FA        cmp         rcx,0FFFFFFFFFFFFFFFAh
  0000000000000A46: 0F 8F AD FA FF FF  jg          L$open_sse_main_loop_rounds
  0000000000000A4C: 66 0F FE 1D 00 00  paddd       xmm3,xmmword ptr [.rdata]
                    00 00
  0000000000000A54: 66 0F FE BD D0 00  paddd       xmm7,xmmword ptr [rbp+0D0h]
                    00 00
  0000000000000A5C: 66 44 0F FE 9D E0  paddd       xmm11,xmmword ptr [rbp+0E0h]
                    00 00 00
  0000000000000A65: 66 44 0F FE BD 30  paddd       xmm15,xmmword ptr [rbp+130h]
                    01 00 00
  0000000000000A6E: 66 0F FE 15 00 00  paddd       xmm2,xmmword ptr [.rdata]
                    00 00
  0000000000000A76: 66 0F FE B5 D0 00  paddd       xmm6,xmmword ptr [rbp+0D0h]
                    00 00
  0000000000000A7E: 66 44 0F FE 95 E0  paddd       xmm10,xmmword ptr [rbp+0E0h]
                    00 00 00
  0000000000000A87: 66 44 0F FE B5 20  paddd       xmm14,xmmword ptr [rbp+120h]
                    01 00 00
  0000000000000A90: 66 0F FE 0D 00 00  paddd       xmm1,xmmword ptr [.rdata]
                    00 00
  0000000000000A98: 66 0F FE AD D0 00  paddd       xmm5,xmmword ptr [rbp+0D0h]
                    00 00
  0000000000000AA0: 66 44 0F FE 8D E0  paddd       xmm9,xmmword ptr [rbp+0E0h]
                    00 00 00
  0000000000000AA9: 66 44 0F FE AD 10  paddd       xmm13,xmmword ptr [rbp+110h]
                    01 00 00
  0000000000000AB2: 66 0F FE 05 00 00  paddd       xmm0,xmmword ptr [.rdata]
                    00 00
  0000000000000ABA: 66 0F FE A5 D0 00  paddd       xmm4,xmmword ptr [rbp+0D0h]
                    00 00
  0000000000000AC2: 66 44 0F FE 85 E0  paddd       xmm8,xmmword ptr [rbp+0E0h]
                    00 00 00
  0000000000000ACB: 66 44 0F FE A5 00  paddd       xmm12,xmmword ptr [rbp+100h]
                    01 00 00
  0000000000000AD4: 66 44 0F 7F A5 F0  movdqa      xmmword ptr [rbp+0F0h],xmm12
                    00 00 00
  0000000000000ADD: F3 44 0F 6F 26     movdqu      xmm12,xmmword ptr [rsi]
  0000000000000AE2: 66 44 0F EF E3     pxor        xmm12,xmm3
  0000000000000AE7: F3 44 0F 7F 27     movdqu      xmmword ptr [rdi],xmm12
  0000000000000AEC: F3 44 0F 6F 66 10  movdqu      xmm12,xmmword ptr [rsi+10h]
  0000000000000AF2: 66 44 0F EF E7     pxor        xmm12,xmm7
  0000000000000AF7: F3 44 0F 7F 67 10  movdqu      xmmword ptr [rdi+10h],xmm12
  0000000000000AFD: F3 44 0F 6F 66 20  movdqu      xmm12,xmmword ptr [rsi+20h]
  0000000000000B03: 66 45 0F EF E3     pxor        xmm12,xmm11
  0000000000000B08: F3 44 0F 7F 67 20  movdqu      xmmword ptr [rdi+20h],xmm12
  0000000000000B0E: F3 44 0F 6F 66 30  movdqu      xmm12,xmmword ptr [rsi+30h]
  0000000000000B14: 66 45 0F EF E7     pxor        xmm12,xmm15
  0000000000000B19: F3 44 0F 7F 67 30  movdqu      xmmword ptr [rdi+30h],xmm12
  0000000000000B1F: F3 0F 6F 5E 40     movdqu      xmm3,xmmword ptr [rsi+40h]
  0000000000000B24: F3 0F 6F 7E 50     movdqu      xmm7,xmmword ptr [rsi+50h]
  0000000000000B29: F3 44 0F 6F 5E 60  movdqu      xmm11,xmmword ptr [rsi+60h]
  0000000000000B2F: F3 44 0F 6F 7E 70  movdqu      xmm15,xmmword ptr [rsi+70h]
  0000000000000B35: 66 0F EF D3        pxor        xmm2,xmm3
  0000000000000B39: 66 0F EF F7        pxor        xmm6,xmm7
  0000000000000B3D: 66 45 0F EF D3     pxor        xmm10,xmm11
  0000000000000B42: 66 45 0F EF FE     pxor        xmm15,xmm14
  0000000000000B47: F3 0F 7F 57 40     movdqu      xmmword ptr [rdi+40h],xmm2
  0000000000000B4C: F3 0F 7F 77 50     movdqu      xmmword ptr [rdi+50h],xmm6
  0000000000000B51: F3 44 0F 7F 57 60  movdqu      xmmword ptr [rdi+60h],xmm10
  0000000000000B57: F3 44 0F 7F 7F 70  movdqu      xmmword ptr [rdi+70h],xmm15
  0000000000000B5D: F3 0F 6F 9E 80 00  movdqu      xmm3,xmmword ptr [rsi+80h]
                    00 00
  0000000000000B65: F3 0F 6F BE 90 00  movdqu      xmm7,xmmword ptr [rsi+90h]
                    00 00
  0000000000000B6D: F3 44 0F 6F 9E A0  movdqu      xmm11,xmmword ptr [rsi+0A0h]
                    00 00 00
  0000000000000B76: F3 44 0F 6F BE B0  movdqu      xmm15,xmmword ptr [rsi+0B0h]
                    00 00 00
  0000000000000B7F: 66 0F EF CB        pxor        xmm1,xmm3
  0000000000000B83: 66 0F EF EF        pxor        xmm5,xmm7
  0000000000000B87: 66 45 0F EF CB     pxor        xmm9,xmm11
  0000000000000B8C: 66 45 0F EF FD     pxor        xmm15,xmm13
  0000000000000B91: F3 0F 7F 8F 80 00  movdqu      xmmword ptr [rdi+80h],xmm1
                    00 00
  0000000000000B99: F3 0F 7F AF 90 00  movdqu      xmmword ptr [rdi+90h],xmm5
                    00 00
  0000000000000BA1: F3 44 0F 7F 8F A0  movdqu      xmmword ptr [rdi+0A0h],xmm9
                    00 00 00
  0000000000000BAA: F3 44 0F 7F BF B0  movdqu      xmmword ptr [rdi+0B0h],xmm15
                    00 00 00
  0000000000000BB3: F3 0F 6F 9E C0 00  movdqu      xmm3,xmmword ptr [rsi+0C0h]
                    00 00
  0000000000000BBB: F3 0F 6F BE D0 00  movdqu      xmm7,xmmword ptr [rsi+0D0h]
                    00 00
  0000000000000BC3: F3 44 0F 6F 9E E0  movdqu      xmm11,xmmword ptr [rsi+0E0h]
                    00 00 00
  0000000000000BCC: F3 44 0F 6F BE F0  movdqu      xmm15,xmmword ptr [rsi+0F0h]
                    00 00 00
  0000000000000BD5: 66 0F EF C3        pxor        xmm0,xmm3
  0000000000000BD9: 66 0F EF E7        pxor        xmm4,xmm7
  0000000000000BDD: 66 45 0F EF C3     pxor        xmm8,xmm11
  0000000000000BE2: 66 44 0F EF BD F0  pxor        xmm15,xmmword ptr [rbp+0F0h]
                    00 00 00
  0000000000000BEB: F3 0F 7F 87 C0 00  movdqu      xmmword ptr [rdi+0C0h],xmm0
                    00 00
  0000000000000BF3: F3 0F 7F A7 D0 00  movdqu      xmmword ptr [rdi+0D0h],xmm4
                    00 00
  0000000000000BFB: F3 44 0F 7F 87 E0  movdqu      xmmword ptr [rdi+0E0h],xmm8
                    00 00 00
  0000000000000C04: F3 44 0F 7F BF F0  movdqu      xmmword ptr [rdi+0F0h],xmm15
                    00 00 00
  0000000000000C0D: 48 8D B6 00 01 00  lea         rsi,[rsi+100h]
                    00
  0000000000000C14: 48 8D BF 00 01 00  lea         rdi,[rdi+100h]
                    00
  0000000000000C1B: 48 81 EB 00 01 00  sub         rbx,100h
                    00
  0000000000000C22: E9 1D F8 FF FF     jmp         L$open_sse_main_loop
L$open_sse_tail:
  0000000000000C27: 48 85 DB           test        rbx,rbx
  0000000000000C2A: 0F 84 74 14 00 00  je          L$open_sse_finalize
  0000000000000C30: 48 81 FB C0 00 00  cmp         rbx,0C0h
                    00
  0000000000000C37: 0F 87 C3 0B 00 00  ja          L$open_sse_tail_256
  0000000000000C3D: 48 81 FB 80 00 00  cmp         rbx,80h
                    00
  0000000000000C44: 0F 87 79 05 00 00  ja          L$open_sse_tail_192
  0000000000000C4A: 48 83 FB 40        cmp         rbx,40h
  0000000000000C4E: 0F 87 04 02 00 00  ja          L$open_sse_tail_128
  0000000000000C54: 66 0F 6F 05 00 00  movdqa      xmm0,xmmword ptr [.rdata]
                    00 00
  0000000000000C5C: 66 0F 6F A5 D0 00  movdqa      xmm4,xmmword ptr [rbp+0D0h]
                    00 00
  0000000000000C64: 66 44 0F 6F 85 E0  movdqa      xmm8,xmmword ptr [rbp+0E0h]
                    00 00 00
  0000000000000C6D: 66 44 0F 6F A5 00  movdqa      xmm12,xmmword ptr [rbp+100h]
                    01 00 00
  0000000000000C76: 66 44 0F FE 25 70  paddd       xmm12,xmmword ptr [.rdata+70h]
                    00 00 00
  0000000000000C7F: 66 44 0F 7F A5 00  movdqa      xmmword ptr [rbp+100h],xmm12
                    01 00 00
  0000000000000C88: 4D 31 C0           xor         r8,r8
  0000000000000C8B: 48 89 D9           mov         rcx,rbx
  0000000000000C8E: 48 83 F9 10        cmp         rcx,10h
  0000000000000C92: 0F 82 9A 00 00 00  jb          L$open_sse_tail_64_rounds
L$open_sse_tail_64_rounds_and_x1hash:
  0000000000000C98: 4E 03 14 06        add         r10,qword ptr [rsi+r8]
  0000000000000C9C: 4D 13 5C 30 08     adc         r11,qword ptr [r8+rsi+8]
  0000000000000CA1: 49 83 D4 01        adc         r12,1
  0000000000000CA5: 48 8B 85 A0 00 00  mov         rax,qword ptr [rbp+0A0h]
                    00
  0000000000000CAC: 49 89 C7           mov         r15,rax
  0000000000000CAF: 49 F7 E2           mul         rax,r10
  0000000000000CB2: 49 89 C5           mov         r13,rax
  0000000000000CB5: 49 89 D6           mov         r14,rdx
  0000000000000CB8: 48 8B 85 A0 00 00  mov         rax,qword ptr [rbp+0A0h]
                    00
  0000000000000CBF: 49 F7 E3           mul         rax,r11
  0000000000000CC2: 4D 0F AF FC        imul        r15,r12
  0000000000000CC6: 49 01 C6           add         r14,rax
  0000000000000CC9: 49 11 D7           adc         r15,rdx
  0000000000000CCC: 48 8B 85 A8 00 00  mov         rax,qword ptr [rbp+0A8h]
                    00
  0000000000000CD3: 49 89 C1           mov         r9,rax
  0000000000000CD6: 49 F7 E2           mul         rax,r10
  0000000000000CD9: 49 01 C6           add         r14,rax
  0000000000000CDC: 48 83 D2 00        adc         rdx,0
  0000000000000CE0: 49 89 D2           mov         r10,rdx
  0000000000000CE3: 48 8B 85 A8 00 00  mov         rax,qword ptr [rbp+0A8h]
                    00
  0000000000000CEA: 49 F7 E3           mul         rax,r11
  0000000000000CED: 49 01 C7           add         r15,rax
  0000000000000CF0: 48 83 D2 00        adc         rdx,0
  0000000000000CF4: 4D 0F AF CC        imul        r9,r12
  0000000000000CF8: 4D 01 D7           add         r15,r10
  0000000000000CFB: 49 11 D1           adc         r9,rdx
  0000000000000CFE: 4D 89 EA           mov         r10,r13
  0000000000000D01: 4D 89 F3           mov         r11,r14
  0000000000000D04: 4D 89 FC           mov         r12,r15
  0000000000000D07: 49 83 E4 03        and         r12,3
  0000000000000D0B: 4D 89 FD           mov         r13,r15
  0000000000000D0E: 49 83 E5 FC        and         r13,0FFFFFFFFFFFFFFFCh
  0000000000000D12: 4D 89 CE           mov         r14,r9
  0000000000000D15: 4D 0F AC CF 02     shrd        r15,r9,2
  0000000000000D1A: 49 C1 E9 02        shr         r9,2
  0000000000000D1E: 4D 01 EF           add         r15,r13
  0000000000000D21: 4D 11 F1           adc         r9,r14
  0000000000000D24: 4D 01 FA           add         r10,r15
  0000000000000D27: 4D 11 CB           adc         r11,r9
  0000000000000D2A: 49 83 D4 00        adc         r12,0
  0000000000000D2E: 48 83 E9 10        sub         rcx,10h
L$open_sse_tail_64_rounds:
  0000000000000D32: 49 83 C0 10        add         r8,10h
  0000000000000D36: 66 0F FE C4        paddd       xmm0,xmm4
  0000000000000D3A: 66 44 0F EF E0     pxor        xmm12,xmm0
  0000000000000D3F: 66 44 0F 38 00 25  pshufb      xmm12,xmmword ptr [.rdata+40h]
                    40 00 00 00
  0000000000000D49: 66 45 0F FE C4     paddd       xmm8,xmm12
  0000000000000D4E: 66 41 0F EF E0     pxor        xmm4,xmm8
  0000000000000D53: 66 0F 6F DC        movdqa      xmm3,xmm4
  0000000000000D57: 66 0F 72 F3 0C     pslld       xmm3,0Ch
  0000000000000D5C: 66 0F 72 D4 14     psrld       xmm4,14h
  0000000000000D61: 66 0F EF E3        pxor        xmm4,xmm3
  0000000000000D65: 66 0F FE C4        paddd       xmm0,xmm4
  0000000000000D69: 66 44 0F EF E0     pxor        xmm12,xmm0
  0000000000000D6E: 66 44 0F 38 00 25  pshufb      xmm12,xmmword ptr [.rdata+20h]
                    20 00 00 00
  0000000000000D78: 66 45 0F FE C4     paddd       xmm8,xmm12
  0000000000000D7D: 66 41 0F EF E0     pxor        xmm4,xmm8
  0000000000000D82: 66 0F 6F DC        movdqa      xmm3,xmm4
  0000000000000D86: 66 0F 72 F3 07     pslld       xmm3,7
  0000000000000D8B: 66 0F 72 D4 19     psrld       xmm4,19h
  0000000000000D90: 66 0F EF E3        pxor        xmm4,xmm3
  0000000000000D94: 66 0F 3A 0F E4 04  palignr     xmm4,xmm4,4
  0000000000000D9A: 66 45 0F 3A 0F C0  palignr     xmm8,xmm8,8
                    08
  0000000000000DA1: 66 45 0F 3A 0F E4  palignr     xmm12,xmm12,0Ch
                    0C
  0000000000000DA8: 66 0F FE C4        paddd       xmm0,xmm4
  0000000000000DAC: 66 44 0F EF E0     pxor        xmm12,xmm0
  0000000000000DB1: 66 44 0F 38 00 25  pshufb      xmm12,xmmword ptr [.rdata+40h]
                    40 00 00 00
  0000000000000DBB: 66 45 0F FE C4     paddd       xmm8,xmm12
  0000000000000DC0: 66 41 0F EF E0     pxor        xmm4,xmm8
  0000000000000DC5: 66 0F 6F DC        movdqa      xmm3,xmm4
  0000000000000DC9: 66 0F 72 F3 0C     pslld       xmm3,0Ch
  0000000000000DCE: 66 0F 72 D4 14     psrld       xmm4,14h
  0000000000000DD3: 66 0F EF E3        pxor        xmm4,xmm3
  0000000000000DD7: 66 0F FE C4        paddd       xmm0,xmm4
  0000000000000DDB: 66 44 0F EF E0     pxor        xmm12,xmm0
  0000000000000DE0: 66 44 0F 38 00 25  pshufb      xmm12,xmmword ptr [.rdata+20h]
                    20 00 00 00
  0000000000000DEA: 66 45 0F FE C4     paddd       xmm8,xmm12
  0000000000000DEF: 66 41 0F EF E0     pxor        xmm4,xmm8
  0000000000000DF4: 66 0F 6F DC        movdqa      xmm3,xmm4
  0000000000000DF8: 66 0F 72 F3 07     pslld       xmm3,7
  0000000000000DFD: 66 0F 72 D4 19     psrld       xmm4,19h
  0000000000000E02: 66 0F EF E3        pxor        xmm4,xmm3
  0000000000000E06: 66 0F 3A 0F E4 0C  palignr     xmm4,xmm4,0Ch
  0000000000000E0C: 66 45 0F 3A 0F C0  palignr     xmm8,xmm8,8
                    08
  0000000000000E13: 66 45 0F 3A 0F E4  palignr     xmm12,xmm12,4
                    04
  0000000000000E1A: 48 83 F9 10        cmp         rcx,10h
  0000000000000E1E: 0F 83 74 FE FF FF  jae         L$open_sse_tail_64_rounds_and_x1hash
  0000000000000E24: 49 81 F8 A0 00 00  cmp         r8,0A0h
                    00
  0000000000000E2B: 0F 85 01 FF FF FF  jne         L$open_sse_tail_64_rounds
  0000000000000E31: 66 0F FE 05 00 00  paddd       xmm0,xmmword ptr [.rdata]
                    00 00
  0000000000000E39: 66 0F FE A5 D0 00  paddd       xmm4,xmmword ptr [rbp+0D0h]
                    00 00
  0000000000000E41: 66 44 0F FE 85 E0  paddd       xmm8,xmmword ptr [rbp+0E0h]
                    00 00 00
  0000000000000E4A: 66 44 0F FE A5 00  paddd       xmm12,xmmword ptr [rbp+100h]
                    01 00 00
  0000000000000E53: E9 29 11 00 00     jmp         L$open_sse_tail_64_dec_loop
L$open_sse_tail_128:
  0000000000000E58: 66 0F 6F 05 00 00  movdqa      xmm0,xmmword ptr [.rdata]
                    00 00
  0000000000000E60: 66 0F 6F A5 D0 00  movdqa      xmm4,xmmword ptr [rbp+0D0h]
                    00 00
  0000000000000E68: 66 44 0F 6F 85 E0  movdqa      xmm8,xmmword ptr [rbp+0E0h]
                    00 00 00
  0000000000000E71: 66 0F 6F C8        movdqa      xmm1,xmm0
  0000000000000E75: 66 0F 6F EC        movdqa      xmm5,xmm4
  0000000000000E79: 66 45 0F 6F C8     movdqa      xmm9,xmm8
  0000000000000E7E: 66 44 0F 6F AD 00  movdqa      xmm13,xmmword ptr [rbp+100h]
                    01 00 00
  0000000000000E87: 66 44 0F FE 2D 70  paddd       xmm13,xmmword ptr [.rdata+70h]
                    00 00 00
  0000000000000E90: 66 45 0F 6F E5     movdqa      xmm12,xmm13
  0000000000000E95: 66 44 0F FE 25 70  paddd       xmm12,xmmword ptr [.rdata+70h]
                    00 00 00
  0000000000000E9E: 66 44 0F 7F A5 00  movdqa      xmmword ptr [rbp+100h],xmm12
                    01 00 00
  0000000000000EA7: 66 44 0F 7F AD 10  movdqa      xmmword ptr [rbp+110h],xmm13
                    01 00 00
  0000000000000EB0: 48 89 D9           mov         rcx,rbx
  0000000000000EB3: 48 83 E1 F0        and         rcx,0FFFFFFFFFFFFFFF0h
  0000000000000EB7: 4D 31 C0           xor         r8,r8
L$open_sse_tail_128_rounds_and_x1hash:
  0000000000000EBA: 4E 03 14 06        add         r10,qword ptr [rsi+r8]
  0000000000000EBE: 4D 13 5C 30 08     adc         r11,qword ptr [r8+rsi+8]
  0000000000000EC3: 49 83 D4 01        adc         r12,1
  0000000000000EC7: 48 8B 85 A0 00 00  mov         rax,qword ptr [rbp+0A0h]
                    00
  0000000000000ECE: 49 89 C7           mov         r15,rax
  0000000000000ED1: 49 F7 E2           mul         rax,r10
  0000000000000ED4: 49 89 C5           mov         r13,rax
  0000000000000ED7: 49 89 D6           mov         r14,rdx
  0000000000000EDA: 48 8B 85 A0 00 00  mov         rax,qword ptr [rbp+0A0h]
                    00
  0000000000000EE1: 49 F7 E3           mul         rax,r11
  0000000000000EE4: 4D 0F AF FC        imul        r15,r12
  0000000000000EE8: 49 01 C6           add         r14,rax
  0000000000000EEB: 49 11 D7           adc         r15,rdx
  0000000000000EEE: 48 8B 85 A8 00 00  mov         rax,qword ptr [rbp+0A8h]
                    00
  0000000000000EF5: 49 89 C1           mov         r9,rax
  0000000000000EF8: 49 F7 E2           mul         rax,r10
  0000000000000EFB: 49 01 C6           add         r14,rax
  0000000000000EFE: 48 83 D2 00        adc         rdx,0
  0000000000000F02: 49 89 D2           mov         r10,rdx
  0000000000000F05: 48 8B 85 A8 00 00  mov         rax,qword ptr [rbp+0A8h]
                    00
  0000000000000F0C: 49 F7 E3           mul         rax,r11
  0000000000000F0F: 49 01 C7           add         r15,rax
  0000000000000F12: 48 83 D2 00        adc         rdx,0
  0000000000000F16: 4D 0F AF CC        imul        r9,r12
  0000000000000F1A: 4D 01 D7           add         r15,r10
  0000000000000F1D: 49 11 D1           adc         r9,rdx
  0000000000000F20: 4D 89 EA           mov         r10,r13
  0000000000000F23: 4D 89 F3           mov         r11,r14
  0000000000000F26: 4D 89 FC           mov         r12,r15
  0000000000000F29: 49 83 E4 03        and         r12,3
  0000000000000F2D: 4D 89 FD           mov         r13,r15
  0000000000000F30: 49 83 E5 FC        and         r13,0FFFFFFFFFFFFFFFCh
  0000000000000F34: 4D 89 CE           mov         r14,r9
  0000000000000F37: 4D 0F AC CF 02     shrd        r15,r9,2
  0000000000000F3C: 49 C1 E9 02        shr         r9,2
  0000000000000F40: 4D 01 EF           add         r15,r13
  0000000000000F43: 4D 11 F1           adc         r9,r14
  0000000000000F46: 4D 01 FA           add         r10,r15
  0000000000000F49: 4D 11 CB           adc         r11,r9
  0000000000000F4C: 49 83 D4 00        adc         r12,0
L$open_sse_tail_128_rounds:
  0000000000000F50: 49 83 C0 10        add         r8,10h
  0000000000000F54: 66 0F FE C4        paddd       xmm0,xmm4
  0000000000000F58: 66 44 0F EF E0     pxor        xmm12,xmm0
  0000000000000F5D: 66 44 0F 38 00 25  pshufb      xmm12,xmmword ptr [.rdata+40h]
                    40 00 00 00
  0000000000000F67: 66 45 0F FE C4     paddd       xmm8,xmm12
  0000000000000F6C: 66 41 0F EF E0     pxor        xmm4,xmm8
  0000000000000F71: 66 0F 6F DC        movdqa      xmm3,xmm4
  0000000000000F75: 66 0F 72 F3 0C     pslld       xmm3,0Ch
  0000000000000F7A: 66 0F 72 D4 14     psrld       xmm4,14h
  0000000000000F7F: 66 0F EF E3        pxor        xmm4,xmm3
  0000000000000F83: 66 0F FE C4        paddd       xmm0,xmm4
  0000000000000F87: 66 44 0F EF E0     pxor        xmm12,xmm0
  0000000000000F8C: 66 44 0F 38 00 25  pshufb      xmm12,xmmword ptr [.rdata+20h]
                    20 00 00 00
  0000000000000F96: 66 45 0F FE C4     paddd       xmm8,xmm12
  0000000000000F9B: 66 41 0F EF E0     pxor        xmm4,xmm8
  0000000000000FA0: 66 0F 6F DC        movdqa      xmm3,xmm4
  0000000000000FA4: 66 0F 72 F3 07     pslld       xmm3,7
  0000000000000FA9: 66 0F 72 D4 19     psrld       xmm4,19h
  0000000000000FAE: 66 0F EF E3        pxor        xmm4,xmm3
  0000000000000FB2: 66 0F 3A 0F E4 04  palignr     xmm4,xmm4,4
  0000000000000FB8: 66 45 0F 3A 0F C0  palignr     xmm8,xmm8,8
                    08
  0000000000000FBF: 66 45 0F 3A 0F E4  palignr     xmm12,xmm12,0Ch
                    0C
  0000000000000FC6: 66 0F FE CD        paddd       xmm1,xmm5
  0000000000000FCA: 66 44 0F EF E9     pxor        xmm13,xmm1
  0000000000000FCF: 66 44 0F 38 00 2D  pshufb      xmm13,xmmword ptr [.rdata+40h]
                    40 00 00 00
  0000000000000FD9: 66 45 0F FE CD     paddd       xmm9,xmm13
  0000000000000FDE: 66 41 0F EF E9     pxor        xmm5,xmm9
  0000000000000FE3: 66 0F 6F DD        movdqa      xmm3,xmm5
  0000000000000FE7: 66 0F 72 F3 0C     pslld       xmm3,0Ch
  0000000000000FEC: 66 0F 72 D5 14     psrld       xmm5,14h
  0000000000000FF1: 66 0F EF EB        pxor        xmm5,xmm3
  0000000000000FF5: 66 0F FE CD        paddd       xmm1,xmm5
  0000000000000FF9: 66 44 0F EF E9     pxor        xmm13,xmm1
  0000000000000FFE: 66 44 0F 38 00 2D  pshufb      xmm13,xmmword ptr [.rdata+20h]
                    20 00 00 00
  0000000000001008: 66 45 0F FE CD     paddd       xmm9,xmm13
  000000000000100D: 66 41 0F EF E9     pxor        xmm5,xmm9
  0000000000001012: 66 0F 6F DD        movdqa      xmm3,xmm5
  0000000000001016: 66 0F 72 F3 07     pslld       xmm3,7
  000000000000101B: 66 0F 72 D5 19     psrld       xmm5,19h
  0000000000001020: 66 0F EF EB        pxor        xmm5,xmm3
  0000000000001024: 66 0F 3A 0F ED 04  palignr     xmm5,xmm5,4
  000000000000102A: 66 45 0F 3A 0F C9  palignr     xmm9,xmm9,8
                    08
  0000000000001031: 66 45 0F 3A 0F ED  palignr     xmm13,xmm13,0Ch
                    0C
  0000000000001038: 66 0F FE C4        paddd       xmm0,xmm4
  000000000000103C: 66 44 0F EF E0     pxor        xmm12,xmm0
  0000000000001041: 66 44 0F 38 00 25  pshufb      xmm12,xmmword ptr [.rdata+40h]
                    40 00 00 00
  000000000000104B: 66 45 0F FE C4     paddd       xmm8,xmm12
  0000000000001050: 66 41 0F EF E0     pxor        xmm4,xmm8
  0000000000001055: 66 0F 6F DC        movdqa      xmm3,xmm4
  0000000000001059: 66 0F 72 F3 0C     pslld       xmm3,0Ch
  000000000000105E: 66 0F 72 D4 14     psrld       xmm4,14h
  0000000000001063: 66 0F EF E3        pxor        xmm4,xmm3
  0000000000001067: 66 0F FE C4        paddd       xmm0,xmm4
  000000000000106B: 66 44 0F EF E0     pxor        xmm12,xmm0
  0000000000001070: 66 44 0F 38 00 25  pshufb      xmm12,xmmword ptr [.rdata+20h]
                    20 00 00 00
  000000000000107A: 66 45 0F FE C4     paddd       xmm8,xmm12
  000000000000107F: 66 41 0F EF E0     pxor        xmm4,xmm8
  0000000000001084: 66 0F 6F DC        movdqa      xmm3,xmm4
  0000000000001088: 66 0F 72 F3 07     pslld       xmm3,7
  000000000000108D: 66 0F 72 D4 19     psrld       xmm4,19h
  0000000000001092: 66 0F EF E3        pxor        xmm4,xmm3
  0000000000001096: 66 0F 3A 0F E4 0C  palignr     xmm4,xmm4,0Ch
  000000000000109C: 66 45 0F 3A 0F C0  palignr     xmm8,xmm8,8
                    08
  00000000000010A3: 66 45 0F 3A 0F E4  palignr     xmm12,xmm12,4
                    04
  00000000000010AA: 66 0F FE CD        paddd       xmm1,xmm5
  00000000000010AE: 66 44 0F EF E9     pxor        xmm13,xmm1
  00000000000010B3: 66 44 0F 38 00 2D  pshufb      xmm13,xmmword ptr [.rdata+40h]
                    40 00 00 00
  00000000000010BD: 66 45 0F FE CD     paddd       xmm9,xmm13
  00000000000010C2: 66 41 0F EF E9     pxor        xmm5,xmm9
  00000000000010C7: 66 0F 6F DD        movdqa      xmm3,xmm5
  00000000000010CB: 66 0F 72 F3 0C     pslld       xmm3,0Ch
  00000000000010D0: 66 0F 72 D5 14     psrld       xmm5,14h
  00000000000010D5: 66 0F EF EB        pxor        xmm5,xmm3
  00000000000010D9: 66 0F FE CD        paddd       xmm1,xmm5
  00000000000010DD: 66 44 0F EF E9     pxor        xmm13,xmm1
  00000000000010E2: 66 44 0F 38 00 2D  pshufb      xmm13,xmmword ptr [.rdata+20h]
                    20 00 00 00
  00000000000010EC: 66 45 0F FE CD     paddd       xmm9,xmm13
  00000000000010F1: 66 41 0F EF E9     pxor        xmm5,xmm9
  00000000000010F6: 66 0F 6F DD        movdqa      xmm3,xmm5
  00000000000010FA: 66 0F 72 F3 07     pslld       xmm3,7
  00000000000010FF: 66 0F 72 D5 19     psrld       xmm5,19h
  0000000000001104: 66 0F EF EB        pxor        xmm5,xmm3
  0000000000001108: 66 0F 3A 0F ED 0C  palignr     xmm5,xmm5,0Ch
  000000000000110E: 66 45 0F 3A 0F C9  palignr     xmm9,xmm9,8
                    08
  0000000000001115: 66 45 0F 3A 0F ED  palignr     xmm13,xmm13,4
                    04
  000000000000111C: 49 39 C8           cmp         r8,rcx
  000000000000111F: 0F 82 95 FD FF FF  jb          L$open_sse_tail_128_rounds_and_x1hash
  0000000000001125: 49 81 F8 A0 00 00  cmp         r8,0A0h
                    00
  000000000000112C: 0F 85 1E FE FF FF  jne         L$open_sse_tail_128_rounds
  0000000000001132: 66 0F FE 0D 00 00  paddd       xmm1,xmmword ptr [.rdata]
                    00 00
  000000000000113A: 66 0F FE AD D0 00  paddd       xmm5,xmmword ptr [rbp+0D0h]
                    00 00
  0000000000001142: 66 44 0F FE 8D E0  paddd       xmm9,xmmword ptr [rbp+0E0h]
                    00 00 00
  000000000000114B: 66 44 0F FE AD 10  paddd       xmm13,xmmword ptr [rbp+110h]
                    01 00 00
  0000000000001154: 66 0F FE 05 00 00  paddd       xmm0,xmmword ptr [.rdata]
                    00 00
  000000000000115C: 66 0F FE A5 D0 00  paddd       xmm4,xmmword ptr [rbp+0D0h]
                    00 00
  0000000000001164: 66 44 0F FE 85 E0  paddd       xmm8,xmmword ptr [rbp+0E0h]
                    00 00 00
  000000000000116D: 66 44 0F FE A5 00  paddd       xmm12,xmmword ptr [rbp+100h]
                    01 00 00
  0000000000001176: F3 0F 6F 1E        movdqu      xmm3,xmmword ptr [rsi]
  000000000000117A: F3 0F 6F 7E 10     movdqu      xmm7,xmmword ptr [rsi+10h]
  000000000000117F: F3 44 0F 6F 5E 20  movdqu      xmm11,xmmword ptr [rsi+20h]
  0000000000001185: F3 44 0F 6F 7E 30  movdqu      xmm15,xmmword ptr [rsi+30h]
  000000000000118B: 66 0F EF CB        pxor        xmm1,xmm3
  000000000000118F: 66 0F EF EF        pxor        xmm5,xmm7
  0000000000001193: 66 45 0F EF CB     pxor        xmm9,xmm11
  0000000000001198: 66 45 0F EF FD     pxor        xmm15,xmm13
  000000000000119D: F3 0F 7F 0F        movdqu      xmmword ptr [rdi],xmm1
  00000000000011A1: F3 0F 7F 6F 10     movdqu      xmmword ptr [rdi+10h],xmm5
  00000000000011A6: F3 44 0F 7F 4F 20  movdqu      xmmword ptr [rdi+20h],xmm9
  00000000000011AC: F3 44 0F 7F 7F 30  movdqu      xmmword ptr [rdi+30h],xmm15
  00000000000011B2: 48 83 EB 40        sub         rbx,40h
  00000000000011B6: 48 8D 76 40        lea         rsi,[rsi+40h]
  00000000000011BA: 48 8D 7F 40        lea         rdi,[rdi+40h]
  00000000000011BE: E9 BE 0D 00 00     jmp         L$open_sse_tail_64_dec_loop
L$open_sse_tail_192:
  00000000000011C3: 66 0F 6F 05 00 00  movdqa      xmm0,xmmword ptr [.rdata]
                    00 00
  00000000000011CB: 66 0F 6F A5 D0 00  movdqa      xmm4,xmmword ptr [rbp+0D0h]
                    00 00
  00000000000011D3: 66 44 0F 6F 85 E0  movdqa      xmm8,xmmword ptr [rbp+0E0h]
                    00 00 00
  00000000000011DC: 66 0F 6F C8        movdqa      xmm1,xmm0
  00000000000011E0: 66 0F 6F EC        movdqa      xmm5,xmm4
  00000000000011E4: 66 45 0F 6F C8     movdqa      xmm9,xmm8
  00000000000011E9: 66 0F 6F D0        movdqa      xmm2,xmm0
  00000000000011ED: 66 0F 6F F4        movdqa      xmm6,xmm4
  00000000000011F1: 66 45 0F 6F D0     movdqa      xmm10,xmm8
  00000000000011F6: 66 44 0F 6F B5 00  movdqa      xmm14,xmmword ptr [rbp+100h]
                    01 00 00
  00000000000011FF: 66 44 0F FE 35 70  paddd       xmm14,xmmword ptr [.rdata+70h]
                    00 00 00
  0000000000001208: 66 45 0F 6F EE     movdqa      xmm13,xmm14
  000000000000120D: 66 44 0F FE 2D 70  paddd       xmm13,xmmword ptr [.rdata+70h]
                    00 00 00
  0000000000001216: 66 45 0F 6F E5     movdqa      xmm12,xmm13
  000000000000121B: 66 44 0F FE 25 70  paddd       xmm12,xmmword ptr [.rdata+70h]
                    00 00 00
  0000000000001224: 66 44 0F 7F A5 00  movdqa      xmmword ptr [rbp+100h],xmm12
                    01 00 00
  000000000000122D: 66 44 0F 7F AD 10  movdqa      xmmword ptr [rbp+110h],xmm13
                    01 00 00
  0000000000001236: 66 44 0F 7F B5 20  movdqa      xmmword ptr [rbp+120h],xmm14
                    01 00 00
  000000000000123F: 48 89 D9           mov         rcx,rbx
  0000000000001242: 41 B8 A0 00 00 00  mov         r8d,0A0h
  0000000000001248: 48 81 F9 A0 00 00  cmp         rcx,0A0h
                    00
  000000000000124F: 49 0F 4F C8        cmovg       rcx,r8
  0000000000001253: 48 83 E1 F0        and         rcx,0FFFFFFFFFFFFFFF0h
  0000000000001257: 4D 31 C0           xor         r8,r8
L$open_sse_tail_192_rounds_and_x1hash:
  000000000000125A: 4E 03 14 06        add         r10,qword ptr [rsi+r8]
  000000000000125E: 4D 13 5C 30 08     adc         r11,qword ptr [r8+rsi+8]
  0000000000001263: 49 83 D4 01        adc         r12,1
  0000000000001267: 48 8B 85 A0 00 00  mov         rax,qword ptr [rbp+0A0h]
                    00
  000000000000126E: 49 89 C7           mov         r15,rax
  0000000000001271: 49 F7 E2           mul         rax,r10
  0000000000001274: 49 89 C5           mov         r13,rax
  0000000000001277: 49 89 D6           mov         r14,rdx
  000000000000127A: 48 8B 85 A0 00 00  mov         rax,qword ptr [rbp+0A0h]
                    00
  0000000000001281: 49 F7 E3           mul         rax,r11
  0000000000001284: 4D 0F AF FC        imul        r15,r12
  0000000000001288: 49 01 C6           add         r14,rax
  000000000000128B: 49 11 D7           adc         r15,rdx
  000000000000128E: 48 8B 85 A8 00 00  mov         rax,qword ptr [rbp+0A8h]
                    00
  0000000000001295: 49 89 C1           mov         r9,rax
  0000000000001298: 49 F7 E2           mul         rax,r10
  000000000000129B: 49 01 C6           add         r14,rax
  000000000000129E: 48 83 D2 00        adc         rdx,0
  00000000000012A2: 49 89 D2           mov         r10,rdx
  00000000000012A5: 48 8B 85 A8 00 00  mov         rax,qword ptr [rbp+0A8h]
                    00
  00000000000012AC: 49 F7 E3           mul         rax,r11
  00000000000012AF: 49 01 C7           add         r15,rax
  00000000000012B2: 48 83 D2 00        adc         rdx,0
  00000000000012B6: 4D 0F AF CC        imul        r9,r12
  00000000000012BA: 4D 01 D7           add         r15,r10
  00000000000012BD: 49 11 D1           adc         r9,rdx
  00000000000012C0: 4D 89 EA           mov         r10,r13
  00000000000012C3: 4D 89 F3           mov         r11,r14
  00000000000012C6: 4D 89 FC           mov         r12,r15
  00000000000012C9: 49 83 E4 03        and         r12,3
  00000000000012CD: 4D 89 FD           mov         r13,r15
  00000000000012D0: 49 83 E5 FC        and         r13,0FFFFFFFFFFFFFFFCh
  00000000000012D4: 4D 89 CE           mov         r14,r9
  00000000000012D7: 4D 0F AC CF 02     shrd        r15,r9,2
  00000000000012DC: 49 C1 E9 02        shr         r9,2
  00000000000012E0: 4D 01 EF           add         r15,r13
  00000000000012E3: 4D 11 F1           adc         r9,r14
  00000000000012E6: 4D 01 FA           add         r10,r15
  00000000000012E9: 4D 11 CB           adc         r11,r9
  00000000000012EC: 49 83 D4 00        adc         r12,0
L$open_sse_tail_192_rounds:
  00000000000012F0: 49 83 C0 10        add         r8,10h
  00000000000012F4: 66 0F FE C4        paddd       xmm0,xmm4
  00000000000012F8: 66 44 0F EF E0     pxor        xmm12,xmm0
  00000000000012FD: 66 44 0F 38 00 25  pshufb      xmm12,xmmword ptr [.rdata+40h]
                    40 00 00 00
  0000000000001307: 66 45 0F FE C4     paddd       xmm8,xmm12
  000000000000130C: 66 41 0F EF E0     pxor        xmm4,xmm8
  0000000000001311: 66 0F 6F DC        movdqa      xmm3,xmm4
  0000000000001315: 66 0F 72 F3 0C     pslld       xmm3,0Ch
  000000000000131A: 66 0F 72 D4 14     psrld       xmm4,14h
  000000000000131F: 66 0F EF E3        pxor        xmm4,xmm3
  0000000000001323: 66 0F FE C4        paddd       xmm0,xmm4
  0000000000001327: 66 44 0F EF E0     pxor        xmm12,xmm0
  000000000000132C: 66 44 0F 38 00 25  pshufb      xmm12,xmmword ptr [.rdata+20h]
                    20 00 00 00
  0000000000001336: 66 45 0F FE C4     paddd       xmm8,xmm12
  000000000000133B: 66 41 0F EF E0     pxor        xmm4,xmm8
  0000000000001340: 66 0F 6F DC        movdqa      xmm3,xmm4
  0000000000001344: 66 0F 72 F3 07     pslld       xmm3,7
  0000000000001349: 66 0F 72 D4 19     psrld       xmm4,19h
  000000000000134E: 66 0F EF E3        pxor        xmm4,xmm3
  0000000000001352: 66 0F 3A 0F E4 04  palignr     xmm4,xmm4,4
  0000000000001358: 66 45 0F 3A 0F C0  palignr     xmm8,xmm8,8
                    08
  000000000000135F: 66 45 0F 3A 0F E4  palignr     xmm12,xmm12,0Ch
                    0C
  0000000000001366: 66 0F FE CD        paddd       xmm1,xmm5
  000000000000136A: 66 44 0F EF E9     pxor        xmm13,xmm1
  000000000000136F: 66 44 0F 38 00 2D  pshufb      xmm13,xmmword ptr [.rdata+40h]
                    40 00 00 00
  0000000000001379: 66 45 0F FE CD     paddd       xmm9,xmm13
  000000000000137E: 66 41 0F EF E9     pxor        xmm5,xmm9
  0000000000001383: 66 0F 6F DD        movdqa      xmm3,xmm5
  0000000000001387: 66 0F 72 F3 0C     pslld       xmm3,0Ch
  000000000000138C: 66 0F 72 D5 14     psrld       xmm5,14h
  0000000000001391: 66 0F EF EB        pxor        xmm5,xmm3
  0000000000001395: 66 0F FE CD        paddd       xmm1,xmm5
  0000000000001399: 66 44 0F EF E9     pxor        xmm13,xmm1
  000000000000139E: 66 44 0F 38 00 2D  pshufb      xmm13,xmmword ptr [.rdata+20h]
                    20 00 00 00
  00000000000013A8: 66 45 0F FE CD     paddd       xmm9,xmm13
  00000000000013AD: 66 41 0F EF E9     pxor        xmm5,xmm9
  00000000000013B2: 66 0F 6F DD        movdqa      xmm3,xmm5
  00000000000013B6: 66 0F 72 F3 07     pslld       xmm3,7
  00000000000013BB: 66 0F 72 D5 19     psrld       xmm5,19h
  00000000000013C0: 66 0F EF EB        pxor        xmm5,xmm3
  00000000000013C4: 66 0F 3A 0F ED 04  palignr     xmm5,xmm5,4
  00000000000013CA: 66 45 0F 3A 0F C9  palignr     xmm9,xmm9,8
                    08
  00000000000013D1: 66 45 0F 3A 0F ED  palignr     xmm13,xmm13,0Ch
                    0C
  00000000000013D8: 66 0F FE D6        paddd       xmm2,xmm6
  00000000000013DC: 66 44 0F EF F2     pxor        xmm14,xmm2
  00000000000013E1: 66 44 0F 38 00 35  pshufb      xmm14,xmmword ptr [.rdata+40h]
                    40 00 00 00
  00000000000013EB: 66 45 0F FE D6     paddd       xmm10,xmm14
  00000000000013F0: 66 41 0F EF F2     pxor        xmm6,xmm10
  00000000000013F5: 66 0F 6F DE        movdqa      xmm3,xmm6
  00000000000013F9: 66 0F 72 F3 0C     pslld       xmm3,0Ch
  00000000000013FE: 66 0F 72 D6 14     psrld       xmm6,14h
  0000000000001403: 66 0F EF F3        pxor        xmm6,xmm3
  0000000000001407: 66 0F FE D6        paddd       xmm2,xmm6
  000000000000140B: 66 44 0F EF F2     pxor        xmm14,xmm2
  0000000000001410: 66 44 0F 38 00 35  pshufb      xmm14,xmmword ptr [.rdata+20h]
                    20 00 00 00
  000000000000141A: 66 45 0F FE D6     paddd       xmm10,xmm14
  000000000000141F: 66 41 0F EF F2     pxor        xmm6,xmm10
  0000000000001424: 66 0F 6F DE        movdqa      xmm3,xmm6
  0000000000001428: 66 0F 72 F3 07     pslld       xmm3,7
  000000000000142D: 66 0F 72 D6 19     psrld       xmm6,19h
  0000000000001432: 66 0F EF F3        pxor        xmm6,xmm3
  0000000000001436: 66 0F 3A 0F F6 04  palignr     xmm6,xmm6,4
  000000000000143C: 66 45 0F 3A 0F D2  palignr     xmm10,xmm10,8
                    08
  0000000000001443: 66 45 0F 3A 0F F6  palignr     xmm14,xmm14,0Ch
                    0C
  000000000000144A: 66 0F FE C4        paddd       xmm0,xmm4
  000000000000144E: 66 44 0F EF E0     pxor        xmm12,xmm0
  0000000000001453: 66 44 0F 38 00 25  pshufb      xmm12,xmmword ptr [.rdata+40h]
                    40 00 00 00
  000000000000145D: 66 45 0F FE C4     paddd       xmm8,xmm12
  0000000000001462: 66 41 0F EF E0     pxor        xmm4,xmm8
  0000000000001467: 66 0F 6F DC        movdqa      xmm3,xmm4
  000000000000146B: 66 0F 72 F3 0C     pslld       xmm3,0Ch
  0000000000001470: 66 0F 72 D4 14     psrld       xmm4,14h
  0000000000001475: 66 0F EF E3        pxor        xmm4,xmm3
  0000000000001479: 66 0F FE C4        paddd       xmm0,xmm4
  000000000000147D: 66 44 0F EF E0     pxor        xmm12,xmm0
  0000000000001482: 66 44 0F 38 00 25  pshufb      xmm12,xmmword ptr [.rdata+20h]
                    20 00 00 00
  000000000000148C: 66 45 0F FE C4     paddd       xmm8,xmm12
  0000000000001491: 66 41 0F EF E0     pxor        xmm4,xmm8
  0000000000001496: 66 0F 6F DC        movdqa      xmm3,xmm4
  000000000000149A: 66 0F 72 F3 07     pslld       xmm3,7
  000000000000149F: 66 0F 72 D4 19     psrld       xmm4,19h
  00000000000014A4: 66 0F EF E3        pxor        xmm4,xmm3
  00000000000014A8: 66 0F 3A 0F E4 0C  palignr     xmm4,xmm4,0Ch
  00000000000014AE: 66 45 0F 3A 0F C0  palignr     xmm8,xmm8,8
                    08
  00000000000014B5: 66 45 0F 3A 0F E4  palignr     xmm12,xmm12,4
                    04
  00000000000014BC: 66 0F FE CD        paddd       xmm1,xmm5
  00000000000014C0: 66 44 0F EF E9     pxor        xmm13,xmm1
  00000000000014C5: 66 44 0F 38 00 2D  pshufb      xmm13,xmmword ptr [.rdata+40h]
                    40 00 00 00
  00000000000014CF: 66 45 0F FE CD     paddd       xmm9,xmm13
  00000000000014D4: 66 41 0F EF E9     pxor        xmm5,xmm9
  00000000000014D9: 66 0F 6F DD        movdqa      xmm3,xmm5
  00000000000014DD: 66 0F 72 F3 0C     pslld       xmm3,0Ch
  00000000000014E2: 66 0F 72 D5 14     psrld       xmm5,14h
  00000000000014E7: 66 0F EF EB        pxor        xmm5,xmm3
  00000000000014EB: 66 0F FE CD        paddd       xmm1,xmm5
  00000000000014EF: 66 44 0F EF E9     pxor        xmm13,xmm1
  00000000000014F4: 66 44 0F 38 00 2D  pshufb      xmm13,xmmword ptr [.rdata+20h]
                    20 00 00 00
  00000000000014FE: 66 45 0F FE CD     paddd       xmm9,xmm13
  0000000000001503: 66 41 0F EF E9     pxor        xmm5,xmm9
  0000000000001508: 66 0F 6F DD        movdqa      xmm3,xmm5
  000000000000150C: 66 0F 72 F3 07     pslld       xmm3,7
  0000000000001511: 66 0F 72 D5 19     psrld       xmm5,19h
  0000000000001516: 66 0F EF EB        pxor        xmm5,xmm3
  000000000000151A: 66 0F 3A 0F ED 0C  palignr     xmm5,xmm5,0Ch
  0000000000001520: 66 45 0F 3A 0F C9  palignr     xmm9,xmm9,8
                    08
  0000000000001527: 66 45 0F 3A 0F ED  palignr     xmm13,xmm13,4
                    04
  000000000000152E: 66 0F FE D6        paddd       xmm2,xmm6
  0000000000001532: 66 44 0F EF F2     pxor        xmm14,xmm2
  0000000000001537: 66 44 0F 38 00 35  pshufb      xmm14,xmmword ptr [.rdata+40h]
                    40 00 00 00
  0000000000001541: 66 45 0F FE D6     paddd       xmm10,xmm14
  0000000000001546: 66 41 0F EF F2     pxor        xmm6,xmm10
  000000000000154B: 66 0F 6F DE        movdqa      xmm3,xmm6
  000000000000154F: 66 0F 72 F3 0C     pslld       xmm3,0Ch
  0000000000001554: 66 0F 72 D6 14     psrld       xmm6,14h
  0000000000001559: 66 0F EF F3        pxor        xmm6,xmm3
  000000000000155D: 66 0F FE D6        paddd       xmm2,xmm6
  0000000000001561: 66 44 0F EF F2     pxor        xmm14,xmm2
  0000000000001566: 66 44 0F 38 00 35  pshufb      xmm14,xmmword ptr [.rdata+20h]
                    20 00 00 00
  0000000000001570: 66 45 0F FE D6     paddd       xmm10,xmm14
  0000000000001575: 66 41 0F EF F2     pxor        xmm6,xmm10
  000000000000157A: 66 0F 6F DE        movdqa      xmm3,xmm6
  000000000000157E: 66 0F 72 F3 07     pslld       xmm3,7
  0000000000001583: 66 0F 72 D6 19     psrld       xmm6,19h
  0000000000001588: 66 0F EF F3        pxor        xmm6,xmm3
  000000000000158C: 66 0F 3A 0F F6 0C  palignr     xmm6,xmm6,0Ch
  0000000000001592: 66 45 0F 3A 0F D2  palignr     xmm10,xmm10,8
                    08
  0000000000001599: 66 45 0F 3A 0F F6  palignr     xmm14,xmm14,4
                    04
  00000000000015A0: 49 39 C8           cmp         r8,rcx
  00000000000015A3: 0F 82 B1 FC FF FF  jb          L$open_sse_tail_192_rounds_and_x1hash
  00000000000015A9: 49 81 F8 A0 00 00  cmp         r8,0A0h
                    00
  00000000000015B0: 0F 85 3A FD FF FF  jne         L$open_sse_tail_192_rounds
  00000000000015B6: 48 81 FB B0 00 00  cmp         rbx,0B0h
                    00
  00000000000015BD: 0F 82 43 01 00 00  jb          L$open_sse_tail_192_finish
  00000000000015C3: 4C 03 96 A0 00 00  add         r10,qword ptr [rsi+0A0h]
                    00
  00000000000015CA: 4C 13 9E A8 00 00  adc         r11,qword ptr [rsi+0A8h]
                    00
  00000000000015D1: 49 83 D4 01        adc         r12,1
  00000000000015D5: 48 8B 85 A0 00 00  mov         rax,qword ptr [rbp+0A0h]
                    00
  00000000000015DC: 49 89 C7           mov         r15,rax
  00000000000015DF: 49 F7 E2           mul         rax,r10
  00000000000015E2: 49 89 C5           mov         r13,rax
  00000000000015E5: 49 89 D6           mov         r14,rdx
  00000000000015E8: 48 8B 85 A0 00 00  mov         rax,qword ptr [rbp+0A0h]
                    00
  00000000000015EF: 49 F7 E3           mul         rax,r11
  00000000000015F2: 4D 0F AF FC        imul        r15,r12
  00000000000015F6: 49 01 C6           add         r14,rax
  00000000000015F9: 49 11 D7           adc         r15,rdx
  00000000000015FC: 48 8B 85 A8 00 00  mov         rax,qword ptr [rbp+0A8h]
                    00
  0000000000001603: 49 89 C1           mov         r9,rax
  0000000000001606: 49 F7 E2           mul         rax,r10
  0000000000001609: 49 01 C6           add         r14,rax
  000000000000160C: 48 83 D2 00        adc         rdx,0
  0000000000001610: 49 89 D2           mov         r10,rdx
  0000000000001613: 48 8B 85 A8 00 00  mov         rax,qword ptr [rbp+0A8h]
                    00
  000000000000161A: 49 F7 E3           mul         rax,r11
  000000000000161D: 49 01 C7           add         r15,rax
  0000000000001620: 48 83 D2 00        adc         rdx,0
  0000000000001624: 4D 0F AF CC        imul        r9,r12
  0000000000001628: 4D 01 D7           add         r15,r10
  000000000000162B: 49 11 D1           adc         r9,rdx
  000000000000162E: 4D 89 EA           mov         r10,r13
  0000000000001631: 4D 89 F3           mov         r11,r14
  0000000000001634: 4D 89 FC           mov         r12,r15
  0000000000001637: 49 83 E4 03        and         r12,3
  000000000000163B: 4D 89 FD           mov         r13,r15
  000000000000163E: 49 83 E5 FC        and         r13,0FFFFFFFFFFFFFFFCh
  0000000000001642: 4D 89 CE           mov         r14,r9
  0000000000001645: 4D 0F AC CF 02     shrd        r15,r9,2
  000000000000164A: 49 C1 E9 02        shr         r9,2
  000000000000164E: 4D 01 EF           add         r15,r13
  0000000000001651: 4D 11 F1           adc         r9,r14
  0000000000001654: 4D 01 FA           add         r10,r15
  0000000000001657: 4D 11 CB           adc         r11,r9
  000000000000165A: 49 83 D4 00        adc         r12,0
  000000000000165E: 48 81 FB C0 00 00  cmp         rbx,0C0h
                    00
  0000000000001665: 0F 82 9B 00 00 00  jb          L$open_sse_tail_192_finish
  000000000000166B: 4C 03 96 B0 00 00  add         r10,qword ptr [rsi+0B0h]
                    00
  0000000000001672: 4C 13 9E B8 00 00  adc         r11,qword ptr [rsi+0B8h]
                    00
  0000000000001679: 49 83 D4 01        adc         r12,1
  000000000000167D: 48 8B 85 A0 00 00  mov         rax,qword ptr [rbp+0A0h]
                    00
  0000000000001684: 49 89 C7           mov         r15,rax
  0000000000001687: 49 F7 E2           mul         rax,r10
  000000000000168A: 49 89 C5           mov         r13,rax
  000000000000168D: 49 89 D6           mov         r14,rdx
  0000000000001690: 48 8B 85 A0 00 00  mov         rax,qword ptr [rbp+0A0h]
                    00
  0000000000001697: 49 F7 E3           mul         rax,r11
  000000000000169A: 4D 0F AF FC        imul        r15,r12
  000000000000169E: 49 01 C6           add         r14,rax
  00000000000016A1: 49 11 D7           adc         r15,rdx
  00000000000016A4: 48 8B 85 A8 00 00  mov         rax,qword ptr [rbp+0A8h]
                    00
  00000000000016AB: 49 89 C1           mov         r9,rax
  00000000000016AE: 49 F7 E2           mul         rax,r10
  00000000000016B1: 49 01 C6           add         r14,rax
  00000000000016B4: 48 83 D2 00        adc         rdx,0
  00000000000016B8: 49 89 D2           mov         r10,rdx
  00000000000016BB: 48 8B 85 A8 00 00  mov         rax,qword ptr [rbp+0A8h]
                    00
  00000000000016C2: 49 F7 E3           mul         rax,r11
  00000000000016C5: 49 01 C7           add         r15,rax
  00000000000016C8: 48 83 D2 00        adc         rdx,0
  00000000000016CC: 4D 0F AF CC        imul        r9,r12
  00000000000016D0: 4D 01 D7           add         r15,r10
  00000000000016D3: 49 11 D1           adc         r9,rdx
  00000000000016D6: 4D 89 EA           mov         r10,r13
  00000000000016D9: 4D 89 F3           mov         r11,r14
  00000000000016DC: 4D 89 FC           mov         r12,r15
  00000000000016DF: 49 83 E4 03        and         r12,3
  00000000000016E3: 4D 89 FD           mov         r13,r15
  00000000000016E6: 49 83 E5 FC        and         r13,0FFFFFFFFFFFFFFFCh
  00000000000016EA: 4D 89 CE           mov         r14,r9
  00000000000016ED: 4D 0F AC CF 02     shrd        r15,r9,2
  00000000000016F2: 49 C1 E9 02        shr         r9,2
  00000000000016F6: 4D 01 EF           add         r15,r13
  00000000000016F9: 4D 11 F1           adc         r9,r14
  00000000000016FC: 4D 01 FA           add         r10,r15
  00000000000016FF: 4D 11 CB           adc         r11,r9
  0000000000001702: 49 83 D4 00        adc         r12,0
L$open_sse_tail_192_finish:
  0000000000001706: 66 0F FE 15 00 00  paddd       xmm2,xmmword ptr [.rdata]
                    00 00
  000000000000170E: 66 0F FE B5 D0 00  paddd       xmm6,xmmword ptr [rbp+0D0h]
                    00 00
  0000000000001716: 66 44 0F FE 95 E0  paddd       xmm10,xmmword ptr [rbp+0E0h]
                    00 00 00
  000000000000171F: 66 44 0F FE B5 20  paddd       xmm14,xmmword ptr [rbp+120h]
                    01 00 00
  0000000000001728: 66 0F FE 0D 00 00  paddd       xmm1,xmmword ptr [.rdata]
                    00 00
  0000000000001730: 66 0F FE AD D0 00  paddd       xmm5,xmmword ptr [rbp+0D0h]
                    00 00
  0000000000001738: 66 44 0F FE 8D E0  paddd       xmm9,xmmword ptr [rbp+0E0h]
                    00 00 00
  0000000000001741: 66 44 0F FE AD 10  paddd       xmm13,xmmword ptr [rbp+110h]
                    01 00 00
  000000000000174A: 66 0F FE 05 00 00  paddd       xmm0,xmmword ptr [.rdata]
                    00 00
  0000000000001752: 66 0F FE A5 D0 00  paddd       xmm4,xmmword ptr [rbp+0D0h]
                    00 00
  000000000000175A: 66 44 0F FE 85 E0  paddd       xmm8,xmmword ptr [rbp+0E0h]
                    00 00 00
  0000000000001763: 66 44 0F FE A5 00  paddd       xmm12,xmmword ptr [rbp+100h]
                    01 00 00
  000000000000176C: F3 0F 6F 1E        movdqu      xmm3,xmmword ptr [rsi]
  0000000000001770: F3 0F 6F 7E 10     movdqu      xmm7,xmmword ptr [rsi+10h]
  0000000000001775: F3 44 0F 6F 5E 20  movdqu      xmm11,xmmword ptr [rsi+20h]
  000000000000177B: F3 44 0F 6F 7E 30  movdqu      xmm15,xmmword ptr [rsi+30h]
  0000000000001781: 66 0F EF D3        pxor        xmm2,xmm3
  0000000000001785: 66 0F EF F7        pxor        xmm6,xmm7
  0000000000001789: 66 45 0F EF D3     pxor        xmm10,xmm11
  000000000000178E: 66 45 0F EF FE     pxor        xmm15,xmm14
  0000000000001793: F3 0F 7F 17        movdqu      xmmword ptr [rdi],xmm2
  0000000000001797: F3 0F 7F 77 10     movdqu      xmmword ptr [rdi+10h],xmm6
  000000000000179C: F3 44 0F 7F 57 20  movdqu      xmmword ptr [rdi+20h],xmm10
  00000000000017A2: F3 44 0F 7F 7F 30  movdqu      xmmword ptr [rdi+30h],xmm15
  00000000000017A8: F3 0F 6F 5E 40     movdqu      xmm3,xmmword ptr [rsi+40h]
  00000000000017AD: F3 0F 6F 7E 50     movdqu      xmm7,xmmword ptr [rsi+50h]
  00000000000017B2: F3 44 0F 6F 5E 60  movdqu      xmm11,xmmword ptr [rsi+60h]
  00000000000017B8: F3 44 0F 6F 7E 70  movdqu      xmm15,xmmword ptr [rsi+70h]
  00000000000017BE: 66 0F EF CB        pxor        xmm1,xmm3
  00000000000017C2: 66 0F EF EF        pxor        xmm5,xmm7
  00000000000017C6: 66 45 0F EF CB     pxor        xmm9,xmm11
  00000000000017CB: 66 45 0F EF FD     pxor        xmm15,xmm13
  00000000000017D0: F3 0F 7F 4F 40     movdqu      xmmword ptr [rdi+40h],xmm1
  00000000000017D5: F3 0F 7F 6F 50     movdqu      xmmword ptr [rdi+50h],xmm5
  00000000000017DA: F3 44 0F 7F 4F 60  movdqu      xmmword ptr [rdi+60h],xmm9
  00000000000017E0: F3 44 0F 7F 7F 70  movdqu      xmmword ptr [rdi+70h],xmm15
  00000000000017E6: 48 81 EB 80 00 00  sub         rbx,80h
                    00
  00000000000017ED: 48 8D B6 80 00 00  lea         rsi,[rsi+80h]
                    00
  00000000000017F4: 48 8D BF 80 00 00  lea         rdi,[rdi+80h]
                    00
  00000000000017FB: E9 81 07 00 00     jmp         L$open_sse_tail_64_dec_loop
L$open_sse_tail_256:
  0000000000001800: 66 0F 6F 05 00 00  movdqa      xmm0,xmmword ptr [.rdata]
                    00 00
  0000000000001808: 66 0F 6F A5 D0 00  movdqa      xmm4,xmmword ptr [rbp+0D0h]
                    00 00
  0000000000001810: 66 44 0F 6F 85 E0  movdqa      xmm8,xmmword ptr [rbp+0E0h]
                    00 00 00
  0000000000001819: 66 0F 6F C8        movdqa      xmm1,xmm0
  000000000000181D: 66 0F 6F EC        movdqa      xmm5,xmm4
  0000000000001821: 66 45 0F 6F C8     movdqa      xmm9,xmm8
  0000000000001826: 66 0F 6F D0        movdqa      xmm2,xmm0
  000000000000182A: 66 0F 6F F4        movdqa      xmm6,xmm4
  000000000000182E: 66 45 0F 6F D0     movdqa      xmm10,xmm8
  0000000000001833: 66 0F 6F D8        movdqa      xmm3,xmm0
  0000000000001837: 66 0F 6F FC        movdqa      xmm7,xmm4
  000000000000183B: 66 45 0F 6F D8     movdqa      xmm11,xmm8
  0000000000001840: 66 44 0F 6F BD 00  movdqa      xmm15,xmmword ptr [rbp+100h]
                    01 00 00
  0000000000001849: 66 44 0F FE 3D 70  paddd       xmm15,xmmword ptr [.rdata+70h]
                    00 00 00
  0000000000001852: 66 45 0F 6F F7     movdqa      xmm14,xmm15
  0000000000001857: 66 44 0F FE 35 70  paddd       xmm14,xmmword ptr [.rdata+70h]
                    00 00 00
  0000000000001860: 66 45 0F 6F EE     movdqa      xmm13,xmm14
  0000000000001865: 66 44 0F FE 2D 70  paddd       xmm13,xmmword ptr [.rdata+70h]
                    00 00 00
  000000000000186E: 66 45 0F 6F E5     movdqa      xmm12,xmm13
  0000000000001873: 66 44 0F FE 25 70  paddd       xmm12,xmmword ptr [.rdata+70h]
                    00 00 00
  000000000000187C: 66 44 0F 7F A5 00  movdqa      xmmword ptr [rbp+100h],xmm12
                    01 00 00
  0000000000001885: 66 44 0F 7F AD 10  movdqa      xmmword ptr [rbp+110h],xmm13
                    01 00 00
  000000000000188E: 66 44 0F 7F B5 20  movdqa      xmmword ptr [rbp+120h],xmm14
                    01 00 00
  0000000000001897: 66 44 0F 7F BD 30  movdqa      xmmword ptr [rbp+130h],xmm15
                    01 00 00
  00000000000018A0: 4D 31 C0           xor         r8,r8
L$open_sse_tail_256_rounds_and_x1hash:
  00000000000018A3: 4E 03 14 06        add         r10,qword ptr [rsi+r8]
  00000000000018A7: 4D 13 5C 30 08     adc         r11,qword ptr [r8+rsi+8]
  00000000000018AC: 49 83 D4 01        adc         r12,1
  00000000000018B0: 66 44 0F 7F 9D F0  movdqa      xmmword ptr [rbp+0F0h],xmm11
                    00 00 00
  00000000000018B9: 66 0F FE C4        paddd       xmm0,xmm4
  00000000000018BD: 66 44 0F EF E0     pxor        xmm12,xmm0
  00000000000018C2: 66 44 0F 38 00 25  pshufb      xmm12,xmmword ptr [.rdata+40h]
                    40 00 00 00
  00000000000018CC: 66 45 0F FE C4     paddd       xmm8,xmm12
  00000000000018D1: 66 41 0F EF E0     pxor        xmm4,xmm8
  00000000000018D6: 66 44 0F 6F DC     movdqa      xmm11,xmm4
  00000000000018DB: 66 41 0F 72 F3 0C  pslld       xmm11,0Ch
  00000000000018E1: 66 0F 72 D4 14     psrld       xmm4,14h
  00000000000018E6: 66 41 0F EF E3     pxor        xmm4,xmm11
  00000000000018EB: 66 0F FE C4        paddd       xmm0,xmm4
  00000000000018EF: 66 44 0F EF E0     pxor        xmm12,xmm0
  00000000000018F4: 66 44 0F 38 00 25  pshufb      xmm12,xmmword ptr [.rdata+20h]
                    20 00 00 00
  00000000000018FE: 66 45 0F FE C4     paddd       xmm8,xmm12
  0000000000001903: 66 41 0F EF E0     pxor        xmm4,xmm8
  0000000000001908: 66 44 0F 6F DC     movdqa      xmm11,xmm4
  000000000000190D: 66 41 0F 72 F3 07  pslld       xmm11,7
  0000000000001913: 66 0F 72 D4 19     psrld       xmm4,19h
  0000000000001918: 66 41 0F EF E3     pxor        xmm4,xmm11
  000000000000191D: 66 0F 3A 0F E4 04  palignr     xmm4,xmm4,4
  0000000000001923: 66 45 0F 3A 0F C0  palignr     xmm8,xmm8,8
                    08
  000000000000192A: 66 45 0F 3A 0F E4  palignr     xmm12,xmm12,0Ch
                    0C
  0000000000001931: 66 0F FE CD        paddd       xmm1,xmm5
  0000000000001935: 66 44 0F EF E9     pxor        xmm13,xmm1
  000000000000193A: 66 44 0F 38 00 2D  pshufb      xmm13,xmmword ptr [.rdata+40h]
                    40 00 00 00
  0000000000001944: 66 45 0F FE CD     paddd       xmm9,xmm13
  0000000000001949: 66 41 0F EF E9     pxor        xmm5,xmm9
  000000000000194E: 66 44 0F 6F DD     movdqa      xmm11,xmm5
  0000000000001953: 66 41 0F 72 F3 0C  pslld       xmm11,0Ch
  0000000000001959: 66 0F 72 D5 14     psrld       xmm5,14h
  000000000000195E: 66 41 0F EF EB     pxor        xmm5,xmm11
  0000000000001963: 66 0F FE CD        paddd       xmm1,xmm5
  0000000000001967: 66 44 0F EF E9     pxor        xmm13,xmm1
  000000000000196C: 66 44 0F 38 00 2D  pshufb      xmm13,xmmword ptr [.rdata+20h]
                    20 00 00 00
  0000000000001976: 66 45 0F FE CD     paddd       xmm9,xmm13
  000000000000197B: 66 41 0F EF E9     pxor        xmm5,xmm9
  0000000000001980: 66 44 0F 6F DD     movdqa      xmm11,xmm5
  0000000000001985: 66 41 0F 72 F3 07  pslld       xmm11,7
  000000000000198B: 66 0F 72 D5 19     psrld       xmm5,19h
  0000000000001990: 66 41 0F EF EB     pxor        xmm5,xmm11
  0000000000001995: 66 0F 3A 0F ED 04  palignr     xmm5,xmm5,4
  000000000000199B: 66 45 0F 3A 0F C9  palignr     xmm9,xmm9,8
                    08
  00000000000019A2: 66 45 0F 3A 0F ED  palignr     xmm13,xmm13,0Ch
                    0C
  00000000000019A9: 66 0F FE D6        paddd       xmm2,xmm6
  00000000000019AD: 66 44 0F EF F2     pxor        xmm14,xmm2
  00000000000019B2: 66 44 0F 38 00 35  pshufb      xmm14,xmmword ptr [.rdata+40h]
                    40 00 00 00
  00000000000019BC: 66 45 0F FE D6     paddd       xmm10,xmm14
  00000000000019C1: 66 41 0F EF F2     pxor        xmm6,xmm10
  00000000000019C6: 66 44 0F 6F DE     movdqa      xmm11,xmm6
  00000000000019CB: 66 41 0F 72 F3 0C  pslld       xmm11,0Ch
  00000000000019D1: 66 0F 72 D6 14     psrld       xmm6,14h
  00000000000019D6: 66 41 0F EF F3     pxor        xmm6,xmm11
  00000000000019DB: 66 0F FE D6        paddd       xmm2,xmm6
  00000000000019DF: 66 44 0F EF F2     pxor        xmm14,xmm2
  00000000000019E4: 66 44 0F 38 00 35  pshufb      xmm14,xmmword ptr [.rdata+20h]
                    20 00 00 00
  00000000000019EE: 66 45 0F FE D6     paddd       xmm10,xmm14
  00000000000019F3: 66 41 0F EF F2     pxor        xmm6,xmm10
  00000000000019F8: 66 44 0F 6F DE     movdqa      xmm11,xmm6
  00000000000019FD: 66 41 0F 72 F3 07  pslld       xmm11,7
  0000000000001A03: 66 0F 72 D6 19     psrld       xmm6,19h
  0000000000001A08: 66 41 0F EF F3     pxor        xmm6,xmm11
  0000000000001A0D: 66 0F 3A 0F F6 04  palignr     xmm6,xmm6,4
  0000000000001A13: 66 45 0F 3A 0F D2  palignr     xmm10,xmm10,8
                    08
  0000000000001A1A: 66 45 0F 3A 0F F6  palignr     xmm14,xmm14,0Ch
                    0C
  0000000000001A21: 66 44 0F 6F 9D F0  movdqa      xmm11,xmmword ptr [rbp+0F0h]
                    00 00 00
  0000000000001A2A: 48 8B 85 A0 00 00  mov         rax,qword ptr [rbp+0A0h]
                    00
  0000000000001A31: 49 89 C7           mov         r15,rax
  0000000000001A34: 49 F7 E2           mul         rax,r10
  0000000000001A37: 49 89 C5           mov         r13,rax
  0000000000001A3A: 49 89 D6           mov         r14,rdx
  0000000000001A3D: 48 8B 85 A0 00 00  mov         rax,qword ptr [rbp+0A0h]
                    00
  0000000000001A44: 49 F7 E3           mul         rax,r11
  0000000000001A47: 4D 0F AF FC        imul        r15,r12
  0000000000001A4B: 49 01 C6           add         r14,rax
  0000000000001A4E: 49 11 D7           adc         r15,rdx
  0000000000001A51: 66 44 0F 7F 8D F0  movdqa      xmmword ptr [rbp+0F0h],xmm9
                    00 00 00
  0000000000001A5A: 66 0F FE DF        paddd       xmm3,xmm7
  0000000000001A5E: 66 44 0F EF FB     pxor        xmm15,xmm3
  0000000000001A63: 66 44 0F 38 00 3D  pshufb      xmm15,xmmword ptr [.rdata+40h]
                    40 00 00 00
  0000000000001A6D: 66 45 0F FE DF     paddd       xmm11,xmm15
  0000000000001A72: 66 41 0F EF FB     pxor        xmm7,xmm11
  0000000000001A77: 66 44 0F 6F CF     movdqa      xmm9,xmm7
  0000000000001A7C: 66 41 0F 72 F1 0C  pslld       xmm9,0Ch
  0000000000001A82: 66 0F 72 D7 14     psrld       xmm7,14h
  0000000000001A87: 66 41 0F EF F9     pxor        xmm7,xmm9
  0000000000001A8C: 66 0F FE DF        paddd       xmm3,xmm7
  0000000000001A90: 66 44 0F EF FB     pxor        xmm15,xmm3
  0000000000001A95: 66 44 0F 38 00 3D  pshufb      xmm15,xmmword ptr [.rdata+20h]
                    20 00 00 00
  0000000000001A9F: 66 45 0F FE DF     paddd       xmm11,xmm15
  0000000000001AA4: 66 41 0F EF FB     pxor        xmm7,xmm11
  0000000000001AA9: 66 44 0F 6F CF     movdqa      xmm9,xmm7
  0000000000001AAE: 66 41 0F 72 F1 07  pslld       xmm9,7
  0000000000001AB4: 66 0F 72 D7 19     psrld       xmm7,19h
  0000000000001AB9: 66 41 0F EF F9     pxor        xmm7,xmm9
  0000000000001ABE: 66 0F 3A 0F FF 04  palignr     xmm7,xmm7,4
  0000000000001AC4: 66 45 0F 3A 0F DB  palignr     xmm11,xmm11,8
                    08
  0000000000001ACB: 66 45 0F 3A 0F FF  palignr     xmm15,xmm15,0Ch
                    0C
  0000000000001AD2: 66 44 0F 6F 8D F0  movdqa      xmm9,xmmword ptr [rbp+0F0h]
                    00 00 00
  0000000000001ADB: 48 8B 85 A8 00 00  mov         rax,qword ptr [rbp+0A8h]
                    00
  0000000000001AE2: 49 89 C1           mov         r9,rax
  0000000000001AE5: 49 F7 E2           mul         rax,r10
  0000000000001AE8: 49 01 C6           add         r14,rax
  0000000000001AEB: 48 83 D2 00        adc         rdx,0
  0000000000001AEF: 49 89 D2           mov         r10,rdx
  0000000000001AF2: 48 8B 85 A8 00 00  mov         rax,qword ptr [rbp+0A8h]
                    00
  0000000000001AF9: 49 F7 E3           mul         rax,r11
  0000000000001AFC: 49 01 C7           add         r15,rax
  0000000000001AFF: 48 83 D2 00        adc         rdx,0
  0000000000001B03: 66 44 0F 7F 9D F0  movdqa      xmmword ptr [rbp+0F0h],xmm11
                    00 00 00
  0000000000001B0C: 66 0F FE C4        paddd       xmm0,xmm4
  0000000000001B10: 66 44 0F EF E0     pxor        xmm12,xmm0
  0000000000001B15: 66 44 0F 38 00 25  pshufb      xmm12,xmmword ptr [.rdata+40h]
                    40 00 00 00
  0000000000001B1F: 66 45 0F FE C4     paddd       xmm8,xmm12
  0000000000001B24: 66 41 0F EF E0     pxor        xmm4,xmm8
  0000000000001B29: 66 44 0F 6F DC     movdqa      xmm11,xmm4
  0000000000001B2E: 66 41 0F 72 F3 0C  pslld       xmm11,0Ch
  0000000000001B34: 66 0F 72 D4 14     psrld       xmm4,14h
  0000000000001B39: 66 41 0F EF E3     pxor        xmm4,xmm11
  0000000000001B3E: 66 0F FE C4        paddd       xmm0,xmm4
  0000000000001B42: 66 44 0F EF E0     pxor        xmm12,xmm0
  0000000000001B47: 66 44 0F 38 00 25  pshufb      xmm12,xmmword ptr [.rdata+20h]
                    20 00 00 00
  0000000000001B51: 66 45 0F FE C4     paddd       xmm8,xmm12
  0000000000001B56: 66 41 0F EF E0     pxor        xmm4,xmm8
  0000000000001B5B: 66 44 0F 6F DC     movdqa      xmm11,xmm4
  0000000000001B60: 66 41 0F 72 F3 07  pslld       xmm11,7
  0000000000001B66: 66 0F 72 D4 19     psrld       xmm4,19h
  0000000000001B6B: 66 41 0F EF E3     pxor        xmm4,xmm11
  0000000000001B70: 66 0F 3A 0F E4 0C  palignr     xmm4,xmm4,0Ch
  0000000000001B76: 66 45 0F 3A 0F C0  palignr     xmm8,xmm8,8
                    08
  0000000000001B7D: 66 45 0F 3A 0F E4  palignr     xmm12,xmm12,4
                    04
  0000000000001B84: 66 0F FE CD        paddd       xmm1,xmm5
  0000000000001B88: 66 44 0F EF E9     pxor        xmm13,xmm1
  0000000000001B8D: 66 44 0F 38 00 2D  pshufb      xmm13,xmmword ptr [.rdata+40h]
                    40 00 00 00
  0000000000001B97: 66 45 0F FE CD     paddd       xmm9,xmm13
  0000000000001B9C: 66 41 0F EF E9     pxor        xmm5,xmm9
  0000000000001BA1: 66 44 0F 6F DD     movdqa      xmm11,xmm5
  0000000000001BA6: 66 41 0F 72 F3 0C  pslld       xmm11,0Ch
  0000000000001BAC: 66 0F 72 D5 14     psrld       xmm5,14h
  0000000000001BB1: 66 41 0F EF EB     pxor        xmm5,xmm11
  0000000000001BB6: 66 0F FE CD        paddd       xmm1,xmm5
  0000000000001BBA: 66 44 0F EF E9     pxor        xmm13,xmm1
  0000000000001BBF: 66 44 0F 38 00 2D  pshufb      xmm13,xmmword ptr [.rdata+20h]
                    20 00 00 00
  0000000000001BC9: 66 45 0F FE CD     paddd       xmm9,xmm13
  0000000000001BCE: 66 41 0F EF E9     pxor        xmm5,xmm9
  0000000000001BD3: 66 44 0F 6F DD     movdqa      xmm11,xmm5
  0000000000001BD8: 66 41 0F 72 F3 07  pslld       xmm11,7
  0000000000001BDE: 66 0F 72 D5 19     psrld       xmm5,19h
  0000000000001BE3: 66 41 0F EF EB     pxor        xmm5,xmm11
  0000000000001BE8: 66 0F 3A 0F ED 0C  palignr     xmm5,xmm5,0Ch
  0000000000001BEE: 66 45 0F 3A 0F C9  palignr     xmm9,xmm9,8
                    08
  0000000000001BF5: 66 45 0F 3A 0F ED  palignr     xmm13,xmm13,4
                    04
  0000000000001BFC: 4D 0F AF CC        imul        r9,r12
  0000000000001C00: 4D 01 D7           add         r15,r10
  0000000000001C03: 49 11 D1           adc         r9,rdx
  0000000000001C06: 66 0F FE D6        paddd       xmm2,xmm6
  0000000000001C0A: 66 44 0F EF F2     pxor        xmm14,xmm2
  0000000000001C0F: 66 44 0F 38 00 35  pshufb      xmm14,xmmword ptr [.rdata+40h]
                    40 00 00 00
  0000000000001C19: 66 45 0F FE D6     paddd       xmm10,xmm14
  0000000000001C1E: 66 41 0F EF F2     pxor        xmm6,xmm10
  0000000000001C23: 66 44 0F 6F DE     movdqa      xmm11,xmm6
  0000000000001C28: 66 41 0F 72 F3 0C  pslld       xmm11,0Ch
  0000000000001C2E: 66 0F 72 D6 14     psrld       xmm6,14h
  0000000000001C33: 66 41 0F EF F3     pxor        xmm6,xmm11
  0000000000001C38: 66 0F FE D6        paddd       xmm2,xmm6
  0000000000001C3C: 66 44 0F EF F2     pxor        xmm14,xmm2
  0000000000001C41: 66 44 0F 38 00 35  pshufb      xmm14,xmmword ptr [.rdata+20h]
                    20 00 00 00
  0000000000001C4B: 66 45 0F FE D6     paddd       xmm10,xmm14
  0000000000001C50: 66 41 0F EF F2     pxor        xmm6,xmm10
  0000000000001C55: 66 44 0F 6F DE     movdqa      xmm11,xmm6
  0000000000001C5A: 66 41 0F 72 F3 07  pslld       xmm11,7
  0000000000001C60: 66 0F 72 D6 19     psrld       xmm6,19h
  0000000000001C65: 66 41 0F EF F3     pxor        xmm6,xmm11
  0000000000001C6A: 66 0F 3A 0F F6 0C  palignr     xmm6,xmm6,0Ch
  0000000000001C70: 66 45 0F 3A 0F D2  palignr     xmm10,xmm10,8
                    08
  0000000000001C77: 66 45 0F 3A 0F F6  palignr     xmm14,xmm14,4
                    04
  0000000000001C7E: 66 44 0F 6F 9D F0  movdqa      xmm11,xmmword ptr [rbp+0F0h]
                    00 00 00
  0000000000001C87: 4D 89 EA           mov         r10,r13
  0000000000001C8A: 4D 89 F3           mov         r11,r14
  0000000000001C8D: 4D 89 FC           mov         r12,r15
  0000000000001C90: 49 83 E4 03        and         r12,3
  0000000000001C94: 4D 89 FD           mov         r13,r15
  0000000000001C97: 49 83 E5 FC        and         r13,0FFFFFFFFFFFFFFFCh
  0000000000001C9B: 4D 89 CE           mov         r14,r9
  0000000000001C9E: 4D 0F AC CF 02     shrd        r15,r9,2
  0000000000001CA3: 49 C1 E9 02        shr         r9,2
  0000000000001CA7: 4D 01 EF           add         r15,r13
  0000000000001CAA: 4D 11 F1           adc         r9,r14
  0000000000001CAD: 4D 01 FA           add         r10,r15
  0000000000001CB0: 4D 11 CB           adc         r11,r9
  0000000000001CB3: 49 83 D4 00        adc         r12,0
  0000000000001CB7: 66 44 0F 7F 8D F0  movdqa      xmmword ptr [rbp+0F0h],xmm9
                    00 00 00
  0000000000001CC0: 66 0F FE DF        paddd       xmm3,xmm7
  0000000000001CC4: 66 44 0F EF FB     pxor        xmm15,xmm3
  0000000000001CC9: 66 44 0F 38 00 3D  pshufb      xmm15,xmmword ptr [.rdata+40h]
                    40 00 00 00
  0000000000001CD3: 66 45 0F FE DF     paddd       xmm11,xmm15
  0000000000001CD8: 66 41 0F EF FB     pxor        xmm7,xmm11
  0000000000001CDD: 66 44 0F 6F CF     movdqa      xmm9,xmm7
  0000000000001CE2: 66 41 0F 72 F1 0C  pslld       xmm9,0Ch
  0000000000001CE8: 66 0F 72 D7 14     psrld       xmm7,14h
  0000000000001CED: 66 41 0F EF F9     pxor        xmm7,xmm9
  0000000000001CF2: 66 0F FE DF        paddd       xmm3,xmm7
  0000000000001CF6: 66 44 0F EF FB     pxor        xmm15,xmm3
  0000000000001CFB: 66 44 0F 38 00 3D  pshufb      xmm15,xmmword ptr [.rdata+20h]
                    20 00 00 00
  0000000000001D05: 66 45 0F FE DF     paddd       xmm11,xmm15
  0000000000001D0A: 66 41 0F EF FB     pxor        xmm7,xmm11
  0000000000001D0F: 66 44 0F 6F CF     movdqa      xmm9,xmm7
  0000000000001D14: 66 41 0F 72 F1 07  pslld       xmm9,7
  0000000000001D1A: 66 0F 72 D7 19     psrld       xmm7,19h
  0000000000001D1F: 66 41 0F EF F9     pxor        xmm7,xmm9
  0000000000001D24: 66 0F 3A 0F FF 0C  palignr     xmm7,xmm7,0Ch
  0000000000001D2A: 66 45 0F 3A 0F DB  palignr     xmm11,xmm11,8
                    08
  0000000000001D31: 66 45 0F 3A 0F FF  palignr     xmm15,xmm15,4
                    04
  0000000000001D38: 66 44 0F 6F 8D F0  movdqa      xmm9,xmmword ptr [rbp+0F0h]
                    00 00 00
  0000000000001D41: 49 83 C0 10        add         r8,10h
  0000000000001D45: 49 81 F8 A0 00 00  cmp         r8,0A0h
                    00
  0000000000001D4C: 0F 82 51 FB FF FF  jb          L$open_sse_tail_256_rounds_and_x1hash
  0000000000001D52: 48 89 D9           mov         rcx,rbx
  0000000000001D55: 48 83 E1 F0        and         rcx,0FFFFFFFFFFFFFFF0h
L$open_sse_tail_256_hash:
  0000000000001D59: 4E 03 14 06        add         r10,qword ptr [rsi+r8]
  0000000000001D5D: 4D 13 5C 30 08     adc         r11,qword ptr [r8+rsi+8]
  0000000000001D62: 49 83 D4 01        adc         r12,1
  0000000000001D66: 48 8B 85 A0 00 00  mov         rax,qword ptr [rbp+0A0h]
                    00
  0000000000001D6D: 49 89 C7           mov         r15,rax
  0000000000001D70: 49 F7 E2           mul         rax,r10
  0000000000001D73: 49 89 C5           mov         r13,rax
  0000000000001D76: 49 89 D6           mov         r14,rdx
  0000000000001D79: 48 8B 85 A0 00 00  mov         rax,qword ptr [rbp+0A0h]
                    00
  0000000000001D80: 49 F7 E3           mul         rax,r11
  0000000000001D83: 4D 0F AF FC        imul        r15,r12
  0000000000001D87: 49 01 C6           add         r14,rax
  0000000000001D8A: 49 11 D7           adc         r15,rdx
  0000000000001D8D: 48 8B 85 A8 00 00  mov         rax,qword ptr [rbp+0A8h]
                    00
  0000000000001D94: 49 89 C1           mov         r9,rax
  0000000000001D97: 49 F7 E2           mul         rax,r10
  0000000000001D9A: 49 01 C6           add         r14,rax
  0000000000001D9D: 48 83 D2 00        adc         rdx,0
  0000000000001DA1: 49 89 D2           mov         r10,rdx
  0000000000001DA4: 48 8B 85 A8 00 00  mov         rax,qword ptr [rbp+0A8h]
                    00
  0000000000001DAB: 49 F7 E3           mul         rax,r11
  0000000000001DAE: 49 01 C7           add         r15,rax
  0000000000001DB1: 48 83 D2 00        adc         rdx,0
  0000000000001DB5: 4D 0F AF CC        imul        r9,r12
  0000000000001DB9: 4D 01 D7           add         r15,r10
  0000000000001DBC: 49 11 D1           adc         r9,rdx
  0000000000001DBF: 4D 89 EA           mov         r10,r13
  0000000000001DC2: 4D 89 F3           mov         r11,r14
  0000000000001DC5: 4D 89 FC           mov         r12,r15
  0000000000001DC8: 49 83 E4 03        and         r12,3
  0000000000001DCC: 4D 89 FD           mov         r13,r15
  0000000000001DCF: 49 83 E5 FC        and         r13,0FFFFFFFFFFFFFFFCh
  0000000000001DD3: 4D 89 CE           mov         r14,r9
  0000000000001DD6: 4D 0F AC CF 02     shrd        r15,r9,2
  0000000000001DDB: 49 C1 E9 02        shr         r9,2
  0000000000001DDF: 4D 01 EF           add         r15,r13
  0000000000001DE2: 4D 11 F1           adc         r9,r14
  0000000000001DE5: 4D 01 FA           add         r10,r15
  0000000000001DE8: 4D 11 CB           adc         r11,r9
  0000000000001DEB: 49 83 D4 00        adc         r12,0
  0000000000001DEF: 49 83 C0 10        add         r8,10h
  0000000000001DF3: 49 39 C8           cmp         r8,rcx
  0000000000001DF6: 0F 82 5D FF FF FF  jb          L$open_sse_tail_256_hash
  0000000000001DFC: 66 0F FE 1D 00 00  paddd       xmm3,xmmword ptr [.rdata]
                    00 00
  0000000000001E04: 66 0F FE BD D0 00  paddd       xmm7,xmmword ptr [rbp+0D0h]
                    00 00
  0000000000001E0C: 66 44 0F FE 9D E0  paddd       xmm11,xmmword ptr [rbp+0E0h]
                    00 00 00
  0000000000001E15: 66 44 0F FE BD 30  paddd       xmm15,xmmword ptr [rbp+130h]
                    01 00 00
  0000000000001E1E: 66 0F FE 15 00 00  paddd       xmm2,xmmword ptr [.rdata]
                    00 00
  0000000000001E26: 66 0F FE B5 D0 00  paddd       xmm6,xmmword ptr [rbp+0D0h]
                    00 00
  0000000000001E2E: 66 44 0F FE 95 E0  paddd       xmm10,xmmword ptr [rbp+0E0h]
                    00 00 00
  0000000000001E37: 66 44 0F FE B5 20  paddd       xmm14,xmmword ptr [rbp+120h]
                    01 00 00
  0000000000001E40: 66 0F FE 0D 00 00  paddd       xmm1,xmmword ptr [.rdata]
                    00 00
  0000000000001E48: 66 0F FE AD D0 00  paddd       xmm5,xmmword ptr [rbp+0D0h]
                    00 00
  0000000000001E50: 66 44 0F FE 8D E0  paddd       xmm9,xmmword ptr [rbp+0E0h]
                    00 00 00
  0000000000001E59: 66 44 0F FE AD 10  paddd       xmm13,xmmword ptr [rbp+110h]
                    01 00 00
  0000000000001E62: 66 0F FE 05 00 00  paddd       xmm0,xmmword ptr [.rdata]
                    00 00
  0000000000001E6A: 66 0F FE A5 D0 00  paddd       xmm4,xmmword ptr [rbp+0D0h]
                    00 00
  0000000000001E72: 66 44 0F FE 85 E0  paddd       xmm8,xmmword ptr [rbp+0E0h]
                    00 00 00
  0000000000001E7B: 66 44 0F FE A5 00  paddd       xmm12,xmmword ptr [rbp+100h]
                    01 00 00
  0000000000001E84: 66 44 0F 7F A5 F0  movdqa      xmmword ptr [rbp+0F0h],xmm12
                    00 00 00
  0000000000001E8D: F3 44 0F 6F 26     movdqu      xmm12,xmmword ptr [rsi]
  0000000000001E92: 66 44 0F EF E3     pxor        xmm12,xmm3
  0000000000001E97: F3 44 0F 7F 27     movdqu      xmmword ptr [rdi],xmm12
  0000000000001E9C: F3 44 0F 6F 66 10  movdqu      xmm12,xmmword ptr [rsi+10h]
  0000000000001EA2: 66 44 0F EF E7     pxor        xmm12,xmm7
  0000000000001EA7: F3 44 0F 7F 67 10  movdqu      xmmword ptr [rdi+10h],xmm12
  0000000000001EAD: F3 44 0F 6F 66 20  movdqu      xmm12,xmmword ptr [rsi+20h]
  0000000000001EB3: 66 45 0F EF E3     pxor        xmm12,xmm11
  0000000000001EB8: F3 44 0F 7F 67 20  movdqu      xmmword ptr [rdi+20h],xmm12
  0000000000001EBE: F3 44 0F 6F 66 30  movdqu      xmm12,xmmword ptr [rsi+30h]
  0000000000001EC4: 66 45 0F EF E7     pxor        xmm12,xmm15
  0000000000001EC9: F3 44 0F 7F 67 30  movdqu      xmmword ptr [rdi+30h],xmm12
  0000000000001ECF: F3 0F 6F 5E 40     movdqu      xmm3,xmmword ptr [rsi+40h]
  0000000000001ED4: F3 0F 6F 7E 50     movdqu      xmm7,xmmword ptr [rsi+50h]
  0000000000001ED9: F3 44 0F 6F 5E 60  movdqu      xmm11,xmmword ptr [rsi+60h]
  0000000000001EDF: F3 44 0F 6F 7E 70  movdqu      xmm15,xmmword ptr [rsi+70h]
  0000000000001EE5: 66 0F EF D3        pxor        xmm2,xmm3
  0000000000001EE9: 66 0F EF F7        pxor        xmm6,xmm7
  0000000000001EED: 66 45 0F EF D3     pxor        xmm10,xmm11
  0000000000001EF2: 66 45 0F EF FE     pxor        xmm15,xmm14
  0000000000001EF7: F3 0F 7F 57 40     movdqu      xmmword ptr [rdi+40h],xmm2
  0000000000001EFC: F3 0F 7F 77 50     movdqu      xmmword ptr [rdi+50h],xmm6
  0000000000001F01: F3 44 0F 7F 57 60  movdqu      xmmword ptr [rdi+60h],xmm10
  0000000000001F07: F3 44 0F 7F 7F 70  movdqu      xmmword ptr [rdi+70h],xmm15
  0000000000001F0D: F3 0F 6F 9E 80 00  movdqu      xmm3,xmmword ptr [rsi+80h]
                    00 00
  0000000000001F15: F3 0F 6F BE 90 00  movdqu      xmm7,xmmword ptr [rsi+90h]
                    00 00
  0000000000001F1D: F3 44 0F 6F 9E A0  movdqu      xmm11,xmmword ptr [rsi+0A0h]
                    00 00 00
  0000000000001F26: F3 44 0F 6F BE B0  movdqu      xmm15,xmmword ptr [rsi+0B0h]
                    00 00 00
  0000000000001F2F: 66 0F EF CB        pxor        xmm1,xmm3
  0000000000001F33: 66 0F EF EF        pxor        xmm5,xmm7
  0000000000001F37: 66 45 0F EF CB     pxor        xmm9,xmm11
  0000000000001F3C: 66 45 0F EF FD     pxor        xmm15,xmm13
  0000000000001F41: F3 0F 7F 8F 80 00  movdqu      xmmword ptr [rdi+80h],xmm1
                    00 00
  0000000000001F49: F3 0F 7F AF 90 00  movdqu      xmmword ptr [rdi+90h],xmm5
                    00 00
  0000000000001F51: F3 44 0F 7F 8F A0  movdqu      xmmword ptr [rdi+0A0h],xmm9
                    00 00 00
  0000000000001F5A: F3 44 0F 7F BF B0  movdqu      xmmword ptr [rdi+0B0h],xmm15
                    00 00 00
  0000000000001F63: 66 44 0F 6F A5 F0  movdqa      xmm12,xmmword ptr [rbp+0F0h]
                    00 00 00
  0000000000001F6C: 48 81 EB C0 00 00  sub         rbx,0C0h
                    00
  0000000000001F73: 48 8D B6 C0 00 00  lea         rsi,[rsi+0C0h]
                    00
  0000000000001F7A: 48 8D BF C0 00 00  lea         rdi,[rdi+0C0h]
                    00
L$open_sse_tail_64_dec_loop:
  0000000000001F81: 48 83 FB 10        cmp         rbx,10h
  0000000000001F85: 0F 82 2B 00 00 00  jb          L$open_sse_tail_16_init
  0000000000001F8B: 48 83 EB 10        sub         rbx,10h
  0000000000001F8F: F3 0F 6F 1E        movdqu      xmm3,xmmword ptr [rsi]
  0000000000001F93: 66 0F EF C3        pxor        xmm0,xmm3
  0000000000001F97: F3 0F 7F 07        movdqu      xmmword ptr [rdi],xmm0
  0000000000001F9B: 48 8D 76 10        lea         rsi,[rsi+10h]
  0000000000001F9F: 48 8D 7F 10        lea         rdi,[rdi+10h]
  0000000000001FA3: 66 0F 6F C4        movdqa      xmm0,xmm4
  0000000000001FA7: 66 41 0F 6F E0     movdqa      xmm4,xmm8
  0000000000001FAC: 66 45 0F 6F C4     movdqa      xmm8,xmm12
  0000000000001FB1: E9 CB FF FF FF     jmp         L$open_sse_tail_64_dec_loop
L$open_sse_tail_16_init:
  0000000000001FB6: 66 0F 6F C8        movdqa      xmm1,xmm0
L$open_sse_tail_16:
  0000000000001FBA: 48 85 DB           test        rbx,rbx
  0000000000001FBD: 0F 84 E1 00 00 00  je          L$open_sse_finalize
  0000000000001FC3: 66 0F EF DB        pxor        xmm3,xmm3
  0000000000001FC7: 48 8D 74 1E FF     lea         rsi,[rsi+rbx-1]
  0000000000001FCC: 49 89 D8           mov         r8,rbx
L$open_sse_tail_16_compose:
  0000000000001FCF: 66 0F 73 FB 01     pslldq      xmm3,1
  0000000000001FD4: 66 0F 3A 20 1E 00  pinsrb      xmm3,byte ptr [rsi],0
  0000000000001FDA: 48 83 EE 01        sub         rsi,1
  0000000000001FDE: 49 83 E8 01        sub         r8,1
  0000000000001FE2: 0F 85 E7 FF FF FF  jne         L$open_sse_tail_16_compose
  0000000000001FE8: 66 49 0F 7E DD     movq        r13,xmm3
  0000000000001FED: 66 49 0F 3A 16 DE  pextrq      r14,xmm3,1
                    01
  0000000000001FF4: 66 0F EF D9        pxor        xmm3,xmm1
L$open_sse_tail_16_extract:
  0000000000001FF8: 66 0F 3A 14 1F 00  pextrb      byte ptr [rdi],xmm3,0
  0000000000001FFE: 66 0F 73 DB 01     psrldq      xmm3,1
  0000000000002003: 48 83 C7 01        add         rdi,1
  0000000000002007: 48 83 EB 01        sub         rbx,1
  000000000000200B: 0F 85 E7 FF FF FF  jne         L$open_sse_tail_16_extract
  0000000000002011: 4D 01 EA           add         r10,r13
  0000000000002014: 4D 11 F3           adc         r11,r14
  0000000000002017: 49 83 D4 01        adc         r12,1
  000000000000201B: 48 8B 85 A0 00 00  mov         rax,qword ptr [rbp+0A0h]
                    00
  0000000000002022: 49 89 C7           mov         r15,rax
  0000000000002025: 49 F7 E2           mul         rax,r10
  0000000000002028: 49 89 C5           mov         r13,rax
  000000000000202B: 49 89 D6           mov         r14,rdx
  000000000000202E: 48 8B 85 A0 00 00  mov         rax,qword ptr [rbp+0A0h]
                    00
  0000000000002035: 49 F7 E3           mul         rax,r11
  0000000000002038: 4D 0F AF FC        imul        r15,r12
  000000000000203C: 49 01 C6           add         r14,rax
  000000000000203F: 49 11 D7           adc         r15,rdx
  0000000000002042: 48 8B 85 A8 00 00  mov         rax,qword ptr [rbp+0A8h]
                    00
  0000000000002049: 49 89 C1           mov         r9,rax
  000000000000204C: 49 F7 E2           mul         rax,r10
  000000000000204F: 49 01 C6           add         r14,rax
  0000000000002052: 48 83 D2 00        adc         rdx,0
  0000000000002056: 49 89 D2           mov         r10,rdx
  0000000000002059: 48 8B 85 A8 00 00  mov         rax,qword ptr [rbp+0A8h]
                    00
  0000000000002060: 49 F7 E3           mul         rax,r11
  0000000000002063: 49 01 C7           add         r15,rax
  0000000000002066: 48 83 D2 00        adc         rdx,0
  000000000000206A: 4D 0F AF CC        imul        r9,r12
  000000000000206E: 4D 01 D7           add         r15,r10
  0000000000002071: 49 11 D1           adc         r9,rdx
  0000000000002074: 4D 89 EA           mov         r10,r13
  0000000000002077: 4D 89 F3           mov         r11,r14
  000000000000207A: 4D 89 FC           mov         r12,r15
  000000000000207D: 49 83 E4 03        and         r12,3
  0000000000002081: 4D 89 FD           mov         r13,r15
  0000000000002084: 49 83 E5 FC        and         r13,0FFFFFFFFFFFFFFFCh
  0000000000002088: 4D 89 CE           mov         r14,r9
  000000000000208B: 4D 0F AC CF 02     shrd        r15,r9,2
  0000000000002090: 49 C1 E9 02        shr         r9,2
  0000000000002094: 4D 01 EF           add         r15,r13
  0000000000002097: 4D 11 F1           adc         r9,r14
  000000000000209A: 4D 01 FA           add         r10,r15
  000000000000209D: 4D 11 CB           adc         r11,r9
  00000000000020A0: 49 83 D4 00        adc         r12,0
L$open_sse_finalize:
  00000000000020A4: 4C 03 95 C0 00 00  add         r10,qword ptr [rbp+0C0h]
                    00
  00000000000020AB: 4C 13 9D C8 00 00  adc         r11,qword ptr [rbp+0C8h]
                    00
  00000000000020B2: 49 83 D4 01        adc         r12,1
  00000000000020B6: 48 8B 85 A0 00 00  mov         rax,qword ptr [rbp+0A0h]
                    00
  00000000000020BD: 49 89 C7           mov         r15,rax
  00000000000020C0: 49 F7 E2           mul         rax,r10
  00000000000020C3: 49 89 C5           mov         r13,rax
  00000000000020C6: 49 89 D6           mov         r14,rdx
  00000000000020C9: 48 8B 85 A0 00 00  mov         rax,qword ptr [rbp+0A0h]
                    00
  00000000000020D0: 49 F7 E3           mul         rax,r11
  00000000000020D3: 4D 0F AF FC        imul        r15,r12
  00000000000020D7: 49 01 C6           add         r14,rax
  00000000000020DA: 49 11 D7           adc         r15,rdx
  00000000000020DD: 48 8B 85 A8 00 00  mov         rax,qword ptr [rbp+0A8h]
                    00
  00000000000020E4: 49 89 C1           mov         r9,rax
  00000000000020E7: 49 F7 E2           mul         rax,r10
  00000000000020EA: 49 01 C6           add         r14,rax
  00000000000020ED: 48 83 D2 00        adc         rdx,0
  00000000000020F1: 49 89 D2           mov         r10,rdx
  00000000000020F4: 48 8B 85 A8 00 00  mov         rax,qword ptr [rbp+0A8h]
                    00
  00000000000020FB: 49 F7 E3           mul         rax,r11
  00000000000020FE: 49 01 C7           add         r15,rax
  0000000000002101: 48 83 D2 00        adc         rdx,0
  0000000000002105: 4D 0F AF CC        imul        r9,r12
  0000000000002109: 4D 01 D7           add         r15,r10
  000000000000210C: 49 11 D1           adc         r9,rdx
  000000000000210F: 4D 89 EA           mov         r10,r13
  0000000000002112: 4D 89 F3           mov         r11,r14
  0000000000002115: 4D 89 FC           mov         r12,r15
  0000000000002118: 49 83 E4 03        and         r12,3
  000000000000211C: 4D 89 FD           mov         r13,r15
  000000000000211F: 49 83 E5 FC        and         r13,0FFFFFFFFFFFFFFFCh
  0000000000002123: 4D 89 CE           mov         r14,r9
  0000000000002126: 4D 0F AC CF 02     shrd        r15,r9,2
  000000000000212B: 49 C1 E9 02        shr         r9,2
  000000000000212F: 4D 01 EF           add         r15,r13
  0000000000002132: 4D 11 F1           adc         r9,r14
  0000000000002135: 4D 01 FA           add         r10,r15
  0000000000002138: 4D 11 CB           adc         r11,r9
  000000000000213B: 49 83 D4 00        adc         r12,0
  000000000000213F: 4D 89 D5           mov         r13,r10
  0000000000002142: 4D 89 DE           mov         r14,r11
  0000000000002145: 4D 89 E7           mov         r15,r12
  0000000000002148: 49 83 EA FB        sub         r10,0FFFFFFFFFFFFFFFBh
  000000000000214C: 49 83 DB FF        sbb         r11,0FFFFFFFFFFFFFFFFh
  0000000000002150: 49 83 DC 03        sbb         r12,3
  0000000000002154: 4D 0F 42 D5        cmovb       r10,r13
  0000000000002158: 4D 0F 42 DE        cmovb       r11,r14
  000000000000215C: 4D 0F 42 E7        cmovb       r12,r15
  0000000000002160: 4C 03 95 B0 00 00  add         r10,qword ptr [rbp+0B0h]
                    00
  0000000000002167: 4C 13 9D B8 00 00  adc         r11,qword ptr [rbp+0B8h]
                    00
  000000000000216E: 0F 28 75 00        movaps      xmm6,xmmword ptr [rbp]
  0000000000002172: 0F 28 7D 10        movaps      xmm7,xmmword ptr [rbp+10h]
  0000000000002176: 44 0F 28 45 20     movaps      xmm8,xmmword ptr [rbp+20h]
  000000000000217B: 44 0F 28 4D 30     movaps      xmm9,xmmword ptr [rbp+30h]
  0000000000002180: 44 0F 28 55 40     movaps      xmm10,xmmword ptr [rbp+40h]
  0000000000002185: 44 0F 28 5D 50     movaps      xmm11,xmmword ptr [rbp+50h]
  000000000000218A: 44 0F 28 65 60     movaps      xmm12,xmmword ptr [rbp+60h]
  000000000000218F: 44 0F 28 6D 70     movaps      xmm13,xmmword ptr [rbp+70h]
  0000000000002194: 44 0F 28 B5 80 00  movaps      xmm14,xmmword ptr [rbp+80h]
                    00 00
  000000000000219C: 44 0F 28 BD 90 00  movaps      xmm15,xmmword ptr [rbp+90h]
                    00 00
  00000000000021A4: 48 81 C4 E0 01 00  add         rsp,1E0h
                    00
  00000000000021AB: 41 59              pop         r9
  00000000000021AD: 4D 89 11           mov         qword ptr [r9],r10
  00000000000021B0: 4D 89 59 08        mov         qword ptr [r9+8],r11
  00000000000021B4: 41 5F              pop         r15
  00000000000021B6: 41 5E              pop         r14
  00000000000021B8: 41 5D              pop         r13
  00000000000021BA: 41 5C              pop         r12
  00000000000021BC: 5B                 pop         rbx
  00000000000021BD: 5D                 pop         rbp
  00000000000021BE: 48 8B 7C 24 08     mov         rdi,qword ptr [rsp+8]
  00000000000021C3: 48 8B 74 24 10     mov         rsi,qword ptr [rsp+10h]
  00000000000021C8: F3 C3              rep ret
L$open_sse_128:
  00000000000021CA: F3 0F 6F 05 00 00  movdqu      xmm0,xmmword ptr [.rdata]
                    00 00
  00000000000021D2: 66 0F 6F C8        movdqa      xmm1,xmm0
  00000000000021D6: 66 0F 6F D0        movdqa      xmm2,xmm0
  00000000000021DA: F3 41 0F 6F 21     movdqu      xmm4,xmmword ptr [r9]
  00000000000021DF: 66 0F 6F EC        movdqa      xmm5,xmm4
  00000000000021E3: 66 0F 6F F4        movdqa      xmm6,xmm4
  00000000000021E7: F3 45 0F 6F 41 10  movdqu      xmm8,xmmword ptr [r9+10h]
  00000000000021ED: 66 45 0F 6F C8     movdqa      xmm9,xmm8
  00000000000021F2: 66 45 0F 6F D0     movdqa      xmm10,xmm8
  00000000000021F7: F3 45 0F 6F 61 20  movdqu      xmm12,xmmword ptr [r9+20h]
  00000000000021FD: 66 45 0F 6F EC     movdqa      xmm13,xmm12
  0000000000002202: 66 44 0F FE 2D 70  paddd       xmm13,xmmword ptr [.rdata+70h]
                    00 00 00
  000000000000220B: 66 45 0F 6F F5     movdqa      xmm14,xmm13
  0000000000002210: 66 44 0F FE 35 70  paddd       xmm14,xmmword ptr [.rdata+70h]
                    00 00 00
  0000000000002219: 66 0F 6F FC        movdqa      xmm7,xmm4
  000000000000221D: 66 45 0F 6F D8     movdqa      xmm11,xmm8
  0000000000002222: 66 45 0F 6F FD     movdqa      xmm15,xmm13
  0000000000002227: 41 BA 0A 00 00 00  mov         r10d,0Ah
L$open_sse_128_rounds:
  000000000000222D: 66 0F FE C4        paddd       xmm0,xmm4
  0000000000002231: 66 44 0F EF E0     pxor        xmm12,xmm0
  0000000000002236: 66 44 0F 38 00 25  pshufb      xmm12,xmmword ptr [.rdata+40h]
                    40 00 00 00
  0000000000002240: 66 45 0F FE C4     paddd       xmm8,xmm12
  0000000000002245: 66 41 0F EF E0     pxor        xmm4,xmm8
  000000000000224A: 66 0F 6F DC        movdqa      xmm3,xmm4
  000000000000224E: 66 0F 72 F3 0C     pslld       xmm3,0Ch
  0000000000002253: 66 0F 72 D4 14     psrld       xmm4,14h
  0000000000002258: 66 0F EF E3        pxor        xmm4,xmm3
  000000000000225C: 66 0F FE C4        paddd       xmm0,xmm4
  0000000000002260: 66 44 0F EF E0     pxor        xmm12,xmm0
  0000000000002265: 66 44 0F 38 00 25  pshufb      xmm12,xmmword ptr [.rdata+20h]
                    20 00 00 00
  000000000000226F: 66 45 0F FE C4     paddd       xmm8,xmm12
  0000000000002274: 66 41 0F EF E0     pxor        xmm4,xmm8
  0000000000002279: 66 0F 6F DC        movdqa      xmm3,xmm4
  000000000000227D: 66 0F 72 F3 07     pslld       xmm3,7
  0000000000002282: 66 0F 72 D4 19     psrld       xmm4,19h
  0000000000002287: 66 0F EF E3        pxor        xmm4,xmm3
  000000000000228B: 66 0F 3A 0F E4 04  palignr     xmm4,xmm4,4
  0000000000002291: 66 45 0F 3A 0F C0  palignr     xmm8,xmm8,8
                    08
  0000000000002298: 66 45 0F 3A 0F E4  palignr     xmm12,xmm12,0Ch
                    0C
  000000000000229F: 66 0F FE CD        paddd       xmm1,xmm5
  00000000000022A3: 66 44 0F EF E9     pxor        xmm13,xmm1
  00000000000022A8: 66 44 0F 38 00 2D  pshufb      xmm13,xmmword ptr [.rdata+40h]
                    40 00 00 00
  00000000000022B2: 66 45 0F FE CD     paddd       xmm9,xmm13
  00000000000022B7: 66 41 0F EF E9     pxor        xmm5,xmm9
  00000000000022BC: 66 0F 6F DD        movdqa      xmm3,xmm5
  00000000000022C0: 66 0F 72 F3 0C     pslld       xmm3,0Ch
  00000000000022C5: 66 0F 72 D5 14     psrld       xmm5,14h
  00000000000022CA: 66 0F EF EB        pxor        xmm5,xmm3
  00000000000022CE: 66 0F FE CD        paddd       xmm1,xmm5
  00000000000022D2: 66 44 0F EF E9     pxor        xmm13,xmm1
  00000000000022D7: 66 44 0F 38 00 2D  pshufb      xmm13,xmmword ptr [.rdata+20h]
                    20 00 00 00
  00000000000022E1: 66 45 0F FE CD     paddd       xmm9,xmm13
  00000000000022E6: 66 41 0F EF E9     pxor        xmm5,xmm9
  00000000000022EB: 66 0F 6F DD        movdqa      xmm3,xmm5
  00000000000022EF: 66 0F 72 F3 07     pslld       xmm3,7
  00000000000022F4: 66 0F 72 D5 19     psrld       xmm5,19h
  00000000000022F9: 66 0F EF EB        pxor        xmm5,xmm3
  00000000000022FD: 66 0F 3A 0F ED 04  palignr     xmm5,xmm5,4
  0000000000002303: 66 45 0F 3A 0F C9  palignr     xmm9,xmm9,8
                    08
  000000000000230A: 66 45 0F 3A 0F ED  palignr     xmm13,xmm13,0Ch
                    0C
  0000000000002311: 66 0F FE D6        paddd       xmm2,xmm6
  0000000000002315: 66 44 0F EF F2     pxor        xmm14,xmm2
  000000000000231A: 66 44 0F 38 00 35  pshufb      xmm14,xmmword ptr [.rdata+40h]
                    40 00 00 00
  0000000000002324: 66 45 0F FE D6     paddd       xmm10,xmm14
  0000000000002329: 66 41 0F EF F2     pxor        xmm6,xmm10
  000000000000232E: 66 0F 6F DE        movdqa      xmm3,xmm6
  0000000000002332: 66 0F 72 F3 0C     pslld       xmm3,0Ch
  0000000000002337: 66 0F 72 D6 14     psrld       xmm6,14h
  000000000000233C: 66 0F EF F3        pxor        xmm6,xmm3
  0000000000002340: 66 0F FE D6        paddd       xmm2,xmm6
  0000000000002344: 66 44 0F EF F2     pxor        xmm14,xmm2
  0000000000002349: 66 44 0F 38 00 35  pshufb      xmm14,xmmword ptr [.rdata+20h]
                    20 00 00 00
  0000000000002353: 66 45 0F FE D6     paddd       xmm10,xmm14
  0000000000002358: 66 41 0F EF F2     pxor        xmm6,xmm10
  000000000000235D: 66 0F 6F DE        movdqa      xmm3,xmm6
  0000000000002361: 66 0F 72 F3 07     pslld       xmm3,7
  0000000000002366: 66 0F 72 D6 19     psrld       xmm6,19h
  000000000000236B: 66 0F EF F3        pxor        xmm6,xmm3
  000000000000236F: 66 0F 3A 0F F6 04  palignr     xmm6,xmm6,4
  0000000000002375: 66 45 0F 3A 0F D2  palignr     xmm10,xmm10,8
                    08
  000000000000237C: 66 45 0F 3A 0F F6  palignr     xmm14,xmm14,0Ch
                    0C
  0000000000002383: 66 0F FE C4        paddd       xmm0,xmm4
  0000000000002387: 66 44 0F EF E0     pxor        xmm12,xmm0
  000000000000238C: 66 44 0F 38 00 25  pshufb      xmm12,xmmword ptr [.rdata+40h]
                    40 00 00 00
  0000000000002396: 66 45 0F FE C4     paddd       xmm8,xmm12
  000000000000239B: 66 41 0F EF E0     pxor        xmm4,xmm8
  00000000000023A0: 66 0F 6F DC        movdqa      xmm3,xmm4
  00000000000023A4: 66 0F 72 F3 0C     pslld       xmm3,0Ch
  00000000000023A9: 66 0F 72 D4 14     psrld       xmm4,14h
  00000000000023AE: 66 0F EF E3        pxor        xmm4,xmm3
  00000000000023B2: 66 0F FE C4        paddd       xmm0,xmm4
  00000000000023B6: 66 44 0F EF E0     pxor        xmm12,xmm0
  00000000000023BB: 66 44 0F 38 00 25  pshufb      xmm12,xmmword ptr [.rdata+20h]
                    20 00 00 00
  00000000000023C5: 66 45 0F FE C4     paddd       xmm8,xmm12
  00000000000023CA: 66 41 0F EF E0     pxor        xmm4,xmm8
  00000000000023CF: 66 0F 6F DC        movdqa      xmm3,xmm4
  00000000000023D3: 66 0F 72 F3 07     pslld       xmm3,7
  00000000000023D8: 66 0F 72 D4 19     psrld       xmm4,19h
  00000000000023DD: 66 0F EF E3        pxor        xmm4,xmm3
  00000000000023E1: 66 0F 3A 0F E4 0C  palignr     xmm4,xmm4,0Ch
  00000000000023E7: 66 45 0F 3A 0F C0  palignr     xmm8,xmm8,8
                    08
  00000000000023EE: 66 45 0F 3A 0F E4  palignr     xmm12,xmm12,4
                    04
  00000000000023F5: 66 0F FE CD        paddd       xmm1,xmm5
  00000000000023F9: 66 44 0F EF E9     pxor        xmm13,xmm1
  00000000000023FE: 66 44 0F 38 00 2D  pshufb      xmm13,xmmword ptr [.rdata+40h]
                    40 00 00 00
  0000000000002408: 66 45 0F FE CD     paddd       xmm9,xmm13
  000000000000240D: 66 41 0F EF E9     pxor        xmm5,xmm9
  0000000000002412: 66 0F 6F DD        movdqa      xmm3,xmm5
  0000000000002416: 66 0F 72 F3 0C     pslld       xmm3,0Ch
  000000000000241B: 66 0F 72 D5 14     psrld       xmm5,14h
  0000000000002420: 66 0F EF EB        pxor        xmm5,xmm3
  0000000000002424: 66 0F FE CD        paddd       xmm1,xmm5
  0000000000002428: 66 44 0F EF E9     pxor        xmm13,xmm1
  000000000000242D: 66 44 0F 38 00 2D  pshufb      xmm13,xmmword ptr [.rdata+20h]
                    20 00 00 00
  0000000000002437: 66 45 0F FE CD     paddd       xmm9,xmm13
  000000000000243C: 66 41 0F EF E9     pxor        xmm5,xmm9
  0000000000002441: 66 0F 6F DD        movdqa      xmm3,xmm5
  0000000000002445: 66 0F 72 F3 07     pslld       xmm3,7
  000000000000244A: 66 0F 72 D5 19     psrld       xmm5,19h
  000000000000244F: 66 0F EF EB        pxor        xmm5,xmm3
  0000000000002453: 66 0F 3A 0F ED 0C  palignr     xmm5,xmm5,0Ch
  0000000000002459: 66 45 0F 3A 0F C9  palignr     xmm9,xmm9,8
                    08
  0000000000002460: 66 45 0F 3A 0F ED  palignr     xmm13,xmm13,4
                    04
  0000000000002467: 66 0F FE D6        paddd       xmm2,xmm6
  000000000000246B: 66 44 0F EF F2     pxor        xmm14,xmm2
  0000000000002470: 66 44 0F 38 00 35  pshufb      xmm14,xmmword ptr [.rdata+40h]
                    40 00 00 00
  000000000000247A: 66 45 0F FE D6     paddd       xmm10,xmm14
  000000000000247F: 66 41 0F EF F2     pxor        xmm6,xmm10
  0000000000002484: 66 0F 6F DE        movdqa      xmm3,xmm6
  0000000000002488: 66 0F 72 F3 0C     pslld       xmm3,0Ch
  000000000000248D: 66 0F 72 D6 14     psrld       xmm6,14h
  0000000000002492: 66 0F EF F3        pxor        xmm6,xmm3
  0000000000002496: 66 0F FE D6        paddd       xmm2,xmm6
  000000000000249A: 66 44 0F EF F2     pxor        xmm14,xmm2
  000000000000249F: 66 44 0F 38 00 35  pshufb      xmm14,xmmword ptr [.rdata+20h]
                    20 00 00 00
  00000000000024A9: 66 45 0F FE D6     paddd       xmm10,xmm14
  00000000000024AE: 66 41 0F EF F2     pxor        xmm6,xmm10
  00000000000024B3: 66 0F 6F DE        movdqa      xmm3,xmm6
  00000000000024B7: 66 0F 72 F3 07     pslld       xmm3,7
  00000000000024BC: 66 0F 72 D6 19     psrld       xmm6,19h
  00000000000024C1: 66 0F EF F3        pxor        xmm6,xmm3
  00000000000024C5: 66 0F 3A 0F F6 0C  palignr     xmm6,xmm6,0Ch
  00000000000024CB: 66 45 0F 3A 0F D2  palignr     xmm10,xmm10,8
                    08
  00000000000024D2: 66 45 0F 3A 0F F6  palignr     xmm14,xmm14,4
                    04
  00000000000024D9: 49 FF CA           dec         r10
  00000000000024DC: 0F 85 4B FD FF FF  jne         L$open_sse_128_rounds
  00000000000024E2: 66 0F FE 05 00 00  paddd       xmm0,xmmword ptr [.rdata]
                    00 00
  00000000000024EA: 66 0F FE 0D 00 00  paddd       xmm1,xmmword ptr [.rdata]
                    00 00
  00000000000024F2: 66 0F FE 15 00 00  paddd       xmm2,xmmword ptr [.rdata]
                    00 00
  00000000000024FA: 66 0F FE E7        paddd       xmm4,xmm7
  00000000000024FE: 66 0F FE EF        paddd       xmm5,xmm7
  0000000000002502: 66 0F FE F7        paddd       xmm6,xmm7
  0000000000002506: 66 45 0F FE CB     paddd       xmm9,xmm11
  000000000000250B: 66 45 0F FE D3     paddd       xmm10,xmm11
  0000000000002510: 66 45 0F FE EF     paddd       xmm13,xmm15
  0000000000002515: 66 44 0F FE 3D 70  paddd       xmm15,xmmword ptr [.rdata+70h]
                    00 00 00
  000000000000251E: 66 45 0F FE F7     paddd       xmm14,xmm15
  0000000000002523: 66 0F DB 05 A0 00  pand        xmm0,xmmword ptr [.rdata+0A0h]
                    00 00
  000000000000252B: 66 0F 7F 85 A0 00  movdqa      xmmword ptr [rbp+0A0h],xmm0
                    00 00
  0000000000002533: 66 0F 7F A5 B0 00  movdqa      xmmword ptr [rbp+0B0h],xmm4
                    00 00
  000000000000253B: 4D 89 C0           mov         r8,r8
  000000000000253E: E8 BD DA FF FF     call        poly_hash_ad_internal
L$open_sse_128_xor_hash:
  0000000000002543: 48 83 FB 10        cmp         rbx,10h
  0000000000002547: 0F 82 6D FA FF FF  jb          L$open_sse_tail_16
  000000000000254D: 48 83 EB 10        sub         rbx,10h
  0000000000002551: 4C 03 16           add         r10,qword ptr [rsi]
  0000000000002554: 4C 13 5E 08        adc         r11,qword ptr [rsi+8]
  0000000000002558: 49 83 D4 01        adc         r12,1
  000000000000255C: F3 0F 6F 1E        movdqu      xmm3,xmmword ptr [rsi]
  0000000000002560: 66 0F EF CB        pxor        xmm1,xmm3
  0000000000002564: F3 0F 7F 0F        movdqu      xmmword ptr [rdi],xmm1
  0000000000002568: 48 8D 76 10        lea         rsi,[rsi+10h]
  000000000000256C: 48 8D 7F 10        lea         rdi,[rdi+10h]
  0000000000002570: 48 8B 85 A0 00 00  mov         rax,qword ptr [rbp+0A0h]
                    00
  0000000000002577: 49 89 C7           mov         r15,rax
  000000000000257A: 49 F7 E2           mul         rax,r10
  000000000000257D: 49 89 C5           mov         r13,rax
  0000000000002580: 49 89 D6           mov         r14,rdx
  0000000000002583: 48 8B 85 A0 00 00  mov         rax,qword ptr [rbp+0A0h]
                    00
  000000000000258A: 49 F7 E3           mul         rax,r11
  000000000000258D: 4D 0F AF FC        imul        r15,r12
  0000000000002591: 49 01 C6           add         r14,rax
  0000000000002594: 49 11 D7           adc         r15,rdx
  0000000000002597: 48 8B 85 A8 00 00  mov         rax,qword ptr [rbp+0A8h]
                    00
  000000000000259E: 49 89 C1           mov         r9,rax
  00000000000025A1: 49 F7 E2           mul         rax,r10
  00000000000025A4: 49 01 C6           add         r14,rax
  00000000000025A7: 48 83 D2 00        adc         rdx,0
  00000000000025AB: 49 89 D2           mov         r10,rdx
  00000000000025AE: 48 8B 85 A8 00 00  mov         rax,qword ptr [rbp+0A8h]
                    00
  00000000000025B5: 49 F7 E3           mul         rax,r11
  00000000000025B8: 49 01 C7           add         r15,rax
  00000000000025BB: 48 83 D2 00        adc         rdx,0
  00000000000025BF: 4D 0F AF CC        imul        r9,r12
  00000000000025C3: 4D 01 D7           add         r15,r10
  00000000000025C6: 49 11 D1           adc         r9,rdx
  00000000000025C9: 4D 89 EA           mov         r10,r13
  00000000000025CC: 4D 89 F3           mov         r11,r14
  00000000000025CF: 4D 89 FC           mov         r12,r15
  00000000000025D2: 49 83 E4 03        and         r12,3
  00000000000025D6: 4D 89 FD           mov         r13,r15
  00000000000025D9: 49 83 E5 FC        and         r13,0FFFFFFFFFFFFFFFCh
  00000000000025DD: 4D 89 CE           mov         r14,r9
  00000000000025E0: 4D 0F AC CF 02     shrd        r15,r9,2
  00000000000025E5: 49 C1 E9 02        shr         r9,2
  00000000000025E9: 4D 01 EF           add         r15,r13
  00000000000025EC: 4D 11 F1           adc         r9,r14
  00000000000025EF: 4D 01 FA           add         r10,r15
  00000000000025F2: 4D 11 CB           adc         r11,r9
  00000000000025F5: 49 83 D4 00        adc         r12,0
  00000000000025F9: 66 0F 6F CD        movdqa      xmm1,xmm5
  00000000000025FD: 66 41 0F 6F E9     movdqa      xmm5,xmm9
  0000000000002602: 66 45 0F 6F CD     movdqa      xmm9,xmm13
  0000000000002607: 66 44 0F 6F EA     movdqa      xmm13,xmm2
  000000000000260C: 66 0F 6F D6        movdqa      xmm2,xmm6
  0000000000002610: 66 41 0F 6F F2     movdqa      xmm6,xmm10
  0000000000002615: 66 45 0F 6F D6     movdqa      xmm10,xmm14
  000000000000261A: E9 24 FF FF FF     jmp         L$open_sse_128_xor_hash
L$SEH_end_chacha20_poly1305_open:
  000000000000261F: 90                 nop
  0000000000002620: 90                 nop
  0000000000002621: 90                 nop
  0000000000002622: 90                 nop
  0000000000002623: 90                 nop
  0000000000002624: 90                 nop
  0000000000002625: 90                 nop
  0000000000002626: 90                 nop
  0000000000002627: 90                 nop
  0000000000002628: 90                 nop
  0000000000002629: 90                 nop
  000000000000262A: 90                 nop
  000000000000262B: 90                 nop
  000000000000262C: 90                 nop
  000000000000262D: 90                 nop
  000000000000262E: 90                 nop
  000000000000262F: 90                 nop
  0000000000002630: 90                 nop
  0000000000002631: 90                 nop
  0000000000002632: 90                 nop
  0000000000002633: 90                 nop
  0000000000002634: 90                 nop
  0000000000002635: 90                 nop
  0000000000002636: 90                 nop
  0000000000002637: 90                 nop
  0000000000002638: 90                 nop
  0000000000002639: 90                 nop
  000000000000263A: 90                 nop
  000000000000263B: 90                 nop
  000000000000263C: 90                 nop
  000000000000263D: 90                 nop
  000000000000263E: 90                 nop
  000000000000263F: 90                 nop
aws_lc_0_21_1_chacha20_poly1305_seal:
  0000000000002640: 48 89 7C 24 08     mov         qword ptr [rsp+8],rdi
  0000000000002645: 48 89 74 24 10     mov         qword ptr [rsp+10h],rsi
  000000000000264A: 48 89 E0           mov         rax,rsp
L$SEH_begin_chacha20_poly1305_seal:
  000000000000264D: 48 89 CF           mov         rdi,rcx
  0000000000002650: 48 89 D6           mov         rsi,rdx
  0000000000002653: 4C 89 C2           mov         rdx,r8
  0000000000002656: 4C 89 C9           mov         rcx,r9
  0000000000002659: 4C 8B 44 24 28     mov         r8,qword ptr [rsp+28h]
  000000000000265E: 4C 8B 4C 24 30     mov         r9,qword ptr [rsp+30h]
  0000000000002663: 55                 push        rbp
  0000000000002664: 53                 push        rbx
  0000000000002665: 41 54              push        r12
  0000000000002667: 41 55              push        r13
  0000000000002669: 41 56              push        r14
  000000000000266B: 41 57              push        r15
  000000000000266D: 41 51              push        r9
  000000000000266F: 48 81 EC E0 01 00  sub         rsp,1E0h
                    00
  0000000000002676: 48 8D 6C 24 20     lea         rbp,[rsp+20h]
  000000000000267B: 48 83 E5 E0        and         rbp,0FFFFFFFFFFFFFFE0h
  000000000000267F: 0F 29 75 00        movaps      xmmword ptr [rbp],xmm6
  0000000000002683: 0F 29 7D 10        movaps      xmmword ptr [rbp+10h],xmm7
  0000000000002687: 44 0F 29 45 20     movaps      xmmword ptr [rbp+20h],xmm8
  000000000000268C: 44 0F 29 4D 30     movaps      xmmword ptr [rbp+30h],xmm9
  0000000000002691: 44 0F 29 55 40     movaps      xmmword ptr [rbp+40h],xmm10
  0000000000002696: 44 0F 29 5D 50     movaps      xmmword ptr [rbp+50h],xmm11
  000000000000269B: 44 0F 29 65 60     movaps      xmmword ptr [rbp+60h],xmm12
  00000000000026A0: 44 0F 29 6D 70     movaps      xmmword ptr [rbp+70h],xmm13
  00000000000026A5: 44 0F 29 B5 80 00  movaps      xmmword ptr [rbp+80h],xmm14
                    00 00
  00000000000026AD: 44 0F 29 BD 90 00  movaps      xmmword ptr [rbp+90h],xmm15
                    00 00
  00000000000026B5: 49 8B 59 38        mov         rbx,qword ptr [r9+38h]
  00000000000026B9: 48 01 D3           add         rbx,rdx
  00000000000026BC: 4C 89 85 C0 00 00  mov         qword ptr [rbp+0C0h],r8
                    00
  00000000000026C3: 48 89 9D C8 00 00  mov         qword ptr [rbp+0C8h],rbx
                    00
  00000000000026CA: 48 89 D3           mov         rbx,rdx
  00000000000026CD: 8B 05 08 00 00 00  mov         eax,dword ptr [aws_lc_0_21_1_OPENSSL_ia32cap_P+8]
  00000000000026D3: 25 20 01 00 00     and         eax,120h
  00000000000026D8: 35 20 01 00 00     xor         eax,120h
  00000000000026DD: 0F 84 9D 4B 00 00  je          chacha20_poly1305_seal_avx2
  00000000000026E3: 48 81 FB 80 00 00  cmp         rbx,80h
                    00
  00000000000026EA: 0F 86 85 20 00 00  jbe         L$seal_sse_128
  00000000000026F0: 66 0F 6F 05 00 00  movdqa      xmm0,xmmword ptr [.rdata]
                    00 00
  00000000000026F8: F3 41 0F 6F 21     movdqu      xmm4,xmmword ptr [r9]
  00000000000026FD: F3 45 0F 6F 41 10  movdqu      xmm8,xmmword ptr [r9+10h]
  0000000000002703: F3 45 0F 6F 61 20  movdqu      xmm12,xmmword ptr [r9+20h]
  0000000000002709: 66 0F 6F C8        movdqa      xmm1,xmm0
  000000000000270D: 66 0F 6F D0        movdqa      xmm2,xmm0
  0000000000002711: 66 0F 6F D8        movdqa      xmm3,xmm0
  0000000000002715: 66 0F 6F EC        movdqa      xmm5,xmm4
  0000000000002719: 66 0F 6F F4        movdqa      xmm6,xmm4
  000000000000271D: 66 0F 6F FC        movdqa      xmm7,xmm4
  0000000000002721: 66 45 0F 6F C8     movdqa      xmm9,xmm8
  0000000000002726: 66 45 0F 6F D0     movdqa      xmm10,xmm8
  000000000000272B: 66 45 0F 6F D8     movdqa      xmm11,xmm8
  0000000000002730: 66 45 0F 6F FC     movdqa      xmm15,xmm12
  0000000000002735: 66 44 0F FE 25 70  paddd       xmm12,xmmword ptr [.rdata+70h]
                    00 00 00
  000000000000273E: 66 45 0F 6F F4     movdqa      xmm14,xmm12
  0000000000002743: 66 44 0F FE 25 70  paddd       xmm12,xmmword ptr [.rdata+70h]
                    00 00 00
  000000000000274C: 66 45 0F 6F EC     movdqa      xmm13,xmm12
  0000000000002751: 66 44 0F FE 25 70  paddd       xmm12,xmmword ptr [.rdata+70h]
                    00 00 00
  000000000000275A: 66 0F 7F A5 D0 00  movdqa      xmmword ptr [rbp+0D0h],xmm4
                    00 00
  0000000000002762: 66 44 0F 7F 85 E0  movdqa      xmmword ptr [rbp+0E0h],xmm8
                    00 00 00
  000000000000276B: 66 44 0F 7F A5 00  movdqa      xmmword ptr [rbp+100h],xmm12
                    01 00 00
  0000000000002774: 66 44 0F 7F AD 10  movdqa      xmmword ptr [rbp+110h],xmm13
                    01 00 00
  000000000000277D: 66 44 0F 7F B5 20  movdqa      xmmword ptr [rbp+120h],xmm14
                    01 00 00
  0000000000002786: 66 44 0F 7F BD 30  movdqa      xmmword ptr [rbp+130h],xmm15
                    01 00 00
  000000000000278F: 41 BA 0A 00 00 00  mov         r10d,0Ah
L$seal_sse_init_rounds:
  0000000000002795: 66 44 0F 7F 85 F0  movdqa      xmmword ptr [rbp+0F0h],xmm8
                    00 00 00
  000000000000279E: 66 44 0F 6F 05 40  movdqa      xmm8,xmmword ptr [.rdata+40h]
                    00 00 00
  00000000000027A7: 66 0F FE DF        paddd       xmm3,xmm7
  00000000000027AB: 66 0F FE D6        paddd       xmm2,xmm6
  00000000000027AF: 66 0F FE CD        paddd       xmm1,xmm5
  00000000000027B3: 66 0F FE C4        paddd       xmm0,xmm4
  00000000000027B7: 66 44 0F EF FB     pxor        xmm15,xmm3
  00000000000027BC: 66 44 0F EF F2     pxor        xmm14,xmm2
  00000000000027C1: 66 44 0F EF E9     pxor        xmm13,xmm1
  00000000000027C6: 66 44 0F EF E0     pxor        xmm12,xmm0
  00000000000027CB: 66 45 0F 38 00 F8  pshufb      xmm15,xmm8
  00000000000027D1: 66 45 0F 38 00 F0  pshufb      xmm14,xmm8
  00000000000027D7: 66 45 0F 38 00 E8  pshufb      xmm13,xmm8
  00000000000027DD: 66 45 0F 38 00 E0  pshufb      xmm12,xmm8
  00000000000027E3: 66 44 0F 6F 85 F0  movdqa      xmm8,xmmword ptr [rbp+0F0h]
                    00 00 00
  00000000000027EC: 66 45 0F FE DF     paddd       xmm11,xmm15
  00000000000027F1: 66 45 0F FE D6     paddd       xmm10,xmm14
  00000000000027F6: 66 45 0F FE CD     paddd       xmm9,xmm13
  00000000000027FB: 66 45 0F FE C4     paddd       xmm8,xmm12
  0000000000002800: 66 41 0F EF FB     pxor        xmm7,xmm11
  0000000000002805: 66 41 0F EF F2     pxor        xmm6,xmm10
  000000000000280A: 66 41 0F EF E9     pxor        xmm5,xmm9
  000000000000280F: 66 41 0F EF E0     pxor        xmm4,xmm8
  0000000000002814: 66 44 0F 7F 85 F0  movdqa      xmmword ptr [rbp+0F0h],xmm8
                    00 00 00
  000000000000281D: 66 44 0F 6F C7     movdqa      xmm8,xmm7
  0000000000002822: 66 41 0F 72 D0 14  psrld       xmm8,14h
  0000000000002828: 66 0F 72 F7 0C     pslld       xmm7,0Ch
  000000000000282D: 66 41 0F EF F8     pxor        xmm7,xmm8
  0000000000002832: 66 44 0F 6F C6     movdqa      xmm8,xmm6
  0000000000002837: 66 41 0F 72 D0 14  psrld       xmm8,14h
  000000000000283D: 66 0F 72 F6 0C     pslld       xmm6,0Ch
  0000000000002842: 66 41 0F EF F0     pxor        xmm6,xmm8
  0000000000002847: 66 44 0F 6F C5     movdqa      xmm8,xmm5
  000000000000284C: 66 41 0F 72 D0 14  psrld       xmm8,14h
  0000000000002852: 66 0F 72 F5 0C     pslld       xmm5,0Ch
  0000000000002857: 66 41 0F EF E8     pxor        xmm5,xmm8
  000000000000285C: 66 44 0F 6F C4     movdqa      xmm8,xmm4
  0000000000002861: 66 41 0F 72 D0 14  psrld       xmm8,14h
  0000000000002867: 66 0F 72 F4 0C     pslld       xmm4,0Ch
  000000000000286C: 66 41 0F EF E0     pxor        xmm4,xmm8
  0000000000002871: 66 44 0F 6F 05 20  movdqa      xmm8,xmmword ptr [.rdata+20h]
                    00 00 00
  000000000000287A: 66 0F FE DF        paddd       xmm3,xmm7
  000000000000287E: 66 0F FE D6        paddd       xmm2,xmm6
  0000000000002882: 66 0F FE CD        paddd       xmm1,xmm5
  0000000000002886: 66 0F FE C4        paddd       xmm0,xmm4
  000000000000288A: 66 44 0F EF FB     pxor        xmm15,xmm3
  000000000000288F: 66 44 0F EF F2     pxor        xmm14,xmm2
  0000000000002894: 66 44 0F EF E9     pxor        xmm13,xmm1
  0000000000002899: 66 44 0F EF E0     pxor        xmm12,xmm0
  000000000000289E: 66 45 0F 38 00 F8  pshufb      xmm15,xmm8
  00000000000028A4: 66 45 0F 38 00 F0  pshufb      xmm14,xmm8
  00000000000028AA: 66 45 0F 38 00 E8  pshufb      xmm13,xmm8
  00000000000028B0: 66 45 0F 38 00 E0  pshufb      xmm12,xmm8
  00000000000028B6: 66 44 0F 6F 85 F0  movdqa      xmm8,xmmword ptr [rbp+0F0h]
                    00 00 00
  00000000000028BF: 66 45 0F FE DF     paddd       xmm11,xmm15
  00000000000028C4: 66 45 0F FE D6     paddd       xmm10,xmm14
  00000000000028C9: 66 45 0F FE CD     paddd       xmm9,xmm13
  00000000000028CE: 66 45 0F FE C4     paddd       xmm8,xmm12
  00000000000028D3: 66 41 0F EF FB     pxor        xmm7,xmm11
  00000000000028D8: 66 41 0F EF F2     pxor        xmm6,xmm10
  00000000000028DD: 66 41 0F EF E9     pxor        xmm5,xmm9
  00000000000028E2: 66 41 0F EF E0     pxor        xmm4,xmm8
  00000000000028E7: 66 44 0F 7F 85 F0  movdqa      xmmword ptr [rbp+0F0h],xmm8
                    00 00 00
  00000000000028F0: 66 44 0F 6F C7     movdqa      xmm8,xmm7
  00000000000028F5: 66 41 0F 72 D0 19  psrld       xmm8,19h
  00000000000028FB: 66 0F 72 F7 07     pslld       xmm7,7
  0000000000002900: 66 41 0F EF F8     pxor        xmm7,xmm8
  0000000000002905: 66 44 0F 6F C6     movdqa      xmm8,xmm6
  000000000000290A: 66 41 0F 72 D0 19  psrld       xmm8,19h
  0000000000002910: 66 0F 72 F6 07     pslld       xmm6,7
  0000000000002915: 66 41 0F EF F0     pxor        xmm6,xmm8
  000000000000291A: 66 44 0F 6F C5     movdqa      xmm8,xmm5
  000000000000291F: 66 41 0F 72 D0 19  psrld       xmm8,19h
  0000000000002925: 66 0F 72 F5 07     pslld       xmm5,7
  000000000000292A: 66 41 0F EF E8     pxor        xmm5,xmm8
  000000000000292F: 66 44 0F 6F C4     movdqa      xmm8,xmm4
  0000000000002934: 66 41 0F 72 D0 19  psrld       xmm8,19h
  000000000000293A: 66 0F 72 F4 07     pslld       xmm4,7
  000000000000293F: 66 41 0F EF E0     pxor        xmm4,xmm8
  0000000000002944: 66 44 0F 6F 85 F0  movdqa      xmm8,xmmword ptr [rbp+0F0h]
                    00 00 00
  000000000000294D: 66 0F 3A 0F FF 04  palignr     xmm7,xmm7,4
  0000000000002953: 66 45 0F 3A 0F DB  palignr     xmm11,xmm11,8
                    08
  000000000000295A: 66 45 0F 3A 0F FF  palignr     xmm15,xmm15,0Ch
                    0C
  0000000000002961: 66 0F 3A 0F F6 04  palignr     xmm6,xmm6,4
  0000000000002967: 66 45 0F 3A 0F D2  palignr     xmm10,xmm10,8
                    08
  000000000000296E: 66 45 0F 3A 0F F6  palignr     xmm14,xmm14,0Ch
                    0C
  0000000000002975: 66 0F 3A 0F ED 04  palignr     xmm5,xmm5,4
  000000000000297B: 66 45 0F 3A 0F C9  palignr     xmm9,xmm9,8
                    08
  0000000000002982: 66 45 0F 3A 0F ED  palignr     xmm13,xmm13,0Ch
                    0C
  0000000000002989: 66 0F 3A 0F E4 04  palignr     xmm4,xmm4,4
  000000000000298F: 66 45 0F 3A 0F C0  palignr     xmm8,xmm8,8
                    08
  0000000000002996: 66 45 0F 3A 0F E4  palignr     xmm12,xmm12,0Ch
                    0C
  000000000000299D: 66 44 0F 7F 85 F0  movdqa      xmmword ptr [rbp+0F0h],xmm8
                    00 00 00
  00000000000029A6: 66 44 0F 6F 05 40  movdqa      xmm8,xmmword ptr [.rdata+40h]
                    00 00 00
  00000000000029AF: 66 0F FE DF        paddd       xmm3,xmm7
  00000000000029B3: 66 0F FE D6        paddd       xmm2,xmm6
  00000000000029B7: 66 0F FE CD        paddd       xmm1,xmm5
  00000000000029BB: 66 0F FE C4        paddd       xmm0,xmm4
  00000000000029BF: 66 44 0F EF FB     pxor        xmm15,xmm3
  00000000000029C4: 66 44 0F EF F2     pxor        xmm14,xmm2
  00000000000029C9: 66 44 0F EF E9     pxor        xmm13,xmm1
  00000000000029CE: 66 44 0F EF E0     pxor        xmm12,xmm0
  00000000000029D3: 66 45 0F 38 00 F8  pshufb      xmm15,xmm8
  00000000000029D9: 66 45 0F 38 00 F0  pshufb      xmm14,xmm8
  00000000000029DF: 66 45 0F 38 00 E8  pshufb      xmm13,xmm8
  00000000000029E5: 66 45 0F 38 00 E0  pshufb      xmm12,xmm8
  00000000000029EB: 66 44 0F 6F 85 F0  movdqa      xmm8,xmmword ptr [rbp+0F0h]
                    00 00 00
  00000000000029F4: 66 45 0F FE DF     paddd       xmm11,xmm15
  00000000000029F9: 66 45 0F FE D6     paddd       xmm10,xmm14
  00000000000029FE: 66 45 0F FE CD     paddd       xmm9,xmm13
  0000000000002A03: 66 45 0F FE C4     paddd       xmm8,xmm12
  0000000000002A08: 66 41 0F EF FB     pxor        xmm7,xmm11
  0000000000002A0D: 66 41 0F EF F2     pxor        xmm6,xmm10
  0000000000002A12: 66 41 0F EF E9     pxor        xmm5,xmm9
  0000000000002A17: 66 41 0F EF E0     pxor        xmm4,xmm8
  0000000000002A1C: 66 44 0F 7F 85 F0  movdqa      xmmword ptr [rbp+0F0h],xmm8
                    00 00 00
  0000000000002A25: 66 44 0F 6F C7     movdqa      xmm8,xmm7
  0000000000002A2A: 66 41 0F 72 D0 14  psrld       xmm8,14h
  0000000000002A30: 66 0F 72 F7 0C     pslld       xmm7,0Ch
  0000000000002A35: 66 41 0F EF F8     pxor        xmm7,xmm8
  0000000000002A3A: 66 44 0F 6F C6     movdqa      xmm8,xmm6
  0000000000002A3F: 66 41 0F 72 D0 14  psrld       xmm8,14h
  0000000000002A45: 66 0F 72 F6 0C     pslld       xmm6,0Ch
  0000000000002A4A: 66 41 0F EF F0     pxor        xmm6,xmm8
  0000000000002A4F: 66 44 0F 6F C5     movdqa      xmm8,xmm5
  0000000000002A54: 66 41 0F 72 D0 14  psrld       xmm8,14h
  0000000000002A5A: 66 0F 72 F5 0C     pslld       xmm5,0Ch
  0000000000002A5F: 66 41 0F EF E8     pxor        xmm5,xmm8
  0000000000002A64: 66 44 0F 6F C4     movdqa      xmm8,xmm4
  0000000000002A69: 66 41 0F 72 D0 14  psrld       xmm8,14h
  0000000000002A6F: 66 0F 72 F4 0C     pslld       xmm4,0Ch
  0000000000002A74: 66 41 0F EF E0     pxor        xmm4,xmm8
  0000000000002A79: 66 44 0F 6F 05 20  movdqa      xmm8,xmmword ptr [.rdata+20h]
                    00 00 00
  0000000000002A82: 66 0F FE DF        paddd       xmm3,xmm7
  0000000000002A86: 66 0F FE D6        paddd       xmm2,xmm6
  0000000000002A8A: 66 0F FE CD        paddd       xmm1,xmm5
  0000000000002A8E: 66 0F FE C4        paddd       xmm0,xmm4
  0000000000002A92: 66 44 0F EF FB     pxor        xmm15,xmm3
  0000000000002A97: 66 44 0F EF F2     pxor        xmm14,xmm2
  0000000000002A9C: 66 44 0F EF E9     pxor        xmm13,xmm1
  0000000000002AA1: 66 44 0F EF E0     pxor        xmm12,xmm0
  0000000000002AA6: 66 45 0F 38 00 F8  pshufb      xmm15,xmm8
  0000000000002AAC: 66 45 0F 38 00 F0  pshufb      xmm14,xmm8
  0000000000002AB2: 66 45 0F 38 00 E8  pshufb      xmm13,xmm8
  0000000000002AB8: 66 45 0F 38 00 E0  pshufb      xmm12,xmm8
  0000000000002ABE: 66 44 0F 6F 85 F0  movdqa      xmm8,xmmword ptr [rbp+0F0h]
                    00 00 00
  0000000000002AC7: 66 45 0F FE DF     paddd       xmm11,xmm15
  0000000000002ACC: 66 45 0F FE D6     paddd       xmm10,xmm14
  0000000000002AD1: 66 45 0F FE CD     paddd       xmm9,xmm13
  0000000000002AD6: 66 45 0F FE C4     paddd       xmm8,xmm12
  0000000000002ADB: 66 41 0F EF FB     pxor        xmm7,xmm11
  0000000000002AE0: 66 41 0F EF F2     pxor        xmm6,xmm10
  0000000000002AE5: 66 41 0F EF E9     pxor        xmm5,xmm9
  0000000000002AEA: 66 41 0F EF E0     pxor        xmm4,xmm8
  0000000000002AEF: 66 44 0F 7F 85 F0  movdqa      xmmword ptr [rbp+0F0h],xmm8
                    00 00 00
  0000000000002AF8: 66 44 0F 6F C7     movdqa      xmm8,xmm7
  0000000000002AFD: 66 41 0F 72 D0 19  psrld       xmm8,19h
  0000000000002B03: 66 0F 72 F7 07     pslld       xmm7,7
  0000000000002B08: 66 41 0F EF F8     pxor        xmm7,xmm8
  0000000000002B0D: 66 44 0F 6F C6     movdqa      xmm8,xmm6
  0000000000002B12: 66 41 0F 72 D0 19  psrld       xmm8,19h
  0000000000002B18: 66 0F 72 F6 07     pslld       xmm6,7
  0000000000002B1D: 66 41 0F EF F0     pxor        xmm6,xmm8
  0000000000002B22: 66 44 0F 6F C5     movdqa      xmm8,xmm5
  0000000000002B27: 66 41 0F 72 D0 19  psrld       xmm8,19h
  0000000000002B2D: 66 0F 72 F5 07     pslld       xmm5,7
  0000000000002B32: 66 41 0F EF E8     pxor        xmm5,xmm8
  0000000000002B37: 66 44 0F 6F C4     movdqa      xmm8,xmm4
  0000000000002B3C: 66 41 0F 72 D0 19  psrld       xmm8,19h
  0000000000002B42: 66 0F 72 F4 07     pslld       xmm4,7
  0000000000002B47: 66 41 0F EF E0     pxor        xmm4,xmm8
  0000000000002B4C: 66 44 0F 6F 85 F0  movdqa      xmm8,xmmword ptr [rbp+0F0h]
                    00 00 00
  0000000000002B55: 66 0F 3A 0F FF 0C  palignr     xmm7,xmm7,0Ch
  0000000000002B5B: 66 45 0F 3A 0F DB  palignr     xmm11,xmm11,8
                    08
  0000000000002B62: 66 45 0F 3A 0F FF  palignr     xmm15,xmm15,4
                    04
  0000000000002B69: 66 0F 3A 0F F6 0C  palignr     xmm6,xmm6,0Ch
  0000000000002B6F: 66 45 0F 3A 0F D2  palignr     xmm10,xmm10,8
                    08
  0000000000002B76: 66 45 0F 3A 0F F6  palignr     xmm14,xmm14,4
                    04
  0000000000002B7D: 66 0F 3A 0F ED 0C  palignr     xmm5,xmm5,0Ch
  0000000000002B83: 66 45 0F 3A 0F C9  palignr     xmm9,xmm9,8
                    08
  0000000000002B8A: 66 45 0F 3A 0F ED  palignr     xmm13,xmm13,4
                    04
  0000000000002B91: 66 0F 3A 0F E4 0C  palignr     xmm4,xmm4,0Ch
  0000000000002B97: 66 45 0F 3A 0F C0  palignr     xmm8,xmm8,8
                    08
  0000000000002B9E: 66 45 0F 3A 0F E4  palignr     xmm12,xmm12,4
                    04
  0000000000002BA5: 49 FF CA           dec         r10
  0000000000002BA8: 0F 85 E7 FB FF FF  jne         L$seal_sse_init_rounds
  0000000000002BAE: 66 0F FE 1D 00 00  paddd       xmm3,xmmword ptr [.rdata]
                    00 00
  0000000000002BB6: 66 0F FE BD D0 00  paddd       xmm7,xmmword ptr [rbp+0D0h]
                    00 00
  0000000000002BBE: 66 44 0F FE 9D E0  paddd       xmm11,xmmword ptr [rbp+0E0h]
                    00 00 00
  0000000000002BC7: 66 44 0F FE BD 30  paddd       xmm15,xmmword ptr [rbp+130h]
                    01 00 00
  0000000000002BD0: 66 0F FE 15 00 00  paddd       xmm2,xmmword ptr [.rdata]
                    00 00
  0000000000002BD8: 66 0F FE B5 D0 00  paddd       xmm6,xmmword ptr [rbp+0D0h]
                    00 00
  0000000000002BE0: 66 44 0F FE 95 E0  paddd       xmm10,xmmword ptr [rbp+0E0h]
                    00 00 00
  0000000000002BE9: 66 44 0F FE B5 20  paddd       xmm14,xmmword ptr [rbp+120h]
                    01 00 00
  0000000000002BF2: 66 0F FE 0D 00 00  paddd       xmm1,xmmword ptr [.rdata]
                    00 00
  0000000000002BFA: 66 0F FE AD D0 00  paddd       xmm5,xmmword ptr [rbp+0D0h]
                    00 00
  0000000000002C02: 66 44 0F FE 8D E0  paddd       xmm9,xmmword ptr [rbp+0E0h]
                    00 00 00
  0000000000002C0B: 66 44 0F FE AD 10  paddd       xmm13,xmmword ptr [rbp+110h]
                    01 00 00
  0000000000002C14: 66 0F FE 05 00 00  paddd       xmm0,xmmword ptr [.rdata]
                    00 00
  0000000000002C1C: 66 0F FE A5 D0 00  paddd       xmm4,xmmword ptr [rbp+0D0h]
                    00 00
  0000000000002C24: 66 44 0F FE 85 E0  paddd       xmm8,xmmword ptr [rbp+0E0h]
                    00 00 00
  0000000000002C2D: 66 44 0F FE A5 00  paddd       xmm12,xmmword ptr [rbp+100h]
                    01 00 00
  0000000000002C36: 66 0F DB 1D A0 00  pand        xmm3,xmmword ptr [.rdata+0A0h]
                    00 00
  0000000000002C3E: 66 0F 7F 9D A0 00  movdqa      xmmword ptr [rbp+0A0h],xmm3
                    00 00
  0000000000002C46: 66 0F 7F BD B0 00  movdqa      xmmword ptr [rbp+0B0h],xmm7
                    00 00
  0000000000002C4E: 4D 89 C0           mov         r8,r8
  0000000000002C51: E8 AA D3 FF FF     call        poly_hash_ad_internal
  0000000000002C56: F3 0F 6F 1E        movdqu      xmm3,xmmword ptr [rsi]
  0000000000002C5A: F3 0F 6F 7E 10     movdqu      xmm7,xmmword ptr [rsi+10h]
  0000000000002C5F: F3 44 0F 6F 5E 20  movdqu      xmm11,xmmword ptr [rsi+20h]
  0000000000002C65: F3 44 0F 6F 7E 30  movdqu      xmm15,xmmword ptr [rsi+30h]
  0000000000002C6B: 66 0F EF D3        pxor        xmm2,xmm3
  0000000000002C6F: 66 0F EF F7        pxor        xmm6,xmm7
  0000000000002C73: 66 45 0F EF D3     pxor        xmm10,xmm11
  0000000000002C78: 66 45 0F EF FE     pxor        xmm15,xmm14
  0000000000002C7D: F3 0F 7F 17        movdqu      xmmword ptr [rdi],xmm2
  0000000000002C81: F3 0F 7F 77 10     movdqu      xmmword ptr [rdi+10h],xmm6
  0000000000002C86: F3 44 0F 7F 57 20  movdqu      xmmword ptr [rdi+20h],xmm10
  0000000000002C8C: F3 44 0F 7F 7F 30  movdqu      xmmword ptr [rdi+30h],xmm15
  0000000000002C92: F3 0F 6F 5E 40     movdqu      xmm3,xmmword ptr [rsi+40h]
  0000000000002C97: F3 0F 6F 7E 50     movdqu      xmm7,xmmword ptr [rsi+50h]
  0000000000002C9C: F3 44 0F 6F 5E 60  movdqu      xmm11,xmmword ptr [rsi+60h]
  0000000000002CA2: F3 44 0F 6F 7E 70  movdqu      xmm15,xmmword ptr [rsi+70h]
  0000000000002CA8: 66 0F EF CB        pxor        xmm1,xmm3
  0000000000002CAC: 66 0F EF EF        pxor        xmm5,xmm7
  0000000000002CB0: 66 45 0F EF CB     pxor        xmm9,xmm11
  0000000000002CB5: 66 45 0F EF FD     pxor        xmm15,xmm13
  0000000000002CBA: F3 0F 7F 4F 40     movdqu      xmmword ptr [rdi+40h],xmm1
  0000000000002CBF: F3 0F 7F 6F 50     movdqu      xmmword ptr [rdi+50h],xmm5
  0000000000002CC4: F3 44 0F 7F 4F 60  movdqu      xmmword ptr [rdi+60h],xmm9
  0000000000002CCA: F3 44 0F 7F 7F 70  movdqu      xmmword ptr [rdi+70h],xmm15
  0000000000002CD0: 48 81 FB C0 00 00  cmp         rbx,0C0h
                    00
  0000000000002CD7: 0F 87 18 00 00 00  ja          L$seal_sse_main_init
  0000000000002CDD: B9 80 00 00 00     mov         ecx,80h
  0000000000002CE2: 48 81 EB 80 00 00  sub         rbx,80h
                    00
  0000000000002CE9: 48 8D B6 80 00 00  lea         rsi,[rsi+80h]
                    00
  0000000000002CF0: E9 B1 14 00 00     jmp         L$seal_sse_128_tail_hash
L$seal_sse_main_init:
  0000000000002CF5: F3 0F 6F 9E 80 00  movdqu      xmm3,xmmword ptr [rsi+80h]
                    00 00
  0000000000002CFD: F3 0F 6F BE 90 00  movdqu      xmm7,xmmword ptr [rsi+90h]
                    00 00
  0000000000002D05: F3 44 0F 6F 9E A0  movdqu      xmm11,xmmword ptr [rsi+0A0h]
                    00 00 00
  0000000000002D0E: F3 44 0F 6F BE B0  movdqu      xmm15,xmmword ptr [rsi+0B0h]
                    00 00 00
  0000000000002D17: 66 0F EF C3        pxor        xmm0,xmm3
  0000000000002D1B: 66 0F EF E7        pxor        xmm4,xmm7
  0000000000002D1F: 66 45 0F EF C3     pxor        xmm8,xmm11
  0000000000002D24: 66 45 0F EF FC     pxor        xmm15,xmm12
  0000000000002D29: F3 0F 7F 87 80 00  movdqu      xmmword ptr [rdi+80h],xmm0
                    00 00
  0000000000002D31: F3 0F 7F A7 90 00  movdqu      xmmword ptr [rdi+90h],xmm4
                    00 00
  0000000000002D39: F3 44 0F 7F 87 A0  movdqu      xmmword ptr [rdi+0A0h],xmm8
                    00 00 00
  0000000000002D42: F3 44 0F 7F BF B0  movdqu      xmmword ptr [rdi+0B0h],xmm15
                    00 00 00
  0000000000002D4B: B9 C0 00 00 00     mov         ecx,0C0h
  0000000000002D50: 48 81 EB C0 00 00  sub         rbx,0C0h
                    00
  0000000000002D57: 48 8D B6 C0 00 00  lea         rsi,[rsi+0C0h]
                    00
  0000000000002D5E: B9 02 00 00 00     mov         ecx,2
  0000000000002D63: 41 B8 08 00 00 00  mov         r8d,8
  0000000000002D69: 48 83 FB 40        cmp         rbx,40h
  0000000000002D6D: 0F 86 61 08 00 00  jbe         L$seal_sse_tail_64
  0000000000002D73: 48 81 FB 80 00 00  cmp         rbx,80h
                    00
  0000000000002D7A: 0F 86 D5 0A 00 00  jbe         L$seal_sse_tail_128
  0000000000002D80: 48 81 FB C0 00 00  cmp         rbx,0C0h
                    00
  0000000000002D87: 0F 86 BC 0E 00 00  jbe         L$seal_sse_tail_192
L$seal_sse_main_loop:
  0000000000002D8D: 66 0F 6F 05 00 00  movdqa      xmm0,xmmword ptr [.rdata]
                    00 00
  0000000000002D95: 66 0F 6F A5 D0 00  movdqa      xmm4,xmmword ptr [rbp+0D0h]
                    00 00
  0000000000002D9D: 66 44 0F 6F 85 E0  movdqa      xmm8,xmmword ptr [rbp+0E0h]
                    00 00 00
  0000000000002DA6: 66 0F 6F C8        movdqa      xmm1,xmm0
  0000000000002DAA: 66 0F 6F EC        movdqa      xmm5,xmm4
  0000000000002DAE: 66 45 0F 6F C8     movdqa      xmm9,xmm8
  0000000000002DB3: 66 0F 6F D0        movdqa      xmm2,xmm0
  0000000000002DB7: 66 0F 6F F4        movdqa      xmm6,xmm4
  0000000000002DBB: 66 45 0F 6F D0     movdqa      xmm10,xmm8
  0000000000002DC0: 66 0F 6F D8        movdqa      xmm3,xmm0
  0000000000002DC4: 66 0F 6F FC        movdqa      xmm7,xmm4
  0000000000002DC8: 66 45 0F 6F D8     movdqa      xmm11,xmm8
  0000000000002DCD: 66 44 0F 6F BD 00  movdqa      xmm15,xmmword ptr [rbp+100h]
                    01 00 00
  0000000000002DD6: 66 44 0F FE 3D 70  paddd       xmm15,xmmword ptr [.rdata+70h]
                    00 00 00
  0000000000002DDF: 66 45 0F 6F F7     movdqa      xmm14,xmm15
  0000000000002DE4: 66 44 0F FE 35 70  paddd       xmm14,xmmword ptr [.rdata+70h]
                    00 00 00
  0000000000002DED: 66 45 0F 6F EE     movdqa      xmm13,xmm14
  0000000000002DF2: 66 44 0F FE 2D 70  paddd       xmm13,xmmword ptr [.rdata+70h]
                    00 00 00
  0000000000002DFB: 66 45 0F 6F E5     movdqa      xmm12,xmm13
  0000000000002E00: 66 44 0F FE 25 70  paddd       xmm12,xmmword ptr [.rdata+70h]
                    00 00 00
  0000000000002E09: 66 44 0F 7F A5 00  movdqa      xmmword ptr [rbp+100h],xmm12
                    01 00 00
  0000000000002E12: 66 44 0F 7F AD 10  movdqa      xmmword ptr [rbp+110h],xmm13
                    01 00 00
  0000000000002E1B: 66 44 0F 7F B5 20  movdqa      xmmword ptr [rbp+120h],xmm14
                    01 00 00
  0000000000002E24: 66 44 0F 7F BD 30  movdqa      xmmword ptr [rbp+130h],xmm15
                    01 00 00
  0000000000002E2D: 90                 nop
  0000000000002E2E: 90                 nop
  0000000000002E2F: 90                 nop
  0000000000002E30: 90                 nop
  0000000000002E31: 90                 nop
  0000000000002E32: 90                 nop
  0000000000002E33: 90                 nop
  0000000000002E34: 90                 nop
  0000000000002E35: 90                 nop
  0000000000002E36: 90                 nop
  0000000000002E37: 90                 nop
  0000000000002E38: 90                 nop
  0000000000002E39: 90                 nop
  0000000000002E3A: 90                 nop
  0000000000002E3B: 90                 nop
  0000000000002E3C: 90                 nop
  0000000000002E3D: 90                 nop
  0000000000002E3E: 90                 nop
  0000000000002E3F: 90                 nop
L$seal_sse_main_rounds:
  0000000000002E40: 66 44 0F 7F 85 F0  movdqa      xmmword ptr [rbp+0F0h],xmm8
                    00 00 00
  0000000000002E49: 66 44 0F 6F 05 40  movdqa      xmm8,xmmword ptr [.rdata+40h]
                    00 00 00
  0000000000002E52: 66 0F FE DF        paddd       xmm3,xmm7
  0000000000002E56: 66 0F FE D6        paddd       xmm2,xmm6
  0000000000002E5A: 66 0F FE CD        paddd       xmm1,xmm5
  0000000000002E5E: 66 0F FE C4        paddd       xmm0,xmm4
  0000000000002E62: 66 44 0F EF FB     pxor        xmm15,xmm3
  0000000000002E67: 66 44 0F EF F2     pxor        xmm14,xmm2
  0000000000002E6C: 66 44 0F EF E9     pxor        xmm13,xmm1
  0000000000002E71: 66 44 0F EF E0     pxor        xmm12,xmm0
  0000000000002E76: 66 45 0F 38 00 F8  pshufb      xmm15,xmm8
  0000000000002E7C: 66 45 0F 38 00 F0  pshufb      xmm14,xmm8
  0000000000002E82: 66 45 0F 38 00 E8  pshufb      xmm13,xmm8
  0000000000002E88: 66 45 0F 38 00 E0  pshufb      xmm12,xmm8
  0000000000002E8E: 66 44 0F 6F 85 F0  movdqa      xmm8,xmmword ptr [rbp+0F0h]
                    00 00 00
  0000000000002E97: 66 45 0F FE DF     paddd       xmm11,xmm15
  0000000000002E9C: 66 45 0F FE D6     paddd       xmm10,xmm14
  0000000000002EA1: 66 45 0F FE CD     paddd       xmm9,xmm13
  0000000000002EA6: 66 45 0F FE C4     paddd       xmm8,xmm12
  0000000000002EAB: 66 41 0F EF FB     pxor        xmm7,xmm11
  0000000000002EB0: 4C 03 17           add         r10,qword ptr [rdi]
  0000000000002EB3: 4C 13 5F 08        adc         r11,qword ptr [rdi+8]
  0000000000002EB7: 49 83 D4 01        adc         r12,1
  0000000000002EBB: 66 41 0F EF F2     pxor        xmm6,xmm10
  0000000000002EC0: 66 41 0F EF E9     pxor        xmm5,xmm9
  0000000000002EC5: 66 41 0F EF E0     pxor        xmm4,xmm8
  0000000000002ECA: 66 44 0F 7F 85 F0  movdqa      xmmword ptr [rbp+0F0h],xmm8
                    00 00 00
  0000000000002ED3: 66 44 0F 6F C7     movdqa      xmm8,xmm7
  0000000000002ED8: 66 41 0F 72 D0 14  psrld       xmm8,14h
  0000000000002EDE: 66 0F 72 F7 0C     pslld       xmm7,0Ch
  0000000000002EE3: 66 41 0F EF F8     pxor        xmm7,xmm8
  0000000000002EE8: 66 44 0F 6F C6     movdqa      xmm8,xmm6
  0000000000002EED: 66 41 0F 72 D0 14  psrld       xmm8,14h
  0000000000002EF3: 66 0F 72 F6 0C     pslld       xmm6,0Ch
  0000000000002EF8: 66 41 0F EF F0     pxor        xmm6,xmm8
  0000000000002EFD: 66 44 0F 6F C5     movdqa      xmm8,xmm5
  0000000000002F02: 66 41 0F 72 D0 14  psrld       xmm8,14h
  0000000000002F08: 66 0F 72 F5 0C     pslld       xmm5,0Ch
  0000000000002F0D: 66 41 0F EF E8     pxor        xmm5,xmm8
  0000000000002F12: 66 44 0F 6F C4     movdqa      xmm8,xmm4
  0000000000002F17: 66 41 0F 72 D0 14  psrld       xmm8,14h
  0000000000002F1D: 66 0F 72 F4 0C     pslld       xmm4,0Ch
  0000000000002F22: 66 41 0F EF E0     pxor        xmm4,xmm8
  0000000000002F27: 48 8B 85 A0 00 00  mov         rax,qword ptr [rbp+0A0h]
                    00
  0000000000002F2E: 49 89 C7           mov         r15,rax
  0000000000002F31: 49 F7 E2           mul         rax,r10
  0000000000002F34: 49 89 C5           mov         r13,rax
  0000000000002F37: 49 89 D6           mov         r14,rdx
  0000000000002F3A: 48 8B 85 A0 00 00  mov         rax,qword ptr [rbp+0A0h]
                    00
  0000000000002F41: 49 F7 E3           mul         rax,r11
  0000000000002F44: 4D 0F AF FC        imul        r15,r12
  0000000000002F48: 49 01 C6           add         r14,rax
  0000000000002F4B: 49 11 D7           adc         r15,rdx
  0000000000002F4E: 66 44 0F 6F 05 20  movdqa      xmm8,xmmword ptr [.rdata+20h]
                    00 00 00
  0000000000002F57: 66 0F FE DF        paddd       xmm3,xmm7
  0000000000002F5B: 66 0F FE D6        paddd       xmm2,xmm6
  0000000000002F5F: 66 0F FE CD        paddd       xmm1,xmm5
  0000000000002F63: 66 0F FE C4        paddd       xmm0,xmm4
  0000000000002F67: 66 44 0F EF FB     pxor        xmm15,xmm3
  0000000000002F6C: 66 44 0F EF F2     pxor        xmm14,xmm2
  0000000000002F71: 66 44 0F EF E9     pxor        xmm13,xmm1
  0000000000002F76: 66 44 0F EF E0     pxor        xmm12,xmm0
  0000000000002F7B: 66 45 0F 38 00 F8  pshufb      xmm15,xmm8
  0000000000002F81: 66 45 0F 38 00 F0  pshufb      xmm14,xmm8
  0000000000002F87: 66 45 0F 38 00 E8  pshufb      xmm13,xmm8
  0000000000002F8D: 66 45 0F 38 00 E0  pshufb      xmm12,xmm8
  0000000000002F93: 66 44 0F 6F 85 F0  movdqa      xmm8,xmmword ptr [rbp+0F0h]
                    00 00 00
  0000000000002F9C: 66 45 0F FE DF     paddd       xmm11,xmm15
  0000000000002FA1: 66 45 0F FE D6     paddd       xmm10,xmm14
  0000000000002FA6: 66 45 0F FE CD     paddd       xmm9,xmm13
  0000000000002FAB: 66 45 0F FE C4     paddd       xmm8,xmm12
  0000000000002FB0: 66 41 0F EF FB     pxor        xmm7,xmm11
  0000000000002FB5: 66 41 0F EF F2     pxor        xmm6,xmm10
  0000000000002FBA: 48 8B 85 A8 00 00  mov         rax,qword ptr [rbp+0A8h]
                    00
  0000000000002FC1: 49 89 C1           mov         r9,rax
  0000000000002FC4: 49 F7 E2           mul         rax,r10
  0000000000002FC7: 49 01 C6           add         r14,rax
  0000000000002FCA: 48 83 D2 00        adc         rdx,0
  0000000000002FCE: 49 89 D2           mov         r10,rdx
  0000000000002FD1: 48 8B 85 A8 00 00  mov         rax,qword ptr [rbp+0A8h]
                    00
  0000000000002FD8: 49 F7 E3           mul         rax,r11
  0000000000002FDB: 49 01 C7           add         r15,rax
  0000000000002FDE: 48 83 D2 00        adc         rdx,0
  0000000000002FE2: 66 41 0F EF E9     pxor        xmm5,xmm9
  0000000000002FE7: 66 41 0F EF E0     pxor        xmm4,xmm8
  0000000000002FEC: 66 44 0F 7F 85 F0  movdqa      xmmword ptr [rbp+0F0h],xmm8
                    00 00 00
  0000000000002FF5: 66 44 0F 6F C7     movdqa      xmm8,xmm7
  0000000000002FFA: 66 41 0F 72 D0 19  psrld       xmm8,19h
  0000000000003000: 66 0F 72 F7 07     pslld       xmm7,7
  0000000000003005: 66 41 0F EF F8     pxor        xmm7,xmm8
  000000000000300A: 66 44 0F 6F C6     movdqa      xmm8,xmm6
  000000000000300F: 66 41 0F 72 D0 19  psrld       xmm8,19h
  0000000000003015: 66 0F 72 F6 07     pslld       xmm6,7
  000000000000301A: 66 41 0F EF F0     pxor        xmm6,xmm8
  000000000000301F: 66 44 0F 6F C5     movdqa      xmm8,xmm5
  0000000000003024: 66 41 0F 72 D0 19  psrld       xmm8,19h
  000000000000302A: 66 0F 72 F5 07     pslld       xmm5,7
  000000000000302F: 66 41 0F EF E8     pxor        xmm5,xmm8
  0000000000003034: 66 44 0F 6F C4     movdqa      xmm8,xmm4
  0000000000003039: 66 41 0F 72 D0 19  psrld       xmm8,19h
  000000000000303F: 66 0F 72 F4 07     pslld       xmm4,7
  0000000000003044: 66 41 0F EF E0     pxor        xmm4,xmm8
  0000000000003049: 66 44 0F 6F 85 F0  movdqa      xmm8,xmmword ptr [rbp+0F0h]
                    00 00 00
  0000000000003052: 4D 0F AF CC        imul        r9,r12
  0000000000003056: 4D 01 D7           add         r15,r10
  0000000000003059: 49 11 D1           adc         r9,rdx
  000000000000305C: 66 0F 3A 0F FF 04  palignr     xmm7,xmm7,4
  0000000000003062: 66 45 0F 3A 0F DB  palignr     xmm11,xmm11,8
                    08
  0000000000003069: 66 45 0F 3A 0F FF  palignr     xmm15,xmm15,0Ch
                    0C
  0000000000003070: 66 0F 3A 0F F6 04  palignr     xmm6,xmm6,4
  0000000000003076: 66 45 0F 3A 0F D2  palignr     xmm10,xmm10,8
                    08
  000000000000307D: 66 45 0F 3A 0F F6  palignr     xmm14,xmm14,0Ch
                    0C
  0000000000003084: 66 0F 3A 0F ED 04  palignr     xmm5,xmm5,4
  000000000000308A: 66 45 0F 3A 0F C9  palignr     xmm9,xmm9,8
                    08
  0000000000003091: 66 45 0F 3A 0F ED  palignr     xmm13,xmm13,0Ch
                    0C
  0000000000003098: 66 0F 3A 0F E4 04  palignr     xmm4,xmm4,4
  000000000000309E: 66 45 0F 3A 0F C0  palignr     xmm8,xmm8,8
                    08
  00000000000030A5: 66 45 0F 3A 0F E4  palignr     xmm12,xmm12,0Ch
                    0C
  00000000000030AC: 66 44 0F 7F 85 F0  movdqa      xmmword ptr [rbp+0F0h],xmm8
                    00 00 00
  00000000000030B5: 66 44 0F 6F 05 40  movdqa      xmm8,xmmword ptr [.rdata+40h]
                    00 00 00
  00000000000030BE: 66 0F FE DF        paddd       xmm3,xmm7
  00000000000030C2: 66 0F FE D6        paddd       xmm2,xmm6
  00000000000030C6: 66 0F FE CD        paddd       xmm1,xmm5
  00000000000030CA: 66 0F FE C4        paddd       xmm0,xmm4
  00000000000030CE: 66 44 0F EF FB     pxor        xmm15,xmm3
  00000000000030D3: 66 44 0F EF F2     pxor        xmm14,xmm2
  00000000000030D8: 4D 89 EA           mov         r10,r13
  00000000000030DB: 4D 89 F3           mov         r11,r14
  00000000000030DE: 4D 89 FC           mov         r12,r15
  00000000000030E1: 49 83 E4 03        and         r12,3
  00000000000030E5: 4D 89 FD           mov         r13,r15
  00000000000030E8: 49 83 E5 FC        and         r13,0FFFFFFFFFFFFFFFCh
  00000000000030EC: 4D 89 CE           mov         r14,r9
  00000000000030EF: 4D 0F AC CF 02     shrd        r15,r9,2
  00000000000030F4: 49 C1 E9 02        shr         r9,2
  00000000000030F8: 4D 01 EF           add         r15,r13
  00000000000030FB: 4D 11 F1           adc         r9,r14
  00000000000030FE: 4D 01 FA           add         r10,r15
  0000000000003101: 4D 11 CB           adc         r11,r9
  0000000000003104: 49 83 D4 00        adc         r12,0
  0000000000003108: 66 44 0F EF E9     pxor        xmm13,xmm1
  000000000000310D: 66 44 0F EF E0     pxor        xmm12,xmm0
  0000000000003112: 66 45 0F 38 00 F8  pshufb      xmm15,xmm8
  0000000000003118: 66 45 0F 38 00 F0  pshufb      xmm14,xmm8
  000000000000311E: 66 45 0F 38 00 E8  pshufb      xmm13,xmm8
  0000000000003124: 66 45 0F 38 00 E0  pshufb      xmm12,xmm8
  000000000000312A: 66 44 0F 6F 85 F0  movdqa      xmm8,xmmword ptr [rbp+0F0h]
                    00 00 00
  0000000000003133: 66 45 0F FE DF     paddd       xmm11,xmm15
  0000000000003138: 66 45 0F FE D6     paddd       xmm10,xmm14
  000000000000313D: 66 45 0F FE CD     paddd       xmm9,xmm13
  0000000000003142: 66 45 0F FE C4     paddd       xmm8,xmm12
  0000000000003147: 66 41 0F EF FB     pxor        xmm7,xmm11
  000000000000314C: 66 41 0F EF F2     pxor        xmm6,xmm10
  0000000000003151: 66 41 0F EF E9     pxor        xmm5,xmm9
  0000000000003156: 66 41 0F EF E0     pxor        xmm4,xmm8
  000000000000315B: 66 44 0F 7F 85 F0  movdqa      xmmword ptr [rbp+0F0h],xmm8
                    00 00 00
  0000000000003164: 66 44 0F 6F C7     movdqa      xmm8,xmm7
  0000000000003169: 66 41 0F 72 D0 14  psrld       xmm8,14h
  000000000000316F: 66 0F 72 F7 0C     pslld       xmm7,0Ch
  0000000000003174: 66 41 0F EF F8     pxor        xmm7,xmm8
  0000000000003179: 66 44 0F 6F C6     movdqa      xmm8,xmm6
  000000000000317E: 66 41 0F 72 D0 14  psrld       xmm8,14h
  0000000000003184: 66 0F 72 F6 0C     pslld       xmm6,0Ch
  0000000000003189: 66 41 0F EF F0     pxor        xmm6,xmm8
  000000000000318E: 66 44 0F 6F C5     movdqa      xmm8,xmm5
  0000000000003193: 66 41 0F 72 D0 14  psrld       xmm8,14h
  0000000000003199: 66 0F 72 F5 0C     pslld       xmm5,0Ch
  000000000000319E: 66 41 0F EF E8     pxor        xmm5,xmm8
  00000000000031A3: 66 44 0F 6F C4     movdqa      xmm8,xmm4
  00000000000031A8: 66 41 0F 72 D0 14  psrld       xmm8,14h
  00000000000031AE: 66 0F 72 F4 0C     pslld       xmm4,0Ch
  00000000000031B3: 66 41 0F EF E0     pxor        xmm4,xmm8
  00000000000031B8: 66 44 0F 6F 05 20  movdqa      xmm8,xmmword ptr [.rdata+20h]
                    00 00 00
  00000000000031C1: 66 0F FE DF        paddd       xmm3,xmm7
  00000000000031C5: 66 0F FE D6        paddd       xmm2,xmm6
  00000000000031C9: 66 0F FE CD        paddd       xmm1,xmm5
  00000000000031CD: 66 0F FE C4        paddd       xmm0,xmm4
  00000000000031D1: 66 44 0F EF FB     pxor        xmm15,xmm3
  00000000000031D6: 66 44 0F EF F2     pxor        xmm14,xmm2
  00000000000031DB: 66 44 0F EF E9     pxor        xmm13,xmm1
  00000000000031E0: 66 44 0F EF E0     pxor        xmm12,xmm0
  00000000000031E5: 66 45 0F 38 00 F8  pshufb      xmm15,xmm8
  00000000000031EB: 66 45 0F 38 00 F0  pshufb      xmm14,xmm8
  00000000000031F1: 66 45 0F 38 00 E8  pshufb      xmm13,xmm8
  00000000000031F7: 66 45 0F 38 00 E0  pshufb      xmm12,xmm8
  00000000000031FD: 66 44 0F 6F 85 F0  movdqa      xmm8,xmmword ptr [rbp+0F0h]
                    00 00 00
  0000000000003206: 66 45 0F FE DF     paddd       xmm11,xmm15
  000000000000320B: 66 45 0F FE D6     paddd       xmm10,xmm14
  0000000000003210: 66 45 0F FE CD     paddd       xmm9,xmm13
  0000000000003215: 66 45 0F FE C4     paddd       xmm8,xmm12
  000000000000321A: 66 41 0F EF FB     pxor        xmm7,xmm11
  000000000000321F: 66 41 0F EF F2     pxor        xmm6,xmm10
  0000000000003224: 66 41 0F EF E9     pxor        xmm5,xmm9
  0000000000003229: 66 41 0F EF E0     pxor        xmm4,xmm8
  000000000000322E: 66 44 0F 7F 85 F0  movdqa      xmmword ptr [rbp+0F0h],xmm8
                    00 00 00
  0000000000003237: 66 44 0F 6F C7     movdqa      xmm8,xmm7
  000000000000323C: 66 41 0F 72 D0 19  psrld       xmm8,19h
  0000000000003242: 66 0F 72 F7 07     pslld       xmm7,7
  0000000000003247: 66 41 0F EF F8     pxor        xmm7,xmm8
  000000000000324C: 66 44 0F 6F C6     movdqa      xmm8,xmm6
  0000000000003251: 66 41 0F 72 D0 19  psrld       xmm8,19h
  0000000000003257: 66 0F 72 F6 07     pslld       xmm6,7
  000000000000325C: 66 41 0F EF F0     pxor        xmm6,xmm8
  0000000000003261: 66 44 0F 6F C5     movdqa      xmm8,xmm5
  0000000000003266: 66 41 0F 72 D0 19  psrld       xmm8,19h
  000000000000326C: 66 0F 72 F5 07     pslld       xmm5,7
  0000000000003271: 66 41 0F EF E8     pxor        xmm5,xmm8
  0000000000003276: 66 44 0F 6F C4     movdqa      xmm8,xmm4
  000000000000327B: 66 41 0F 72 D0 19  psrld       xmm8,19h
  0000000000003281: 66 0F 72 F4 07     pslld       xmm4,7
  0000000000003286: 66 41 0F EF E0     pxor        xmm4,xmm8
  000000000000328B: 66 44 0F 6F 85 F0  movdqa      xmm8,xmmword ptr [rbp+0F0h]
                    00 00 00
  0000000000003294: 66 0F 3A 0F FF 0C  palignr     xmm7,xmm7,0Ch
  000000000000329A: 66 45 0F 3A 0F DB  palignr     xmm11,xmm11,8
                    08
  00000000000032A1: 66 45 0F 3A 0F FF  palignr     xmm15,xmm15,4
                    04
  00000000000032A8: 66 0F 3A 0F F6 0C  palignr     xmm6,xmm6,0Ch
  00000000000032AE: 66 45 0F 3A 0F D2  palignr     xmm10,xmm10,8
                    08
  00000000000032B5: 66 45 0F 3A 0F F6  palignr     xmm14,xmm14,4
                    04
  00000000000032BC: 66 0F 3A 0F ED 0C  palignr     xmm5,xmm5,0Ch
  00000000000032C2: 66 45 0F 3A 0F C9  palignr     xmm9,xmm9,8
                    08
  00000000000032C9: 66 45 0F 3A 0F ED  palignr     xmm13,xmm13,4
                    04
  00000000000032D0: 66 0F 3A 0F E4 0C  palignr     xmm4,xmm4,0Ch
  00000000000032D6: 66 45 0F 3A 0F C0  palignr     xmm8,xmm8,8
                    08
  00000000000032DD: 66 45 0F 3A 0F E4  palignr     xmm12,xmm12,4
                    04
  00000000000032E4: 48 8D 7F 10        lea         rdi,[rdi+10h]
  00000000000032E8: 49 FF C8           dec         r8
  00000000000032EB: 0F 8D 4F FB FF FF  jge         L$seal_sse_main_rounds
  00000000000032F1: 4C 03 17           add         r10,qword ptr [rdi]
  00000000000032F4: 4C 13 5F 08        adc         r11,qword ptr [rdi+8]
  00000000000032F8: 49 83 D4 01        adc         r12,1
  00000000000032FC: 48 8B 85 A0 00 00  mov         rax,qword ptr [rbp+0A0h]
                    00
  0000000000003303: 49 89 C7           mov         r15,rax
  0000000000003306: 49 F7 E2           mul         rax,r10
  0000000000003309: 49 89 C5           mov         r13,rax
  000000000000330C: 49 89 D6           mov         r14,rdx
  000000000000330F: 48 8B 85 A0 00 00  mov         rax,qword ptr [rbp+0A0h]
                    00
  0000000000003316: 49 F7 E3           mul         rax,r11
  0000000000003319: 4D 0F AF FC        imul        r15,r12
  000000000000331D: 49 01 C6           add         r14,rax
  0000000000003320: 49 11 D7           adc         r15,rdx
  0000000000003323: 48 8B 85 A8 00 00  mov         rax,qword ptr [rbp+0A8h]
                    00
  000000000000332A: 49 89 C1           mov         r9,rax
  000000000000332D: 49 F7 E2           mul         rax,r10
  0000000000003330: 49 01 C6           add         r14,rax
  0000000000003333: 48 83 D2 00        adc         rdx,0
  0000000000003337: 49 89 D2           mov         r10,rdx
  000000000000333A: 48 8B 85 A8 00 00  mov         rax,qword ptr [rbp+0A8h]
                    00
  0000000000003341: 49 F7 E3           mul         rax,r11
  0000000000003344: 49 01 C7           add         r15,rax
  0000000000003347: 48 83 D2 00        adc         rdx,0
  000000000000334B: 4D 0F AF CC        imul        r9,r12
  000000000000334F: 4D 01 D7           add         r15,r10
  0000000000003352: 49 11 D1           adc         r9,rdx
  0000000000003355: 4D 89 EA           mov         r10,r13
  0000000000003358: 4D 89 F3           mov         r11,r14
  000000000000335B: 4D 89 FC           mov         r12,r15
  000000000000335E: 49 83 E4 03        and         r12,3
  0000000000003362: 4D 89 FD           mov         r13,r15
  0000000000003365: 49 83 E5 FC        and         r13,0FFFFFFFFFFFFFFFCh
  0000000000003369: 4D 89 CE           mov         r14,r9
  000000000000336C: 4D 0F AC CF 02     shrd        r15,r9,2
  0000000000003371: 49 C1 E9 02        shr         r9,2
  0000000000003375: 4D 01 EF           add         r15,r13
  0000000000003378: 4D 11 F1           adc         r9,r14
  000000000000337B: 4D 01 FA           add         r10,r15
  000000000000337E: 4D 11 CB           adc         r11,r9
  0000000000003381: 49 83 D4 00        adc         r12,0
  0000000000003385: 48 8D 7F 10        lea         rdi,[rdi+10h]
  0000000000003389: 48 FF C9           dec         rcx
  000000000000338C: 0F 8F AE FA FF FF  jg          L$seal_sse_main_rounds
  0000000000003392: 66 0F FE 1D 00 00  paddd       xmm3,xmmword ptr [.rdata]
                    00 00
  000000000000339A: 66 0F FE BD D0 00  paddd       xmm7,xmmword ptr [rbp+0D0h]
                    00 00
  00000000000033A2: 66 44 0F FE 9D E0  paddd       xmm11,xmmword ptr [rbp+0E0h]
                    00 00 00
  00000000000033AB: 66 44 0F FE BD 30  paddd       xmm15,xmmword ptr [rbp+130h]
                    01 00 00
  00000000000033B4: 66 0F FE 15 00 00  paddd       xmm2,xmmword ptr [.rdata]
                    00 00
  00000000000033BC: 66 0F FE B5 D0 00  paddd       xmm6,xmmword ptr [rbp+0D0h]
                    00 00
  00000000000033C4: 66 44 0F FE 95 E0  paddd       xmm10,xmmword ptr [rbp+0E0h]
                    00 00 00
  00000000000033CD: 66 44 0F FE B5 20  paddd       xmm14,xmmword ptr [rbp+120h]
                    01 00 00
  00000000000033D6: 66 0F FE 0D 00 00  paddd       xmm1,xmmword ptr [.rdata]
                    00 00
  00000000000033DE: 66 0F FE AD D0 00  paddd       xmm5,xmmword ptr [rbp+0D0h]
                    00 00
  00000000000033E6: 66 44 0F FE 8D E0  paddd       xmm9,xmmword ptr [rbp+0E0h]
                    00 00 00
  00000000000033EF: 66 44 0F FE AD 10  paddd       xmm13,xmmword ptr [rbp+110h]
                    01 00 00
  00000000000033F8: 66 0F FE 05 00 00  paddd       xmm0,xmmword ptr [.rdata]
                    00 00
  0000000000003400: 66 0F FE A5 D0 00  paddd       xmm4,xmmword ptr [rbp+0D0h]
                    00 00
  0000000000003408: 66 44 0F FE 85 E0  paddd       xmm8,xmmword ptr [rbp+0E0h]
                    00 00 00
  0000000000003411: 66 44 0F FE A5 00  paddd       xmm12,xmmword ptr [rbp+100h]
                    01 00 00
  000000000000341A: 66 44 0F 7F B5 F0  movdqa      xmmword ptr [rbp+0F0h],xmm14
                    00 00 00
  0000000000003423: 66 44 0F 7F B5 F0  movdqa      xmmword ptr [rbp+0F0h],xmm14
                    00 00 00
  000000000000342C: F3 44 0F 6F 36     movdqu      xmm14,xmmword ptr [rsi]
  0000000000003431: 66 44 0F EF F3     pxor        xmm14,xmm3
  0000000000003436: F3 44 0F 7F 37     movdqu      xmmword ptr [rdi],xmm14
  000000000000343B: F3 44 0F 6F 76 10  movdqu      xmm14,xmmword ptr [rsi+10h]
  0000000000003441: 66 44 0F EF F7     pxor        xmm14,xmm7
  0000000000003446: F3 44 0F 7F 77 10  movdqu      xmmword ptr [rdi+10h],xmm14
  000000000000344C: F3 44 0F 6F 76 20  movdqu      xmm14,xmmword ptr [rsi+20h]
  0000000000003452: 66 45 0F EF F3     pxor        xmm14,xmm11
  0000000000003457: F3 44 0F 7F 77 20  movdqu      xmmword ptr [rdi+20h],xmm14
  000000000000345D: F3 44 0F 6F 76 30  movdqu      xmm14,xmmword ptr [rsi+30h]
  0000000000003463: 66 45 0F EF F7     pxor        xmm14,xmm15
  0000000000003468: F3 44 0F 7F 77 30  movdqu      xmmword ptr [rdi+30h],xmm14
  000000000000346E: 66 44 0F 6F B5 F0  movdqa      xmm14,xmmword ptr [rbp+0F0h]
                    00 00 00
  0000000000003477: F3 0F 6F 5E 40     movdqu      xmm3,xmmword ptr [rsi+40h]
  000000000000347C: F3 0F 6F 7E 50     movdqu      xmm7,xmmword ptr [rsi+50h]
  0000000000003481: F3 44 0F 6F 5E 60  movdqu      xmm11,xmmword ptr [rsi+60h]
  0000000000003487: F3 44 0F 6F 7E 70  movdqu      xmm15,xmmword ptr [rsi+70h]
  000000000000348D: 66 0F EF D3        pxor        xmm2,xmm3
  0000000000003491: 66 0F EF F7        pxor        xmm6,xmm7
  0000000000003495: 66 45 0F EF D3     pxor        xmm10,xmm11
  000000000000349A: 66 45 0F EF FE     pxor        xmm15,xmm14
  000000000000349F: F3 0F 7F 57 40     movdqu      xmmword ptr [rdi+40h],xmm2
  00000000000034A4: F3 0F 7F 77 50     movdqu      xmmword ptr [rdi+50h],xmm6
  00000000000034A9: F3 44 0F 7F 57 60  movdqu      xmmword ptr [rdi+60h],xmm10
  00000000000034AF: F3 44 0F 7F 7F 70  movdqu      xmmword ptr [rdi+70h],xmm15
  00000000000034B5: F3 0F 6F 9E 80 00  movdqu      xmm3,xmmword ptr [rsi+80h]
                    00 00
  00000000000034BD: F3 0F 6F BE 90 00  movdqu      xmm7,xmmword ptr [rsi+90h]
                    00 00
  00000000000034C5: F3 44 0F 6F 9E A0  movdqu      xmm11,xmmword ptr [rsi+0A0h]
                    00 00 00
  00000000000034CE: F3 44 0F 6F BE B0  movdqu      xmm15,xmmword ptr [rsi+0B0h]
                    00 00 00
  00000000000034D7: 66 0F EF CB        pxor        xmm1,xmm3
  00000000000034DB: 66 0F EF EF        pxor        xmm5,xmm7
  00000000000034DF: 66 45 0F EF CB     pxor        xmm9,xmm11
  00000000000034E4: 66 45 0F EF FD     pxor        xmm15,xmm13
  00000000000034E9: F3 0F 7F 8F 80 00  movdqu      xmmword ptr [rdi+80h],xmm1
                    00 00
  00000000000034F1: F3 0F 7F AF 90 00  movdqu      xmmword ptr [rdi+90h],xmm5
                    00 00
  00000000000034F9: F3 44 0F 7F 8F A0  movdqu      xmmword ptr [rdi+0A0h],xmm9
                    00 00 00
  0000000000003502: F3 44 0F 7F BF B0  movdqu      xmmword ptr [rdi+0B0h],xmm15
                    00 00 00
  000000000000350B: 48 81 FB 00 01 00  cmp         rbx,100h
                    00
  0000000000003512: 0F 87 18 00 00 00  ja          L$seal_sse_main_loop_xor
  0000000000003518: B9 C0 00 00 00     mov         ecx,0C0h
  000000000000351D: 48 81 EB C0 00 00  sub         rbx,0C0h
                    00
  0000000000003524: 48 8D B6 C0 00 00  lea         rsi,[rsi+0C0h]
                    00
  000000000000352B: E9 76 0C 00 00     jmp         L$seal_sse_128_tail_hash
L$seal_sse_main_loop_xor:
  0000000000003530: F3 0F 6F 9E C0 00  movdqu      xmm3,xmmword ptr [rsi+0C0h]
                    00 00
  0000000000003538: F3 0F 6F BE D0 00  movdqu      xmm7,xmmword ptr [rsi+0D0h]
                    00 00
  0000000000003540: F3 44 0F 6F 9E E0  movdqu      xmm11,xmmword ptr [rsi+0E0h]
                    00 00 00
  0000000000003549: F3 44 0F 6F BE F0  movdqu      xmm15,xmmword ptr [rsi+0F0h]
                    00 00 00
  0000000000003552: 66 0F EF C3        pxor        xmm0,xmm3
  0000000000003556: 66 0F EF E7        pxor        xmm4,xmm7
  000000000000355A: 66 45 0F EF C3     pxor        xmm8,xmm11
  000000000000355F: 66 45 0F EF FC     pxor        xmm15,xmm12
  0000000000003564: F3 0F 7F 87 C0 00  movdqu      xmmword ptr [rdi+0C0h],xmm0
                    00 00
  000000000000356C: F3 0F 7F A7 D0 00  movdqu      xmmword ptr [rdi+0D0h],xmm4
                    00 00
  0000000000003574: F3 44 0F 7F 87 E0  movdqu      xmmword ptr [rdi+0E0h],xmm8
                    00 00 00
  000000000000357D: F3 44 0F 7F BF F0  movdqu      xmmword ptr [rdi+0F0h],xmm15
                    00 00 00
  0000000000003586: 48 8D B6 00 01 00  lea         rsi,[rsi+100h]
                    00
  000000000000358D: 48 81 EB 00 01 00  sub         rbx,100h
                    00
  0000000000003594: B9 06 00 00 00     mov         ecx,6
  0000000000003599: 41 B8 04 00 00 00  mov         r8d,4
  000000000000359F: 48 81 FB C0 00 00  cmp         rbx,0C0h
                    00
  00000000000035A6: 0F 8F E1 F7 FF FF  jg          L$seal_sse_main_loop
  00000000000035AC: 48 89 D9           mov         rcx,rbx
  00000000000035AF: 48 85 DB           test        rbx,rbx
  00000000000035B2: 0F 84 EE 0B 00 00  je          L$seal_sse_128_tail_hash
  00000000000035B8: B9 06 00 00 00     mov         ecx,6
  00000000000035BD: 48 81 FB 80 00 00  cmp         rbx,80h
                    00
  00000000000035C4: 0F 87 7F 06 00 00  ja          L$seal_sse_tail_192
  00000000000035CA: 48 83 FB 40        cmp         rbx,40h
  00000000000035CE: 0F 87 81 02 00 00  ja          L$seal_sse_tail_128
L$seal_sse_tail_64:
  00000000000035D4: 66 0F 6F 05 00 00  movdqa      xmm0,xmmword ptr [.rdata]
                    00 00
  00000000000035DC: 66 0F 6F A5 D0 00  movdqa      xmm4,xmmword ptr [rbp+0D0h]
                    00 00
  00000000000035E4: 66 44 0F 6F 85 E0  movdqa      xmm8,xmmword ptr [rbp+0E0h]
                    00 00 00
  00000000000035ED: 66 44 0F 6F A5 00  movdqa      xmm12,xmmword ptr [rbp+100h]
                    01 00 00
  00000000000035F6: 66 44 0F FE 25 70  paddd       xmm12,xmmword ptr [.rdata+70h]
                    00 00 00
  00000000000035FF: 66 44 0F 7F A5 00  movdqa      xmmword ptr [rbp+100h],xmm12
                    01 00 00
L$seal_sse_tail_64_rounds_and_x2hash:
  0000000000003608: 4C 03 17           add         r10,qword ptr [rdi]
  000000000000360B: 4C 13 5F 08        adc         r11,qword ptr [rdi+8]
  000000000000360F: 49 83 D4 01        adc         r12,1
  0000000000003613: 48 8B 85 A0 00 00  mov         rax,qword ptr [rbp+0A0h]
                    00
  000000000000361A: 49 89 C7           mov         r15,rax
  000000000000361D: 49 F7 E2           mul         rax,r10
  0000000000003620: 49 89 C5           mov         r13,rax
  0000000000003623: 49 89 D6           mov         r14,rdx
  0000000000003626: 48 8B 85 A0 00 00  mov         rax,qword ptr [rbp+0A0h]
                    00
  000000000000362D: 49 F7 E3           mul         rax,r11
  0000000000003630: 4D 0F AF FC        imul        r15,r12
  0000000000003634: 49 01 C6           add         r14,rax
  0000000000003637: 49 11 D7           adc         r15,rdx
  000000000000363A: 48 8B 85 A8 00 00  mov         rax,qword ptr [rbp+0A8h]
                    00
  0000000000003641: 49 89 C1           mov         r9,rax
  0000000000003644: 49 F7 E2           mul         rax,r10
  0000000000003647: 49 01 C6           add         r14,rax
  000000000000364A: 48 83 D2 00        adc         rdx,0
  000000000000364E: 49 89 D2           mov         r10,rdx
  0000000000003651: 48 8B 85 A8 00 00  mov         rax,qword ptr [rbp+0A8h]
                    00
  0000000000003658: 49 F7 E3           mul         rax,r11
  000000000000365B: 49 01 C7           add         r15,rax
  000000000000365E: 48 83 D2 00        adc         rdx,0
  0000000000003662: 4D 0F AF CC        imul        r9,r12
  0000000000003666: 4D 01 D7           add         r15,r10
  0000000000003669: 49 11 D1           adc         r9,rdx
  000000000000366C: 4D 89 EA           mov         r10,r13
  000000000000366F: 4D 89 F3           mov         r11,r14
  0000000000003672: 4D 89 FC           mov         r12,r15
  0000000000003675: 49 83 E4 03        and         r12,3
  0000000000003679: 4D 89 FD           mov         r13,r15
  000000000000367C: 49 83 E5 FC        and         r13,0FFFFFFFFFFFFFFFCh
  0000000000003680: 4D 89 CE           mov         r14,r9
  0000000000003683: 4D 0F AC CF 02     shrd        r15,r9,2
  0000000000003688: 49 C1 E9 02        shr         r9,2
  000000000000368C: 4D 01 EF           add         r15,r13
  000000000000368F: 4D 11 F1           adc         r9,r14
  0000000000003692: 4D 01 FA           add         r10,r15
  0000000000003695: 4D 11 CB           adc         r11,r9
  0000000000003698: 49 83 D4 00        adc         r12,0
  000000000000369C: 48 8D 7F 10        lea         rdi,[rdi+10h]
L$seal_sse_tail_64_rounds_and_x1hash:
  00000000000036A0: 66 0F FE C4        paddd       xmm0,xmm4
  00000000000036A4: 66 44 0F EF E0     pxor        xmm12,xmm0
  00000000000036A9: 66 44 0F 38 00 25  pshufb      xmm12,xmmword ptr [.rdata+40h]
                    40 00 00 00
  00000000000036B3: 66 45 0F FE C4     paddd       xmm8,xmm12
  00000000000036B8: 66 41 0F EF E0     pxor        xmm4,xmm8
  00000000000036BD: 66 0F 6F DC        movdqa      xmm3,xmm4
  00000000000036C1: 66 0F 72 F3 0C     pslld       xmm3,0Ch
  00000000000036C6: 66 0F 72 D4 14     psrld       xmm4,14h
  00000000000036CB: 66 0F EF E3        pxor        xmm4,xmm3
  00000000000036CF: 66 0F FE C4        paddd       xmm0,xmm4
  00000000000036D3: 66 44 0F EF E0     pxor        xmm12,xmm0
  00000000000036D8: 66 44 0F 38 00 25  pshufb      xmm12,xmmword ptr [.rdata+20h]
                    20 00 00 00
  00000000000036E2: 66 45 0F FE C4     paddd       xmm8,xmm12
  00000000000036E7: 66 41 0F EF E0     pxor        xmm4,xmm8
  00000000000036EC: 66 0F 6F DC        movdqa      xmm3,xmm4
  00000000000036F0: 66 0F 72 F3 07     pslld       xmm3,7
  00000000000036F5: 66 0F 72 D4 19     psrld       xmm4,19h
  00000000000036FA: 66 0F EF E3        pxor        xmm4,xmm3
  00000000000036FE: 66 0F 3A 0F E4 04  palignr     xmm4,xmm4,4
  0000000000003704: 66 45 0F 3A 0F C0  palignr     xmm8,xmm8,8
                    08
  000000000000370B: 66 45 0F 3A 0F E4  palignr     xmm12,xmm12,0Ch
                    0C
  0000000000003712: 66 0F FE C4        paddd       xmm0,xmm4
  0000000000003716: 66 44 0F EF E0     pxor        xmm12,xmm0
  000000000000371B: 66 44 0F 38 00 25  pshufb      xmm12,xmmword ptr [.rdata+40h]
                    40 00 00 00
  0000000000003725: 66 45 0F FE C4     paddd       xmm8,xmm12
  000000000000372A: 66 41 0F EF E0     pxor        xmm4,xmm8
  000000000000372F: 66 0F 6F DC        movdqa      xmm3,xmm4
  0000000000003733: 66 0F 72 F3 0C     pslld       xmm3,0Ch
  0000000000003738: 66 0F 72 D4 14     psrld       xmm4,14h
  000000000000373D: 66 0F EF E3        pxor        xmm4,xmm3
  0000000000003741: 66 0F FE C4        paddd       xmm0,xmm4
  0000000000003745: 66 44 0F EF E0     pxor        xmm12,xmm0
  000000000000374A: 66 44 0F 38 00 25  pshufb      xmm12,xmmword ptr [.rdata+20h]
                    20 00 00 00
  0000000000003754: 66 45 0F FE C4     paddd       xmm8,xmm12
  0000000000003759: 66 41 0F EF E0     pxor        xmm4,xmm8
  000000000000375E: 66 0F 6F DC        movdqa      xmm3,xmm4
  0000000000003762: 66 0F 72 F3 07     pslld       xmm3,7
  0000000000003767: 66 0F 72 D4 19     psrld       xmm4,19h
  000000000000376C: 66 0F EF E3        pxor        xmm4,xmm3
  0000000000003770: 66 0F 3A 0F E4 0C  palignr     xmm4,xmm4,0Ch
  0000000000003776: 66 45 0F 3A 0F C0  palignr     xmm8,xmm8,8
                    08
  000000000000377D: 66 45 0F 3A 0F E4  palignr     xmm12,xmm12,4
                    04
  0000000000003784: 4C 03 17           add         r10,qword ptr [rdi]
  0000000000003787: 4C 13 5F 08        adc         r11,qword ptr [rdi+8]
  000000000000378B: 49 83 D4 01        adc         r12,1
  000000000000378F: 48 8B 85 A0 00 00  mov         rax,qword ptr [rbp+0A0h]
                    00
  0000000000003796: 49 89 C7           mov         r15,rax
  0000000000003799: 49 F7 E2           mul         rax,r10
  000000000000379C: 49 89 C5           mov         r13,rax
  000000000000379F: 49 89 D6           mov         r14,rdx
  00000000000037A2: 48 8B 85 A0 00 00  mov         rax,qword ptr [rbp+0A0h]
                    00
  00000000000037A9: 49 F7 E3           mul         rax,r11
  00000000000037AC: 4D 0F AF FC        imul        r15,r12
  00000000000037B0: 49 01 C6           add         r14,rax
  00000000000037B3: 49 11 D7           adc         r15,rdx
  00000000000037B6: 48 8B 85 A8 00 00  mov         rax,qword ptr [rbp+0A8h]
                    00
  00000000000037BD: 49 89 C1           mov         r9,rax
  00000000000037C0: 49 F7 E2           mul         rax,r10
  00000000000037C3: 49 01 C6           add         r14,rax
  00000000000037C6: 48 83 D2 00        adc         rdx,0
  00000000000037CA: 49 89 D2           mov         r10,rdx
  00000000000037CD: 48 8B 85 A8 00 00  mov         rax,qword ptr [rbp+0A8h]
                    00
  00000000000037D4: 49 F7 E3           mul         rax,r11
  00000000000037D7: 49 01 C7           add         r15,rax
  00000000000037DA: 48 83 D2 00        adc         rdx,0
  00000000000037DE: 4D 0F AF CC        imul        r9,r12
  00000000000037E2: 4D 01 D7           add         r15,r10
  00000000000037E5: 49 11 D1           adc         r9,rdx
  00000000000037E8: 4D 89 EA           mov         r10,r13
  00000000000037EB: 4D 89 F3           mov         r11,r14
  00000000000037EE: 4D 89 FC           mov         r12,r15
  00000000000037F1: 49 83 E4 03        and         r12,3
  00000000000037F5: 4D 89 FD           mov         r13,r15
  00000000000037F8: 49 83 E5 FC        and         r13,0FFFFFFFFFFFFFFFCh
  00000000000037FC: 4D 89 CE           mov         r14,r9
  00000000000037FF: 4D 0F AC CF 02     shrd        r15,r9,2
  0000000000003804: 49 C1 E9 02        shr         r9,2
  0000000000003808: 4D 01 EF           add         r15,r13
  000000000000380B: 4D 11 F1           adc         r9,r14
  000000000000380E: 4D 01 FA           add         r10,r15
  0000000000003811: 4D 11 CB           adc         r11,r9
  0000000000003814: 49 83 D4 00        adc         r12,0
  0000000000003818: 48 8D 7F 10        lea         rdi,[rdi+10h]
  000000000000381C: 48 FF C9           dec         rcx
  000000000000381F: 0F 8F E3 FD FF FF  jg          L$seal_sse_tail_64_rounds_and_x2hash
  0000000000003825: 49 FF C8           dec         r8
  0000000000003828: 0F 8D 72 FE FF FF  jge         L$seal_sse_tail_64_rounds_and_x1hash
  000000000000382E: 66 0F FE 05 00 00  paddd       xmm0,xmmword ptr [.rdata]
                    00 00
  0000000000003836: 66 0F FE A5 D0 00  paddd       xmm4,xmmword ptr [rbp+0D0h]
                    00 00
  000000000000383E: 66 44 0F FE 85 E0  paddd       xmm8,xmmword ptr [rbp+0E0h]
                    00 00 00
  0000000000003847: 66 44 0F FE A5 00  paddd       xmm12,xmmword ptr [rbp+100h]
                    01 00 00
  0000000000003850: E9 FC 09 00 00     jmp         L$seal_sse_128_tail_xor
L$seal_sse_tail_128:
  0000000000003855: 66 0F 6F 05 00 00  movdqa      xmm0,xmmword ptr [.rdata]
                    00 00
  000000000000385D: 66 0F 6F A5 D0 00  movdqa      xmm4,xmmword ptr [rbp+0D0h]
                    00 00
  0000000000003865: 66 44 0F 6F 85 E0  movdqa      xmm8,xmmword ptr [rbp+0E0h]
                    00 00 00
  000000000000386E: 66 0F 6F C8        movdqa      xmm1,xmm0
  0000000000003872: 66 0F 6F EC        movdqa      xmm5,xmm4
  0000000000003876: 66 45 0F 6F C8     movdqa      xmm9,xmm8
  000000000000387B: 66 44 0F 6F AD 00  movdqa      xmm13,xmmword ptr [rbp+100h]
                    01 00 00
  0000000000003884: 66 44 0F FE 2D 70  paddd       xmm13,xmmword ptr [.rdata+70h]
                    00 00 00
  000000000000388D: 66 45 0F 6F E5     movdqa      xmm12,xmm13
  0000000000003892: 66 44 0F FE 25 70  paddd       xmm12,xmmword ptr [.rdata+70h]
                    00 00 00
  000000000000389B: 66 44 0F 7F A5 00  movdqa      xmmword ptr [rbp+100h],xmm12
                    01 00 00
  00000000000038A4: 66 44 0F 7F AD 10  movdqa      xmmword ptr [rbp+110h],xmm13
                    01 00 00
L$seal_sse_tail_128_rounds_and_x2hash:
  00000000000038AD: 4C 03 17           add         r10,qword ptr [rdi]
  00000000000038B0: 4C 13 5F 08        adc         r11,qword ptr [rdi+8]
  00000000000038B4: 49 83 D4 01        adc         r12,1
  00000000000038B8: 48 8B 85 A0 00 00  mov         rax,qword ptr [rbp+0A0h]
                    00
  00000000000038BF: 49 89 C7           mov         r15,rax
  00000000000038C2: 49 F7 E2           mul         rax,r10
  00000000000038C5: 49 89 C5           mov         r13,rax
  00000000000038C8: 49 89 D6           mov         r14,rdx
  00000000000038CB: 48 8B 85 A0 00 00  mov         rax,qword ptr [rbp+0A0h]
                    00
  00000000000038D2: 49 F7 E3           mul         rax,r11
  00000000000038D5: 4D 0F AF FC        imul        r15,r12
  00000000000038D9: 49 01 C6           add         r14,rax
  00000000000038DC: 49 11 D7           adc         r15,rdx
  00000000000038DF: 48 8B 85 A8 00 00  mov         rax,qword ptr [rbp+0A8h]
                    00
  00000000000038E6: 49 89 C1           mov         r9,rax
  00000000000038E9: 49 F7 E2           mul         rax,r10
  00000000000038EC: 49 01 C6           add         r14,rax
  00000000000038EF: 48 83 D2 00        adc         rdx,0
  00000000000038F3: 49 89 D2           mov         r10,rdx
  00000000000038F6: 48 8B 85 A8 00 00  mov         rax,qword ptr [rbp+0A8h]
                    00
  00000000000038FD: 49 F7 E3           mul         rax,r11
  0000000000003900: 49 01 C7           add         r15,rax
  0000000000003903: 48 83 D2 00        adc         rdx,0
  0000000000003907: 4D 0F AF CC        imul        r9,r12
  000000000000390B: 4D 01 D7           add         r15,r10
  000000000000390E: 49 11 D1           adc         r9,rdx
  0000000000003911: 4D 89 EA           mov         r10,r13
  0000000000003914: 4D 89 F3           mov         r11,r14
  0000000000003917: 4D 89 FC           mov         r12,r15
  000000000000391A: 49 83 E4 03        and         r12,3
  000000000000391E: 4D 89 FD           mov         r13,r15
  0000000000003921: 49 83 E5 FC        and         r13,0FFFFFFFFFFFFFFFCh
  0000000000003925: 4D 89 CE           mov         r14,r9
  0000000000003928: 4D 0F AC CF 02     shrd        r15,r9,2
  000000000000392D: 49 C1 E9 02        shr         r9,2
  0000000000003931: 4D 01 EF           add         r15,r13
  0000000000003934: 4D 11 F1           adc         r9,r14
  0000000000003937: 4D 01 FA           add         r10,r15
  000000000000393A: 4D 11 CB           adc         r11,r9
  000000000000393D: 49 83 D4 00        adc         r12,0
  0000000000003941: 48 8D 7F 10        lea         rdi,[rdi+10h]
L$seal_sse_tail_128_rounds_and_x1hash:
  0000000000003945: 66 0F FE C4        paddd       xmm0,xmm4
  0000000000003949: 66 44 0F EF E0     pxor        xmm12,xmm0
  000000000000394E: 66 44 0F 38 00 25  pshufb      xmm12,xmmword ptr [.rdata+40h]
                    40 00 00 00
  0000000000003958: 66 45 0F FE C4     paddd       xmm8,xmm12
  000000000000395D: 66 41 0F EF E0     pxor        xmm4,xmm8
  0000000000003962: 66 0F 6F DC        movdqa      xmm3,xmm4
  0000000000003966: 66 0F 72 F3 0C     pslld       xmm3,0Ch
  000000000000396B: 66 0F 72 D4 14     psrld       xmm4,14h
  0000000000003970: 66 0F EF E3        pxor        xmm4,xmm3
  0000000000003974: 66 0F FE C4        paddd       xmm0,xmm4
  0000000000003978: 66 44 0F EF E0     pxor        xmm12,xmm0
  000000000000397D: 66 44 0F 38 00 25  pshufb      xmm12,xmmword ptr [.rdata+20h]
                    20 00 00 00
  0000000000003987: 66 45 0F FE C4     paddd       xmm8,xmm12
  000000000000398C: 66 41 0F EF E0     pxor        xmm4,xmm8
  0000000000003991: 66 0F 6F DC        movdqa      xmm3,xmm4
  0000000000003995: 66 0F 72 F3 07     pslld       xmm3,7
  000000000000399A: 66 0F 72 D4 19     psrld       xmm4,19h
  000000000000399F: 66 0F EF E3        pxor        xmm4,xmm3
  00000000000039A3: 66 0F 3A 0F E4 04  palignr     xmm4,xmm4,4
  00000000000039A9: 66 45 0F 3A 0F C0  palignr     xmm8,xmm8,8
                    08
  00000000000039B0: 66 45 0F 3A 0F E4  palignr     xmm12,xmm12,0Ch
                    0C
  00000000000039B7: 66 0F FE CD        paddd       xmm1,xmm5
  00000000000039BB: 66 44 0F EF E9     pxor        xmm13,xmm1
  00000000000039C0: 66 44 0F 38 00 2D  pshufb      xmm13,xmmword ptr [.rdata+40h]
                    40 00 00 00
  00000000000039CA: 66 45 0F FE CD     paddd       xmm9,xmm13
  00000000000039CF: 66 41 0F EF E9     pxor        xmm5,xmm9
  00000000000039D4: 66 0F 6F DD        movdqa      xmm3,xmm5
  00000000000039D8: 66 0F 72 F3 0C     pslld       xmm3,0Ch
  00000000000039DD: 66 0F 72 D5 14     psrld       xmm5,14h
  00000000000039E2: 66 0F EF EB        pxor        xmm5,xmm3
  00000000000039E6: 66 0F FE CD        paddd       xmm1,xmm5
  00000000000039EA: 66 44 0F EF E9     pxor        xmm13,xmm1
  00000000000039EF: 66 44 0F 38 00 2D  pshufb      xmm13,xmmword ptr [.rdata+20h]
                    20 00 00 00
  00000000000039F9: 66 45 0F FE CD     paddd       xmm9,xmm13
  00000000000039FE: 66 41 0F EF E9     pxor        xmm5,xmm9
  0000000000003A03: 66 0F 6F DD        movdqa      xmm3,xmm5
  0000000000003A07: 66 0F 72 F3 07     pslld       xmm3,7
  0000000000003A0C: 66 0F 72 D5 19     psrld       xmm5,19h
  0000000000003A11: 66 0F EF EB        pxor        xmm5,xmm3
  0000000000003A15: 66 0F 3A 0F ED 04  palignr     xmm5,xmm5,4
  0000000000003A1B: 66 45 0F 3A 0F C9  palignr     xmm9,xmm9,8
                    08
  0000000000003A22: 66 45 0F 3A 0F ED  palignr     xmm13,xmm13,0Ch
                    0C
  0000000000003A29: 4C 03 17           add         r10,qword ptr [rdi]
  0000000000003A2C: 4C 13 5F 08        adc         r11,qword ptr [rdi+8]
  0000000000003A30: 49 83 D4 01        adc         r12,1
  0000000000003A34: 48 8B 85 A0 00 00  mov         rax,qword ptr [rbp+0A0h]
                    00
  0000000000003A3B: 49 89 C7           mov         r15,rax
  0000000000003A3E: 49 F7 E2           mul         rax,r10
  0000000000003A41: 49 89 C5           mov         r13,rax
  0000000000003A44: 49 89 D6           mov         r14,rdx
  0000000000003A47: 48 8B 85 A0 00 00  mov         rax,qword ptr [rbp+0A0h]
                    00
  0000000000003A4E: 49 F7 E3           mul         rax,r11
  0000000000003A51: 4D 0F AF FC        imul        r15,r12
  0000000000003A55: 49 01 C6           add         r14,rax
  0000000000003A58: 49 11 D7           adc         r15,rdx
  0000000000003A5B: 48 8B 85 A8 00 00  mov         rax,qword ptr [rbp+0A8h]
                    00
  0000000000003A62: 49 89 C1           mov         r9,rax
  0000000000003A65: 49 F7 E2           mul         rax,r10
  0000000000003A68: 49 01 C6           add         r14,rax
  0000000000003A6B: 48 83 D2 00        adc         rdx,0
  0000000000003A6F: 49 89 D2           mov         r10,rdx
  0000000000003A72: 48 8B 85 A8 00 00  mov         rax,qword ptr [rbp+0A8h]
                    00
  0000000000003A79: 49 F7 E3           mul         rax,r11
  0000000000003A7C: 49 01 C7           add         r15,rax
  0000000000003A7F: 48 83 D2 00        adc         rdx,0
  0000000000003A83: 4D 0F AF CC        imul        r9,r12
  0000000000003A87: 4D 01 D7           add         r15,r10
  0000000000003A8A: 49 11 D1           adc         r9,rdx
  0000000000003A8D: 4D 89 EA           mov         r10,r13
  0000000000003A90: 4D 89 F3           mov         r11,r14
  0000000000003A93: 4D 89 FC           mov         r12,r15
  0000000000003A96: 49 83 E4 03        and         r12,3
  0000000000003A9A: 4D 89 FD           mov         r13,r15
  0000000000003A9D: 49 83 E5 FC        and         r13,0FFFFFFFFFFFFFFFCh
  0000000000003AA1: 4D 89 CE           mov         r14,r9
  0000000000003AA4: 4D 0F AC CF 02     shrd        r15,r9,2
  0000000000003AA9: 49 C1 E9 02        shr         r9,2
  0000000000003AAD: 4D 01 EF           add         r15,r13
  0000000000003AB0: 4D 11 F1           adc         r9,r14
  0000000000003AB3: 4D 01 FA           add         r10,r15
  0000000000003AB6: 4D 11 CB           adc         r11,r9
  0000000000003AB9: 49 83 D4 00        adc         r12,0
  0000000000003ABD: 66 0F FE C4        paddd       xmm0,xmm4
  0000000000003AC1: 66 44 0F EF E0     pxor        xmm12,xmm0
  0000000000003AC6: 66 44 0F 38 00 25  pshufb      xmm12,xmmword ptr [.rdata+40h]
                    40 00 00 00
  0000000000003AD0: 66 45 0F FE C4     paddd       xmm8,xmm12
  0000000000003AD5: 66 41 0F EF E0     pxor        xmm4,xmm8
  0000000000003ADA: 66 0F 6F DC        movdqa      xmm3,xmm4
  0000000000003ADE: 66 0F 72 F3 0C     pslld       xmm3,0Ch
  0000000000003AE3: 66 0F 72 D4 14     psrld       xmm4,14h
  0000000000003AE8: 66 0F EF E3        pxor        xmm4,xmm3
  0000000000003AEC: 66 0F FE C4        paddd       xmm0,xmm4
  0000000000003AF0: 66 44 0F EF E0     pxor        xmm12,xmm0
  0000000000003AF5: 66 44 0F 38 00 25  pshufb      xmm12,xmmword ptr [.rdata+20h]
                    20 00 00 00
  0000000000003AFF: 66 45 0F FE C4     paddd       xmm8,xmm12
  0000000000003B04: 66 41 0F EF E0     pxor        xmm4,xmm8
  0000000000003B09: 66 0F 6F DC        movdqa      xmm3,xmm4
  0000000000003B0D: 66 0F 72 F3 07     pslld       xmm3,7
  0000000000003B12: 66 0F 72 D4 19     psrld       xmm4,19h
  0000000000003B17: 66 0F EF E3        pxor        xmm4,xmm3
  0000000000003B1B: 66 0F 3A 0F E4 0C  palignr     xmm4,xmm4,0Ch
  0000000000003B21: 66 45 0F 3A 0F C0  palignr     xmm8,xmm8,8
                    08
  0000000000003B28: 66 45 0F 3A 0F E4  palignr     xmm12,xmm12,4
                    04
  0000000000003B2F: 66 0F FE CD        paddd       xmm1,xmm5
  0000000000003B33: 66 44 0F EF E9     pxor        xmm13,xmm1
  0000000000003B38: 66 44 0F 38 00 2D  pshufb      xmm13,xmmword ptr [.rdata+40h]
                    40 00 00 00
  0000000000003B42: 66 45 0F FE CD     paddd       xmm9,xmm13
  0000000000003B47: 66 41 0F EF E9     pxor        xmm5,xmm9
  0000000000003B4C: 66 0F 6F DD        movdqa      xmm3,xmm5
  0000000000003B50: 66 0F 72 F3 0C     pslld       xmm3,0Ch
  0000000000003B55: 66 0F 72 D5 14     psrld       xmm5,14h
  0000000000003B5A: 66 0F EF EB        pxor        xmm5,xmm3
  0000000000003B5E: 66 0F FE CD        paddd       xmm1,xmm5
  0000000000003B62: 66 44 0F EF E9     pxor        xmm13,xmm1
  0000000000003B67: 66 44 0F 38 00 2D  pshufb      xmm13,xmmword ptr [.rdata+20h]
                    20 00 00 00
  0000000000003B71: 66 45 0F FE CD     paddd       xmm9,xmm13
  0000000000003B76: 66 41 0F EF E9     pxor        xmm5,xmm9
  0000000000003B7B: 66 0F 6F DD        movdqa      xmm3,xmm5
  0000000000003B7F: 66 0F 72 F3 07     pslld       xmm3,7
  0000000000003B84: 66 0F 72 D5 19     psrld       xmm5,19h
  0000000000003B89: 66 0F EF EB        pxor        xmm5,xmm3
  0000000000003B8D: 66 0F 3A 0F ED 0C  palignr     xmm5,xmm5,0Ch
  0000000000003B93: 66 45 0F 3A 0F C9  palignr     xmm9,xmm9,8
                    08
  0000000000003B9A: 66 45 0F 3A 0F ED  palignr     xmm13,xmm13,4
                    04
  0000000000003BA1: 48 8D 7F 10        lea         rdi,[rdi+10h]
  0000000000003BA5: 48 FF C9           dec         rcx
  0000000000003BA8: 0F 8F FF FC FF FF  jg          L$seal_sse_tail_128_rounds_and_x2hash
  0000000000003BAE: 49 FF C8           dec         r8
  0000000000003BB1: 0F 8D 8E FD FF FF  jge         L$seal_sse_tail_128_rounds_and_x1hash
  0000000000003BB7: 66 0F FE 0D 00 00  paddd       xmm1,xmmword ptr [.rdata]
                    00 00
  0000000000003BBF: 66 0F FE AD D0 00  paddd       xmm5,xmmword ptr [rbp+0D0h]
                    00 00
  0000000000003BC7: 66 44 0F FE 8D E0  paddd       xmm9,xmmword ptr [rbp+0E0h]
                    00 00 00
  0000000000003BD0: 66 44 0F FE AD 10  paddd       xmm13,xmmword ptr [rbp+110h]
                    01 00 00
  0000000000003BD9: 66 0F FE 05 00 00  paddd       xmm0,xmmword ptr [.rdata]
                    00 00
  0000000000003BE1: 66 0F FE A5 D0 00  paddd       xmm4,xmmword ptr [rbp+0D0h]
                    00 00
  0000000000003BE9: 66 44 0F FE 85 E0  paddd       xmm8,xmmword ptr [rbp+0E0h]
                    00 00 00
  0000000000003BF2: 66 44 0F FE A5 00  paddd       xmm12,xmmword ptr [rbp+100h]
                    01 00 00
  0000000000003BFB: F3 0F 6F 1E        movdqu      xmm3,xmmword ptr [rsi]
  0000000000003BFF: F3 0F 6F 7E 10     movdqu      xmm7,xmmword ptr [rsi+10h]
  0000000000003C04: F3 44 0F 6F 5E 20  movdqu      xmm11,xmmword ptr [rsi+20h]
  0000000000003C0A: F3 44 0F 6F 7E 30  movdqu      xmm15,xmmword ptr [rsi+30h]
  0000000000003C10: 66 0F EF CB        pxor        xmm1,xmm3
  0000000000003C14: 66 0F EF EF        pxor        xmm5,xmm7
  0000000000003C18: 66 45 0F EF CB     pxor        xmm9,xmm11
  0000000000003C1D: 66 45 0F EF FD     pxor        xmm15,xmm13
  0000000000003C22: F3 0F 7F 0F        movdqu      xmmword ptr [rdi],xmm1
  0000000000003C26: F3 0F 7F 6F 10     movdqu      xmmword ptr [rdi+10h],xmm5
  0000000000003C2B: F3 44 0F 7F 4F 20  movdqu      xmmword ptr [rdi+20h],xmm9
  0000000000003C31: F3 44 0F 7F 7F 30  movdqu      xmmword ptr [rdi+30h],xmm15
  0000000000003C37: B9 40 00 00 00     mov         ecx,40h
  0000000000003C3C: 48 83 EB 40        sub         rbx,40h
  0000000000003C40: 48 8D 76 40        lea         rsi,[rsi+40h]
  0000000000003C44: E9 5D 05 00 00     jmp         L$seal_sse_128_tail_hash
L$seal_sse_tail_192:
  0000000000003C49: 66 0F 6F 05 00 00  movdqa      xmm0,xmmword ptr [.rdata]
                    00 00
  0000000000003C51: 66 0F 6F A5 D0 00  movdqa      xmm4,xmmword ptr [rbp+0D0h]
                    00 00
  0000000000003C59: 66 44 0F 6F 85 E0  movdqa      xmm8,xmmword ptr [rbp+0E0h]
                    00 00 00
  0000000000003C62: 66 0F 6F C8        movdqa      xmm1,xmm0
  0000000000003C66: 66 0F 6F EC        movdqa      xmm5,xmm4
  0000000000003C6A: 66 45 0F 6F C8     movdqa      xmm9,xmm8
  0000000000003C6F: 66 0F 6F D0        movdqa      xmm2,xmm0
  0000000000003C73: 66 0F 6F F4        movdqa      xmm6,xmm4
  0000000000003C77: 66 45 0F 6F D0     movdqa      xmm10,xmm8
  0000000000003C7C: 66 44 0F 6F B5 00  movdqa      xmm14,xmmword ptr [rbp+100h]
                    01 00 00
  0000000000003C85: 66 44 0F FE 35 70  paddd       xmm14,xmmword ptr [.rdata+70h]
                    00 00 00
  0000000000003C8E: 66 45 0F 6F EE     movdqa      xmm13,xmm14
  0000000000003C93: 66 44 0F FE 2D 70  paddd       xmm13,xmmword ptr [.rdata+70h]
                    00 00 00
  0000000000003C9C: 66 45 0F 6F E5     movdqa      xmm12,xmm13
  0000000000003CA1: 66 44 0F FE 25 70  paddd       xmm12,xmmword ptr [.rdata+70h]
                    00 00 00
  0000000000003CAA: 66 44 0F 7F A5 00  movdqa      xmmword ptr [rbp+100h],xmm12
                    01 00 00
  0000000000003CB3: 66 44 0F 7F AD 10  movdqa      xmmword ptr [rbp+110h],xmm13
                    01 00 00
  0000000000003CBC: 66 44 0F 7F B5 20  movdqa      xmmword ptr [rbp+120h],xmm14
                    01 00 00
L$seal_sse_tail_192_rounds_and_x2hash:
  0000000000003CC5: 4C 03 17           add         r10,qword ptr [rdi]
  0000000000003CC8: 4C 13 5F 08        adc         r11,qword ptr [rdi+8]
  0000000000003CCC: 49 83 D4 01        adc         r12,1
  0000000000003CD0: 48 8B 85 A0 00 00  mov         rax,qword ptr [rbp+0A0h]
                    00
  0000000000003CD7: 49 89 C7           mov         r15,rax
  0000000000003CDA: 49 F7 E2           mul         rax,r10
  0000000000003CDD: 49 89 C5           mov         r13,rax
  0000000000003CE0: 49 89 D6           mov         r14,rdx
  0000000000003CE3: 48 8B 85 A0 00 00  mov         rax,qword ptr [rbp+0A0h]
                    00
  0000000000003CEA: 49 F7 E3           mul         rax,r11
  0000000000003CED: 4D 0F AF FC        imul        r15,r12
  0000000000003CF1: 49 01 C6           add         r14,rax
  0000000000003CF4: 49 11 D7           adc         r15,rdx
  0000000000003CF7: 48 8B 85 A8 00 00  mov         rax,qword ptr [rbp+0A8h]
                    00
  0000000000003CFE: 49 89 C1           mov         r9,rax
  0000000000003D01: 49 F7 E2           mul         rax,r10
  0000000000003D04: 49 01 C6           add         r14,rax
  0000000000003D07: 48 83 D2 00        adc         rdx,0
  0000000000003D0B: 49 89 D2           mov         r10,rdx
  0000000000003D0E: 48 8B 85 A8 00 00  mov         rax,qword ptr [rbp+0A8h]
                    00
  0000000000003D15: 49 F7 E3           mul         rax,r11
  0000000000003D18: 49 01 C7           add         r15,rax
  0000000000003D1B: 48 83 D2 00        adc         rdx,0
  0000000000003D1F: 4D 0F AF CC        imul        r9,r12
  0000000000003D23: 4D 01 D7           add         r15,r10
  0000000000003D26: 49 11 D1           adc         r9,rdx
  0000000000003D29: 4D 89 EA           mov         r10,r13
  0000000000003D2C: 4D 89 F3           mov         r11,r14
  0000000000003D2F: 4D 89 FC           mov         r12,r15
  0000000000003D32: 49 83 E4 03        and         r12,3
  0000000000003D36: 4D 89 FD           mov         r13,r15
  0000000000003D39: 49 83 E5 FC        and         r13,0FFFFFFFFFFFFFFFCh
  0000000000003D3D: 4D 89 CE           mov         r14,r9
  0000000000003D40: 4D 0F AC CF 02     shrd        r15,r9,2
  0000000000003D45: 49 C1 E9 02        shr         r9,2
  0000000000003D49: 4D 01 EF           add         r15,r13
  0000000000003D4C: 4D 11 F1           adc         r9,r14
  0000000000003D4F: 4D 01 FA           add         r10,r15
  0000000000003D52: 4D 11 CB           adc         r11,r9
  0000000000003D55: 49 83 D4 00        adc         r12,0
  0000000000003D59: 48 8D 7F 10        lea         rdi,[rdi+10h]
L$seal_sse_tail_192_rounds_and_x1hash:
  0000000000003D5D: 66 0F FE C4        paddd       xmm0,xmm4
  0000000000003D61: 66 44 0F EF E0     pxor        xmm12,xmm0
  0000000000003D66: 66 44 0F 38 00 25  pshufb      xmm12,xmmword ptr [.rdata+40h]
                    40 00 00 00
  0000000000003D70: 66 45 0F FE C4     paddd       xmm8,xmm12
  0000000000003D75: 66 41 0F EF E0     pxor        xmm4,xmm8
  0000000000003D7A: 66 0F 6F DC        movdqa      xmm3,xmm4
  0000000000003D7E: 66 0F 72 F3 0C     pslld       xmm3,0Ch
  0000000000003D83: 66 0F 72 D4 14     psrld       xmm4,14h
  0000000000003D88: 66 0F EF E3        pxor        xmm4,xmm3
  0000000000003D8C: 66 0F FE C4        paddd       xmm0,xmm4
  0000000000003D90: 66 44 0F EF E0     pxor        xmm12,xmm0
  0000000000003D95: 66 44 0F 38 00 25  pshufb      xmm12,xmmword ptr [.rdata+20h]
                    20 00 00 00
  0000000000003D9F: 66 45 0F FE C4     paddd       xmm8,xmm12
  0000000000003DA4: 66 41 0F EF E0     pxor        xmm4,xmm8
  0000000000003DA9: 66 0F 6F DC        movdqa      xmm3,xmm4
  0000000000003DAD: 66 0F 72 F3 07     pslld       xmm3,7
  0000000000003DB2: 66 0F 72 D4 19     psrld       xmm4,19h
  0000000000003DB7: 66 0F EF E3        pxor        xmm4,xmm3
  0000000000003DBB: 66 0F 3A 0F E4 04  palignr     xmm4,xmm4,4
  0000000000003DC1: 66 45 0F 3A 0F C0  palignr     xmm8,xmm8,8
                    08
  0000000000003DC8: 66 45 0F 3A 0F E4  palignr     xmm12,xmm12,0Ch
                    0C
  0000000000003DCF: 66 0F FE CD        paddd       xmm1,xmm5
  0000000000003DD3: 66 44 0F EF E9     pxor        xmm13,xmm1
  0000000000003DD8: 66 44 0F 38 00 2D  pshufb      xmm13,xmmword ptr [.rdata+40h]
                    40 00 00 00
  0000000000003DE2: 66 45 0F FE CD     paddd       xmm9,xmm13
  0000000000003DE7: 66 41 0F EF E9     pxor        xmm5,xmm9
  0000000000003DEC: 66 0F 6F DD        movdqa      xmm3,xmm5
  0000000000003DF0: 66 0F 72 F3 0C     pslld       xmm3,0Ch
  0000000000003DF5: 66 0F 72 D5 14     psrld       xmm5,14h
  0000000000003DFA: 66 0F EF EB        pxor        xmm5,xmm3
  0000000000003DFE: 66 0F FE CD        paddd       xmm1,xmm5
  0000000000003E02: 66 44 0F EF E9     pxor        xmm13,xmm1
  0000000000003E07: 66 44 0F 38 00 2D  pshufb      xmm13,xmmword ptr [.rdata+20h]
                    20 00 00 00
  0000000000003E11: 66 45 0F FE CD     paddd       xmm9,xmm13
  0000000000003E16: 66 41 0F EF E9     pxor        xmm5,xmm9
  0000000000003E1B: 66 0F 6F DD        movdqa      xmm3,xmm5
  0000000000003E1F: 66 0F 72 F3 07     pslld       xmm3,7
  0000000000003E24: 66 0F 72 D5 19     psrld       xmm5,19h
  0000000000003E29: 66 0F EF EB        pxor        xmm5,xmm3
  0000000000003E2D: 66 0F 3A 0F ED 04  palignr     xmm5,xmm5,4
  0000000000003E33: 66 45 0F 3A 0F C9  palignr     xmm9,xmm9,8
                    08
  0000000000003E3A: 66 45 0F 3A 0F ED  palignr     xmm13,xmm13,0Ch
                    0C
  0000000000003E41: 66 0F FE D6        paddd       xmm2,xmm6
  0000000000003E45: 66 44 0F EF F2     pxor        xmm14,xmm2
  0000000000003E4A: 66 44 0F 38 00 35  pshufb      xmm14,xmmword ptr [.rdata+40h]
                    40 00 00 00
  0000000000003E54: 66 45 0F FE D6     paddd       xmm10,xmm14
  0000000000003E59: 66 41 0F EF F2     pxor        xmm6,xmm10
  0000000000003E5E: 66 0F 6F DE        movdqa      xmm3,xmm6
  0000000000003E62: 66 0F 72 F3 0C     pslld       xmm3,0Ch
  0000000000003E67: 66 0F 72 D6 14     psrld       xmm6,14h
  0000000000003E6C: 66 0F EF F3        pxor        xmm6,xmm3
  0000000000003E70: 66 0F FE D6        paddd       xmm2,xmm6
  0000000000003E74: 66 44 0F EF F2     pxor        xmm14,xmm2
  0000000000003E79: 66 44 0F 38 00 35  pshufb      xmm14,xmmword ptr [.rdata+20h]
                    20 00 00 00
  0000000000003E83: 66 45 0F FE D6     paddd       xmm10,xmm14
  0000000000003E88: 66 41 0F EF F2     pxor        xmm6,xmm10
  0000000000003E8D: 66 0F 6F DE        movdqa      xmm3,xmm6
  0000000000003E91: 66 0F 72 F3 07     pslld       xmm3,7
  0000000000003E96: 66 0F 72 D6 19     psrld       xmm6,19h
  0000000000003E9B: 66 0F EF F3        pxor        xmm6,xmm3
  0000000000003E9F: 66 0F 3A 0F F6 04  palignr     xmm6,xmm6,4
  0000000000003EA5: 66 45 0F 3A 0F D2  palignr     xmm10,xmm10,8
                    08
  0000000000003EAC: 66 45 0F 3A 0F F6  palignr     xmm14,xmm14,0Ch
                    0C
  0000000000003EB3: 4C 03 17           add         r10,qword ptr [rdi]
  0000000000003EB6: 4C 13 5F 08        adc         r11,qword ptr [rdi+8]
  0000000000003EBA: 49 83 D4 01        adc         r12,1
  0000000000003EBE: 48 8B 85 A0 00 00  mov         rax,qword ptr [rbp+0A0h]
                    00
  0000000000003EC5: 49 89 C7           mov         r15,rax
  0000000000003EC8: 49 F7 E2           mul         rax,r10
  0000000000003ECB: 49 89 C5           mov         r13,rax
  0000000000003ECE: 49 89 D6           mov         r14,rdx
  0000000000003ED1: 48 8B 85 A0 00 00  mov         rax,qword ptr [rbp+0A0h]
                    00
  0000000000003ED8: 49 F7 E3           mul         rax,r11
  0000000000003EDB: 4D 0F AF FC        imul        r15,r12
  0000000000003EDF: 49 01 C6           add         r14,rax
  0000000000003EE2: 49 11 D7           adc         r15,rdx
  0000000000003EE5: 48 8B 85 A8 00 00  mov         rax,qword ptr [rbp+0A8h]
                    00
  0000000000003EEC: 49 89 C1           mov         r9,rax
  0000000000003EEF: 49 F7 E2           mul         rax,r10
  0000000000003EF2: 49 01 C6           add         r14,rax
  0000000000003EF5: 48 83 D2 00        adc         rdx,0
  0000000000003EF9: 49 89 D2           mov         r10,rdx
  0000000000003EFC: 48 8B 85 A8 00 00  mov         rax,qword ptr [rbp+0A8h]
                    00
  0000000000003F03: 49 F7 E3           mul         rax,r11
  0000000000003F06: 49 01 C7           add         r15,rax
  0000000000003F09: 48 83 D2 00        adc         rdx,0
  0000000000003F0D: 4D 0F AF CC        imul        r9,r12
  0000000000003F11: 4D 01 D7           add         r15,r10
  0000000000003F14: 49 11 D1           adc         r9,rdx
  0000000000003F17: 4D 89 EA           mov         r10,r13
  0000000000003F1A: 4D 89 F3           mov         r11,r14
  0000000000003F1D: 4D 89 FC           mov         r12,r15
  0000000000003F20: 49 83 E4 03        and         r12,3
  0000000000003F24: 4D 89 FD           mov         r13,r15
  0000000000003F27: 49 83 E5 FC        and         r13,0FFFFFFFFFFFFFFFCh
  0000000000003F2B: 4D 89 CE           mov         r14,r9
  0000000000003F2E: 4D 0F AC CF 02     shrd        r15,r9,2
  0000000000003F33: 49 C1 E9 02        shr         r9,2
  0000000000003F37: 4D 01 EF           add         r15,r13
  0000000000003F3A: 4D 11 F1           adc         r9,r14
  0000000000003F3D: 4D 01 FA           add         r10,r15
  0000000000003F40: 4D 11 CB           adc         r11,r9
  0000000000003F43: 49 83 D4 00        adc         r12,0
  0000000000003F47: 66 0F FE C4        paddd       xmm0,xmm4
  0000000000003F4B: 66 44 0F EF E0     pxor        xmm12,xmm0
  0000000000003F50: 66 44 0F 38 00 25  pshufb      xmm12,xmmword ptr [.rdata+40h]
                    40 00 00 00
  0000000000003F5A: 66 45 0F FE C4     paddd       xmm8,xmm12
  0000000000003F5F: 66 41 0F EF E0     pxor        xmm4,xmm8
  0000000000003F64: 66 0F 6F DC        movdqa      xmm3,xmm4
  0000000000003F68: 66 0F 72 F3 0C     pslld       xmm3,0Ch
  0000000000003F6D: 66 0F 72 D4 14     psrld       xmm4,14h
  0000000000003F72: 66 0F EF E3        pxor        xmm4,xmm3
  0000000000003F76: 66 0F FE C4        paddd       xmm0,xmm4
  0000000000003F7A: 66 44 0F EF E0     pxor        xmm12,xmm0
  0000000000003F7F: 66 44 0F 38 00 25  pshufb      xmm12,xmmword ptr [.rdata+20h]
                    20 00 00 00
  0000000000003F89: 66 45 0F FE C4     paddd       xmm8,xmm12
  0000000000003F8E: 66 41 0F EF E0     pxor        xmm4,xmm8
  0000000000003F93: 66 0F 6F DC        movdqa      xmm3,xmm4
  0000000000003F97: 66 0F 72 F3 07     pslld       xmm3,7
  0000000000003F9C: 66 0F 72 D4 19     psrld       xmm4,19h
  0000000000003FA1: 66 0F EF E3        pxor        xmm4,xmm3
  0000000000003FA5: 66 0F 3A 0F E4 0C  palignr     xmm4,xmm4,0Ch
  0000000000003FAB: 66 45 0F 3A 0F C0  palignr     xmm8,xmm8,8
                    08
  0000000000003FB2: 66 45 0F 3A 0F E4  palignr     xmm12,xmm12,4
                    04
  0000000000003FB9: 66 0F FE CD        paddd       xmm1,xmm5
  0000000000003FBD: 66 44 0F EF E9     pxor        xmm13,xmm1
  0000000000003FC2: 66 44 0F 38 00 2D  pshufb      xmm13,xmmword ptr [.rdata+40h]
                    40 00 00 00
  0000000000003FCC: 66 45 0F FE CD     paddd       xmm9,xmm13
  0000000000003FD1: 66 41 0F EF E9     pxor        xmm5,xmm9
  0000000000003FD6: 66 0F 6F DD        movdqa      xmm3,xmm5
  0000000000003FDA: 66 0F 72 F3 0C     pslld       xmm3,0Ch
  0000000000003FDF: 66 0F 72 D5 14     psrld       xmm5,14h
  0000000000003FE4: 66 0F EF EB        pxor        xmm5,xmm3
  0000000000003FE8: 66 0F FE CD        paddd       xmm1,xmm5
  0000000000003FEC: 66 44 0F EF E9     pxor        xmm13,xmm1
  0000000000003FF1: 66 44 0F 38 00 2D  pshufb      xmm13,xmmword ptr [.rdata+20h]
                    20 00 00 00
  0000000000003FFB: 66 45 0F FE CD     paddd       xmm9,xmm13
  0000000000004000: 66 41 0F EF E9     pxor        xmm5,xmm9
  0000000000004005: 66 0F 6F DD        movdqa      xmm3,xmm5
  0000000000004009: 66 0F 72 F3 07     pslld       xmm3,7
  000000000000400E: 66 0F 72 D5 19     psrld       xmm5,19h
  0000000000004013: 66 0F EF EB        pxor        xmm5,xmm3
  0000000000004017: 66 0F 3A 0F ED 0C  palignr     xmm5,xmm5,0Ch
  000000000000401D: 66 45 0F 3A 0F C9  palignr     xmm9,xmm9,8
                    08
  0000000000004024: 66 45 0F 3A 0F ED  palignr     xmm13,xmm13,4
                    04
  000000000000402B: 66 0F FE D6        paddd       xmm2,xmm6
  000000000000402F: 66 44 0F EF F2     pxor        xmm14,xmm2
  0000000000004034: 66 44 0F 38 00 35  pshufb      xmm14,xmmword ptr [.rdata+40h]
                    40 00 00 00
  000000000000403E: 66 45 0F FE D6     paddd       xmm10,xmm14
  0000000000004043: 66 41 0F EF F2     pxor        xmm6,xmm10
  0000000000004048: 66 0F 6F DE        movdqa      xmm3,xmm6
  000000000000404C: 66 0F 72 F3 0C     pslld       xmm3,0Ch
  0000000000004051: 66 0F 72 D6 14     psrld       xmm6,14h
  0000000000004056: 66 0F EF F3        pxor        xmm6,xmm3
  000000000000405A: 66 0F FE D6        paddd       xmm2,xmm6
  000000000000405E: 66 44 0F EF F2     pxor        xmm14,xmm2
  0000000000004063: 66 44 0F 38 00 35  pshufb      xmm14,xmmword ptr [.rdata+20h]
                    20 00 00 00
  000000000000406D: 66 45 0F FE D6     paddd       xmm10,xmm14
  0000000000004072: 66 41 0F EF F2     pxor        xmm6,xmm10
  0000000000004077: 66 0F 6F DE        movdqa      xmm3,xmm6
  000000000000407B: 66 0F 72 F3 07     pslld       xmm3,7
  0000000000004080: 66 0F 72 D6 19     psrld       xmm6,19h
  0000000000004085: 66 0F EF F3        pxor        xmm6,xmm3
  0000000000004089: 66 0F 3A 0F F6 0C  palignr     xmm6,xmm6,0Ch
  000000000000408F: 66 45 0F 3A 0F D2  palignr     xmm10,xmm10,8
                    08
  0000000000004096: 66 45 0F 3A 0F F6  palignr     xmm14,xmm14,4
                    04
  000000000000409D: 48 8D 7F 10        lea         rdi,[rdi+10h]
  00000000000040A1: 48 FF C9           dec         rcx
  00000000000040A4: 0F 8F 1B FC FF FF  jg          L$seal_sse_tail_192_rounds_and_x2hash
  00000000000040AA: 49 FF C8           dec         r8
  00000000000040AD: 0F 8D AA FC FF FF  jge         L$seal_sse_tail_192_rounds_and_x1hash
  00000000000040B3: 66 0F FE 15 00 00  paddd       xmm2,xmmword ptr [.rdata]
                    00 00
  00000000000040BB: 66 0F FE B5 D0 00  paddd       xmm6,xmmword ptr [rbp+0D0h]
                    00 00
  00000000000040C3: 66 44 0F FE 95 E0  paddd       xmm10,xmmword ptr [rbp+0E0h]
                    00 00 00
  00000000000040CC: 66 44 0F FE B5 20  paddd       xmm14,xmmword ptr [rbp+120h]
                    01 00 00
  00000000000040D5: 66 0F FE 0D 00 00  paddd       xmm1,xmmword ptr [.rdata]
                    00 00
  00000000000040DD: 66 0F FE AD D0 00  paddd       xmm5,xmmword ptr [rbp+0D0h]
                    00 00
  00000000000040E5: 66 44 0F FE 8D E0  paddd       xmm9,xmmword ptr [rbp+0E0h]
                    00 00 00
  00000000000040EE: 66 44 0F FE AD 10  paddd       xmm13,xmmword ptr [rbp+110h]
                    01 00 00
  00000000000040F7: 66 0F FE 05 00 00  paddd       xmm0,xmmword ptr [.rdata]
                    00 00
  00000000000040FF: 66 0F FE A5 D0 00  paddd       xmm4,xmmword ptr [rbp+0D0h]
                    00 00
  0000000000004107: 66 44 0F FE 85 E0  paddd       xmm8,xmmword ptr [rbp+0E0h]
                    00 00 00
  0000000000004110: 66 44 0F FE A5 00  paddd       xmm12,xmmword ptr [rbp+100h]
                    01 00 00
  0000000000004119: F3 0F 6F 1E        movdqu      xmm3,xmmword ptr [rsi]
  000000000000411D: F3 0F 6F 7E 10     movdqu      xmm7,xmmword ptr [rsi+10h]
  0000000000004122: F3 44 0F 6F 5E 20  movdqu      xmm11,xmmword ptr [rsi+20h]
  0000000000004128: F3 44 0F 6F 7E 30  movdqu      xmm15,xmmword ptr [rsi+30h]
  000000000000412E: 66 0F EF D3        pxor        xmm2,xmm3
  0000000000004132: 66 0F EF F7        pxor        xmm6,xmm7
  0000000000004136: 66 45 0F EF D3     pxor        xmm10,xmm11
  000000000000413B: 66 45 0F EF FE     pxor        xmm15,xmm14
  0000000000004140: F3 0F 7F 17        movdqu      xmmword ptr [rdi],xmm2
  0000000000004144: F3 0F 7F 77 10     movdqu      xmmword ptr [rdi+10h],xmm6
  0000000000004149: F3 44 0F 7F 57 20  movdqu      xmmword ptr [rdi+20h],xmm10
  000000000000414F: F3 44 0F 7F 7F 30  movdqu      xmmword ptr [rdi+30h],xmm15
  0000000000004155: F3 0F 6F 5E 40     movdqu      xmm3,xmmword ptr [rsi+40h]
  000000000000415A: F3 0F 6F 7E 50     movdqu      xmm7,xmmword ptr [rsi+50h]
  000000000000415F: F3 44 0F 6F 5E 60  movdqu      xmm11,xmmword ptr [rsi+60h]
  0000000000004165: F3 44 0F 6F 7E 70  movdqu      xmm15,xmmword ptr [rsi+70h]
  000000000000416B: 66 0F EF CB        pxor        xmm1,xmm3
  000000000000416F: 66 0F EF EF        pxor        xmm5,xmm7
  0000000000004173: 66 45 0F EF CB     pxor        xmm9,xmm11
  0000000000004178: 66 45 0F EF FD     pxor        xmm15,xmm13
  000000000000417D: F3 0F 7F 4F 40     movdqu      xmmword ptr [rdi+40h],xmm1
  0000000000004182: F3 0F 7F 6F 50     movdqu      xmmword ptr [rdi+50h],xmm5
  0000000000004187: F3 44 0F 7F 4F 60  movdqu      xmmword ptr [rdi+60h],xmm9
  000000000000418D: F3 44 0F 7F 7F 70  movdqu      xmmword ptr [rdi+70h],xmm15
  0000000000004193: B9 80 00 00 00     mov         ecx,80h
  0000000000004198: 48 81 EB 80 00 00  sub         rbx,80h
                    00
  000000000000419F: 48 8D B6 80 00 00  lea         rsi,[rsi+80h]
                    00
L$seal_sse_128_tail_hash:
  00000000000041A6: 48 83 F9 10        cmp         rcx,10h
  00000000000041AA: 0F 82 A1 00 00 00  jb          L$seal_sse_128_tail_xor
  00000000000041B0: 4C 03 17           add         r10,qword ptr [rdi]
  00000000000041B3: 4C 13 5F 08        adc         r11,qword ptr [rdi+8]
  00000000000041B7: 49 83 D4 01        adc         r12,1
  00000000000041BB: 48 8B 85 A0 00 00  mov         rax,qword ptr [rbp+0A0h]
                    00
  00000000000041C2: 49 89 C7           mov         r15,rax
  00000000000041C5: 49 F7 E2           mul         rax,r10
  00000000000041C8: 49 89 C5           mov         r13,rax
  00000000000041CB: 49 89 D6           mov         r14,rdx
  00000000000041CE: 48 8B 85 A0 00 00  mov         rax,qword ptr [rbp+0A0h]
                    00
  00000000000041D5: 49 F7 E3           mul         rax,r11
  00000000000041D8: 4D 0F AF FC        imul        r15,r12
  00000000000041DC: 49 01 C6           add         r14,rax
  00000000000041DF: 49 11 D7           adc         r15,rdx
  00000000000041E2: 48 8B 85 A8 00 00  mov         rax,qword ptr [rbp+0A8h]
                    00
  00000000000041E9: 49 89 C1           mov         r9,rax
  00000000000041EC: 49 F7 E2           mul         rax,r10
  00000000000041EF: 49 01 C6           add         r14,rax
  00000000000041F2: 48 83 D2 00        adc         rdx,0
  00000000000041F6: 49 89 D2           mov         r10,rdx
  00000000000041F9: 48 8B 85 A8 00 00  mov         rax,qword ptr [rbp+0A8h]
                    00
  0000000000004200: 49 F7 E3           mul         rax,r11
  0000000000004203: 49 01 C7           add         r15,rax
  0000000000004206: 48 83 D2 00        adc         rdx,0
  000000000000420A: 4D 0F AF CC        imul        r9,r12
  000000000000420E: 4D 01 D7           add         r15,r10
  0000000000004211: 49 11 D1           adc         r9,rdx
  0000000000004214: 4D 89 EA           mov         r10,r13
  0000000000004217: 4D 89 F3           mov         r11,r14
  000000000000421A: 4D 89 FC           mov         r12,r15
  000000000000421D: 49 83 E4 03        and         r12,3
  0000000000004221: 4D 89 FD           mov         r13,r15
  0000000000004224: 49 83 E5 FC        and         r13,0FFFFFFFFFFFFFFFCh
  0000000000004228: 4D 89 CE           mov         r14,r9
  000000000000422B: 4D 0F AC CF 02     shrd        r15,r9,2
  0000000000004230: 49 C1 E9 02        shr         r9,2
  0000000000004234: 4D 01 EF           add         r15,r13
  0000000000004237: 4D 11 F1           adc         r9,r14
  000000000000423A: 4D 01 FA           add         r10,r15
  000000000000423D: 4D 11 CB           adc         r11,r9
  0000000000004240: 49 83 D4 00        adc         r12,0
  0000000000004244: 48 83 E9 10        sub         rcx,10h
  0000000000004248: 48 8D 7F 10        lea         rdi,[rdi+10h]
  000000000000424C: E9 55 FF FF FF     jmp         L$seal_sse_128_tail_hash
L$seal_sse_128_tail_xor:
  0000000000004251: 48 83 FB 10        cmp         rbx,10h
  0000000000004255: 0F 82 D2 00 00 00  jb          L$seal_sse_tail_16
  000000000000425B: 48 83 EB 10        sub         rbx,10h
  000000000000425F: F3 0F 6F 1E        movdqu      xmm3,xmmword ptr [rsi]
  0000000000004263: 66 0F EF C3        pxor        xmm0,xmm3
  0000000000004267: F3 0F 7F 07        movdqu      xmmword ptr [rdi],xmm0
  000000000000426B: 4C 03 17           add         r10,qword ptr [rdi]
  000000000000426E: 4C 13 5F 08        adc         r11,qword ptr [rdi+8]
  0000000000004272: 49 83 D4 01        adc         r12,1
  0000000000004276: 48 8D 76 10        lea         rsi,[rsi+10h]
  000000000000427A: 48 8D 7F 10        lea         rdi,[rdi+10h]
  000000000000427E: 48 8B 85 A0 00 00  mov         rax,qword ptr [rbp+0A0h]
                    00
  0000000000004285: 49 89 C7           mov         r15,rax
  0000000000004288: 49 F7 E2           mul         rax,r10
  000000000000428B: 49 89 C5           mov         r13,rax
  000000000000428E: 49 89 D6           mov         r14,rdx
  0000000000004291: 48 8B 85 A0 00 00  mov         rax,qword ptr [rbp+0A0h]
                    00
  0000000000004298: 49 F7 E3           mul         rax,r11
  000000000000429B: 4D 0F AF FC        imul        r15,r12
  000000000000429F: 49 01 C6           add         r14,rax
  00000000000042A2: 49 11 D7           adc         r15,rdx
  00000000000042A5: 48 8B 85 A8 00 00  mov         rax,qword ptr [rbp+0A8h]
                    00
  00000000000042AC: 49 89 C1           mov         r9,rax
  00000000000042AF: 49 F7 E2           mul         rax,r10
  00000000000042B2: 49 01 C6           add         r14,rax
  00000000000042B5: 48 83 D2 00        adc         rdx,0
  00000000000042B9: 49 89 D2           mov         r10,rdx
  00000000000042BC: 48 8B 85 A8 00 00  mov         rax,qword ptr [rbp+0A8h]
                    00
  00000000000042C3: 49 F7 E3           mul         rax,r11
  00000000000042C6: 49 01 C7           add         r15,rax
  00000000000042C9: 48 83 D2 00        adc         rdx,0
  00000000000042CD: 4D 0F AF CC        imul        r9,r12
  00000000000042D1: 4D 01 D7           add         r15,r10
  00000000000042D4: 49 11 D1           adc         r9,rdx
  00000000000042D7: 4D 89 EA           mov         r10,r13
  00000000000042DA: 4D 89 F3           mov         r11,r14
  00000000000042DD: 4D 89 FC           mov         r12,r15
  00000000000042E0: 49 83 E4 03        and         r12,3
  00000000000042E4: 4D 89 FD           mov         r13,r15
  00000000000042E7: 49 83 E5 FC        and         r13,0FFFFFFFFFFFFFFFCh
  00000000000042EB: 4D 89 CE           mov         r14,r9
  00000000000042EE: 4D 0F AC CF 02     shrd        r15,r9,2
  00000000000042F3: 49 C1 E9 02        shr         r9,2
  00000000000042F7: 4D 01 EF           add         r15,r13
  00000000000042FA: 4D 11 F1           adc         r9,r14
  00000000000042FD: 4D 01 FA           add         r10,r15
  0000000000004300: 4D 11 CB           adc         r11,r9
  0000000000004303: 49 83 D4 00        adc         r12,0
  0000000000004307: 66 0F 6F C4        movdqa      xmm0,xmm4
  000000000000430B: 66 41 0F 6F E0     movdqa      xmm4,xmm8
  0000000000004310: 66 45 0F 6F C4     movdqa      xmm8,xmm12
  0000000000004315: 66 44 0F 6F E1     movdqa      xmm12,xmm1
  000000000000431A: 66 0F 6F CD        movdqa      xmm1,xmm5
  000000000000431E: 66 41 0F 6F E9     movdqa      xmm5,xmm9
  0000000000004323: 66 45 0F 6F CD     movdqa      xmm9,xmm13
  0000000000004328: E9 24 FF FF FF     jmp         L$seal_sse_128_tail_xor
L$seal_sse_tail_16:
  000000000000432D: 48 85 DB           test        rbx,rbx
  0000000000004330: 0F 84 7D 01 00 00  je          L$process_blocks_of_extra_in
  0000000000004336: 49 89 D8           mov         r8,rbx
  0000000000004339: 48 89 D9           mov         rcx,rbx
  000000000000433C: 48 8D 74 1E FF     lea         rsi,[rsi+rbx-1]
  0000000000004341: 66 45 0F EF FF     pxor        xmm15,xmm15
L$seal_sse_tail_16_compose:
  0000000000004346: 66 41 0F 73 FF 01  pslldq      xmm15,1
  000000000000434C: 66 44 0F 3A 20 3E  pinsrb      xmm15,byte ptr [rsi],0
                    00
  0000000000004353: 48 8D 76 FF        lea         rsi,[rsi-1]
  0000000000004357: 48 FF C9           dec         rcx
  000000000000435A: 0F 85 E6 FF FF FF  jne         L$seal_sse_tail_16_compose
  0000000000004360: 66 44 0F EF F8     pxor        xmm15,xmm0
  0000000000004365: 48 89 D9           mov         rcx,rbx
  0000000000004368: F3 41 0F 6F C7     movdqu      xmm0,xmm15
L$seal_sse_tail_16_extract:
  000000000000436D: 66 0F 3A 14 07 00  pextrb      byte ptr [rdi],xmm0,0
  0000000000004373: 66 0F 73 D8 01     psrldq      xmm0,1
  0000000000004378: 48 83 C7 01        add         rdi,1
  000000000000437C: 48 83 E9 01        sub         rcx,1
  0000000000004380: 0F 85 E7 FF FF FF  jne         L$seal_sse_tail_16_extract
  0000000000004386: 4C 8B 8C 24 E0 01  mov         r9,qword ptr [rsp+1E0h]
                    00 00
  000000000000438E: 4D 8B 71 38        mov         r14,qword ptr [r9+38h]
  0000000000004392: 4D 8B 69 30        mov         r13,qword ptr [r9+30h]
  0000000000004396: 4D 85 F6           test        r14,r14
  0000000000004399: 0F 84 FF 01 00 00  je          L$process_partial_block
  000000000000439F: 41 BF 10 00 00 00  mov         r15d,10h
  00000000000043A5: 49 29 DF           sub         r15,rbx
  00000000000043A8: 4D 39 FE           cmp         r14,r15
  00000000000043AB: 0F 8D 03 00 00 00  jge         L$load_extra_in
  00000000000043B1: 4D 89 F7           mov         r15,r14
L$load_extra_in:
  00000000000043B4: 4B 8D 74 3D FF     lea         rsi,[r13+r15-1]
  00000000000043B9: 4D 01 FD           add         r13,r15
  00000000000043BC: 4D 29 FE           sub         r14,r15
  00000000000043BF: 4D 89 69 30        mov         qword ptr [r9+30h],r13
  00000000000043C3: 4D 89 71 38        mov         qword ptr [r9+38h],r14
  00000000000043C7: 4D 01 F8           add         r8,r15
  00000000000043CA: 66 45 0F EF DB     pxor        xmm11,xmm11
L$load_extra_load_loop:
  00000000000043CF: 66 41 0F 73 FB 01  pslldq      xmm11,1
  00000000000043D5: 66 44 0F 3A 20 1E  pinsrb      xmm11,byte ptr [rsi],0
                    00
  00000000000043DC: 48 8D 76 FF        lea         rsi,[rsi-1]
  00000000000043E0: 49 83 EF 01        sub         r15,1
  00000000000043E4: 0F 85 E5 FF FF FF  jne         L$load_extra_load_loop
  00000000000043EA: 49 89 DF           mov         r15,rbx
L$load_extra_shift_loop:
  00000000000043ED: 66 41 0F 73 FB 01  pslldq      xmm11,1
  00000000000043F3: 49 83 EF 01        sub         r15,1
  00000000000043F7: 0F 85 F0 FF FF FF  jne         L$load_extra_shift_loop
  00000000000043FD: 4C 8D 3D C0 00 00  lea         r15,[.rdata+0C0h]
                    00
  0000000000004404: 48 C1 E3 04        shl         rbx,4
  0000000000004408: 66 45 0F DB 7C 1F  pand        xmm15,xmmword ptr [r15+rbx-10h]
                    F0
  000000000000440F: 66 45 0F EB FB     por         xmm15,xmm11
  0000000000004414: 66 4D 0F 7E FD     movq        r13,xmm15
  0000000000004419: 66 4D 0F 3A 16 FE  pextrq      r14,xmm15,1
                    01
  0000000000004420: 4D 01 EA           add         r10,r13
  0000000000004423: 4D 11 F3           adc         r11,r14
  0000000000004426: 49 83 D4 01        adc         r12,1
  000000000000442A: 48 8B 85 A0 00 00  mov         rax,qword ptr [rbp+0A0h]
                    00
  0000000000004431: 49 89 C7           mov         r15,rax
  0000000000004434: 49 F7 E2           mul         rax,r10
  0000000000004437: 49 89 C5           mov         r13,rax
  000000000000443A: 49 89 D6           mov         r14,rdx
  000000000000443D: 48 8B 85 A0 00 00  mov         rax,qword ptr [rbp+0A0h]
                    00
  0000000000004444: 49 F7 E3           mul         rax,r11
  0000000000004447: 4D 0F AF FC        imul        r15,r12
  000000000000444B: 49 01 C6           add         r14,rax
  000000000000444E: 49 11 D7           adc         r15,rdx
  0000000000004451: 48 8B 85 A8 00 00  mov         rax,qword ptr [rbp+0A8h]
                    00
  0000000000004458: 49 89 C1           mov         r9,rax
  000000000000445B: 49 F7 E2           mul         rax,r10
  000000000000445E: 49 01 C6           add         r14,rax
  0000000000004461: 48 83 D2 00        adc         rdx,0
  0000000000004465: 49 89 D2           mov         r10,rdx
  0000000000004468: 48 8B 85 A8 00 00  mov         rax,qword ptr [rbp+0A8h]
                    00
  000000000000446F: 49 F7 E3           mul         rax,r11
  0000000000004472: 49 01 C7           add         r15,rax
  0000000000004475: 48 83 D2 00        adc         rdx,0
  0000000000004479: 4D 0F AF CC        imul        r9,r12
  000000000000447D: 4D 01 D7           add         r15,r10
  0000000000004480: 49 11 D1           adc         r9,rdx
  0000000000004483: 4D 89 EA           mov         r10,r13
  0000000000004486: 4D 89 F3           mov         r11,r14
  0000000000004489: 4D 89 FC           mov         r12,r15
  000000000000448C: 49 83 E4 03        and         r12,3
  0000000000004490: 4D 89 FD           mov         r13,r15
  0000000000004493: 49 83 E5 FC        and         r13,0FFFFFFFFFFFFFFFCh
  0000000000004497: 4D 89 CE           mov         r14,r9
  000000000000449A: 4D 0F AC CF 02     shrd        r15,r9,2
  000000000000449F: 49 C1 E9 02        shr         r9,2
  00000000000044A3: 4D 01 EF           add         r15,r13
  00000000000044A6: 4D 11 F1           adc         r9,r14
  00000000000044A9: 4D 01 FA           add         r10,r15
  00000000000044AC: 4D 11 CB           adc         r11,r9
  00000000000044AF: 49 83 D4 00        adc         r12,0
L$process_blocks_of_extra_in:
  00000000000044B3: 4C 8B 8C 24 E0 01  mov         r9,qword ptr [rsp+1E0h]
                    00 00
  00000000000044BB: 49 8B 71 30        mov         rsi,qword ptr [r9+30h]
  00000000000044BF: 4D 8B 41 38        mov         r8,qword ptr [r9+38h]
  00000000000044C3: 4C 89 C1           mov         rcx,r8
  00000000000044C6: 49 C1 E8 04        shr         r8,4
L$process_extra_hash_loop:
  00000000000044CA: 0F 84 A1 00 00 00  je          process_extra_in_trailer
  00000000000044D0: 4C 03 16           add         r10,qword ptr [rsi]
  00000000000044D3: 4C 13 5E 08        adc         r11,qword ptr [rsi+8]
  00000000000044D7: 49 83 D4 01        adc         r12,1
  00000000000044DB: 48 8B 85 A0 00 00  mov         rax,qword ptr [rbp+0A0h]
                    00
  00000000000044E2: 49 89 C7           mov         r15,rax
  00000000000044E5: 49 F7 E2           mul         rax,r10
  00000000000044E8: 49 89 C5           mov         r13,rax
  00000000000044EB: 49 89 D6           mov         r14,rdx
  00000000000044EE: 48 8B 85 A0 00 00  mov         rax,qword ptr [rbp+0A0h]
                    00
  00000000000044F5: 49 F7 E3           mul         rax,r11
  00000000000044F8: 4D 0F AF FC        imul        r15,r12
  00000000000044FC: 49 01 C6           add         r14,rax
  00000000000044FF: 49 11 D7           adc         r15,rdx
  0000000000004502: 48 8B 85 A8 00 00  mov         rax,qword ptr [rbp+0A8h]
                    00
  0000000000004509: 49 89 C1           mov         r9,rax
  000000000000450C: 49 F7 E2           mul         rax,r10
  000000000000450F: 49 01 C6           add         r14,rax
  0000000000004512: 48 83 D2 00        adc         rdx,0
  0000000000004516: 49 89 D2           mov         r10,rdx
  0000000000004519: 48 8B 85 A8 00 00  mov         rax,qword ptr [rbp+0A8h]
                    00
  0000000000004520: 49 F7 E3           mul         rax,r11
  0000000000004523: 49 01 C7           add         r15,rax
  0000000000004526: 48 83 D2 00        adc         rdx,0
  000000000000452A: 4D 0F AF CC        imul        r9,r12
  000000000000452E: 4D 01 D7           add         r15,r10
  0000000000004531: 49 11 D1           adc         r9,rdx
  0000000000004534: 4D 89 EA           mov         r10,r13
  0000000000004537: 4D 89 F3           mov         r11,r14
  000000000000453A: 4D 89 FC           mov         r12,r15
  000000000000453D: 49 83 E4 03        and         r12,3
  0000000000004541: 4D 89 FD           mov         r13,r15
  0000000000004544: 49 83 E5 FC        and         r13,0FFFFFFFFFFFFFFFCh
  0000000000004548: 4D 89 CE           mov         r14,r9
  000000000000454B: 4D 0F AC CF 02     shrd        r15,r9,2
  0000000000004550: 49 C1 E9 02        shr         r9,2
  0000000000004554: 4D 01 EF           add         r15,r13
  0000000000004557: 4D 11 F1           adc         r9,r14
  000000000000455A: 4D 01 FA           add         r10,r15
  000000000000455D: 4D 11 CB           adc         r11,r9
  0000000000004560: 49 83 D4 00        adc         r12,0
  0000000000004564: 48 8D 76 10        lea         rsi,[rsi+10h]
  0000000000004568: 49 83 E8 01        sub         r8,1
  000000000000456C: E9 59 FF FF FF     jmp         L$process_extra_hash_loop
process_extra_in_trailer:
  0000000000004571: 48 83 E1 0F        and         rcx,0Fh
  0000000000004575: 48 89 CB           mov         rbx,rcx
  0000000000004578: 0F 84 D1 00 00 00  je          L$do_length_block
  000000000000457E: 48 8D 74 0E FF     lea         rsi,[rsi+rcx-1]
L$process_extra_in_trailer_load:
  0000000000004583: 66 41 0F 73 FF 01  pslldq      xmm15,1
  0000000000004589: 66 44 0F 3A 20 3E  pinsrb      xmm15,byte ptr [rsi],0
                    00
  0000000000004590: 48 8D 76 FF        lea         rsi,[rsi-1]
  0000000000004594: 48 83 E9 01        sub         rcx,1
  0000000000004598: 0F 85 E5 FF FF FF  jne         L$process_extra_in_trailer_load
L$process_partial_block:
  000000000000459E: 4C 8D 3D C0 00 00  lea         r15,[.rdata+0C0h]
                    00
  00000000000045A5: 48 C1 E3 04        shl         rbx,4
  00000000000045A9: 66 45 0F DB 7C 1F  pand        xmm15,xmmword ptr [r15+rbx-10h]
                    F0
  00000000000045B0: 66 4D 0F 7E FD     movq        r13,xmm15
  00000000000045B5: 66 4D 0F 3A 16 FE  pextrq      r14,xmm15,1
                    01
  00000000000045BC: 4D 01 EA           add         r10,r13
  00000000000045BF: 4D 11 F3           adc         r11,r14
  00000000000045C2: 49 83 D4 01        adc         r12,1
  00000000000045C6: 48 8B 85 A0 00 00  mov         rax,qword ptr [rbp+0A0h]
                    00
  00000000000045CD: 49 89 C7           mov         r15,rax
  00000000000045D0: 49 F7 E2           mul         rax,r10
  00000000000045D3: 49 89 C5           mov         r13,rax
  00000000000045D6: 49 89 D6           mov         r14,rdx
  00000000000045D9: 48 8B 85 A0 00 00  mov         rax,qword ptr [rbp+0A0h]
                    00
  00000000000045E0: 49 F7 E3           mul         rax,r11
  00000000000045E3: 4D 0F AF FC        imul        r15,r12
  00000000000045E7: 49 01 C6           add         r14,rax
  00000000000045EA: 49 11 D7           adc         r15,rdx
  00000000000045ED: 48 8B 85 A8 00 00  mov         rax,qword ptr [rbp+0A8h]
                    00
  00000000000045F4: 49 89 C1           mov         r9,rax
  00000000000045F7: 49 F7 E2           mul         rax,r10
  00000000000045FA: 49 01 C6           add         r14,rax
  00000000000045FD: 48 83 D2 00        adc         rdx,0
  0000000000004601: 49 89 D2           mov         r10,rdx
  0000000000004604: 48 8B 85 A8 00 00  mov         rax,qword ptr [rbp+0A8h]
                    00
  000000000000460B: 49 F7 E3           mul         rax,r11
  000000000000460E: 49 01 C7           add         r15,rax
  0000000000004611: 48 83 D2 00        adc         rdx,0
  0000000000004615: 4D 0F AF CC        imul        r9,r12
  0000000000004619: 4D 01 D7           add         r15,r10
  000000000000461C: 49 11 D1           adc         r9,rdx
  000000000000461F: 4D 89 EA           mov         r10,r13
  0000000000004622: 4D 89 F3           mov         r11,r14
  0000000000004625: 4D 89 FC           mov         r12,r15
  0000000000004628: 49 83 E4 03        and         r12,3
  000000000000462C: 4D 89 FD           mov         r13,r15
  000000000000462F: 49 83 E5 FC        and         r13,0FFFFFFFFFFFFFFFCh
  0000000000004633: 4D 89 CE           mov         r14,r9
  0000000000004636: 4D 0F AC CF 02     shrd        r15,r9,2
  000000000000463B: 49 C1 E9 02        shr         r9,2
  000000000000463F: 4D 01 EF           add         r15,r13
  0000000000004642: 4D 11 F1           adc         r9,r14
  0000000000004645: 4D 01 FA           add         r10,r15
  0000000000004648: 4D 11 CB           adc         r11,r9
  000000000000464B: 49 83 D4 00        adc         r12,0
L$do_length_block:
  000000000000464F: 4C 03 95 C0 00 00  add         r10,qword ptr [rbp+0C0h]
                    00
  0000000000004656: 4C 13 9D C8 00 00  adc         r11,qword ptr [rbp+0C8h]
                    00
  000000000000465D: 49 83 D4 01        adc         r12,1
  0000000000004661: 48 8B 85 A0 00 00  mov         rax,qword ptr [rbp+0A0h]
                    00
  0000000000004668: 49 89 C7           mov         r15,rax
  000000000000466B: 49 F7 E2           mul         rax,r10
  000000000000466E: 49 89 C5           mov         r13,rax
  0000000000004671: 49 89 D6           mov         r14,rdx
  0000000000004674: 48 8B 85 A0 00 00  mov         rax,qword ptr [rbp+0A0h]
                    00
  000000000000467B: 49 F7 E3           mul         rax,r11
  000000000000467E: 4D 0F AF FC        imul        r15,r12
  0000000000004682: 49 01 C6           add         r14,rax
  0000000000004685: 49 11 D7           adc         r15,rdx
  0000000000004688: 48 8B 85 A8 00 00  mov         rax,qword ptr [rbp+0A8h]
                    00
  000000000000468F: 49 89 C1           mov         r9,rax
  0000000000004692: 49 F7 E2           mul         rax,r10
  0000000000004695: 49 01 C6           add         r14,rax
  0000000000004698: 48 83 D2 00        adc         rdx,0
  000000000000469C: 49 89 D2           mov         r10,rdx
  000000000000469F: 48 8B 85 A8 00 00  mov         rax,qword ptr [rbp+0A8h]
                    00
  00000000000046A6: 49 F7 E3           mul         rax,r11
  00000000000046A9: 49 01 C7           add         r15,rax
  00000000000046AC: 48 83 D2 00        adc         rdx,0
  00000000000046B0: 4D 0F AF CC        imul        r9,r12
  00000000000046B4: 4D 01 D7           add         r15,r10
  00000000000046B7: 49 11 D1           adc         r9,rdx
  00000000000046BA: 4D 89 EA           mov         r10,r13
  00000000000046BD: 4D 89 F3           mov         r11,r14
  00000000000046C0: 4D 89 FC           mov         r12,r15
  00000000000046C3: 49 83 E4 03        and         r12,3
  00000000000046C7: 4D 89 FD           mov         r13,r15
  00000000000046CA: 49 83 E5 FC        and         r13,0FFFFFFFFFFFFFFFCh
  00000000000046CE: 4D 89 CE           mov         r14,r9
  00000000000046D1: 4D 0F AC CF 02     shrd        r15,r9,2
  00000000000046D6: 49 C1 E9 02        shr         r9,2
  00000000000046DA: 4D 01 EF           add         r15,r13
  00000000000046DD: 4D 11 F1           adc         r9,r14
  00000000000046E0: 4D 01 FA           add         r10,r15
  00000000000046E3: 4D 11 CB           adc         r11,r9
  00000000000046E6: 49 83 D4 00        adc         r12,0
  00000000000046EA: 4D 89 D5           mov         r13,r10
  00000000000046ED: 4D 89 DE           mov         r14,r11
  00000000000046F0: 4D 89 E7           mov         r15,r12
  00000000000046F3: 49 83 EA FB        sub         r10,0FFFFFFFFFFFFFFFBh
  00000000000046F7: 49 83 DB FF        sbb         r11,0FFFFFFFFFFFFFFFFh
  00000000000046FB: 49 83 DC 03        sbb         r12,3
  00000000000046FF: 4D 0F 42 D5        cmovb       r10,r13
  0000000000004703: 4D 0F 42 DE        cmovb       r11,r14
  0000000000004707: 4D 0F 42 E7        cmovb       r12,r15
  000000000000470B: 4C 03 95 B0 00 00  add         r10,qword ptr [rbp+0B0h]
                    00
  0000000000004712: 4C 13 9D B8 00 00  adc         r11,qword ptr [rbp+0B8h]
                    00
  0000000000004719: 0F 28 75 00        movaps      xmm6,xmmword ptr [rbp]
  000000000000471D: 0F 28 7D 10        movaps      xmm7,xmmword ptr [rbp+10h]
  0000000000004721: 44 0F 28 45 20     movaps      xmm8,xmmword ptr [rbp+20h]
  0000000000004726: 44 0F 28 4D 30     movaps      xmm9,xmmword ptr [rbp+30h]
  000000000000472B: 44 0F 28 55 40     movaps      xmm10,xmmword ptr [rbp+40h]
  0000000000004730: 44 0F 28 5D 50     movaps      xmm11,xmmword ptr [rbp+50h]
  0000000000004735: 44 0F 28 65 60     movaps      xmm12,xmmword ptr [rbp+60h]
  000000000000473A: 44 0F 28 6D 70     movaps      xmm13,xmmword ptr [rbp+70h]
  000000000000473F: 44 0F 28 B5 80 00  movaps      xmm14,xmmword ptr [rbp+80h]
                    00 00
  0000000000004747: 44 0F 28 BD 90 00  movaps      xmm15,xmmword ptr [rbp+90h]
                    00 00
  000000000000474F: 48 81 C4 E0 01 00  add         rsp,1E0h
                    00
  0000000000004756: 41 59              pop         r9
  0000000000004758: 4D 89 11           mov         qword ptr [r9],r10
  000000000000475B: 4D 89 59 08        mov         qword ptr [r9+8],r11
  000000000000475F: 41 5F              pop         r15
  0000000000004761: 41 5E              pop         r14
  0000000000004763: 41 5D              pop         r13
  0000000000004765: 41 5C              pop         r12
  0000000000004767: 5B                 pop         rbx
  0000000000004768: 5D                 pop         rbp
  0000000000004769: 48 8B 7C 24 08     mov         rdi,qword ptr [rsp+8]
  000000000000476E: 48 8B 74 24 10     mov         rsi,qword ptr [rsp+10h]
  0000000000004773: F3 C3              rep ret
L$seal_sse_128:
  0000000000004775: F3 0F 6F 05 00 00  movdqu      xmm0,xmmword ptr [.rdata]
                    00 00
  000000000000477D: 66 0F 6F C8        movdqa      xmm1,xmm0
  0000000000004781: 66 0F 6F D0        movdqa      xmm2,xmm0
  0000000000004785: F3 41 0F 6F 21     movdqu      xmm4,xmmword ptr [r9]
  000000000000478A: 66 0F 6F EC        movdqa      xmm5,xmm4
  000000000000478E: 66 0F 6F F4        movdqa      xmm6,xmm4
  0000000000004792: F3 45 0F 6F 41 10  movdqu      xmm8,xmmword ptr [r9+10h]
  0000000000004798: 66 45 0F 6F C8     movdqa      xmm9,xmm8
  000000000000479D: 66 45 0F 6F D0     movdqa      xmm10,xmm8
  00000000000047A2: F3 45 0F 6F 71 20  movdqu      xmm14,xmmword ptr [r9+20h]
  00000000000047A8: 66 45 0F 6F E6     movdqa      xmm12,xmm14
  00000000000047AD: 66 44 0F FE 25 70  paddd       xmm12,xmmword ptr [.rdata+70h]
                    00 00 00
  00000000000047B6: 66 45 0F 6F EC     movdqa      xmm13,xmm12
  00000000000047BB: 66 44 0F FE 2D 70  paddd       xmm13,xmmword ptr [.rdata+70h]
                    00 00 00
  00000000000047C4: 66 0F 6F FC        movdqa      xmm7,xmm4
  00000000000047C8: 66 45 0F 6F D8     movdqa      xmm11,xmm8
  00000000000047CD: 66 45 0F 6F FC     movdqa      xmm15,xmm12
  00000000000047D2: 41 BA 0A 00 00 00  mov         r10d,0Ah
L$seal_sse_128_rounds:
  00000000000047D8: 66 0F FE C4        paddd       xmm0,xmm4
  00000000000047DC: 66 44 0F EF E0     pxor        xmm12,xmm0
  00000000000047E1: 66 44 0F 38 00 25  pshufb      xmm12,xmmword ptr [.rdata+40h]
                    40 00 00 00
  00000000000047EB: 66 45 0F FE C4     paddd       xmm8,xmm12
  00000000000047F0: 66 41 0F EF E0     pxor        xmm4,xmm8
  00000000000047F5: 66 0F 6F DC        movdqa      xmm3,xmm4
  00000000000047F9: 66 0F 72 F3 0C     pslld       xmm3,0Ch
  00000000000047FE: 66 0F 72 D4 14     psrld       xmm4,14h
  0000000000004803: 66 0F EF E3        pxor        xmm4,xmm3
  0000000000004807: 66 0F FE C4        paddd       xmm0,xmm4
  000000000000480B: 66 44 0F EF E0     pxor        xmm12,xmm0
  0000000000004810: 66 44 0F 38 00 25  pshufb      xmm12,xmmword ptr [.rdata+20h]
                    20 00 00 00
  000000000000481A: 66 45 0F FE C4     paddd       xmm8,xmm12
  000000000000481F: 66 41 0F EF E0     pxor        xmm4,xmm8
  0000000000004824: 66 0F 6F DC        movdqa      xmm3,xmm4
  0000000000004828: 66 0F 72 F3 07     pslld       xmm3,7
  000000000000482D: 66 0F 72 D4 19     psrld       xmm4,19h
  0000000000004832: 66 0F EF E3        pxor        xmm4,xmm3
  0000000000004836: 66 0F 3A 0F E4 04  palignr     xmm4,xmm4,4
  000000000000483C: 66 45 0F 3A 0F C0  palignr     xmm8,xmm8,8
                    08
  0000000000004843: 66 45 0F 3A 0F E4  palignr     xmm12,xmm12,0Ch
                    0C
  000000000000484A: 66 0F FE CD        paddd       xmm1,xmm5
  000000000000484E: 66 44 0F EF E9     pxor        xmm13,xmm1
  0000000000004853: 66 44 0F 38 00 2D  pshufb      xmm13,xmmword ptr [.rdata+40h]
                    40 00 00 00
  000000000000485D: 66 45 0F FE CD     paddd       xmm9,xmm13
  0000000000004862: 66 41 0F EF E9     pxor        xmm5,xmm9
  0000000000004867: 66 0F 6F DD        movdqa      xmm3,xmm5
  000000000000486B: 66 0F 72 F3 0C     pslld       xmm3,0Ch
  0000000000004870: 66 0F 72 D5 14     psrld       xmm5,14h
  0000000000004875: 66 0F EF EB        pxor        xmm5,xmm3
  0000000000004879: 66 0F FE CD        paddd       xmm1,xmm5
  000000000000487D: 66 44 0F EF E9     pxor        xmm13,xmm1
  0000000000004882: 66 44 0F 38 00 2D  pshufb      xmm13,xmmword ptr [.rdata+20h]
                    20 00 00 00
  000000000000488C: 66 45 0F FE CD     paddd       xmm9,xmm13
  0000000000004891: 66 41 0F EF E9     pxor        xmm5,xmm9
  0000000000004896: 66 0F 6F DD        movdqa      xmm3,xmm5
  000000000000489A: 66 0F 72 F3 07     pslld       xmm3,7
  000000000000489F: 66 0F 72 D5 19     psrld       xmm5,19h
  00000000000048A4: 66 0F EF EB        pxor        xmm5,xmm3
  00000000000048A8: 66 0F 3A 0F ED 04  palignr     xmm5,xmm5,4
  00000000000048AE: 66 45 0F 3A 0F C9  palignr     xmm9,xmm9,8
                    08
  00000000000048B5: 66 45 0F 3A 0F ED  palignr     xmm13,xmm13,0Ch
                    0C
  00000000000048BC: 66 0F FE D6        paddd       xmm2,xmm6
  00000000000048C0: 66 44 0F EF F2     pxor        xmm14,xmm2
  00000000000048C5: 66 44 0F 38 00 35  pshufb      xmm14,xmmword ptr [.rdata+40h]
                    40 00 00 00
  00000000000048CF: 66 45 0F FE D6     paddd       xmm10,xmm14
  00000000000048D4: 66 41 0F EF F2     pxor        xmm6,xmm10
  00000000000048D9: 66 0F 6F DE        movdqa      xmm3,xmm6
  00000000000048DD: 66 0F 72 F3 0C     pslld       xmm3,0Ch
  00000000000048E2: 66 0F 72 D6 14     psrld       xmm6,14h
  00000000000048E7: 66 0F EF F3        pxor        xmm6,xmm3
  00000000000048EB: 66 0F FE D6        paddd       xmm2,xmm6
  00000000000048EF: 66 44 0F EF F2     pxor        xmm14,xmm2
  00000000000048F4: 66 44 0F 38 00 35  pshufb      xmm14,xmmword ptr [.rdata+20h]
                    20 00 00 00
  00000000000048FE: 66 45 0F FE D6     paddd       xmm10,xmm14
  0000000000004903: 66 41 0F EF F2     pxor        xmm6,xmm10
  0000000000004908: 66 0F 6F DE        movdqa      xmm3,xmm6
  000000000000490C: 66 0F 72 F3 07     pslld       xmm3,7
  0000000000004911: 66 0F 72 D6 19     psrld       xmm6,19h
  0000000000004916: 66 0F EF F3        pxor        xmm6,xmm3
  000000000000491A: 66 0F 3A 0F F6 04  palignr     xmm6,xmm6,4
  0000000000004920: 66 45 0F 3A 0F D2  palignr     xmm10,xmm10,8
                    08
  0000000000004927: 66 45 0F 3A 0F F6  palignr     xmm14,xmm14,0Ch
                    0C
  000000000000492E: 66 0F FE C4        paddd       xmm0,xmm4
  0000000000004932: 66 44 0F EF E0     pxor        xmm12,xmm0
  0000000000004937: 66 44 0F 38 00 25  pshufb      xmm12,xmmword ptr [.rdata+40h]
                    40 00 00 00
  0000000000004941: 66 45 0F FE C4     paddd       xmm8,xmm12
  0000000000004946: 66 41 0F EF E0     pxor        xmm4,xmm8
  000000000000494B: 66 0F 6F DC        movdqa      xmm3,xmm4
  000000000000494F: 66 0F 72 F3 0C     pslld       xmm3,0Ch
  0000000000004954: 66 0F 72 D4 14     psrld       xmm4,14h
  0000000000004959: 66 0F EF E3        pxor        xmm4,xmm3
  000000000000495D: 66 0F FE C4        paddd       xmm0,xmm4
  0000000000004961: 66 44 0F EF E0     pxor        xmm12,xmm0
  0000000000004966: 66 44 0F 38 00 25  pshufb      xmm12,xmmword ptr [.rdata+20h]
                    20 00 00 00
  0000000000004970: 66 45 0F FE C4     paddd       xmm8,xmm12
  0000000000004975: 66 41 0F EF E0     pxor        xmm4,xmm8
  000000000000497A: 66 0F 6F DC        movdqa      xmm3,xmm4
  000000000000497E: 66 0F 72 F3 07     pslld       xmm3,7
  0000000000004983: 66 0F 72 D4 19     psrld       xmm4,19h
  0000000000004988: 66 0F EF E3        pxor        xmm4,xmm3
  000000000000498C: 66 0F 3A 0F E4 0C  palignr     xmm4,xmm4,0Ch
  0000000000004992: 66 45 0F 3A 0F C0  palignr     xmm8,xmm8,8
                    08
  0000000000004999: 66 45 0F 3A 0F E4  palignr     xmm12,xmm12,4
                    04
  00000000000049A0: 66 0F FE CD        paddd       xmm1,xmm5
  00000000000049A4: 66 44 0F EF E9     pxor        xmm13,xmm1
  00000000000049A9: 66 44 0F 38 00 2D  pshufb      xmm13,xmmword ptr [.rdata+40h]
                    40 00 00 00
  00000000000049B3: 66 45 0F FE CD     paddd       xmm9,xmm13
  00000000000049B8: 66 41 0F EF E9     pxor        xmm5,xmm9
  00000000000049BD: 66 0F 6F DD        movdqa      xmm3,xmm5
  00000000000049C1: 66 0F 72 F3 0C     pslld       xmm3,0Ch
  00000000000049C6: 66 0F 72 D5 14     psrld       xmm5,14h
  00000000000049CB: 66 0F EF EB        pxor        xmm5,xmm3
  00000000000049CF: 66 0F FE CD        paddd       xmm1,xmm5
  00000000000049D3: 66 44 0F EF E9     pxor        xmm13,xmm1
  00000000000049D8: 66 44 0F 38 00 2D  pshufb      xmm13,xmmword ptr [.rdata+20h]
                    20 00 00 00
  00000000000049E2: 66 45 0F FE CD     paddd       xmm9,xmm13
  00000000000049E7: 66 41 0F EF E9     pxor        xmm5,xmm9
  00000000000049EC: 66 0F 6F DD        movdqa      xmm3,xmm5
  00000000000049F0: 66 0F 72 F3 07     pslld       xmm3,7
  00000000000049F5: 66 0F 72 D5 19     psrld       xmm5,19h
  00000000000049FA: 66 0F EF EB        pxor        xmm5,xmm3
  00000000000049FE: 66 0F 3A 0F ED 0C  palignr     xmm5,xmm5,0Ch
  0000000000004A04: 66 45 0F 3A 0F C9  palignr     xmm9,xmm9,8
                    08
  0000000000004A0B: 66 45 0F 3A 0F ED  palignr     xmm13,xmm13,4
                    04
  0000000000004A12: 66 0F FE D6        paddd       xmm2,xmm6
  0000000000004A16: 66 44 0F EF F2     pxor        xmm14,xmm2
  0000000000004A1B: 66 44 0F 38 00 35  pshufb      xmm14,xmmword ptr [.rdata+40h]
                    40 00 00 00
  0000000000004A25: 66 45 0F FE D6     paddd       xmm10,xmm14
  0000000000004A2A: 66 41 0F EF F2     pxor        xmm6,xmm10
  0000000000004A2F: 66 0F 6F DE        movdqa      xmm3,xmm6
  0000000000004A33: 66 0F 72 F3 0C     pslld       xmm3,0Ch
  0000000000004A38: 66 0F 72 D6 14     psrld       xmm6,14h
  0000000000004A3D: 66 0F EF F3        pxor        xmm6,xmm3
  0000000000004A41: 66 0F FE D6        paddd       xmm2,xmm6
  0000000000004A45: 66 44 0F EF F2     pxor        xmm14,xmm2
  0000000000004A4A: 66 44 0F 38 00 35  pshufb      xmm14,xmmword ptr [.rdata+20h]
                    20 00 00 00
  0000000000004A54: 66 45 0F FE D6     paddd       xmm10,xmm14
  0000000000004A59: 66 41 0F EF F2     pxor        xmm6,xmm10
  0000000000004A5E: 66 0F 6F DE        movdqa      xmm3,xmm6
  0000000000004A62: 66 0F 72 F3 07     pslld       xmm3,7
  0000000000004A67: 66 0F 72 D6 19     psrld       xmm6,19h
  0000000000004A6C: 66 0F EF F3        pxor        xmm6,xmm3
  0000000000004A70: 66 0F 3A 0F F6 0C  palignr     xmm6,xmm6,0Ch
  0000000000004A76: 66 45 0F 3A 0F D2  palignr     xmm10,xmm10,8
                    08
  0000000000004A7D: 66 45 0F 3A 0F F6  palignr     xmm14,xmm14,4
                    04
  0000000000004A84: 49 FF CA           dec         r10
  0000000000004A87: 0F 85 4B FD FF FF  jne         L$seal_sse_128_rounds
  0000000000004A8D: 66 0F FE 05 00 00  paddd       xmm0,xmmword ptr [.rdata]
                    00 00
  0000000000004A95: 66 0F FE 0D 00 00  paddd       xmm1,xmmword ptr [.rdata]
                    00 00
  0000000000004A9D: 66 0F FE 15 00 00  paddd       xmm2,xmmword ptr [.rdata]
                    00 00
  0000000000004AA5: 66 0F FE E7        paddd       xmm4,xmm7
  0000000000004AA9: 66 0F FE EF        paddd       xmm5,xmm7
  0000000000004AAD: 66 0F FE F7        paddd       xmm6,xmm7
  0000000000004AB1: 66 45 0F FE C3     paddd       xmm8,xmm11
  0000000000004AB6: 66 45 0F FE CB     paddd       xmm9,xmm11
  0000000000004ABB: 66 45 0F FE E7     paddd       xmm12,xmm15
  0000000000004AC0: 66 44 0F FE 3D 70  paddd       xmm15,xmmword ptr [.rdata+70h]
                    00 00 00
  0000000000004AC9: 66 45 0F FE EF     paddd       xmm13,xmm15
  0000000000004ACE: 66 0F DB 15 A0 00  pand        xmm2,xmmword ptr [.rdata+0A0h]
                    00 00
  0000000000004AD6: 66 0F 7F 95 A0 00  movdqa      xmmword ptr [rbp+0A0h],xmm2
                    00 00
  0000000000004ADE: 66 0F 7F B5 B0 00  movdqa      xmmword ptr [rbp+0B0h],xmm6
                    00 00
  0000000000004AE6: 4D 89 C0           mov         r8,r8
  0000000000004AE9: E8 12 B5 FF FF     call        poly_hash_ad_internal
  0000000000004AEE: E9 5E F7 FF FF     jmp         L$seal_sse_128_tail_xor
L$SEH_end_chacha20_poly1305_seal:
  0000000000004AF3: 90                 nop
  0000000000004AF4: 90                 nop
  0000000000004AF5: 90                 nop
  0000000000004AF6: 90                 nop
  0000000000004AF7: 90                 nop
  0000000000004AF8: 90                 nop
  0000000000004AF9: 90                 nop
  0000000000004AFA: 90                 nop
  0000000000004AFB: 90                 nop
  0000000000004AFC: 90                 nop
  0000000000004AFD: 90                 nop
  0000000000004AFE: 90                 nop
  0000000000004AFF: 90                 nop
chacha20_poly1305_open_avx2:
  0000000000004B00: C5 F8 77           vzeroupper
  0000000000004B03: C5 FD 6F 05 00 00  vmovdqa     ymm0,ymmword ptr [.rdata]
                    00 00
  0000000000004B0B: C4 C2 7D 5A 21     vbroadcasti128 ymm4,oword ptr [r9]
  0000000000004B10: C4 42 7D 5A 41 10  vbroadcasti128 ymm8,oword ptr [r9+10h]
  0000000000004B16: C4 42 7D 5A 61 20  vbroadcasti128 ymm12,oword ptr [r9+20h]
  0000000000004B1C: C5 1D FE 25 60 00  vpaddd      ymm12,ymm12,ymmword ptr [.rdata+60h]
                    00 00
  0000000000004B24: 48 81 FB C0 00 00  cmp         rbx,0C0h
                    00
  0000000000004B2B: 0F 86 63 1F 00 00  jbe         L$open_avx2_192
  0000000000004B31: 48 81 FB 40 01 00  cmp         rbx,140h
                    00
  0000000000004B38: 0F 86 BF 23 00 00  jbe         L$open_avx2_320
  0000000000004B3E: C5 FD 7F A5 E0 00  vmovdqa     ymmword ptr [rbp+0E0h],ymm4
                    00 00
  0000000000004B46: C5 7D 7F 85 00 01  vmovdqa     ymmword ptr [rbp+100h],ymm8
                    00 00
  0000000000004B4E: C5 7D 7F A5 40 01  vmovdqa     ymmword ptr [rbp+140h],ymm12
                    00 00
  0000000000004B56: 41 BA 0A 00 00 00  mov         r10d,0Ah
L$open_avx2_init_rounds:
  0000000000004B5C: C5 FD FE C4        vpaddd      ymm0,ymm0,ymm4
  0000000000004B60: C5 1D EF E0        vpxor       ymm12,ymm12,ymm0
  0000000000004B64: C4 62 1D 00 25 40  vpshufb     ymm12,ymm12,ymmword ptr [.rdata+40h]
                    00 00 00
  0000000000004B6D: C4 41 3D FE C4     vpaddd      ymm8,ymm8,ymm12
  0000000000004B72: C4 C1 5D EF E0     vpxor       ymm4,ymm4,ymm8
  0000000000004B77: C5 E5 72 D4 14     vpsrld      ymm3,ymm4,14h
  0000000000004B7C: C5 DD 72 F4 0C     vpslld      ymm4,ymm4,0Ch
  0000000000004B81: C5 DD EF E3        vpxor       ymm4,ymm4,ymm3
  0000000000004B85: C5 FD FE C4        vpaddd      ymm0,ymm0,ymm4
  0000000000004B89: C5 1D EF E0        vpxor       ymm12,ymm12,ymm0
  0000000000004B8D: C4 62 1D 00 25 20  vpshufb     ymm12,ymm12,ymmword ptr [.rdata+20h]
                    00 00 00
  0000000000004B96: C4 41 3D FE C4     vpaddd      ymm8,ymm8,ymm12
  0000000000004B9B: C4 C1 5D EF E0     vpxor       ymm4,ymm4,ymm8
  0000000000004BA0: C5 E5 72 F4 07     vpslld      ymm3,ymm4,7
  0000000000004BA5: C5 DD 72 D4 19     vpsrld      ymm4,ymm4,19h
  0000000000004BAA: C5 DD EF E3        vpxor       ymm4,ymm4,ymm3
  0000000000004BAE: C4 43 1D 0F E4 0C  vpalignr    ymm12,ymm12,ymm12,0Ch
  0000000000004BB4: C4 43 3D 0F C0 08  vpalignr    ymm8,ymm8,ymm8,8
  0000000000004BBA: C4 E3 5D 0F E4 04  vpalignr    ymm4,ymm4,ymm4,4
  0000000000004BC0: C5 FD FE C4        vpaddd      ymm0,ymm0,ymm4
  0000000000004BC4: C5 1D EF E0        vpxor       ymm12,ymm12,ymm0
  0000000000004BC8: C4 62 1D 00 25 40  vpshufb     ymm12,ymm12,ymmword ptr [.rdata+40h]
                    00 00 00
  0000000000004BD1: C4 41 3D FE C4     vpaddd      ymm8,ymm8,ymm12
  0000000000004BD6: C4 C1 5D EF E0     vpxor       ymm4,ymm4,ymm8
  0000000000004BDB: C5 E5 72 D4 14     vpsrld      ymm3,ymm4,14h
  0000000000004BE0: C5 DD 72 F4 0C     vpslld      ymm4,ymm4,0Ch
  0000000000004BE5: C5 DD EF E3        vpxor       ymm4,ymm4,ymm3
  0000000000004BE9: C5 FD FE C4        vpaddd      ymm0,ymm0,ymm4
  0000000000004BED: C5 1D EF E0        vpxor       ymm12,ymm12,ymm0
  0000000000004BF1: C4 62 1D 00 25 20  vpshufb     ymm12,ymm12,ymmword ptr [.rdata+20h]
                    00 00 00
  0000000000004BFA: C4 41 3D FE C4     vpaddd      ymm8,ymm8,ymm12
  0000000000004BFF: C4 C1 5D EF E0     vpxor       ymm4,ymm4,ymm8
  0000000000004C04: C5 E5 72 F4 07     vpslld      ymm3,ymm4,7
  0000000000004C09: C5 DD 72 D4 19     vpsrld      ymm4,ymm4,19h
  0000000000004C0E: C5 DD EF E3        vpxor       ymm4,ymm4,ymm3
  0000000000004C12: C4 43 1D 0F E4 04  vpalignr    ymm12,ymm12,ymm12,4
  0000000000004C18: C4 43 3D 0F C0 08  vpalignr    ymm8,ymm8,ymm8,8
  0000000000004C1E: C4 E3 5D 0F E4 0C  vpalignr    ymm4,ymm4,ymm4,0Ch
  0000000000004C24: 49 FF CA           dec         r10
  0000000000004C27: 0F 85 2F FF FF FF  jne         L$open_avx2_init_rounds
  0000000000004C2D: C5 FD FE 05 00 00  vpaddd      ymm0,ymm0,ymmword ptr [.rdata]
                    00 00
  0000000000004C35: C5 DD FE A5 E0 00  vpaddd      ymm4,ymm4,ymmword ptr [rbp+0E0h]
                    00 00
  0000000000004C3D: C5 3D FE 85 00 01  vpaddd      ymm8,ymm8,ymmword ptr [rbp+100h]
                    00 00
  0000000000004C45: C5 1D FE A5 40 01  vpaddd      ymm12,ymm12,ymmword ptr [rbp+140h]
                    00 00
  0000000000004C4D: C4 E3 5D 46 D8 02  vperm2i128  ymm3,ymm4,ymm0,2
  0000000000004C53: C5 E5 DB 1D A0 00  vpand       ymm3,ymm3,ymmword ptr [.rdata+0A0h]
                    00 00
  0000000000004C5B: C5 FD 7F 9D A0 00  vmovdqa     ymmword ptr [rbp+0A0h],ymm3
                    00 00
  0000000000004C63: C4 E3 5D 46 C0 13  vperm2i128  ymm0,ymm4,ymm0,13h
  0000000000004C69: C4 C3 1D 46 E0 13  vperm2i128  ymm4,ymm12,ymm8,13h
  0000000000004C6F: 4D 89 C0           mov         r8,r8
  0000000000004C72: E8 89 B3 FF FF     call        poly_hash_ad_internal
  0000000000004C77: 48 31 C9           xor         rcx,rcx
L$open_avx2_init_hash:
  0000000000004C7A: 4C 03 14 0E        add         r10,qword ptr [rsi+rcx]
  0000000000004C7E: 4C 13 5C 31 08     adc         r11,qword ptr [rcx+rsi+8]
  0000000000004C83: 49 83 D4 01        adc         r12,1
  0000000000004C87: 48 8B 85 A0 00 00  mov         rax,qword ptr [rbp+0A0h]
                    00
  0000000000004C8E: 49 89 C7           mov         r15,rax
  0000000000004C91: 49 F7 E2           mul         rax,r10
  0000000000004C94: 49 89 C5           mov         r13,rax
  0000000000004C97: 49 89 D6           mov         r14,rdx
  0000000000004C9A: 48 8B 85 A0 00 00  mov         rax,qword ptr [rbp+0A0h]
                    00
  0000000000004CA1: 49 F7 E3           mul         rax,r11
  0000000000004CA4: 4D 0F AF FC        imul        r15,r12
  0000000000004CA8: 49 01 C6           add         r14,rax
  0000000000004CAB: 49 11 D7           adc         r15,rdx
  0000000000004CAE: 48 8B 85 A8 00 00  mov         rax,qword ptr [rbp+0A8h]
                    00
  0000000000004CB5: 49 89 C1           mov         r9,rax
  0000000000004CB8: 49 F7 E2           mul         rax,r10
  0000000000004CBB: 49 01 C6           add         r14,rax
  0000000000004CBE: 48 83 D2 00        adc         rdx,0
  0000000000004CC2: 49 89 D2           mov         r10,rdx
  0000000000004CC5: 48 8B 85 A8 00 00  mov         rax,qword ptr [rbp+0A8h]
                    00
  0000000000004CCC: 49 F7 E3           mul         rax,r11
  0000000000004CCF: 49 01 C7           add         r15,rax
  0000000000004CD2: 48 83 D2 00        adc         rdx,0
  0000000000004CD6: 4D 0F AF CC        imul        r9,r12
  0000000000004CDA: 4D 01 D7           add         r15,r10
  0000000000004CDD: 49 11 D1           adc         r9,rdx
  0000000000004CE0: 4D 89 EA           mov         r10,r13
  0000000000004CE3: 4D 89 F3           mov         r11,r14
  0000000000004CE6: 4D 89 FC           mov         r12,r15
  0000000000004CE9: 49 83 E4 03        and         r12,3
  0000000000004CED: 4D 89 FD           mov         r13,r15
  0000000000004CF0: 49 83 E5 FC        and         r13,0FFFFFFFFFFFFFFFCh
  0000000000004CF4: 4D 89 CE           mov         r14,r9
  0000000000004CF7: 4D 0F AC CF 02     shrd        r15,r9,2
  0000000000004CFC: 49 C1 E9 02        shr         r9,2
  0000000000004D00: 4D 01 EF           add         r15,r13
  0000000000004D03: 4D 11 F1           adc         r9,r14
  0000000000004D06: 4D 01 FA           add         r10,r15
  0000000000004D09: 4D 11 CB           adc         r11,r9
  0000000000004D0C: 49 83 D4 00        adc         r12,0
  0000000000004D10: 48 83 C1 10        add         rcx,10h
  0000000000004D14: 48 83 F9 40        cmp         rcx,40h
  0000000000004D18: 0F 85 5C FF FF FF  jne         L$open_avx2_init_hash
  0000000000004D1E: C5 FD EF 06        vpxor       ymm0,ymm0,ymmword ptr [rsi]
  0000000000004D22: C5 DD EF 66 20     vpxor       ymm4,ymm4,ymmword ptr [rsi+20h]
  0000000000004D27: C5 FE 7F 07        vmovdqu     ymmword ptr [rdi],ymm0
  0000000000004D2B: C5 FE 7F 67 20     vmovdqu     ymmword ptr [rdi+20h],ymm4
  0000000000004D30: 48 8D 76 40        lea         rsi,[rsi+40h]
  0000000000004D34: 48 8D 7F 40        lea         rdi,[rdi+40h]
  0000000000004D38: 48 83 EB 40        sub         rbx,40h
L$open_avx2_main_loop:
  0000000000004D3C: 48 81 FB 00 02 00  cmp         rbx,200h
                    00
  0000000000004D43: 0F 82 96 08 00 00  jb          L$open_avx2_main_loop_done
  0000000000004D49: C5 FD 6F 05 00 00  vmovdqa     ymm0,ymmword ptr [.rdata]
                    00 00
  0000000000004D51: C5 FD 6F A5 E0 00  vmovdqa     ymm4,ymmword ptr [rbp+0E0h]
                    00 00
  0000000000004D59: C5 7D 6F 85 00 01  vmovdqa     ymm8,ymmword ptr [rbp+100h]
                    00 00
  0000000000004D61: C5 FD 6F C8        vmovdqa     ymm1,ymm0
  0000000000004D65: C5 FD 6F EC        vmovdqa     ymm5,ymm4
  0000000000004D69: C4 41 7D 6F C8     vmovdqa     ymm9,ymm8
  0000000000004D6E: C5 FD 6F D0        vmovdqa     ymm2,ymm0
  0000000000004D72: C5 FD 6F F4        vmovdqa     ymm6,ymm4
  0000000000004D76: C4 41 7D 6F D0     vmovdqa     ymm10,ymm8
  0000000000004D7B: C5 FD 6F D8        vmovdqa     ymm3,ymm0
  0000000000004D7F: C5 FD 6F FC        vmovdqa     ymm7,ymm4
  0000000000004D83: C4 41 7D 6F D8     vmovdqa     ymm11,ymm8
  0000000000004D88: C5 7D 6F 25 80 00  vmovdqa     ymm12,ymmword ptr [.rdata+80h]
                    00 00
  0000000000004D90: C5 1D FE BD 40 01  vpaddd      ymm15,ymm12,ymmword ptr [rbp+140h]
                    00 00
  0000000000004D98: C4 41 1D FE F7     vpaddd      ymm14,ymm12,ymm15
  0000000000004D9D: C4 41 1D FE EE     vpaddd      ymm13,ymm12,ymm14
  0000000000004DA2: C4 41 1D FE E5     vpaddd      ymm12,ymm12,ymm13
  0000000000004DA7: C5 7D 7F BD A0 01  vmovdqa     ymmword ptr [rbp+1A0h],ymm15
                    00 00
  0000000000004DAF: C5 7D 7F B5 80 01  vmovdqa     ymmword ptr [rbp+180h],ymm14
                    00 00
  0000000000004DB7: C5 7D 7F AD 60 01  vmovdqa     ymmword ptr [rbp+160h],ymm13
                    00 00
  0000000000004DBF: C5 7D 7F A5 40 01  vmovdqa     ymmword ptr [rbp+140h],ymm12
                    00 00
  0000000000004DC7: 48 31 C9           xor         rcx,rcx
L$open_avx2_main_loop_rounds:
  0000000000004DCA: 4C 03 14 0E        add         r10,qword ptr [rsi+rcx]
  0000000000004DCE: 4C 13 5C 31 08     adc         r11,qword ptr [rcx+rsi+8]
  0000000000004DD3: 49 83 D4 01        adc         r12,1
  0000000000004DD7: C5 7D 7F 85 20 01  vmovdqa     ymmword ptr [rbp+120h],ymm8
                    00 00
  0000000000004DDF: C5 7D 6F 05 40 00  vmovdqa     ymm8,ymmword ptr [.rdata+40h]
                    00 00
  0000000000004DE7: C5 E5 FE DF        vpaddd      ymm3,ymm3,ymm7
  0000000000004DEB: C5 ED FE D6        vpaddd      ymm2,ymm2,ymm6
  0000000000004DEF: C5 F5 FE CD        vpaddd      ymm1,ymm1,ymm5
  0000000000004DF3: C5 FD FE C4        vpaddd      ymm0,ymm0,ymm4
  0000000000004DF7: C5 05 EF FB        vpxor       ymm15,ymm15,ymm3
  0000000000004DFB: C5 0D EF F2        vpxor       ymm14,ymm14,ymm2
  0000000000004DFF: C5 15 EF E9        vpxor       ymm13,ymm13,ymm1
  0000000000004E03: C5 1D EF E0        vpxor       ymm12,ymm12,ymm0
  0000000000004E07: 48 8B 95 A0 00 00  mov         rdx,qword ptr [rbp+0A0h]
                    00
  0000000000004E0E: 49 89 D7           mov         r15,rdx
  0000000000004E11: C4 42 93 F6 F2     mulx        r14,r13,r10
  0000000000004E16: C4 C2 FB F6 D3     mulx        rdx,rax,r11
  0000000000004E1B: 4D 0F AF FC        imul        r15,r12
  0000000000004E1F: 49 01 C6           add         r14,rax
  0000000000004E22: 49 11 D7           adc         r15,rdx
  0000000000004E25: C4 42 05 00 F8     vpshufb     ymm15,ymm15,ymm8
  0000000000004E2A: C4 42 0D 00 F0     vpshufb     ymm14,ymm14,ymm8
  0000000000004E2F: C4 42 15 00 E8     vpshufb     ymm13,ymm13,ymm8
  0000000000004E34: C4 42 1D 00 E0     vpshufb     ymm12,ymm12,ymm8
  0000000000004E39: C4 41 25 FE DF     vpaddd      ymm11,ymm11,ymm15
  0000000000004E3E: C4 41 2D FE D6     vpaddd      ymm10,ymm10,ymm14
  0000000000004E43: C4 41 35 FE CD     vpaddd      ymm9,ymm9,ymm13
  0000000000004E48: C5 1D FE 85 20 01  vpaddd      ymm8,ymm12,ymmword ptr [rbp+120h]
                    00 00
  0000000000004E50: C4 C1 45 EF FB     vpxor       ymm7,ymm7,ymm11
  0000000000004E55: 48 8B 95 A8 00 00  mov         rdx,qword ptr [rbp+0A8h]
                    00
  0000000000004E5C: C4 C2 AB F6 C2     mulx        rax,r10,r10
  0000000000004E61: 4D 01 D6           add         r14,r10
  0000000000004E64: C4 42 A3 F6 CB     mulx        r9,r11,r11
  0000000000004E69: 4D 11 DF           adc         r15,r11
  0000000000004E6C: 49 83 D1 00        adc         r9,0
  0000000000004E70: 49 0F AF D4        imul        rdx,r12
  0000000000004E74: C4 C1 4D EF F2     vpxor       ymm6,ymm6,ymm10
  0000000000004E79: C4 C1 55 EF E9     vpxor       ymm5,ymm5,ymm9
  0000000000004E7E: C4 C1 5D EF E0     vpxor       ymm4,ymm4,ymm8
  0000000000004E83: C5 7D 7F 85 20 01  vmovdqa     ymmword ptr [rbp+120h],ymm8
                    00 00
  0000000000004E8B: C5 BD 72 D7 14     vpsrld      ymm8,ymm7,14h
  0000000000004E90: C5 C5 72 F7 0C     vpslld      ymm7,ymm7,0Ch
  0000000000004E95: C4 C1 45 EF F8     vpxor       ymm7,ymm7,ymm8
  0000000000004E9A: C5 BD 72 D6 14     vpsrld      ymm8,ymm6,14h
  0000000000004E9F: C5 CD 72 F6 0C     vpslld      ymm6,ymm6,0Ch
  0000000000004EA4: C4 C1 4D EF F0     vpxor       ymm6,ymm6,ymm8
  0000000000004EA9: C5 BD 72 D5 14     vpsrld      ymm8,ymm5,14h
  0000000000004EAE: C5 D5 72 F5 0C     vpslld      ymm5,ymm5,0Ch
  0000000000004EB3: 49 01 C7           add         r15,rax
  0000000000004EB6: 49 11 D1           adc         r9,rdx
  0000000000004EB9: C4 C1 55 EF E8     vpxor       ymm5,ymm5,ymm8
  0000000000004EBE: C5 BD 72 D4 14     vpsrld      ymm8,ymm4,14h
  0000000000004EC3: C5 DD 72 F4 0C     vpslld      ymm4,ymm4,0Ch
  0000000000004EC8: C4 C1 5D EF E0     vpxor       ymm4,ymm4,ymm8
  0000000000004ECD: C5 7D 6F 05 20 00  vmovdqa     ymm8,ymmword ptr [.rdata+20h]
                    00 00
  0000000000004ED5: C5 E5 FE DF        vpaddd      ymm3,ymm3,ymm7
  0000000000004ED9: C5 ED FE D6        vpaddd      ymm2,ymm2,ymm6
  0000000000004EDD: C5 F5 FE CD        vpaddd      ymm1,ymm1,ymm5
  0000000000004EE1: C5 FD FE C4        vpaddd      ymm0,ymm0,ymm4
  0000000000004EE5: C5 05 EF FB        vpxor       ymm15,ymm15,ymm3
  0000000000004EE9: 4D 89 EA           mov         r10,r13
  0000000000004EEC: 4D 89 F3           mov         r11,r14
  0000000000004EEF: 4D 89 FC           mov         r12,r15
  0000000000004EF2: 49 83 E4 03        and         r12,3
  0000000000004EF6: 4D 89 FD           mov         r13,r15
  0000000000004EF9: 49 83 E5 FC        and         r13,0FFFFFFFFFFFFFFFCh
  0000000000004EFD: 4D 89 CE           mov         r14,r9
  0000000000004F00: 4D 0F AC CF 02     shrd        r15,r9,2
  0000000000004F05: 49 C1 E9 02        shr         r9,2
  0000000000004F09: 4D 01 EF           add         r15,r13
  0000000000004F0C: 4D 11 F1           adc         r9,r14
  0000000000004F0F: 4D 01 FA           add         r10,r15
  0000000000004F12: 4D 11 CB           adc         r11,r9
  0000000000004F15: 49 83 D4 00        adc         r12,0
  0000000000004F19: C5 0D EF F2        vpxor       ymm14,ymm14,ymm2
  0000000000004F1D: C5 15 EF E9        vpxor       ymm13,ymm13,ymm1
  0000000000004F21: C5 1D EF E0        vpxor       ymm12,ymm12,ymm0
  0000000000004F25: C4 42 05 00 F8     vpshufb     ymm15,ymm15,ymm8
  0000000000004F2A: C4 42 0D 00 F0     vpshufb     ymm14,ymm14,ymm8
  0000000000004F2F: C4 42 15 00 E8     vpshufb     ymm13,ymm13,ymm8
  0000000000004F34: C4 42 1D 00 E0     vpshufb     ymm12,ymm12,ymm8
  0000000000004F39: C4 41 25 FE DF     vpaddd      ymm11,ymm11,ymm15
  0000000000004F3E: C4 41 2D FE D6     vpaddd      ymm10,ymm10,ymm14
  0000000000004F43: 4C 03 54 31 10     add         r10,qword ptr [rcx+rsi+10h]
  0000000000004F48: 4C 13 5C 31 18     adc         r11,qword ptr [rcx+rsi+18h]
  0000000000004F4D: 49 83 D4 01        adc         r12,1
  0000000000004F51: C4 41 35 FE CD     vpaddd      ymm9,ymm9,ymm13
  0000000000004F56: C5 1D FE 85 20 01  vpaddd      ymm8,ymm12,ymmword ptr [rbp+120h]
                    00 00
  0000000000004F5E: C4 C1 45 EF FB     vpxor       ymm7,ymm7,ymm11
  0000000000004F63: C4 C1 4D EF F2     vpxor       ymm6,ymm6,ymm10
  0000000000004F68: C4 C1 55 EF E9     vpxor       ymm5,ymm5,ymm9
  0000000000004F6D: C4 C1 5D EF E0     vpxor       ymm4,ymm4,ymm8
  0000000000004F72: C5 7D 7F 85 20 01  vmovdqa     ymmword ptr [rbp+120h],ymm8
                    00 00
  0000000000004F7A: C5 BD 72 D7 19     vpsrld      ymm8,ymm7,19h
  0000000000004F7F: 48 8B 95 A0 00 00  mov         rdx,qword ptr [rbp+0A0h]
                    00
  0000000000004F86: 49 89 D7           mov         r15,rdx
  0000000000004F89: C4 42 93 F6 F2     mulx        r14,r13,r10
  0000000000004F8E: C4 C2 FB F6 D3     mulx        rdx,rax,r11
  0000000000004F93: 4D 0F AF FC        imul        r15,r12
  0000000000004F97: 49 01 C6           add         r14,rax
  0000000000004F9A: 49 11 D7           adc         r15,rdx
  0000000000004F9D: C5 C5 72 F7 07     vpslld      ymm7,ymm7,7
  0000000000004FA2: C4 C1 45 EF F8     vpxor       ymm7,ymm7,ymm8
  0000000000004FA7: C5 BD 72 D6 19     vpsrld      ymm8,ymm6,19h
  0000000000004FAC: C5 CD 72 F6 07     vpslld      ymm6,ymm6,7
  0000000000004FB1: C4 C1 4D EF F0     vpxor       ymm6,ymm6,ymm8
  0000000000004FB6: C5 BD 72 D5 19     vpsrld      ymm8,ymm5,19h
  0000000000004FBB: C5 D5 72 F5 07     vpslld      ymm5,ymm5,7
  0000000000004FC0: C4 C1 55 EF E8     vpxor       ymm5,ymm5,ymm8
  0000000000004FC5: C5 BD 72 D4 19     vpsrld      ymm8,ymm4,19h
  0000000000004FCA: C5 DD 72 F4 07     vpslld      ymm4,ymm4,7
  0000000000004FCF: C4 C1 5D EF E0     vpxor       ymm4,ymm4,ymm8
  0000000000004FD4: C5 7D 6F 85 20 01  vmovdqa     ymm8,ymmword ptr [rbp+120h]
                    00 00
  0000000000004FDC: C4 E3 45 0F FF 04  vpalignr    ymm7,ymm7,ymm7,4
  0000000000004FE2: C4 43 25 0F DB 08  vpalignr    ymm11,ymm11,ymm11,8
  0000000000004FE8: C4 43 05 0F FF 0C  vpalignr    ymm15,ymm15,ymm15,0Ch
  0000000000004FEE: C4 E3 4D 0F F6 04  vpalignr    ymm6,ymm6,ymm6,4
  0000000000004FF4: C4 43 2D 0F D2 08  vpalignr    ymm10,ymm10,ymm10,8
  0000000000004FFA: C4 43 0D 0F F6 0C  vpalignr    ymm14,ymm14,ymm14,0Ch
  0000000000005000: 48 8B 95 A8 00 00  mov         rdx,qword ptr [rbp+0A8h]
                    00
  0000000000005007: C4 C2 AB F6 C2     mulx        rax,r10,r10
  000000000000500C: 4D 01 D6           add         r14,r10
  000000000000500F: C4 42 A3 F6 CB     mulx        r9,r11,r11
  0000000000005014: 4D 11 DF           adc         r15,r11
  0000000000005017: 49 83 D1 00        adc         r9,0
  000000000000501B: 49 0F AF D4        imul        rdx,r12
  000000000000501F: C4 E3 55 0F ED 04  vpalignr    ymm5,ymm5,ymm5,4
  0000000000005025: C4 43 35 0F C9 08  vpalignr    ymm9,ymm9,ymm9,8
  000000000000502B: C4 43 15 0F ED 0C  vpalignr    ymm13,ymm13,ymm13,0Ch
  0000000000005031: C4 E3 5D 0F E4 04  vpalignr    ymm4,ymm4,ymm4,4
  0000000000005037: C4 43 3D 0F C0 08  vpalignr    ymm8,ymm8,ymm8,8
  000000000000503D: C4 43 1D 0F E4 0C  vpalignr    ymm12,ymm12,ymm12,0Ch
  0000000000005043: C5 7D 7F 85 20 01  vmovdqa     ymmword ptr [rbp+120h],ymm8
                    00 00
  000000000000504B: C5 7D 6F 05 40 00  vmovdqa     ymm8,ymmword ptr [.rdata+40h]
                    00 00
  0000000000005053: C5 E5 FE DF        vpaddd      ymm3,ymm3,ymm7
  0000000000005057: C5 ED FE D6        vpaddd      ymm2,ymm2,ymm6
  000000000000505B: C5 F5 FE CD        vpaddd      ymm1,ymm1,ymm5
  000000000000505F: C5 FD FE C4        vpaddd      ymm0,ymm0,ymm4
  0000000000005063: C5 05 EF FB        vpxor       ymm15,ymm15,ymm3
  0000000000005067: C5 0D EF F2        vpxor       ymm14,ymm14,ymm2
  000000000000506B: C5 15 EF E9        vpxor       ymm13,ymm13,ymm1
  000000000000506F: C5 1D EF E0        vpxor       ymm12,ymm12,ymm0
  0000000000005073: C4 42 05 00 F8     vpshufb     ymm15,ymm15,ymm8
  0000000000005078: C4 42 0D 00 F0     vpshufb     ymm14,ymm14,ymm8
  000000000000507D: 49 01 C7           add         r15,rax
  0000000000005080: 49 11 D1           adc         r9,rdx
  0000000000005083: C4 42 15 00 E8     vpshufb     ymm13,ymm13,ymm8
  0000000000005088: C4 42 1D 00 E0     vpshufb     ymm12,ymm12,ymm8
  000000000000508D: C4 41 25 FE DF     vpaddd      ymm11,ymm11,ymm15
  0000000000005092: C4 41 2D FE D6     vpaddd      ymm10,ymm10,ymm14
  0000000000005097: C4 41 35 FE CD     vpaddd      ymm9,ymm9,ymm13
  000000000000509C: C5 1D FE 85 20 01  vpaddd      ymm8,ymm12,ymmword ptr [rbp+120h]
                    00 00
  00000000000050A4: C4 C1 45 EF FB     vpxor       ymm7,ymm7,ymm11
  00000000000050A9: C4 C1 4D EF F2     vpxor       ymm6,ymm6,ymm10
  00000000000050AE: C4 C1 55 EF E9     vpxor       ymm5,ymm5,ymm9
  00000000000050B3: 4D 89 EA           mov         r10,r13
  00000000000050B6: 4D 89 F3           mov         r11,r14
  00000000000050B9: 4D 89 FC           mov         r12,r15
  00000000000050BC: 49 83 E4 03        and         r12,3
  00000000000050C0: 4D 89 FD           mov         r13,r15
  00000000000050C3: 49 83 E5 FC        and         r13,0FFFFFFFFFFFFFFFCh
  00000000000050C7: 4D 89 CE           mov         r14,r9
  00000000000050CA: 4D 0F AC CF 02     shrd        r15,r9,2
  00000000000050CF: 49 C1 E9 02        shr         r9,2
  00000000000050D3: 4D 01 EF           add         r15,r13
  00000000000050D6: 4D 11 F1           adc         r9,r14
  00000000000050D9: 4D 01 FA           add         r10,r15
  00000000000050DC: 4D 11 CB           adc         r11,r9
  00000000000050DF: 49 83 D4 00        adc         r12,0
  00000000000050E3: C4 C1 5D EF E0     vpxor       ymm4,ymm4,ymm8
  00000000000050E8: C5 7D 7F 85 20 01  vmovdqa     ymmword ptr [rbp+120h],ymm8
                    00 00
  00000000000050F0: C5 BD 72 D7 14     vpsrld      ymm8,ymm7,14h
  00000000000050F5: C5 C5 72 F7 0C     vpslld      ymm7,ymm7,0Ch
  00000000000050FA: C4 C1 45 EF F8     vpxor       ymm7,ymm7,ymm8
  00000000000050FF: C5 BD 72 D6 14     vpsrld      ymm8,ymm6,14h
  0000000000005104: C5 CD 72 F6 0C     vpslld      ymm6,ymm6,0Ch
  0000000000005109: C4 C1 4D EF F0     vpxor       ymm6,ymm6,ymm8
  000000000000510E: 4C 03 54 31 20     add         r10,qword ptr [rcx+rsi+20h]
  0000000000005113: 4C 13 5C 31 28     adc         r11,qword ptr [rcx+rsi+28h]
  0000000000005118: 49 83 D4 01        adc         r12,1
  000000000000511C: 48 8D 49 30        lea         rcx,[rcx+30h]
  0000000000005120: C5 BD 72 D5 14     vpsrld      ymm8,ymm5,14h
  0000000000005125: C5 D5 72 F5 0C     vpslld      ymm5,ymm5,0Ch
  000000000000512A: C4 C1 55 EF E8     vpxor       ymm5,ymm5,ymm8
  000000000000512F: C5 BD 72 D4 14     vpsrld      ymm8,ymm4,14h
  0000000000005134: C5 DD 72 F4 0C     vpslld      ymm4,ymm4,0Ch
  0000000000005139: C4 C1 5D EF E0     vpxor       ymm4,ymm4,ymm8
  000000000000513E: C5 7D 6F 05 20 00  vmovdqa     ymm8,ymmword ptr [.rdata+20h]
                    00 00
  0000000000005146: C5 E5 FE DF        vpaddd      ymm3,ymm3,ymm7
  000000000000514A: C5 ED FE D6        vpaddd      ymm2,ymm2,ymm6
  000000000000514E: C5 F5 FE CD        vpaddd      ymm1,ymm1,ymm5
  0000000000005152: C5 FD FE C4        vpaddd      ymm0,ymm0,ymm4
  0000000000005156: C5 05 EF FB        vpxor       ymm15,ymm15,ymm3
  000000000000515A: C5 0D EF F2        vpxor       ymm14,ymm14,ymm2
  000000000000515E: C5 15 EF E9        vpxor       ymm13,ymm13,ymm1
  0000000000005162: C5 1D EF E0        vpxor       ymm12,ymm12,ymm0
  0000000000005166: C4 42 05 00 F8     vpshufb     ymm15,ymm15,ymm8
  000000000000516B: C4 42 0D 00 F0     vpshufb     ymm14,ymm14,ymm8
  0000000000005170: C4 42 15 00 E8     vpshufb     ymm13,ymm13,ymm8
  0000000000005175: 48 8B 95 A0 00 00  mov         rdx,qword ptr [rbp+0A0h]
                    00
  000000000000517C: 49 89 D7           mov         r15,rdx
  000000000000517F: C4 42 93 F6 F2     mulx        r14,r13,r10
  0000000000005184: C4 C2 FB F6 D3     mulx        rdx,rax,r11
  0000000000005189: 4D 0F AF FC        imul        r15,r12
  000000000000518D: 49 01 C6           add         r14,rax
  0000000000005190: 49 11 D7           adc         r15,rdx
  0000000000005193: C4 42 1D 00 E0     vpshufb     ymm12,ymm12,ymm8
  0000000000005198: C4 41 25 FE DF     vpaddd      ymm11,ymm11,ymm15
  000000000000519D: C4 41 2D FE D6     vpaddd      ymm10,ymm10,ymm14
  00000000000051A2: C4 41 35 FE CD     vpaddd      ymm9,ymm9,ymm13
  00000000000051A7: C5 1D FE 85 20 01  vpaddd      ymm8,ymm12,ymmword ptr [rbp+120h]
                    00 00
  00000000000051AF: C4 C1 45 EF FB     vpxor       ymm7,ymm7,ymm11
  00000000000051B4: C4 C1 4D EF F2     vpxor       ymm6,ymm6,ymm10
  00000000000051B9: C4 C1 55 EF E9     vpxor       ymm5,ymm5,ymm9
  00000000000051BE: 48 8B 95 A8 00 00  mov         rdx,qword ptr [rbp+0A8h]
                    00
  00000000000051C5: C4 C2 AB F6 C2     mulx        rax,r10,r10
  00000000000051CA: 4D 01 D6           add         r14,r10
  00000000000051CD: C4 42 A3 F6 CB     mulx        r9,r11,r11
  00000000000051D2: 4D 11 DF           adc         r15,r11
  00000000000051D5: 49 83 D1 00        adc         r9,0
  00000000000051D9: 49 0F AF D4        imul        rdx,r12
  00000000000051DD: C4 C1 5D EF E0     vpxor       ymm4,ymm4,ymm8
  00000000000051E2: C5 7D 7F 85 20 01  vmovdqa     ymmword ptr [rbp+120h],ymm8
                    00 00
  00000000000051EA: C5 BD 72 D7 19     vpsrld      ymm8,ymm7,19h
  00000000000051EF: C5 C5 72 F7 07     vpslld      ymm7,ymm7,7
  00000000000051F4: C4 C1 45 EF F8     vpxor       ymm7,ymm7,ymm8
  00000000000051F9: C5 BD 72 D6 19     vpsrld      ymm8,ymm6,19h
  00000000000051FE: C5 CD 72 F6 07     vpslld      ymm6,ymm6,7
  0000000000005203: C4 C1 4D EF F0     vpxor       ymm6,ymm6,ymm8
  0000000000005208: 49 01 C7           add         r15,rax
  000000000000520B: 49 11 D1           adc         r9,rdx
  000000000000520E: C5 BD 72 D5 19     vpsrld      ymm8,ymm5,19h
  0000000000005213: C5 D5 72 F5 07     vpslld      ymm5,ymm5,7
  0000000000005218: C4 C1 55 EF E8     vpxor       ymm5,ymm5,ymm8
  000000000000521D: C5 BD 72 D4 19     vpsrld      ymm8,ymm4,19h
  0000000000005222: C5 DD 72 F4 07     vpslld      ymm4,ymm4,7
  0000000000005227: C4 C1 5D EF E0     vpxor       ymm4,ymm4,ymm8
  000000000000522C: C5 7D 6F 85 20 01  vmovdqa     ymm8,ymmword ptr [rbp+120h]
                    00 00
  0000000000005234: C4 E3 45 0F FF 0C  vpalignr    ymm7,ymm7,ymm7,0Ch
  000000000000523A: C4 43 25 0F DB 08  vpalignr    ymm11,ymm11,ymm11,8
  0000000000005240: C4 43 05 0F FF 04  vpalignr    ymm15,ymm15,ymm15,4
  0000000000005246: C4 E3 4D 0F F6 0C  vpalignr    ymm6,ymm6,ymm6,0Ch
  000000000000524C: C4 43 2D 0F D2 08  vpalignr    ymm10,ymm10,ymm10,8
  0000000000005252: C4 43 0D 0F F6 04  vpalignr    ymm14,ymm14,ymm14,4
  0000000000005258: C4 E3 55 0F ED 0C  vpalignr    ymm5,ymm5,ymm5,0Ch
  000000000000525E: C4 43 35 0F C9 08  vpalignr    ymm9,ymm9,ymm9,8
  0000000000005264: C4 43 15 0F ED 04  vpalignr    ymm13,ymm13,ymm13,4
  000000000000526A: C4 E3 5D 0F E4 0C  vpalignr    ymm4,ymm4,ymm4,0Ch
  0000000000005270: C4 43 3D 0F C0 08  vpalignr    ymm8,ymm8,ymm8,8
  0000000000005276: 4D 89 EA           mov         r10,r13
  0000000000005279: 4D 89 F3           mov         r11,r14
  000000000000527C: 4D 89 FC           mov         r12,r15
  000000000000527F: 49 83 E4 03        and         r12,3
  0000000000005283: 4D 89 FD           mov         r13,r15
  0000000000005286: 49 83 E5 FC        and         r13,0FFFFFFFFFFFFFFFCh
  000000000000528A: 4D 89 CE           mov         r14,r9
  000000000000528D: 4D 0F AC CF 02     shrd        r15,r9,2
  0000000000005292: 49 C1 E9 02        shr         r9,2
  0000000000005296: 4D 01 EF           add         r15,r13
  0000000000005299: 4D 11 F1           adc         r9,r14
  000000000000529C: 4D 01 FA           add         r10,r15
  000000000000529F: 4D 11 CB           adc         r11,r9
  00000000000052A2: 49 83 D4 00        adc         r12,0
  00000000000052A6: C4 43 1D 0F E4 04  vpalignr    ymm12,ymm12,ymm12,4
  00000000000052AC: 48 81 F9 E0 01 00  cmp         rcx,1E0h
                    00
  00000000000052B3: 0F 85 11 FB FF FF  jne         L$open_avx2_main_loop_rounds
  00000000000052B9: C5 E5 FE 1D 00 00  vpaddd      ymm3,ymm3,ymmword ptr [.rdata]
                    00 00
  00000000000052C1: C5 C5 FE BD E0 00  vpaddd      ymm7,ymm7,ymmword ptr [rbp+0E0h]
                    00 00
  00000000000052C9: C5 25 FE 9D 00 01  vpaddd      ymm11,ymm11,ymmword ptr [rbp+100h]
                    00 00
  00000000000052D1: C5 05 FE BD A0 01  vpaddd      ymm15,ymm15,ymmword ptr [rbp+1A0h]
                    00 00
  00000000000052D9: C5 ED FE 15 00 00  vpaddd      ymm2,ymm2,ymmword ptr [.rdata]
                    00 00
  00000000000052E1: C5 CD FE B5 E0 00  vpaddd      ymm6,ymm6,ymmword ptr [rbp+0E0h]
                    00 00
  00000000000052E9: C5 2D FE 95 00 01  vpaddd      ymm10,ymm10,ymmword ptr [rbp+100h]
                    00 00
  00000000000052F1: C5 0D FE B5 80 01  vpaddd      ymm14,ymm14,ymmword ptr [rbp+180h]
                    00 00
  00000000000052F9: C5 F5 FE 0D 00 00  vpaddd      ymm1,ymm1,ymmword ptr [.rdata]
                    00 00
  0000000000005301: C5 D5 FE AD E0 00  vpaddd      ymm5,ymm5,ymmword ptr [rbp+0E0h]
                    00 00
  0000000000005309: C5 35 FE 8D 00 01  vpaddd      ymm9,ymm9,ymmword ptr [rbp+100h]
                    00 00
  0000000000005311: C5 15 FE AD 60 01  vpaddd      ymm13,ymm13,ymmword ptr [rbp+160h]
                    00 00
  0000000000005319: C5 FD FE 05 00 00  vpaddd      ymm0,ymm0,ymmword ptr [.rdata]
                    00 00
  0000000000005321: C5 DD FE A5 E0 00  vpaddd      ymm4,ymm4,ymmword ptr [rbp+0E0h]
                    00 00
  0000000000005329: C5 3D FE 85 00 01  vpaddd      ymm8,ymm8,ymmword ptr [rbp+100h]
                    00 00
  0000000000005331: C5 1D FE A5 40 01  vpaddd      ymm12,ymm12,ymmword ptr [rbp+140h]
                    00 00
  0000000000005339: C5 FD 7F 85 20 01  vmovdqa     ymmword ptr [rbp+120h],ymm0
                    00 00
  0000000000005341: 4C 03 96 E0 01 00  add         r10,qword ptr [rsi+1E0h]
                    00
  0000000000005348: 4C 13 9E E8 01 00  adc         r11,qword ptr [rsi+1E8h]
                    00
  000000000000534F: 49 83 D4 01        adc         r12,1
  0000000000005353: C4 E3 45 46 C3 02  vperm2i128  ymm0,ymm7,ymm3,2
  0000000000005359: C4 E3 45 46 FB 13  vperm2i128  ymm7,ymm7,ymm3,13h
  000000000000535F: C4 C3 05 46 DB 02  vperm2i128  ymm3,ymm15,ymm11,2
  0000000000005365: C4 43 05 46 DB 13  vperm2i128  ymm11,ymm15,ymm11,13h
  000000000000536B: C5 FD EF 06        vpxor       ymm0,ymm0,ymmword ptr [rsi]
  000000000000536F: C5 E5 EF 5E 20     vpxor       ymm3,ymm3,ymmword ptr [rsi+20h]
  0000000000005374: C5 C5 EF 7E 40     vpxor       ymm7,ymm7,ymmword ptr [rsi+40h]
  0000000000005379: C5 25 EF 5E 60     vpxor       ymm11,ymm11,ymmword ptr [rsi+60h]
  000000000000537E: C5 FE 7F 07        vmovdqu     ymmword ptr [rdi],ymm0
  0000000000005382: C5 FE 7F 5F 20     vmovdqu     ymmword ptr [rdi+20h],ymm3
  0000000000005387: C5 FE 7F 7F 40     vmovdqu     ymmword ptr [rdi+40h],ymm7
  000000000000538C: C5 7E 7F 5F 60     vmovdqu     ymmword ptr [rdi+60h],ymm11
  0000000000005391: C5 FD 6F 85 20 01  vmovdqa     ymm0,ymmword ptr [rbp+120h]
                    00 00
  0000000000005399: 48 8B 85 A0 00 00  mov         rax,qword ptr [rbp+0A0h]
                    00
  00000000000053A0: 49 89 C7           mov         r15,rax
  00000000000053A3: 49 F7 E2           mul         rax,r10
  00000000000053A6: 49 89 C5           mov         r13,rax
  00000000000053A9: 49 89 D6           mov         r14,rdx
  00000000000053AC: 48 8B 85 A0 00 00  mov         rax,qword ptr [rbp+0A0h]
                    00
  00000000000053B3: 49 F7 E3           mul         rax,r11
  00000000000053B6: 4D 0F AF FC        imul        r15,r12
  00000000000053BA: 49 01 C6           add         r14,rax
  00000000000053BD: 49 11 D7           adc         r15,rdx
  00000000000053C0: 48 8B 85 A8 00 00  mov         rax,qword ptr [rbp+0A8h]
                    00
  00000000000053C7: 49 89 C1           mov         r9,rax
  00000000000053CA: 49 F7 E2           mul         rax,r10
  00000000000053CD: 49 01 C6           add         r14,rax
  00000000000053D0: 48 83 D2 00        adc         rdx,0
  00000000000053D4: 49 89 D2           mov         r10,rdx
  00000000000053D7: 48 8B 85 A8 00 00  mov         rax,qword ptr [rbp+0A8h]
                    00
  00000000000053DE: 49 F7 E3           mul         rax,r11
  00000000000053E1: 49 01 C7           add         r15,rax
  00000000000053E4: 48 83 D2 00        adc         rdx,0
  00000000000053E8: 4D 0F AF CC        imul        r9,r12
  00000000000053EC: 4D 01 D7           add         r15,r10
  00000000000053EF: 49 11 D1           adc         r9,rdx
  00000000000053F2: 4D 89 EA           mov         r10,r13
  00000000000053F5: 4D 89 F3           mov         r11,r14
  00000000000053F8: 4D 89 FC           mov         r12,r15
  00000000000053FB: 49 83 E4 03        and         r12,3
  00000000000053FF: 4D 89 FD           mov         r13,r15
  0000000000005402: 49 83 E5 FC        and         r13,0FFFFFFFFFFFFFFFCh
  0000000000005406: 4D 89 CE           mov         r14,r9
  0000000000005409: 4D 0F AC CF 02     shrd        r15,r9,2
  000000000000540E: 49 C1 E9 02        shr         r9,2
  0000000000005412: 4D 01 EF           add         r15,r13
  0000000000005415: 4D 11 F1           adc         r9,r14
  0000000000005418: 4D 01 FA           add         r10,r15
  000000000000541B: 4D 11 CB           adc         r11,r9
  000000000000541E: 49 83 D4 00        adc         r12,0
  0000000000005422: C4 E3 4D 46 DA 02  vperm2i128  ymm3,ymm6,ymm2,2
  0000000000005428: C4 E3 4D 46 F2 13  vperm2i128  ymm6,ymm6,ymm2,13h
  000000000000542E: C4 C3 0D 46 D2 02  vperm2i128  ymm2,ymm14,ymm10,2
  0000000000005434: C4 43 0D 46 D2 13  vperm2i128  ymm10,ymm14,ymm10,13h
  000000000000543A: C5 E5 EF 9E 80 00  vpxor       ymm3,ymm3,ymmword ptr [rsi+80h]
                    00 00
  0000000000005442: C5 ED EF 96 A0 00  vpxor       ymm2,ymm2,ymmword ptr [rsi+0A0h]
                    00 00
  000000000000544A: C5 CD EF B6 C0 00  vpxor       ymm6,ymm6,ymmword ptr [rsi+0C0h]
                    00 00
  0000000000005452: C5 2D EF 96 E0 00  vpxor       ymm10,ymm10,ymmword ptr [rsi+0E0h]
                    00 00
  000000000000545A: C5 FE 7F 9F 80 00  vmovdqu     ymmword ptr [rdi+80h],ymm3
                    00 00
  0000000000005462: C5 FE 7F 97 A0 00  vmovdqu     ymmword ptr [rdi+0A0h],ymm2
                    00 00
  000000000000546A: C5 FE 7F B7 C0 00  vmovdqu     ymmword ptr [rdi+0C0h],ymm6
                    00 00
  0000000000005472: C5 7E 7F 97 E0 00  vmovdqu     ymmword ptr [rdi+0E0h],ymm10
                    00 00
  000000000000547A: 4C 03 96 F0 01 00  add         r10,qword ptr [rsi+1F0h]
                    00
  0000000000005481: 4C 13 9E F8 01 00  adc         r11,qword ptr [rsi+1F8h]
                    00
  0000000000005488: 49 83 D4 01        adc         r12,1
  000000000000548C: C4 E3 55 46 D9 02  vperm2i128  ymm3,ymm5,ymm1,2
  0000000000005492: C4 E3 55 46 E9 13  vperm2i128  ymm5,ymm5,ymm1,13h
  0000000000005498: C4 C3 15 46 C9 02  vperm2i128  ymm1,ymm13,ymm9,2
  000000000000549E: C4 43 15 46 C9 13  vperm2i128  ymm9,ymm13,ymm9,13h
  00000000000054A4: C5 E5 EF 9E 00 01  vpxor       ymm3,ymm3,ymmword ptr [rsi+100h]
                    00 00
  00000000000054AC: C5 F5 EF 8E 20 01  vpxor       ymm1,ymm1,ymmword ptr [rsi+120h]
                    00 00
  00000000000054B4: C5 D5 EF AE 40 01  vpxor       ymm5,ymm5,ymmword ptr [rsi+140h]
                    00 00
  00000000000054BC: C5 35 EF 8E 60 01  vpxor       ymm9,ymm9,ymmword ptr [rsi+160h]
                    00 00
  00000000000054C4: C5 FE 7F 9F 00 01  vmovdqu     ymmword ptr [rdi+100h],ymm3
                    00 00
  00000000000054CC: C5 FE 7F 8F 20 01  vmovdqu     ymmword ptr [rdi+120h],ymm1
                    00 00
  00000000000054D4: C5 FE 7F AF 40 01  vmovdqu     ymmword ptr [rdi+140h],ymm5
                    00 00
  00000000000054DC: C5 7E 7F 8F 60 01  vmovdqu     ymmword ptr [rdi+160h],ymm9
                    00 00
  00000000000054E4: 48 8B 85 A0 00 00  mov         rax,qword ptr [rbp+0A0h]
                    00
  00000000000054EB: 49 89 C7           mov         r15,rax
  00000000000054EE: 49 F7 E2           mul         rax,r10
  00000000000054F1: 49 89 C5           mov         r13,rax
  00000000000054F4: 49 89 D6           mov         r14,rdx
  00000000000054F7: 48 8B 85 A0 00 00  mov         rax,qword ptr [rbp+0A0h]
                    00
  00000000000054FE: 49 F7 E3           mul         rax,r11
  0000000000005501: 4D 0F AF FC        imul        r15,r12
  0000000000005505: 49 01 C6           add         r14,rax
  0000000000005508: 49 11 D7           adc         r15,rdx
  000000000000550B: 48 8B 85 A8 00 00  mov         rax,qword ptr [rbp+0A8h]
                    00
  0000000000005512: 49 89 C1           mov         r9,rax
  0000000000005515: 49 F7 E2           mul         rax,r10
  0000000000005518: 49 01 C6           add         r14,rax
  000000000000551B: 48 83 D2 00        adc         rdx,0
  000000000000551F: 49 89 D2           mov         r10,rdx
  0000000000005522: 48 8B 85 A8 00 00  mov         rax,qword ptr [rbp+0A8h]
                    00
  0000000000005529: 49 F7 E3           mul         rax,r11
  000000000000552C: 49 01 C7           add         r15,rax
  000000000000552F: 48 83 D2 00        adc         rdx,0
  0000000000005533: 4D 0F AF CC        imul        r9,r12
  0000000000005537: 4D 01 D7           add         r15,r10
  000000000000553A: 49 11 D1           adc         r9,rdx
  000000000000553D: 4D 89 EA           mov         r10,r13
  0000000000005540: 4D 89 F3           mov         r11,r14
  0000000000005543: 4D 89 FC           mov         r12,r15
  0000000000005546: 49 83 E4 03        and         r12,3
  000000000000554A: 4D 89 FD           mov         r13,r15
  000000000000554D: 49 83 E5 FC        and         r13,0FFFFFFFFFFFFFFFCh
  0000000000005551: 4D 89 CE           mov         r14,r9
  0000000000005554: 4D 0F AC CF 02     shrd        r15,r9,2
  0000000000005559: 49 C1 E9 02        shr         r9,2
  000000000000555D: 4D 01 EF           add         r15,r13
  0000000000005560: 4D 11 F1           adc         r9,r14
  0000000000005563: 4D 01 FA           add         r10,r15
  0000000000005566: 4D 11 CB           adc         r11,r9
  0000000000005569: 49 83 D4 00        adc         r12,0
  000000000000556D: C4 E3 5D 46 D8 02  vperm2i128  ymm3,ymm4,ymm0,2
  0000000000005573: C4 E3 5D 46 E0 13  vperm2i128  ymm4,ymm4,ymm0,13h
  0000000000005579: C4 C3 1D 46 C0 02  vperm2i128  ymm0,ymm12,ymm8,2
  000000000000557F: C4 43 1D 46 C0 13  vperm2i128  ymm8,ymm12,ymm8,13h
  0000000000005585: C5 E5 EF 9E 80 01  vpxor       ymm3,ymm3,ymmword ptr [rsi+180h]
                    00 00
  000000000000558D: C5 FD EF 86 A0 01  vpxor       ymm0,ymm0,ymmword ptr [rsi+1A0h]
                    00 00
  0000000000005595: C5 DD EF A6 C0 01  vpxor       ymm4,ymm4,ymmword ptr [rsi+1C0h]
                    00 00
  000000000000559D: C5 3D EF 86 E0 01  vpxor       ymm8,ymm8,ymmword ptr [rsi+1E0h]
                    00 00
  00000000000055A5: C5 FE 7F 9F 80 01  vmovdqu     ymmword ptr [rdi+180h],ymm3
                    00 00
  00000000000055AD: C5 FE 7F 87 A0 01  vmovdqu     ymmword ptr [rdi+1A0h],ymm0
                    00 00
  00000000000055B5: C5 FE 7F A7 C0 01  vmovdqu     ymmword ptr [rdi+1C0h],ymm4
                    00 00
  00000000000055BD: C5 7E 7F 87 E0 01  vmovdqu     ymmword ptr [rdi+1E0h],ymm8
                    00 00
  00000000000055C5: 48 8D B6 00 02 00  lea         rsi,[rsi+200h]
                    00
  00000000000055CC: 48 8D BF 00 02 00  lea         rdi,[rdi+200h]
                    00
  00000000000055D3: 48 81 EB 00 02 00  sub         rbx,200h
                    00
  00000000000055DA: E9 5D F7 FF FF     jmp         L$open_avx2_main_loop
L$open_avx2_main_loop_done:
  00000000000055DF: 48 85 DB           test        rbx,rbx
  00000000000055E2: C5 F8 77           vzeroupper
  00000000000055E5: 0F 84 B9 CA FF FF  je          L$open_sse_finalize
  00000000000055EB: 48 81 FB 80 01 00  cmp         rbx,180h
                    00
  00000000000055F2: 0F 87 56 0C 00 00  ja          L$open_avx2_tail_512
  00000000000055F8: 48 81 FB 00 01 00  cmp         rbx,100h
                    00
  00000000000055FF: 0F 87 60 06 00 00  ja          L$open_avx2_tail_384
  0000000000005605: 48 81 FB 80 00 00  cmp         rbx,80h
                    00
  000000000000560C: 0F 87 FC 01 00 00  ja          L$open_avx2_tail_256
  0000000000005612: C5 FD 6F 05 00 00  vmovdqa     ymm0,ymmword ptr [.rdata]
                    00 00
  000000000000561A: C5 FD 6F A5 E0 00  vmovdqa     ymm4,ymmword ptr [rbp+0E0h]
                    00 00
  0000000000005622: C5 7D 6F 85 00 01  vmovdqa     ymm8,ymmword ptr [rbp+100h]
                    00 00
  000000000000562A: C5 7D 6F 25 80 00  vmovdqa     ymm12,ymmword ptr [.rdata+80h]
                    00 00
  0000000000005632: C5 1D FE A5 40 01  vpaddd      ymm12,ymm12,ymmword ptr [rbp+140h]
                    00 00
  000000000000563A: C5 7D 7F A5 40 01  vmovdqa     ymmword ptr [rbp+140h],ymm12
                    00 00
  0000000000005642: 4D 31 C0           xor         r8,r8
  0000000000005645: 48 89 D9           mov         rcx,rbx
  0000000000005648: 48 83 E1 F0        and         rcx,0FFFFFFFFFFFFFFF0h
  000000000000564C: 48 85 C9           test        rcx,rcx
  000000000000564F: 0F 84 96 00 00 00  je          L$open_avx2_tail_128_rounds
L$open_avx2_tail_128_rounds_and_x1hash:
  0000000000005655: 4E 03 14 06        add         r10,qword ptr [rsi+r8]
  0000000000005659: 4D 13 5C 30 08     adc         r11,qword ptr [r8+rsi+8]
  000000000000565E: 49 83 D4 01        adc         r12,1
  0000000000005662: 48 8B 85 A0 00 00  mov         rax,qword ptr [rbp+0A0h]
                    00
  0000000000005669: 49 89 C7           mov         r15,rax
  000000000000566C: 49 F7 E2           mul         rax,r10
  000000000000566F: 49 89 C5           mov         r13,rax
  0000000000005672: 49 89 D6           mov         r14,rdx
  0000000000005675: 48 8B 85 A0 00 00  mov         rax,qword ptr [rbp+0A0h]
                    00
  000000000000567C: 49 F7 E3           mul         rax,r11
  000000000000567F: 4D 0F AF FC        imul        r15,r12
  0000000000005683: 49 01 C6           add         r14,rax
  0000000000005686: 49 11 D7           adc         r15,rdx
  0000000000005689: 48 8B 85 A8 00 00  mov         rax,qword ptr [rbp+0A8h]
                    00
  0000000000005690: 49 89 C1           mov         r9,rax
  0000000000005693: 49 F7 E2           mul         rax,r10
  0000000000005696: 49 01 C6           add         r14,rax
  0000000000005699: 48 83 D2 00        adc         rdx,0
  000000000000569D: 49 89 D2           mov         r10,rdx
  00000000000056A0: 48 8B 85 A8 00 00  mov         rax,qword ptr [rbp+0A8h]
                    00
  00000000000056A7: 49 F7 E3           mul         rax,r11
  00000000000056AA: 49 01 C7           add         r15,rax
  00000000000056AD: 48 83 D2 00        adc         rdx,0
  00000000000056B1: 4D 0F AF CC        imul        r9,r12
  00000000000056B5: 4D 01 D7           add         r15,r10
  00000000000056B8: 49 11 D1           adc         r9,rdx
  00000000000056BB: 4D 89 EA           mov         r10,r13
  00000000000056BE: 4D 89 F3           mov         r11,r14
  00000000000056C1: 4D 89 FC           mov         r12,r15
  00000000000056C4: 49 83 E4 03        and         r12,3
  00000000000056C8: 4D 89 FD           mov         r13,r15
  00000000000056CB: 49 83 E5 FC        and         r13,0FFFFFFFFFFFFFFFCh
  00000000000056CF: 4D 89 CE           mov         r14,r9
  00000000000056D2: 4D 0F AC CF 02     shrd        r15,r9,2
  00000000000056D7: 49 C1 E9 02        shr         r9,2
  00000000000056DB: 4D 01 EF           add         r15,r13
  00000000000056DE: 4D 11 F1           adc         r9,r14
  00000000000056E1: 4D 01 FA           add         r10,r15
  00000000000056E4: 4D 11 CB           adc         r11,r9
  00000000000056E7: 49 83 D4 00        adc         r12,0
L$open_avx2_tail_128_rounds:
  00000000000056EB: 49 83 C0 10        add         r8,10h
  00000000000056EF: C5 FD FE C4        vpaddd      ymm0,ymm0,ymm4
  00000000000056F3: C5 1D EF E0        vpxor       ymm12,ymm12,ymm0
  00000000000056F7: C4 62 1D 00 25 40  vpshufb     ymm12,ymm12,ymmword ptr [.rdata+40h]
                    00 00 00
  0000000000005700: C4 41 3D FE C4     vpaddd      ymm8,ymm8,ymm12
  0000000000005705: C4 C1 5D EF E0     vpxor       ymm4,ymm4,ymm8
  000000000000570A: C5 E5 72 D4 14     vpsrld      ymm3,ymm4,14h
  000000000000570F: C5 DD 72 F4 0C     vpslld      ymm4,ymm4,0Ch
  0000000000005714: C5 DD EF E3        vpxor       ymm4,ymm4,ymm3
  0000000000005718: C5 FD FE C4        vpaddd      ymm0,ymm0,ymm4
  000000000000571C: C5 1D EF E0        vpxor       ymm12,ymm12,ymm0
  0000000000005720: C4 62 1D 00 25 20  vpshufb     ymm12,ymm12,ymmword ptr [.rdata+20h]
                    00 00 00
  0000000000005729: C4 41 3D FE C4     vpaddd      ymm8,ymm8,ymm12
  000000000000572E: C4 C1 5D EF E0     vpxor       ymm4,ymm4,ymm8
  0000000000005733: C5 E5 72 F4 07     vpslld      ymm3,ymm4,7
  0000000000005738: C5 DD 72 D4 19     vpsrld      ymm4,ymm4,19h
  000000000000573D: C5 DD EF E3        vpxor       ymm4,ymm4,ymm3
  0000000000005741: C4 43 1D 0F E4 0C  vpalignr    ymm12,ymm12,ymm12,0Ch
  0000000000005747: C4 43 3D 0F C0 08  vpalignr    ymm8,ymm8,ymm8,8
  000000000000574D: C4 E3 5D 0F E4 04  vpalignr    ymm4,ymm4,ymm4,4
  0000000000005753: C5 FD FE C4        vpaddd      ymm0,ymm0,ymm4
  0000000000005757: C5 1D EF E0        vpxor       ymm12,ymm12,ymm0
  000000000000575B: C4 62 1D 00 25 40  vpshufb     ymm12,ymm12,ymmword ptr [.rdata+40h]
                    00 00 00
  0000000000005764: C4 41 3D FE C4     vpaddd      ymm8,ymm8,ymm12
  0000000000005769: C4 C1 5D EF E0     vpxor       ymm4,ymm4,ymm8
  000000000000576E: C5 E5 72 D4 14     vpsrld      ymm3,ymm4,14h
  0000000000005773: C5 DD 72 F4 0C     vpslld      ymm4,ymm4,0Ch
  0000000000005778: C5 DD EF E3        vpxor       ymm4,ymm4,ymm3
  000000000000577C: C5 FD FE C4        vpaddd      ymm0,ymm0,ymm4
  0000000000005780: C5 1D EF E0        vpxor       ymm12,ymm12,ymm0
  0000000000005784: C4 62 1D 00 25 20  vpshufb     ymm12,ymm12,ymmword ptr [.rdata+20h]
                    00 00 00
  000000000000578D: C4 41 3D FE C4     vpaddd      ymm8,ymm8,ymm12
  0000000000005792: C4 C1 5D EF E0     vpxor       ymm4,ymm4,ymm8
  0000000000005797: C5 E5 72 F4 07     vpslld      ymm3,ymm4,7
  000000000000579C: C5 DD 72 D4 19     vpsrld      ymm4,ymm4,19h
  00000000000057A1: C5 DD EF E3        vpxor       ymm4,ymm4,ymm3
  00000000000057A5: C4 43 1D 0F E4 04  vpalignr    ymm12,ymm12,ymm12,4
  00000000000057AB: C4 43 3D 0F C0 08  vpalignr    ymm8,ymm8,ymm8,8
  00000000000057B1: C4 E3 5D 0F E4 0C  vpalignr    ymm4,ymm4,ymm4,0Ch
  00000000000057B7: 49 39 C8           cmp         r8,rcx
  00000000000057BA: 0F 82 95 FE FF FF  jb          L$open_avx2_tail_128_rounds_and_x1hash
  00000000000057C0: 49 81 F8 A0 00 00  cmp         r8,0A0h
                    00
  00000000000057C7: 0F 85 1E FF FF FF  jne         L$open_avx2_tail_128_rounds
  00000000000057CD: C5 FD FE 05 00 00  vpaddd      ymm0,ymm0,ymmword ptr [.rdata]
                    00 00
  00000000000057D5: C5 DD FE A5 E0 00  vpaddd      ymm4,ymm4,ymmword ptr [rbp+0E0h]
                    00 00
  00000000000057DD: C5 3D FE 85 00 01  vpaddd      ymm8,ymm8,ymmword ptr [rbp+100h]
                    00 00
  00000000000057E5: C5 1D FE A5 40 01  vpaddd      ymm12,ymm12,ymmword ptr [rbp+140h]
                    00 00
  00000000000057ED: C4 E3 5D 46 D8 13  vperm2i128  ymm3,ymm4,ymm0,13h
  00000000000057F3: C4 E3 5D 46 C0 02  vperm2i128  ymm0,ymm4,ymm0,2
  00000000000057F9: C4 C3 1D 46 E0 02  vperm2i128  ymm4,ymm12,ymm8,2
  00000000000057FF: C4 43 1D 46 E0 13  vperm2i128  ymm12,ymm12,ymm8,13h
  0000000000005805: C5 7D 6F C3        vmovdqa     ymm8,ymm3
  0000000000005809: E9 21 12 00 00     jmp         L$open_avx2_tail_128_xor
L$open_avx2_tail_256:
  000000000000580E: C5 FD 6F 05 00 00  vmovdqa     ymm0,ymmword ptr [.rdata]
                    00 00
  0000000000005816: C5 FD 6F A5 E0 00  vmovdqa     ymm4,ymmword ptr [rbp+0E0h]
                    00 00
  000000000000581E: C5 7D 6F 85 00 01  vmovdqa     ymm8,ymmword ptr [rbp+100h]
                    00 00
  0000000000005826: C5 FD 6F C8        vmovdqa     ymm1,ymm0
  000000000000582A: C5 FD 6F EC        vmovdqa     ymm5,ymm4
  000000000000582E: C4 41 7D 6F C8     vmovdqa     ymm9,ymm8
  0000000000005833: C5 7D 6F 25 80 00  vmovdqa     ymm12,ymmword ptr [.rdata+80h]
                    00 00
  000000000000583B: C5 1D FE AD 40 01  vpaddd      ymm13,ymm12,ymmword ptr [rbp+140h]
                    00 00
  0000000000005843: C4 41 1D FE E5     vpaddd      ymm12,ymm12,ymm13
  0000000000005848: C5 7D 7F A5 40 01  vmovdqa     ymmword ptr [rbp+140h],ymm12
                    00 00
  0000000000005850: C5 7D 7F AD 60 01  vmovdqa     ymmword ptr [rbp+160h],ymm13
                    00 00
  0000000000005858: 48 89 9D 20 01 00  mov         qword ptr [rbp+120h],rbx
                    00
  000000000000585F: 48 89 D9           mov         rcx,rbx
  0000000000005862: 48 81 E9 80 00 00  sub         rcx,80h
                    00
  0000000000005869: 48 C1 E9 04        shr         rcx,4
  000000000000586D: 41 B8 0A 00 00 00  mov         r8d,0Ah
  0000000000005873: 48 83 F9 0A        cmp         rcx,0Ah
  0000000000005877: 49 0F 4F C8        cmovg       rcx,r8
  000000000000587B: 48 89 F3           mov         rbx,rsi
  000000000000587E: 4D 31 C0           xor         r8,r8
L$open_avx2_tail_256_rounds_and_x1hash:
  0000000000005881: 4C 03 13           add         r10,qword ptr [rbx]
  0000000000005884: 4C 13 5B 08        adc         r11,qword ptr [rbx+8]
  0000000000005888: 49 83 D4 01        adc         r12,1
  000000000000588C: 48 8B 95 A0 00 00  mov         rdx,qword ptr [rbp+0A0h]
                    00
  0000000000005893: 49 89 D7           mov         r15,rdx
  0000000000005896: C4 42 93 F6 F2     mulx        r14,r13,r10
  000000000000589B: C4 C2 FB F6 D3     mulx        rdx,rax,r11
  00000000000058A0: 4D 0F AF FC        imul        r15,r12
  00000000000058A4: 49 01 C6           add         r14,rax
  00000000000058A7: 49 11 D7           adc         r15,rdx
  00000000000058AA: 48 8B 95 A8 00 00  mov         rdx,qword ptr [rbp+0A8h]
                    00
  00000000000058B1: C4 C2 AB F6 C2     mulx        rax,r10,r10
  00000000000058B6: 4D 01 D6           add         r14,r10
  00000000000058B9: C4 42 A3 F6 CB     mulx        r9,r11,r11
  00000000000058BE: 4D 11 DF           adc         r15,r11
  00000000000058C1: 49 83 D1 00        adc         r9,0
  00000000000058C5: 49 0F AF D4        imul        rdx,r12
  00000000000058C9: 49 01 C7           add         r15,rax
  00000000000058CC: 49 11 D1           adc         r9,rdx
  00000000000058CF: 4D 89 EA           mov         r10,r13
  00000000000058D2: 4D 89 F3           mov         r11,r14
  00000000000058D5: 4D 89 FC           mov         r12,r15
  00000000000058D8: 49 83 E4 03        and         r12,3
  00000000000058DC: 4D 89 FD           mov         r13,r15
  00000000000058DF: 49 83 E5 FC        and         r13,0FFFFFFFFFFFFFFFCh
  00000000000058E3: 4D 89 CE           mov         r14,r9
  00000000000058E6: 4D 0F AC CF 02     shrd        r15,r9,2
  00000000000058EB: 49 C1 E9 02        shr         r9,2
  00000000000058EF: 4D 01 EF           add         r15,r13
  00000000000058F2: 4D 11 F1           adc         r9,r14
  00000000000058F5: 4D 01 FA           add         r10,r15
  00000000000058F8: 4D 11 CB           adc         r11,r9
  00000000000058FB: 49 83 D4 00        adc         r12,0
  00000000000058FF: 48 8D 5B 10        lea         rbx,[rbx+10h]
L$open_avx2_tail_256_rounds:
  0000000000005903: C5 FD FE C4        vpaddd      ymm0,ymm0,ymm4
  0000000000005907: C5 1D EF E0        vpxor       ymm12,ymm12,ymm0
  000000000000590B: C4 62 1D 00 25 40  vpshufb     ymm12,ymm12,ymmword ptr [.rdata+40h]
                    00 00 00
  0000000000005914: C4 41 3D FE C4     vpaddd      ymm8,ymm8,ymm12
  0000000000005919: C4 C1 5D EF E0     vpxor       ymm4,ymm4,ymm8
  000000000000591E: C5 E5 72 D4 14     vpsrld      ymm3,ymm4,14h
  0000000000005923: C5 DD 72 F4 0C     vpslld      ymm4,ymm4,0Ch
  0000000000005928: C5 DD EF E3        vpxor       ymm4,ymm4,ymm3
  000000000000592C: C5 FD FE C4        vpaddd      ymm0,ymm0,ymm4
  0000000000005930: C5 1D EF E0        vpxor       ymm12,ymm12,ymm0
  0000000000005934: C4 62 1D 00 25 20  vpshufb     ymm12,ymm12,ymmword ptr [.rdata+20h]
                    00 00 00
  000000000000593D: C4 41 3D FE C4     vpaddd      ymm8,ymm8,ymm12
  0000000000005942: C4 C1 5D EF E0     vpxor       ymm4,ymm4,ymm8
  0000000000005947: C5 E5 72 F4 07     vpslld      ymm3,ymm4,7
  000000000000594C: C5 DD 72 D4 19     vpsrld      ymm4,ymm4,19h
  0000000000005951: C5 DD EF E3        vpxor       ymm4,ymm4,ymm3
  0000000000005955: C4 43 1D 0F E4 0C  vpalignr    ymm12,ymm12,ymm12,0Ch
  000000000000595B: C4 43 3D 0F C0 08  vpalignr    ymm8,ymm8,ymm8,8
  0000000000005961: C4 E3 5D 0F E4 04  vpalignr    ymm4,ymm4,ymm4,4
  0000000000005967: C5 F5 FE CD        vpaddd      ymm1,ymm1,ymm5
  000000000000596B: C5 15 EF E9        vpxor       ymm13,ymm13,ymm1
  000000000000596F: C4 62 15 00 2D 40  vpshufb     ymm13,ymm13,ymmword ptr [.rdata+40h]
                    00 00 00
  0000000000005978: C4 41 35 FE CD     vpaddd      ymm9,ymm9,ymm13
  000000000000597D: C4 C1 55 EF E9     vpxor       ymm5,ymm5,ymm9
  0000000000005982: C5 E5 72 D5 14     vpsrld      ymm3,ymm5,14h
  0000000000005987: C5 D5 72 F5 0C     vpslld      ymm5,ymm5,0Ch
  000000000000598C: C5 D5 EF EB        vpxor       ymm5,ymm5,ymm3
  0000000000005990: C5 F5 FE CD        vpaddd      ymm1,ymm1,ymm5
  0000000000005994: C5 15 EF E9        vpxor       ymm13,ymm13,ymm1
  0000000000005998: C4 62 15 00 2D 20  vpshufb     ymm13,ymm13,ymmword ptr [.rdata+20h]
                    00 00 00
  00000000000059A1: C4 41 35 FE CD     vpaddd      ymm9,ymm9,ymm13
  00000000000059A6: C4 C1 55 EF E9     vpxor       ymm5,ymm5,ymm9
  00000000000059AB: C5 E5 72 F5 07     vpslld      ymm3,ymm5,7
  00000000000059B0: C5 D5 72 D5 19     vpsrld      ymm5,ymm5,19h
  00000000000059B5: C5 D5 EF EB        vpxor       ymm5,ymm5,ymm3
  00000000000059B9: C4 43 15 0F ED 0C  vpalignr    ymm13,ymm13,ymm13,0Ch
  00000000000059BF: C4 43 35 0F C9 08  vpalignr    ymm9,ymm9,ymm9,8
  00000000000059C5: C4 E3 55 0F ED 04  vpalignr    ymm5,ymm5,ymm5,4
  00000000000059CB: 49 FF C0           inc         r8
  00000000000059CE: C5 FD FE C4        vpaddd      ymm0,ymm0,ymm4
  00000000000059D2: C5 1D EF E0        vpxor       ymm12,ymm12,ymm0
  00000000000059D6: C4 62 1D 00 25 40  vpshufb     ymm12,ymm12,ymmword ptr [.rdata+40h]
                    00 00 00
  00000000000059DF: C4 41 3D FE C4     vpaddd      ymm8,ymm8,ymm12
  00000000000059E4: C4 C1 5D EF E0     vpxor       ymm4,ymm4,ymm8
  00000000000059E9: C5 E5 72 D4 14     vpsrld      ymm3,ymm4,14h
  00000000000059EE: C5 DD 72 F4 0C     vpslld      ymm4,ymm4,0Ch
  00000000000059F3: C5 DD EF E3        vpxor       ymm4,ymm4,ymm3
  00000000000059F7: C5 FD FE C4        vpaddd      ymm0,ymm0,ymm4
  00000000000059FB: C5 1D EF E0        vpxor       ymm12,ymm12,ymm0
  00000000000059FF: C4 62 1D 00 25 20  vpshufb     ymm12,ymm12,ymmword ptr [.rdata+20h]
                    00 00 00
  0000000000005A08: C4 41 3D FE C4     vpaddd      ymm8,ymm8,ymm12
  0000000000005A0D: C4 C1 5D EF E0     vpxor       ymm4,ymm4,ymm8
  0000000000005A12: C5 E5 72 F4 07     vpslld      ymm3,ymm4,7
  0000000000005A17: C5 DD 72 D4 19     vpsrld      ymm4,ymm4,19h
  0000000000005A1C: C5 DD EF E3        vpxor       ymm4,ymm4,ymm3
  0000000000005A20: C4 43 1D 0F E4 04  vpalignr    ymm12,ymm12,ymm12,4
  0000000000005A26: C4 43 3D 0F C0 08  vpalignr    ymm8,ymm8,ymm8,8
  0000000000005A2C: C4 E3 5D 0F E4 0C  vpalignr    ymm4,ymm4,ymm4,0Ch
  0000000000005A32: C5 F5 FE CD        vpaddd      ymm1,ymm1,ymm5
  0000000000005A36: C5 15 EF E9        vpxor       ymm13,ymm13,ymm1
  0000000000005A3A: C4 62 15 00 2D 40  vpshufb     ymm13,ymm13,ymmword ptr [.rdata+40h]
                    00 00 00
  0000000000005A43: C4 41 35 FE CD     vpaddd      ymm9,ymm9,ymm13
  0000000000005A48: C4 C1 55 EF E9     vpxor       ymm5,ymm5,ymm9
  0000000000005A4D: C5 E5 72 D5 14     vpsrld      ymm3,ymm5,14h
  0000000000005A52: C5 D5 72 F5 0C     vpslld      ymm5,ymm5,0Ch
  0000000000005A57: C5 D5 EF EB        vpxor       ymm5,ymm5,ymm3
  0000000000005A5B: C5 F5 FE CD        vpaddd      ymm1,ymm1,ymm5
  0000000000005A5F: C5 15 EF E9        vpxor       ymm13,ymm13,ymm1
  0000000000005A63: C4 62 15 00 2D 20  vpshufb     ymm13,ymm13,ymmword ptr [.rdata+20h]
                    00 00 00
  0000000000005A6C: C4 41 35 FE CD     vpaddd      ymm9,ymm9,ymm13
  0000000000005A71: C4 C1 55 EF E9     vpxor       ymm5,ymm5,ymm9
  0000000000005A76: C5 E5 72 F5 07     vpslld      ymm3,ymm5,7
  0000000000005A7B: C5 D5 72 D5 19     vpsrld      ymm5,ymm5,19h
  0000000000005A80: C5 D5 EF EB        vpxor       ymm5,ymm5,ymm3
  0000000000005A84: C4 43 15 0F ED 04  vpalignr    ymm13,ymm13,ymm13,4
  0000000000005A8A: C4 43 35 0F C9 08  vpalignr    ymm9,ymm9,ymm9,8
  0000000000005A90: C4 E3 55 0F ED 0C  vpalignr    ymm5,ymm5,ymm5,0Ch
  0000000000005A96: C5 ED FE D6        vpaddd      ymm2,ymm2,ymm6
  0000000000005A9A: C5 0D EF F2        vpxor       ymm14,ymm14,ymm2
  0000000000005A9E: C4 62 0D 00 35 40  vpshufb     ymm14,ymm14,ymmword ptr [.rdata+40h]
                    00 00 00
  0000000000005AA7: C4 41 2D FE D6     vpaddd      ymm10,ymm10,ymm14
  0000000000005AAC: C4 C1 4D EF F2     vpxor       ymm6,ymm6,ymm10
  0000000000005AB1: C5 E5 72 D6 14     vpsrld      ymm3,ymm6,14h
  0000000000005AB6: C5 CD 72 F6 0C     vpslld      ymm6,ymm6,0Ch
  0000000000005ABB: C5 CD EF F3        vpxor       ymm6,ymm6,ymm3
  0000000000005ABF: C5 ED FE D6        vpaddd      ymm2,ymm2,ymm6
  0000000000005AC3: C5 0D EF F2        vpxor       ymm14,ymm14,ymm2
  0000000000005AC7: C4 62 0D 00 35 20  vpshufb     ymm14,ymm14,ymmword ptr [.rdata+20h]
                    00 00 00
  0000000000005AD0: C4 41 2D FE D6     vpaddd      ymm10,ymm10,ymm14
  0000000000005AD5: C4 C1 4D EF F2     vpxor       ymm6,ymm6,ymm10
  0000000000005ADA: C5 E5 72 F6 07     vpslld      ymm3,ymm6,7
  0000000000005ADF: C5 CD 72 D6 19     vpsrld      ymm6,ymm6,19h
  0000000000005AE4: C5 CD EF F3        vpxor       ymm6,ymm6,ymm3
  0000000000005AE8: C4 43 0D 0F F6 04  vpalignr    ymm14,ymm14,ymm14,4
  0000000000005AEE: C4 43 2D 0F D2 08  vpalignr    ymm10,ymm10,ymm10,8
  0000000000005AF4: C4 E3 4D 0F F6 0C  vpalignr    ymm6,ymm6,ymm6,0Ch
  0000000000005AFA: 49 39 C8           cmp         r8,rcx
  0000000000005AFD: 0F 82 7E FD FF FF  jb          L$open_avx2_tail_256_rounds_and_x1hash
  0000000000005B03: 49 83 F8 0A        cmp         r8,0Ah
  0000000000005B07: 0F 85 F6 FD FF FF  jne         L$open_avx2_tail_256_rounds
  0000000000005B0D: 49 89 D8           mov         r8,rbx
  0000000000005B10: 48 29 F3           sub         rbx,rsi
  0000000000005B13: 48 89 D9           mov         rcx,rbx
  0000000000005B16: 48 8B 9D 20 01 00  mov         rbx,qword ptr [rbp+120h]
                    00
L$open_avx2_tail_256_hash:
  0000000000005B1D: 48 83 C1 10        add         rcx,10h
  0000000000005B21: 48 39 D9           cmp         rcx,rbx
  0000000000005B24: 0F 8F 87 00 00 00  jg          L$open_avx2_tail_256_done
  0000000000005B2A: 4D 03 10           add         r10,qword ptr [r8]
  0000000000005B2D: 4D 13 58 08        adc         r11,qword ptr [r8+8]
  0000000000005B31: 49 83 D4 01        adc         r12,1
  0000000000005B35: 48 8B 95 A0 00 00  mov         rdx,qword ptr [rbp+0A0h]
                    00
  0000000000005B3C: 49 89 D7           mov         r15,rdx
  0000000000005B3F: C4 42 93 F6 F2     mulx        r14,r13,r10
  0000000000005B44: C4 C2 FB F6 D3     mulx        rdx,rax,r11
  0000000000005B49: 4D 0F AF FC        imul        r15,r12
  0000000000005B4D: 49 01 C6           add         r14,rax
  0000000000005B50: 49 11 D7           adc         r15,rdx
  0000000000005B53: 48 8B 95 A8 00 00  mov         rdx,qword ptr [rbp+0A8h]
                    00
  0000000000005B5A: C4 C2 AB F6 C2     mulx        rax,r10,r10
  0000000000005B5F: 4D 01 D6           add         r14,r10
  0000000000005B62: C4 42 A3 F6 CB     mulx        r9,r11,r11
  0000000000005B67: 4D 11 DF           adc         r15,r11
  0000000000005B6A: 49 83 D1 00        adc         r9,0
  0000000000005B6E: 49 0F AF D4        imul        rdx,r12
  0000000000005B72: 49 01 C7           add         r15,rax
  0000000000005B75: 49 11 D1           adc         r9,rdx
  0000000000005B78: 4D 89 EA           mov         r10,r13
  0000000000005B7B: 4D 89 F3           mov         r11,r14
  0000000000005B7E: 4D 89 FC           mov         r12,r15
  0000000000005B81: 49 83 E4 03        and         r12,3
  0000000000005B85: 4D 89 FD           mov         r13,r15
  0000000000005B88: 49 83 E5 FC        and         r13,0FFFFFFFFFFFFFFFCh
  0000000000005B8C: 4D 89 CE           mov         r14,r9
  0000000000005B8F: 4D 0F AC CF 02     shrd        r15,r9,2
  0000000000005B94: 49 C1 E9 02        shr         r9,2
  0000000000005B98: 4D 01 EF           add         r15,r13
  0000000000005B9B: 4D 11 F1           adc         r9,r14
  0000000000005B9E: 4D 01 FA           add         r10,r15
  0000000000005BA1: 4D 11 CB           adc         r11,r9
  0000000000005BA4: 49 83 D4 00        adc         r12,0
  0000000000005BA8: 4D 8D 40 10        lea         r8,[r8+10h]
  0000000000005BAC: E9 6C FF FF FF     jmp         L$open_avx2_tail_256_hash
L$open_avx2_tail_256_done:
  0000000000005BB1: C5 F5 FE 0D 00 00  vpaddd      ymm1,ymm1,ymmword ptr [.rdata]
                    00 00
  0000000000005BB9: C5 D5 FE AD E0 00  vpaddd      ymm5,ymm5,ymmword ptr [rbp+0E0h]
                    00 00
  0000000000005BC1: C5 35 FE 8D 00 01  vpaddd      ymm9,ymm9,ymmword ptr [rbp+100h]
                    00 00
  0000000000005BC9: C5 15 FE AD 60 01  vpaddd      ymm13,ymm13,ymmword ptr [rbp+160h]
                    00 00
  0000000000005BD1: C5 FD FE 05 00 00  vpaddd      ymm0,ymm0,ymmword ptr [.rdata]
                    00 00
  0000000000005BD9: C5 DD FE A5 E0 00  vpaddd      ymm4,ymm4,ymmword ptr [rbp+0E0h]
                    00 00
  0000000000005BE1: C5 3D FE 85 00 01  vpaddd      ymm8,ymm8,ymmword ptr [rbp+100h]
                    00 00
  0000000000005BE9: C5 1D FE A5 40 01  vpaddd      ymm12,ymm12,ymmword ptr [rbp+140h]
                    00 00
  0000000000005BF1: C4 E3 55 46 D9 02  vperm2i128  ymm3,ymm5,ymm1,2
  0000000000005BF7: C4 E3 55 46 E9 13  vperm2i128  ymm5,ymm5,ymm1,13h
  0000000000005BFD: C4 C3 15 46 C9 02  vperm2i128  ymm1,ymm13,ymm9,2
  0000000000005C03: C4 43 15 46 C9 13  vperm2i128  ymm9,ymm13,ymm9,13h
  0000000000005C09: C5 E5 EF 1E        vpxor       ymm3,ymm3,ymmword ptr [rsi]
  0000000000005C0D: C5 F5 EF 4E 20     vpxor       ymm1,ymm1,ymmword ptr [rsi+20h]
  0000000000005C12: C5 D5 EF 6E 40     vpxor       ymm5,ymm5,ymmword ptr [rsi+40h]
  0000000000005C17: C5 35 EF 4E 60     vpxor       ymm9,ymm9,ymmword ptr [rsi+60h]
  0000000000005C1C: C5 FE 7F 1F        vmovdqu     ymmword ptr [rdi],ymm3
  0000000000005C20: C5 FE 7F 4F 20     vmovdqu     ymmword ptr [rdi+20h],ymm1
  0000000000005C25: C5 FE 7F 6F 40     vmovdqu     ymmword ptr [rdi+40h],ymm5
  0000000000005C2A: C5 7E 7F 4F 60     vmovdqu     ymmword ptr [rdi+60h],ymm9
  0000000000005C2F: C4 E3 5D 46 D8 13  vperm2i128  ymm3,ymm4,ymm0,13h
  0000000000005C35: C4 E3 5D 46 C0 02  vperm2i128  ymm0,ymm4,ymm0,2
  0000000000005C3B: C4 C3 1D 46 E0 02  vperm2i128  ymm4,ymm12,ymm8,2
  0000000000005C41: C4 43 1D 46 E0 13  vperm2i128  ymm12,ymm12,ymm8,13h
  0000000000005C47: C5 7D 6F C3        vmovdqa     ymm8,ymm3
  0000000000005C4B: 48 8D B6 80 00 00  lea         rsi,[rsi+80h]
                    00
  0000000000005C52: 48 8D BF 80 00 00  lea         rdi,[rdi+80h]
                    00
  0000000000005C59: 48 81 EB 80 00 00  sub         rbx,80h
                    00
  0000000000005C60: E9 CA 0D 00 00     jmp         L$open_avx2_tail_128_xor
L$open_avx2_tail_384:
  0000000000005C65: C5 FD 6F 05 00 00  vmovdqa     ymm0,ymmword ptr [.rdata]
                    00 00
  0000000000005C6D: C5 FD 6F A5 E0 00  vmovdqa     ymm4,ymmword ptr [rbp+0E0h]
                    00 00
  0000000000005C75: C5 7D 6F 85 00 01  vmovdqa     ymm8,ymmword ptr [rbp+100h]
                    00 00
  0000000000005C7D: C5 FD 6F C8        vmovdqa     ymm1,ymm0
  0000000000005C81: C5 FD 6F EC        vmovdqa     ymm5,ymm4
  0000000000005C85: C4 41 7D 6F C8     vmovdqa     ymm9,ymm8
  0000000000005C8A: C5 FD 6F D0        vmovdqa     ymm2,ymm0
  0000000000005C8E: C5 FD 6F F4        vmovdqa     ymm6,ymm4
  0000000000005C92: C4 41 7D 6F D0     vmovdqa     ymm10,ymm8
  0000000000005C97: C5 7D 6F 25 80 00  vmovdqa     ymm12,ymmword ptr [.rdata+80h]
                    00 00
  0000000000005C9F: C5 1D FE B5 40 01  vpaddd      ymm14,ymm12,ymmword ptr [rbp+140h]
                    00 00
  0000000000005CA7: C4 41 1D FE EE     vpaddd      ymm13,ymm12,ymm14
  0000000000005CAC: C4 41 1D FE E5     vpaddd      ymm12,ymm12,ymm13
  0000000000005CB1: C5 7D 7F A5 40 01  vmovdqa     ymmword ptr [rbp+140h],ymm12
                    00 00
  0000000000005CB9: C5 7D 7F AD 60 01  vmovdqa     ymmword ptr [rbp+160h],ymm13
                    00 00
  0000000000005CC1: C5 7D 7F B5 80 01  vmovdqa     ymmword ptr [rbp+180h],ymm14
                    00 00
  0000000000005CC9: 48 89 9D 20 01 00  mov         qword ptr [rbp+120h],rbx
                    00
  0000000000005CD0: 48 89 D9           mov         rcx,rbx
  0000000000005CD3: 48 81 E9 00 01 00  sub         rcx,100h
                    00
  0000000000005CDA: 48 C1 E9 04        shr         rcx,4
  0000000000005CDE: 48 83 C1 06        add         rcx,6
  0000000000005CE2: 41 B8 0A 00 00 00  mov         r8d,0Ah
  0000000000005CE8: 48 83 F9 0A        cmp         rcx,0Ah
  0000000000005CEC: 49 0F 4F C8        cmovg       rcx,r8
  0000000000005CF0: 48 89 F3           mov         rbx,rsi
  0000000000005CF3: 4D 31 C0           xor         r8,r8
L$open_avx2_tail_384_rounds_and_x2hash:
  0000000000005CF6: 4C 03 13           add         r10,qword ptr [rbx]
  0000000000005CF9: 4C 13 5B 08        adc         r11,qword ptr [rbx+8]
  0000000000005CFD: 49 83 D4 01        adc         r12,1
  0000000000005D01: 48 8B 95 A0 00 00  mov         rdx,qword ptr [rbp+0A0h]
                    00
  0000000000005D08: 49 89 D7           mov         r15,rdx
  0000000000005D0B: C4 42 93 F6 F2     mulx        r14,r13,r10
  0000000000005D10: C4 C2 FB F6 D3     mulx        rdx,rax,r11
  0000000000005D15: 4D 0F AF FC        imul        r15,r12
  0000000000005D19: 49 01 C6           add         r14,rax
  0000000000005D1C: 49 11 D7           adc         r15,rdx
  0000000000005D1F: 48 8B 95 A8 00 00  mov         rdx,qword ptr [rbp+0A8h]
                    00
  0000000000005D26: C4 C2 AB F6 C2     mulx        rax,r10,r10
  0000000000005D2B: 4D 01 D6           add         r14,r10
  0000000000005D2E: C4 42 A3 F6 CB     mulx        r9,r11,r11
  0000000000005D33: 4D 11 DF           adc         r15,r11
  0000000000005D36: 49 83 D1 00        adc         r9,0
  0000000000005D3A: 49 0F AF D4        imul        rdx,r12
  0000000000005D3E: 49 01 C7           add         r15,rax
  0000000000005D41: 49 11 D1           adc         r9,rdx
  0000000000005D44: 4D 89 EA           mov         r10,r13
  0000000000005D47: 4D 89 F3           mov         r11,r14
  0000000000005D4A: 4D 89 FC           mov         r12,r15
  0000000000005D4D: 49 83 E4 03        and         r12,3
  0000000000005D51: 4D 89 FD           mov         r13,r15
  0000000000005D54: 49 83 E5 FC        and         r13,0FFFFFFFFFFFFFFFCh
  0000000000005D58: 4D 89 CE           mov         r14,r9
  0000000000005D5B: 4D 0F AC CF 02     shrd        r15,r9,2
  0000000000005D60: 49 C1 E9 02        shr         r9,2
  0000000000005D64: 4D 01 EF           add         r15,r13
  0000000000005D67: 4D 11 F1           adc         r9,r14
  0000000000005D6A: 4D 01 FA           add         r10,r15
  0000000000005D6D: 4D 11 CB           adc         r11,r9
  0000000000005D70: 49 83 D4 00        adc         r12,0
  0000000000005D74: 48 8D 5B 10        lea         rbx,[rbx+10h]
L$open_avx2_tail_384_rounds_and_x1hash:
  0000000000005D78: C5 ED FE D6        vpaddd      ymm2,ymm2,ymm6
  0000000000005D7C: C5 0D EF F2        vpxor       ymm14,ymm14,ymm2
  0000000000005D80: C4 62 0D 00 35 40  vpshufb     ymm14,ymm14,ymmword ptr [.rdata+40h]
                    00 00 00
  0000000000005D89: C4 41 2D FE D6     vpaddd      ymm10,ymm10,ymm14
  0000000000005D8E: C4 C1 4D EF F2     vpxor       ymm6,ymm6,ymm10
  0000000000005D93: C5 E5 72 D6 14     vpsrld      ymm3,ymm6,14h
  0000000000005D98: C5 CD 72 F6 0C     vpslld      ymm6,ymm6,0Ch
  0000000000005D9D: C5 CD EF F3        vpxor       ymm6,ymm6,ymm3
  0000000000005DA1: C5 ED FE D6        vpaddd      ymm2,ymm2,ymm6
  0000000000005DA5: C5 0D EF F2        vpxor       ymm14,ymm14,ymm2
  0000000000005DA9: C4 62 0D 00 35 20  vpshufb     ymm14,ymm14,ymmword ptr [.rdata+20h]
                    00 00 00
  0000000000005DB2: C4 41 2D FE D6     vpaddd      ymm10,ymm10,ymm14
  0000000000005DB7: C4 C1 4D EF F2     vpxor       ymm6,ymm6,ymm10
  0000000000005DBC: C5 E5 72 F6 07     vpslld      ymm3,ymm6,7
  0000000000005DC1: C5 CD 72 D6 19     vpsrld      ymm6,ymm6,19h
  0000000000005DC6: C5 CD EF F3        vpxor       ymm6,ymm6,ymm3
  0000000000005DCA: C4 43 0D 0F F6 0C  vpalignr    ymm14,ymm14,ymm14,0Ch
  0000000000005DD0: C4 43 2D 0F D2 08  vpalignr    ymm10,ymm10,ymm10,8
  0000000000005DD6: C4 E3 4D 0F F6 04  vpalignr    ymm6,ymm6,ymm6,4
  0000000000005DDC: C5 F5 FE CD        vpaddd      ymm1,ymm1,ymm5
  0000000000005DE0: C5 15 EF E9        vpxor       ymm13,ymm13,ymm1
  0000000000005DE4: C4 62 15 00 2D 40  vpshufb     ymm13,ymm13,ymmword ptr [.rdata+40h]
                    00 00 00
  0000000000005DED: C4 41 35 FE CD     vpaddd      ymm9,ymm9,ymm13
  0000000000005DF2: C4 C1 55 EF E9     vpxor       ymm5,ymm5,ymm9
  0000000000005DF7: C5 E5 72 D5 14     vpsrld      ymm3,ymm5,14h
  0000000000005DFC: C5 D5 72 F5 0C     vpslld      ymm5,ymm5,0Ch
  0000000000005E01: C5 D5 EF EB        vpxor       ymm5,ymm5,ymm3
  0000000000005E05: C5 F5 FE CD        vpaddd      ymm1,ymm1,ymm5
  0000000000005E09: C5 15 EF E9        vpxor       ymm13,ymm13,ymm1
  0000000000005E0D: C4 62 15 00 2D 20  vpshufb     ymm13,ymm13,ymmword ptr [.rdata+20h]
                    00 00 00
  0000000000005E16: C4 41 35 FE CD     vpaddd      ymm9,ymm9,ymm13
  0000000000005E1B: C4 C1 55 EF E9     vpxor       ymm5,ymm5,ymm9
  0000000000005E20: C5 E5 72 F5 07     vpslld      ymm3,ymm5,7
  0000000000005E25: C5 D5 72 D5 19     vpsrld      ymm5,ymm5,19h
  0000000000005E2A: C5 D5 EF EB        vpxor       ymm5,ymm5,ymm3
  0000000000005E2E: C4 43 15 0F ED 0C  vpalignr    ymm13,ymm13,ymm13,0Ch
  0000000000005E34: C4 43 35 0F C9 08  vpalignr    ymm9,ymm9,ymm9,8
  0000000000005E3A: C4 E3 55 0F ED 04  vpalignr    ymm5,ymm5,ymm5,4
  0000000000005E40: C5 FD FE C4        vpaddd      ymm0,ymm0,ymm4
  0000000000005E44: C5 1D EF E0        vpxor       ymm12,ymm12,ymm0
  0000000000005E48: C4 62 1D 00 25 40  vpshufb     ymm12,ymm12,ymmword ptr [.rdata+40h]
                    00 00 00
  0000000000005E51: C4 41 3D FE C4     vpaddd      ymm8,ymm8,ymm12
  0000000000005E56: C4 C1 5D EF E0     vpxor       ymm4,ymm4,ymm8
  0000000000005E5B: C5 E5 72 D4 14     vpsrld      ymm3,ymm4,14h
  0000000000005E60: C5 DD 72 F4 0C     vpslld      ymm4,ymm4,0Ch
  0000000000005E65: C5 DD EF E3        vpxor       ymm4,ymm4,ymm3
  0000000000005E69: C5 FD FE C4        vpaddd      ymm0,ymm0,ymm4
  0000000000005E6D: C5 1D EF E0        vpxor       ymm12,ymm12,ymm0
  0000000000005E71: C4 62 1D 00 25 20  vpshufb     ymm12,ymm12,ymmword ptr [.rdata+20h]
                    00 00 00
  0000000000005E7A: C4 41 3D FE C4     vpaddd      ymm8,ymm8,ymm12
  0000000000005E7F: C4 C1 5D EF E0     vpxor       ymm4,ymm4,ymm8
  0000000000005E84: C5 E5 72 F4 07     vpslld      ymm3,ymm4,7
  0000000000005E89: C5 DD 72 D4 19     vpsrld      ymm4,ymm4,19h
  0000000000005E8E: C5 DD EF E3        vpxor       ymm4,ymm4,ymm3
  0000000000005E92: C4 43 1D 0F E4 0C  vpalignr    ymm12,ymm12,ymm12,0Ch
  0000000000005E98: C4 43 3D 0F C0 08  vpalignr    ymm8,ymm8,ymm8,8
  0000000000005E9E: C4 E3 5D 0F E4 04  vpalignr    ymm4,ymm4,ymm4,4
  0000000000005EA4: 4C 03 13           add         r10,qword ptr [rbx]
  0000000000005EA7: 4C 13 5B 08        adc         r11,qword ptr [rbx+8]
  0000000000005EAB: 49 83 D4 01        adc         r12,1
  0000000000005EAF: 48 8B 85 A0 00 00  mov         rax,qword ptr [rbp+0A0h]
                    00
  0000000000005EB6: 49 89 C7           mov         r15,rax
  0000000000005EB9: 49 F7 E2           mul         rax,r10
  0000000000005EBC: 49 89 C5           mov         r13,rax
  0000000000005EBF: 49 89 D6           mov         r14,rdx
  0000000000005EC2: 48 8B 85 A0 00 00  mov         rax,qword ptr [rbp+0A0h]
                    00
  0000000000005EC9: 49 F7 E3           mul         rax,r11
  0000000000005ECC: 4D 0F AF FC        imul        r15,r12
  0000000000005ED0: 49 01 C6           add         r14,rax
  0000000000005ED3: 49 11 D7           adc         r15,rdx
  0000000000005ED6: 48 8B 85 A8 00 00  mov         rax,qword ptr [rbp+0A8h]
                    00
  0000000000005EDD: 49 89 C1           mov         r9,rax
  0000000000005EE0: 49 F7 E2           mul         rax,r10
  0000000000005EE3: 49 01 C6           add         r14,rax
  0000000000005EE6: 48 83 D2 00        adc         rdx,0
  0000000000005EEA: 49 89 D2           mov         r10,rdx
  0000000000005EED: 48 8B 85 A8 00 00  mov         rax,qword ptr [rbp+0A8h]
                    00
  0000000000005EF4: 49 F7 E3           mul         rax,r11
  0000000000005EF7: 49 01 C7           add         r15,rax
  0000000000005EFA: 48 83 D2 00        adc         rdx,0
  0000000000005EFE: 4D 0F AF CC        imul        r9,r12
  0000000000005F02: 4D 01 D7           add         r15,r10
  0000000000005F05: 49 11 D1           adc         r9,rdx
  0000000000005F08: 4D 89 EA           mov         r10,r13
  0000000000005F0B: 4D 89 F3           mov         r11,r14
  0000000000005F0E: 4D 89 FC           mov         r12,r15
  0000000000005F11: 49 83 E4 03        and         r12,3
  0000000000005F15: 4D 89 FD           mov         r13,r15
  0000000000005F18: 49 83 E5 FC        and         r13,0FFFFFFFFFFFFFFFCh
  0000000000005F1C: 4D 89 CE           mov         r14,r9
  0000000000005F1F: 4D 0F AC CF 02     shrd        r15,r9,2
  0000000000005F24: 49 C1 E9 02        shr         r9,2
  0000000000005F28: 4D 01 EF           add         r15,r13
  0000000000005F2B: 4D 11 F1           adc         r9,r14
  0000000000005F2E: 4D 01 FA           add         r10,r15
  0000000000005F31: 4D 11 CB           adc         r11,r9
  0000000000005F34: 49 83 D4 00        adc         r12,0
  0000000000005F38: 48 8D 5B 10        lea         rbx,[rbx+10h]
  0000000000005F3C: 49 FF C0           inc         r8
  0000000000005F3F: C5 ED FE D6        vpaddd      ymm2,ymm2,ymm6
  0000000000005F43: C5 0D EF F2        vpxor       ymm14,ymm14,ymm2
  0000000000005F47: C4 62 0D 00 35 40  vpshufb     ymm14,ymm14,ymmword ptr [.rdata+40h]
                    00 00 00
  0000000000005F50: C4 41 2D FE D6     vpaddd      ymm10,ymm10,ymm14
  0000000000005F55: C4 C1 4D EF F2     vpxor       ymm6,ymm6,ymm10
  0000000000005F5A: C5 E5 72 D6 14     vpsrld      ymm3,ymm6,14h
  0000000000005F5F: C5 CD 72 F6 0C     vpslld      ymm6,ymm6,0Ch
  0000000000005F64: C5 CD EF F3        vpxor       ymm6,ymm6,ymm3
  0000000000005F68: C5 ED FE D6        vpaddd      ymm2,ymm2,ymm6
  0000000000005F6C: C5 0D EF F2        vpxor       ymm14,ymm14,ymm2
  0000000000005F70: C4 62 0D 00 35 20  vpshufb     ymm14,ymm14,ymmword ptr [.rdata+20h]
                    00 00 00
  0000000000005F79: C4 41 2D FE D6     vpaddd      ymm10,ymm10,ymm14
  0000000000005F7E: C4 C1 4D EF F2     vpxor       ymm6,ymm6,ymm10
  0000000000005F83: C5 E5 72 F6 07     vpslld      ymm3,ymm6,7
  0000000000005F88: C5 CD 72 D6 19     vpsrld      ymm6,ymm6,19h
  0000000000005F8D: C5 CD EF F3        vpxor       ymm6,ymm6,ymm3
  0000000000005F91: C4 43 0D 0F F6 04  vpalignr    ymm14,ymm14,ymm14,4
  0000000000005F97: C4 43 2D 0F D2 08  vpalignr    ymm10,ymm10,ymm10,8
  0000000000005F9D: C4 E3 4D 0F F6 0C  vpalignr    ymm6,ymm6,ymm6,0Ch
  0000000000005FA3: C5 F5 FE CD        vpaddd      ymm1,ymm1,ymm5
  0000000000005FA7: C5 15 EF E9        vpxor       ymm13,ymm13,ymm1
  0000000000005FAB: C4 62 15 00 2D 40  vpshufb     ymm13,ymm13,ymmword ptr [.rdata+40h]
                    00 00 00
  0000000000005FB4: C4 41 35 FE CD     vpaddd      ymm9,ymm9,ymm13
  0000000000005FB9: C4 C1 55 EF E9     vpxor       ymm5,ymm5,ymm9
  0000000000005FBE: C5 E5 72 D5 14     vpsrld      ymm3,ymm5,14h
  0000000000005FC3: C5 D5 72 F5 0C     vpslld      ymm5,ymm5,0Ch
  0000000000005FC8: C5 D5 EF EB        vpxor       ymm5,ymm5,ymm3
  0000000000005FCC: C5 F5 FE CD        vpaddd      ymm1,ymm1,ymm5
  0000000000005FD0: C5 15 EF E9        vpxor       ymm13,ymm13,ymm1
  0000000000005FD4: C4 62 15 00 2D 20  vpshufb     ymm13,ymm13,ymmword ptr [.rdata+20h]
                    00 00 00
  0000000000005FDD: C4 41 35 FE CD     vpaddd      ymm9,ymm9,ymm13
  0000000000005FE2: C4 C1 55 EF E9     vpxor       ymm5,ymm5,ymm9
  0000000000005FE7: C5 E5 72 F5 07     vpslld      ymm3,ymm5,7
  0000000000005FEC: C5 D5 72 D5 19     vpsrld      ymm5,ymm5,19h
  0000000000005FF1: C5 D5 EF EB        vpxor       ymm5,ymm5,ymm3
  0000000000005FF5: C4 43 15 0F ED 04  vpalignr    ymm13,ymm13,ymm13,4
  0000000000005FFB: C4 43 35 0F C9 08  vpalignr    ymm9,ymm9,ymm9,8
  0000000000006001: C4 E3 55 0F ED 0C  vpalignr    ymm5,ymm5,ymm5,0Ch
  0000000000006007: C5 FD FE C4        vpaddd      ymm0,ymm0,ymm4
  000000000000600B: C5 1D EF E0        vpxor       ymm12,ymm12,ymm0
  000000000000600F: C4 62 1D 00 25 40  vpshufb     ymm12,ymm12,ymmword ptr [.rdata+40h]
                    00 00 00
  0000000000006018: C4 41 3D FE C4     vpaddd      ymm8,ymm8,ymm12
  000000000000601D: C4 C1 5D EF E0     vpxor       ymm4,ymm4,ymm8
  0000000000006022: C5 E5 72 D4 14     vpsrld      ymm3,ymm4,14h
  0000000000006027: C5 DD 72 F4 0C     vpslld      ymm4,ymm4,0Ch
  000000000000602C: C5 DD EF E3        vpxor       ymm4,ymm4,ymm3
  0000000000006030: C5 FD FE C4        vpaddd      ymm0,ymm0,ymm4
  0000000000006034: C5 1D EF E0        vpxor       ymm12,ymm12,ymm0
  0000000000006038: C4 62 1D 00 25 20  vpshufb     ymm12,ymm12,ymmword ptr [.rdata+20h]
                    00 00 00
  0000000000006041: C4 41 3D FE C4     vpaddd      ymm8,ymm8,ymm12
  0000000000006046: C4 C1 5D EF E0     vpxor       ymm4,ymm4,ymm8
  000000000000604B: C5 E5 72 F4 07     vpslld      ymm3,ymm4,7
  0000000000006050: C5 DD 72 D4 19     vpsrld      ymm4,ymm4,19h
  0000000000006055: C5 DD EF E3        vpxor       ymm4,ymm4,ymm3
  0000000000006059: C4 43 1D 0F E4 04  vpalignr    ymm12,ymm12,ymm12,4
  000000000000605F: C4 43 3D 0F C0 08  vpalignr    ymm8,ymm8,ymm8,8
  0000000000006065: C4 E3 5D 0F E4 0C  vpalignr    ymm4,ymm4,ymm4,0Ch
  000000000000606B: 49 39 C8           cmp         r8,rcx
  000000000000606E: 0F 82 82 FC FF FF  jb          L$open_avx2_tail_384_rounds_and_x2hash
  0000000000006074: 49 83 F8 0A        cmp         r8,0Ah
  0000000000006078: 0F 85 FA FC FF FF  jne         L$open_avx2_tail_384_rounds_and_x1hash
  000000000000607E: 49 89 D8           mov         r8,rbx
  0000000000006081: 48 29 F3           sub         rbx,rsi
  0000000000006084: 48 89 D9           mov         rcx,rbx
  0000000000006087: 48 8B 9D 20 01 00  mov         rbx,qword ptr [rbp+120h]
                    00
L$open_avx2_384_tail_hash:
  000000000000608E: 48 83 C1 10        add         rcx,10h
  0000000000006092: 48 39 D9           cmp         rcx,rbx
  0000000000006095: 0F 8F 87 00 00 00  jg          L$open_avx2_384_tail_done
  000000000000609B: 4D 03 10           add         r10,qword ptr [r8]
  000000000000609E: 4D 13 58 08        adc         r11,qword ptr [r8+8]
  00000000000060A2: 49 83 D4 01        adc         r12,1
  00000000000060A6: 48 8B 95 A0 00 00  mov         rdx,qword ptr [rbp+0A0h]
                    00
  00000000000060AD: 49 89 D7           mov         r15,rdx
  00000000000060B0: C4 42 93 F6 F2     mulx        r14,r13,r10
  00000000000060B5: C4 C2 FB F6 D3     mulx        rdx,rax,r11
  00000000000060BA: 4D 0F AF FC        imul        r15,r12
  00000000000060BE: 49 01 C6           add         r14,rax
  00000000000060C1: 49 11 D7           adc         r15,rdx
  00000000000060C4: 48 8B 95 A8 00 00  mov         rdx,qword ptr [rbp+0A8h]
                    00
  00000000000060CB: C4 C2 AB F6 C2     mulx        rax,r10,r10
  00000000000060D0: 4D 01 D6           add         r14,r10
  00000000000060D3: C4 42 A3 F6 CB     mulx        r9,r11,r11
  00000000000060D8: 4D 11 DF           adc         r15,r11
  00000000000060DB: 49 83 D1 00        adc         r9,0
  00000000000060DF: 49 0F AF D4        imul        rdx,r12
  00000000000060E3: 49 01 C7           add         r15,rax
  00000000000060E6: 49 11 D1           adc         r9,rdx
  00000000000060E9: 4D 89 EA           mov         r10,r13
  00000000000060EC: 4D 89 F3           mov         r11,r14
  00000000000060EF: 4D 89 FC           mov         r12,r15
  00000000000060F2: 49 83 E4 03        and         r12,3
  00000000000060F6: 4D 89 FD           mov         r13,r15
  00000000000060F9: 49 83 E5 FC        and         r13,0FFFFFFFFFFFFFFFCh
  00000000000060FD: 4D 89 CE           mov         r14,r9
  0000000000006100: 4D 0F AC CF 02     shrd        r15,r9,2
  0000000000006105: 49 C1 E9 02        shr         r9,2
  0000000000006109: 4D 01 EF           add         r15,r13
  000000000000610C: 4D 11 F1           adc         r9,r14
  000000000000610F: 4D 01 FA           add         r10,r15
  0000000000006112: 4D 11 CB           adc         r11,r9
  0000000000006115: 49 83 D4 00        adc         r12,0
  0000000000006119: 4D 8D 40 10        lea         r8,[r8+10h]
  000000000000611D: E9 6C FF FF FF     jmp         L$open_avx2_384_tail_hash
L$open_avx2_384_tail_done:
  0000000000006122: C5 ED FE 15 00 00  vpaddd      ymm2,ymm2,ymmword ptr [.rdata]
                    00 00
  000000000000612A: C5 CD FE B5 E0 00  vpaddd      ymm6,ymm6,ymmword ptr [rbp+0E0h]
                    00 00
  0000000000006132: C5 2D FE 95 00 01  vpaddd      ymm10,ymm10,ymmword ptr [rbp+100h]
                    00 00
  000000000000613A: C5 0D FE B5 80 01  vpaddd      ymm14,ymm14,ymmword ptr [rbp+180h]
                    00 00
  0000000000006142: C5 F5 FE 0D 00 00  vpaddd      ymm1,ymm1,ymmword ptr [.rdata]
                    00 00
  000000000000614A: C5 D5 FE AD E0 00  vpaddd      ymm5,ymm5,ymmword ptr [rbp+0E0h]
                    00 00
  0000000000006152: C5 35 FE 8D 00 01  vpaddd      ymm9,ymm9,ymmword ptr [rbp+100h]
                    00 00
  000000000000615A: C5 15 FE AD 60 01  vpaddd      ymm13,ymm13,ymmword ptr [rbp+160h]
                    00 00
  0000000000006162: C5 FD FE 05 00 00  vpaddd      ymm0,ymm0,ymmword ptr [.rdata]
                    00 00
  000000000000616A: C5 DD FE A5 E0 00  vpaddd      ymm4,ymm4,ymmword ptr [rbp+0E0h]
                    00 00
  0000000000006172: C5 3D FE 85 00 01  vpaddd      ymm8,ymm8,ymmword ptr [rbp+100h]
                    00 00
  000000000000617A: C5 1D FE A5 40 01  vpaddd      ymm12,ymm12,ymmword ptr [rbp+140h]
                    00 00
  0000000000006182: C4 E3 4D 46 DA 02  vperm2i128  ymm3,ymm6,ymm2,2
  0000000000006188: C4 E3 4D 46 F2 13  vperm2i128  ymm6,ymm6,ymm2,13h
  000000000000618E: C4 C3 0D 46 D2 02  vperm2i128  ymm2,ymm14,ymm10,2
  0000000000006194: C4 43 0D 46 D2 13  vperm2i128  ymm10,ymm14,ymm10,13h
  000000000000619A: C5 E5 EF 1E        vpxor       ymm3,ymm3,ymmword ptr [rsi]
  000000000000619E: C5 ED EF 56 20     vpxor       ymm2,ymm2,ymmword ptr [rsi+20h]
  00000000000061A3: C5 CD EF 76 40     vpxor       ymm6,ymm6,ymmword ptr [rsi+40h]
  00000000000061A8: C5 2D EF 56 60     vpxor       ymm10,ymm10,ymmword ptr [rsi+60h]
  00000000000061AD: C5 FE 7F 1F        vmovdqu     ymmword ptr [rdi],ymm3
  00000000000061B1: C5 FE 7F 57 20     vmovdqu     ymmword ptr [rdi+20h],ymm2
  00000000000061B6: C5 FE 7F 77 40     vmovdqu     ymmword ptr [rdi+40h],ymm6
  00000000000061BB: C5 7E 7F 57 60     vmovdqu     ymmword ptr [rdi+60h],ymm10
  00000000000061C0: C4 E3 55 46 D9 02  vperm2i128  ymm3,ymm5,ymm1,2
  00000000000061C6: C4 E3 55 46 E9 13  vperm2i128  ymm5,ymm5,ymm1,13h
  00000000000061CC: C4 C3 15 46 C9 02  vperm2i128  ymm1,ymm13,ymm9,2
  00000000000061D2: C4 43 15 46 C9 13  vperm2i128  ymm9,ymm13,ymm9,13h
  00000000000061D8: C5 E5 EF 9E 80 00  vpxor       ymm3,ymm3,ymmword ptr [rsi+80h]
                    00 00
  00000000000061E0: C5 F5 EF 8E A0 00  vpxor       ymm1,ymm1,ymmword ptr [rsi+0A0h]
                    00 00
  00000000000061E8: C5 D5 EF AE C0 00  vpxor       ymm5,ymm5,ymmword ptr [rsi+0C0h]
                    00 00
  00000000000061F0: C5 35 EF 8E E0 00  vpxor       ymm9,ymm9,ymmword ptr [rsi+0E0h]
                    00 00
  00000000000061F8: C5 FE 7F 9F 80 00  vmovdqu     ymmword ptr [rdi+80h],ymm3
                    00 00
  0000000000006200: C5 FE 7F 8F A0 00  vmovdqu     ymmword ptr [rdi+0A0h],ymm1
                    00 00
  0000000000006208: C5 FE 7F AF C0 00  vmovdqu     ymmword ptr [rdi+0C0h],ymm5
                    00 00
  0000000000006210: C5 7E 7F 8F E0 00  vmovdqu     ymmword ptr [rdi+0E0h],ymm9
                    00 00
  0000000000006218: C4 E3 5D 46 D8 13  vperm2i128  ymm3,ymm4,ymm0,13h
  000000000000621E: C4 E3 5D 46 C0 02  vperm2i128  ymm0,ymm4,ymm0,2
  0000000000006224: C4 C3 1D 46 E0 02  vperm2i128  ymm4,ymm12,ymm8,2
  000000000000622A: C4 43 1D 46 E0 13  vperm2i128  ymm12,ymm12,ymm8,13h
  0000000000006230: C5 7D 6F C3        vmovdqa     ymm8,ymm3
  0000000000006234: 48 8D B6 00 01 00  lea         rsi,[rsi+100h]
                    00
  000000000000623B: 48 8D BF 00 01 00  lea         rdi,[rdi+100h]
                    00
  0000000000006242: 48 81 EB 00 01 00  sub         rbx,100h
                    00
  0000000000006249: E9 E1 07 00 00     jmp         L$open_avx2_tail_128_xor
L$open_avx2_tail_512:
  000000000000624E: C5 FD 6F 05 00 00  vmovdqa     ymm0,ymmword ptr [.rdata]
                    00 00
  0000000000006256: C5 FD 6F A5 E0 00  vmovdqa     ymm4,ymmword ptr [rbp+0E0h]
                    00 00
  000000000000625E: C5 7D 6F 85 00 01  vmovdqa     ymm8,ymmword ptr [rbp+100h]
                    00 00
  0000000000006266: C5 FD 6F C8        vmovdqa     ymm1,ymm0
  000000000000626A: C5 FD 6F EC        vmovdqa     ymm5,ymm4
  000000000000626E: C4 41 7D 6F C8     vmovdqa     ymm9,ymm8
  0000000000006273: C5 FD 6F D0        vmovdqa     ymm2,ymm0
  0000000000006277: C5 FD 6F F4        vmovdqa     ymm6,ymm4
  000000000000627B: C4 41 7D 6F D0     vmovdqa     ymm10,ymm8
  0000000000006280: C5 FD 6F D8        vmovdqa     ymm3,ymm0
  0000000000006284: C5 FD 6F FC        vmovdqa     ymm7,ymm4
  0000000000006288: C4 41 7D 6F D8     vmovdqa     ymm11,ymm8
  000000000000628D: C5 7D 6F 25 80 00  vmovdqa     ymm12,ymmword ptr [.rdata+80h]
                    00 00
  0000000000006295: C5 1D FE BD 40 01  vpaddd      ymm15,ymm12,ymmword ptr [rbp+140h]
                    00 00
  000000000000629D: C4 41 1D FE F7     vpaddd      ymm14,ymm12,ymm15
  00000000000062A2: C4 41 1D FE EE     vpaddd      ymm13,ymm12,ymm14
  00000000000062A7: C4 41 1D FE E5     vpaddd      ymm12,ymm12,ymm13
  00000000000062AC: C5 7D 7F BD A0 01  vmovdqa     ymmword ptr [rbp+1A0h],ymm15
                    00 00
  00000000000062B4: C5 7D 7F B5 80 01  vmovdqa     ymmword ptr [rbp+180h],ymm14
                    00 00
  00000000000062BC: C5 7D 7F AD 60 01  vmovdqa     ymmword ptr [rbp+160h],ymm13
                    00 00
  00000000000062C4: C5 7D 7F A5 40 01  vmovdqa     ymmword ptr [rbp+140h],ymm12
                    00 00
  00000000000062CC: 48 31 C9           xor         rcx,rcx
  00000000000062CF: 49 89 F0           mov         r8,rsi
L$open_avx2_tail_512_rounds_and_x2hash:
  00000000000062D2: 4D 03 10           add         r10,qword ptr [r8]
  00000000000062D5: 4D 13 58 08        adc         r11,qword ptr [r8+8]
  00000000000062D9: 49 83 D4 01        adc         r12,1
  00000000000062DD: 48 8B 85 A0 00 00  mov         rax,qword ptr [rbp+0A0h]
                    00
  00000000000062E4: 49 89 C7           mov         r15,rax
  00000000000062E7: 49 F7 E2           mul         rax,r10
  00000000000062EA: 49 89 C5           mov         r13,rax
  00000000000062ED: 49 89 D6           mov         r14,rdx
  00000000000062F0: 48 8B 85 A0 00 00  mov         rax,qword ptr [rbp+0A0h]
                    00
  00000000000062F7: 49 F7 E3           mul         rax,r11
  00000000000062FA: 4D 0F AF FC        imul        r15,r12
  00000000000062FE: 49 01 C6           add         r14,rax
  0000000000006301: 49 11 D7           adc         r15,rdx
  0000000000006304: 48 8B 85 A8 00 00  mov         rax,qword ptr [rbp+0A8h]
                    00
  000000000000630B: 49 89 C1           mov         r9,rax
  000000000000630E: 49 F7 E2           mul         rax,r10
  0000000000006311: 49 01 C6           add         r14,rax
  0000000000006314: 48 83 D2 00        adc         rdx,0
  0000000000006318: 49 89 D2           mov         r10,rdx
  000000000000631B: 48 8B 85 A8 00 00  mov         rax,qword ptr [rbp+0A8h]
                    00
  0000000000006322: 49 F7 E3           mul         rax,r11
  0000000000006325: 49 01 C7           add         r15,rax
  0000000000006328: 48 83 D2 00        adc         rdx,0
  000000000000632C: 4D 0F AF CC        imul        r9,r12
  0000000000006330: 4D 01 D7           add         r15,r10
  0000000000006333: 49 11 D1           adc         r9,rdx
  0000000000006336: 4D 89 EA           mov         r10,r13
  0000000000006339: 4D 89 F3           mov         r11,r14
  000000000000633C: 4D 89 FC           mov         r12,r15
  000000000000633F: 49 83 E4 03        and         r12,3
  0000000000006343: 4D 89 FD           mov         r13,r15
  0000000000006346: 49 83 E5 FC        and         r13,0FFFFFFFFFFFFFFFCh
  000000000000634A: 4D 89 CE           mov         r14,r9
  000000000000634D: 4D 0F AC CF 02     shrd        r15,r9,2
  0000000000006352: 49 C1 E9 02        shr         r9,2
  0000000000006356: 4D 01 EF           add         r15,r13
  0000000000006359: 4D 11 F1           adc         r9,r14
  000000000000635C: 4D 01 FA           add         r10,r15
  000000000000635F: 4D 11 CB           adc         r11,r9
  0000000000006362: 49 83 D4 00        adc         r12,0
  0000000000006366: 4D 8D 40 10        lea         r8,[r8+10h]
L$open_avx2_tail_512_rounds_and_x1hash:
  000000000000636A: C5 7D 7F 85 20 01  vmovdqa     ymmword ptr [rbp+120h],ymm8
                    00 00
  0000000000006372: C5 7D 6F 05 40 00  vmovdqa     ymm8,ymmword ptr [.rdata+40h]
                    00 00
  000000000000637A: C5 E5 FE DF        vpaddd      ymm3,ymm3,ymm7
  000000000000637E: C5 ED FE D6        vpaddd      ymm2,ymm2,ymm6
  0000000000006382: C5 F5 FE CD        vpaddd      ymm1,ymm1,ymm5
  0000000000006386: C5 FD FE C4        vpaddd      ymm0,ymm0,ymm4
  000000000000638A: C5 05 EF FB        vpxor       ymm15,ymm15,ymm3
  000000000000638E: C5 0D EF F2        vpxor       ymm14,ymm14,ymm2
  0000000000006392: C5 15 EF E9        vpxor       ymm13,ymm13,ymm1
  0000000000006396: C5 1D EF E0        vpxor       ymm12,ymm12,ymm0
  000000000000639A: C4 42 05 00 F8     vpshufb     ymm15,ymm15,ymm8
  000000000000639F: C4 42 0D 00 F0     vpshufb     ymm14,ymm14,ymm8
  00000000000063A4: C4 42 15 00 E8     vpshufb     ymm13,ymm13,ymm8
  00000000000063A9: C4 42 1D 00 E0     vpshufb     ymm12,ymm12,ymm8
  00000000000063AE: C4 41 25 FE DF     vpaddd      ymm11,ymm11,ymm15
  00000000000063B3: C4 41 2D FE D6     vpaddd      ymm10,ymm10,ymm14
  00000000000063B8: C4 41 35 FE CD     vpaddd      ymm9,ymm9,ymm13
  00000000000063BD: C5 1D FE 85 20 01  vpaddd      ymm8,ymm12,ymmword ptr [rbp+120h]
                    00 00
  00000000000063C5: C4 C1 45 EF FB     vpxor       ymm7,ymm7,ymm11
  00000000000063CA: C4 C1 4D EF F2     vpxor       ymm6,ymm6,ymm10
  00000000000063CF: C4 C1 55 EF E9     vpxor       ymm5,ymm5,ymm9
  00000000000063D4: C4 C1 5D EF E0     vpxor       ymm4,ymm4,ymm8
  00000000000063D9: C5 7D 7F 85 20 01  vmovdqa     ymmword ptr [rbp+120h],ymm8
                    00 00
  00000000000063E1: C5 BD 72 D7 14     vpsrld      ymm8,ymm7,14h
  00000000000063E6: C5 C5 72 F7 0C     vpslld      ymm7,ymm7,0Ch
  00000000000063EB: C4 C1 45 EF F8     vpxor       ymm7,ymm7,ymm8
  00000000000063F0: C5 BD 72 D6 14     vpsrld      ymm8,ymm6,14h
  00000000000063F5: C5 CD 72 F6 0C     vpslld      ymm6,ymm6,0Ch
  00000000000063FA: C4 C1 4D EF F0     vpxor       ymm6,ymm6,ymm8
  00000000000063FF: C5 BD 72 D5 14     vpsrld      ymm8,ymm5,14h
  0000000000006404: C5 D5 72 F5 0C     vpslld      ymm5,ymm5,0Ch
  0000000000006409: C4 C1 55 EF E8     vpxor       ymm5,ymm5,ymm8
  000000000000640E: C5 BD 72 D4 14     vpsrld      ymm8,ymm4,14h
  0000000000006413: C5 DD 72 F4 0C     vpslld      ymm4,ymm4,0Ch
  0000000000006418: C4 C1 5D EF E0     vpxor       ymm4,ymm4,ymm8
  000000000000641D: C5 7D 6F 05 20 00  vmovdqa     ymm8,ymmword ptr [.rdata+20h]
                    00 00
  0000000000006425: C5 E5 FE DF        vpaddd      ymm3,ymm3,ymm7
  0000000000006429: 4D 03 10           add         r10,qword ptr [r8]
  000000000000642C: 4D 13 58 08        adc         r11,qword ptr [r8+8]
  0000000000006430: 49 83 D4 01        adc         r12,1
  0000000000006434: 48 8B 95 A0 00 00  mov         rdx,qword ptr [rbp+0A0h]
                    00
  000000000000643B: 49 89 D7           mov         r15,rdx
  000000000000643E: C4 42 93 F6 F2     mulx        r14,r13,r10
  0000000000006443: C4 C2 FB F6 D3     mulx        rdx,rax,r11
  0000000000006448: 4D 0F AF FC        imul        r15,r12
  000000000000644C: 49 01 C6           add         r14,rax
  000000000000644F: 49 11 D7           adc         r15,rdx
  0000000000006452: 48 8B 95 A8 00 00  mov         rdx,qword ptr [rbp+0A8h]
                    00
  0000000000006459: C4 C2 AB F6 C2     mulx        rax,r10,r10
  000000000000645E: 4D 01 D6           add         r14,r10
  0000000000006461: C4 42 A3 F6 CB     mulx        r9,r11,r11
  0000000000006466: 4D 11 DF           adc         r15,r11
  0000000000006469: 49 83 D1 00        adc         r9,0
  000000000000646D: 49 0F AF D4        imul        rdx,r12
  0000000000006471: 49 01 C7           add         r15,rax
  0000000000006474: 49 11 D1           adc         r9,rdx
  0000000000006477: 4D 89 EA           mov         r10,r13
  000000000000647A: 4D 89 F3           mov         r11,r14
  000000000000647D: 4D 89 FC           mov         r12,r15
  0000000000006480: 49 83 E4 03        and         r12,3
  0000000000006484: 4D 89 FD           mov         r13,r15
  0000000000006487: 49 83 E5 FC        and         r13,0FFFFFFFFFFFFFFFCh
  000000000000648B: 4D 89 CE           mov         r14,r9
  000000000000648E: 4D 0F AC CF 02     shrd        r15,r9,2
  0000000000006493: 49 C1 E9 02        shr         r9,2
  0000000000006497: 4D 01 EF           add         r15,r13
  000000000000649A: 4D 11 F1           adc         r9,r14
  000000000000649D: 4D 01 FA           add         r10,r15
  00000000000064A0: 4D 11 CB           adc         r11,r9
  00000000000064A3: 49 83 D4 00        adc         r12,0
  00000000000064A7: C5 ED FE D6        vpaddd      ymm2,ymm2,ymm6
  00000000000064AB: C5 F5 FE CD        vpaddd      ymm1,ymm1,ymm5
  00000000000064AF: C5 FD FE C4        vpaddd      ymm0,ymm0,ymm4
  00000000000064B3: C5 05 EF FB        vpxor       ymm15,ymm15,ymm3
  00000000000064B7: C5 0D EF F2        vpxor       ymm14,ymm14,ymm2
  00000000000064BB: C5 15 EF E9        vpxor       ymm13,ymm13,ymm1
  00000000000064BF: C5 1D EF E0        vpxor       ymm12,ymm12,ymm0
  00000000000064C3: C4 42 05 00 F8     vpshufb     ymm15,ymm15,ymm8
  00000000000064C8: C4 42 0D 00 F0     vpshufb     ymm14,ymm14,ymm8
  00000000000064CD: C4 42 15 00 E8     vpshufb     ymm13,ymm13,ymm8
  00000000000064D2: C4 42 1D 00 E0     vpshufb     ymm12,ymm12,ymm8
  00000000000064D7: C4 41 25 FE DF     vpaddd      ymm11,ymm11,ymm15
  00000000000064DC: C4 41 2D FE D6     vpaddd      ymm10,ymm10,ymm14
  00000000000064E1: C4 41 35 FE CD     vpaddd      ymm9,ymm9,ymm13
  00000000000064E6: C5 1D FE 85 20 01  vpaddd      ymm8,ymm12,ymmword ptr [rbp+120h]
                    00 00
  00000000000064EE: C4 C1 45 EF FB     vpxor       ymm7,ymm7,ymm11
  00000000000064F3: C4 C1 4D EF F2     vpxor       ymm6,ymm6,ymm10
  00000000000064F8: C4 C1 55 EF E9     vpxor       ymm5,ymm5,ymm9
  00000000000064FD: C4 C1 5D EF E0     vpxor       ymm4,ymm4,ymm8
  0000000000006502: C5 7D 7F 85 20 01  vmovdqa     ymmword ptr [rbp+120h],ymm8
                    00 00
  000000000000650A: C5 BD 72 D7 19     vpsrld      ymm8,ymm7,19h
  000000000000650F: C5 C5 72 F7 07     vpslld      ymm7,ymm7,7
  0000000000006514: C4 C1 45 EF F8     vpxor       ymm7,ymm7,ymm8
  0000000000006519: C5 BD 72 D6 19     vpsrld      ymm8,ymm6,19h
  000000000000651E: C5 CD 72 F6 07     vpslld      ymm6,ymm6,7
  0000000000006523: C4 C1 4D EF F0     vpxor       ymm6,ymm6,ymm8
  0000000000006528: C5 BD 72 D5 19     vpsrld      ymm8,ymm5,19h
  000000000000652D: C5 D5 72 F5 07     vpslld      ymm5,ymm5,7
  0000000000006532: C4 C1 55 EF E8     vpxor       ymm5,ymm5,ymm8
  0000000000006537: C5 BD 72 D4 19     vpsrld      ymm8,ymm4,19h
  000000000000653C: C5 DD 72 F4 07     vpslld      ymm4,ymm4,7
  0000000000006541: C4 C1 5D EF E0     vpxor       ymm4,ymm4,ymm8
  0000000000006546: C5 7D 6F 85 20 01  vmovdqa     ymm8,ymmword ptr [rbp+120h]
                    00 00
  000000000000654E: C4 E3 45 0F FF 04  vpalignr    ymm7,ymm7,ymm7,4
  0000000000006554: C4 43 25 0F DB 08  vpalignr    ymm11,ymm11,ymm11,8
  000000000000655A: C4 43 05 0F FF 0C  vpalignr    ymm15,ymm15,ymm15,0Ch
  0000000000006560: C4 E3 4D 0F F6 04  vpalignr    ymm6,ymm6,ymm6,4
  0000000000006566: C4 43 2D 0F D2 08  vpalignr    ymm10,ymm10,ymm10,8
  000000000000656C: C4 43 0D 0F F6 0C  vpalignr    ymm14,ymm14,ymm14,0Ch
  0000000000006572: C4 E3 55 0F ED 04  vpalignr    ymm5,ymm5,ymm5,4
  0000000000006578: C4 43 35 0F C9 08  vpalignr    ymm9,ymm9,ymm9,8
  000000000000657E: C4 43 15 0F ED 0C  vpalignr    ymm13,ymm13,ymm13,0Ch
  0000000000006584: C4 E3 5D 0F E4 04  vpalignr    ymm4,ymm4,ymm4,4
  000000000000658A: C4 43 3D 0F C0 08  vpalignr    ymm8,ymm8,ymm8,8
  0000000000006590: C4 43 1D 0F E4 0C  vpalignr    ymm12,ymm12,ymm12,0Ch
  0000000000006596: C5 7D 7F 85 20 01  vmovdqa     ymmword ptr [rbp+120h],ymm8
                    00 00
  000000000000659E: C5 7D 6F 05 40 00  vmovdqa     ymm8,ymmword ptr [.rdata+40h]
                    00 00
  00000000000065A6: C5 E5 FE DF        vpaddd      ymm3,ymm3,ymm7
  00000000000065AA: 4D 03 50 10        add         r10,qword ptr [r8+10h]
  00000000000065AE: 4D 13 58 18        adc         r11,qword ptr [r8+18h]
  00000000000065B2: 49 83 D4 01        adc         r12,1
  00000000000065B6: 48 8B 95 A0 00 00  mov         rdx,qword ptr [rbp+0A0h]
                    00
  00000000000065BD: 49 89 D7           mov         r15,rdx
  00000000000065C0: C4 42 93 F6 F2     mulx        r14,r13,r10
  00000000000065C5: C4 C2 FB F6 D3     mulx        rdx,rax,r11
  00000000000065CA: 4D 0F AF FC        imul        r15,r12
  00000000000065CE: 49 01 C6           add         r14,rax
  00000000000065D1: 49 11 D7           adc         r15,rdx
  00000000000065D4: 48 8B 95 A8 00 00  mov         rdx,qword ptr [rbp+0A8h]
                    00
  00000000000065DB: C4 C2 AB F6 C2     mulx        rax,r10,r10
  00000000000065E0: 4D 01 D6           add         r14,r10
  00000000000065E3: C4 42 A3 F6 CB     mulx        r9,r11,r11
  00000000000065E8: 4D 11 DF           adc         r15,r11
  00000000000065EB: 49 83 D1 00        adc         r9,0
  00000000000065EF: 49 0F AF D4        imul        rdx,r12
  00000000000065F3: 49 01 C7           add         r15,rax
  00000000000065F6: 49 11 D1           adc         r9,rdx
  00000000000065F9: 4D 89 EA           mov         r10,r13
  00000000000065FC: 4D 89 F3           mov         r11,r14
  00000000000065FF: 4D 89 FC           mov         r12,r15
  0000000000006602: 49 83 E4 03        and         r12,3
  0000000000006606: 4D 89 FD           mov         r13,r15
  0000000000006609: 49 83 E5 FC        and         r13,0FFFFFFFFFFFFFFFCh
  000000000000660D: 4D 89 CE           mov         r14,r9
  0000000000006610: 4D 0F AC CF 02     shrd        r15,r9,2
  0000000000006615: 49 C1 E9 02        shr         r9,2
  0000000000006619: 4D 01 EF           add         r15,r13
  000000000000661C: 4D 11 F1           adc         r9,r14
  000000000000661F: 4D 01 FA           add         r10,r15
  0000000000006622: 4D 11 CB           adc         r11,r9
  0000000000006625: 49 83 D4 00        adc         r12,0
  0000000000006629: 4D 8D 40 20        lea         r8,[r8+20h]
  000000000000662D: C5 ED FE D6        vpaddd      ymm2,ymm2,ymm6
  0000000000006631: C5 F5 FE CD        vpaddd      ymm1,ymm1,ymm5
  0000000000006635: C5 FD FE C4        vpaddd      ymm0,ymm0,ymm4
  0000000000006639: C5 05 EF FB        vpxor       ymm15,ymm15,ymm3
  000000000000663D: C5 0D EF F2        vpxor       ymm14,ymm14,ymm2
  0000000000006641: C5 15 EF E9        vpxor       ymm13,ymm13,ymm1
  0000000000006645: C5 1D EF E0        vpxor       ymm12,ymm12,ymm0
  0000000000006649: C4 42 05 00 F8     vpshufb     ymm15,ymm15,ymm8
  000000000000664E: C4 42 0D 00 F0     vpshufb     ymm14,ymm14,ymm8
  0000000000006653: C4 42 15 00 E8     vpshufb     ymm13,ymm13,ymm8
  0000000000006658: C4 42 1D 00 E0     vpshufb     ymm12,ymm12,ymm8
  000000000000665D: C4 41 25 FE DF     vpaddd      ymm11,ymm11,ymm15
  0000000000006662: C4 41 2D FE D6     vpaddd      ymm10,ymm10,ymm14
  0000000000006667: C4 41 35 FE CD     vpaddd      ymm9,ymm9,ymm13
  000000000000666C: C5 1D FE 85 20 01  vpaddd      ymm8,ymm12,ymmword ptr [rbp+120h]
                    00 00
  0000000000006674: C4 C1 45 EF FB     vpxor       ymm7,ymm7,ymm11
  0000000000006679: C4 C1 4D EF F2     vpxor       ymm6,ymm6,ymm10
  000000000000667E: C4 C1 55 EF E9     vpxor       ymm5,ymm5,ymm9
  0000000000006683: C4 C1 5D EF E0     vpxor       ymm4,ymm4,ymm8
  0000000000006688: C5 7D 7F 85 20 01  vmovdqa     ymmword ptr [rbp+120h],ymm8
                    00 00
  0000000000006690: C5 BD 72 D7 14     vpsrld      ymm8,ymm7,14h
  0000000000006695: C5 C5 72 F7 0C     vpslld      ymm7,ymm7,0Ch
  000000000000669A: C4 C1 45 EF F8     vpxor       ymm7,ymm7,ymm8
  000000000000669F: C5 BD 72 D6 14     vpsrld      ymm8,ymm6,14h
  00000000000066A4: C5 CD 72 F6 0C     vpslld      ymm6,ymm6,0Ch
  00000000000066A9: C4 C1 4D EF F0     vpxor       ymm6,ymm6,ymm8
  00000000000066AE: C5 BD 72 D5 14     vpsrld      ymm8,ymm5,14h
  00000000000066B3: C5 D5 72 F5 0C     vpslld      ymm5,ymm5,0Ch
  00000000000066B8: C4 C1 55 EF E8     vpxor       ymm5,ymm5,ymm8
  00000000000066BD: C5 BD 72 D4 14     vpsrld      ymm8,ymm4,14h
  00000000000066C2: C5 DD 72 F4 0C     vpslld      ymm4,ymm4,0Ch
  00000000000066C7: C4 C1 5D EF E0     vpxor       ymm4,ymm4,ymm8
  00000000000066CC: C5 7D 6F 05 20 00  vmovdqa     ymm8,ymmword ptr [.rdata+20h]
                    00 00
  00000000000066D4: C5 E5 FE DF        vpaddd      ymm3,ymm3,ymm7
  00000000000066D8: C5 ED FE D6        vpaddd      ymm2,ymm2,ymm6
  00000000000066DC: C5 F5 FE CD        vpaddd      ymm1,ymm1,ymm5
  00000000000066E0: C5 FD FE C4        vpaddd      ymm0,ymm0,ymm4
  00000000000066E4: C5 05 EF FB        vpxor       ymm15,ymm15,ymm3
  00000000000066E8: C5 0D EF F2        vpxor       ymm14,ymm14,ymm2
  00000000000066EC: C5 15 EF E9        vpxor       ymm13,ymm13,ymm1
  00000000000066F0: C5 1D EF E0        vpxor       ymm12,ymm12,ymm0
  00000000000066F4: C4 42 05 00 F8     vpshufb     ymm15,ymm15,ymm8
  00000000000066F9: C4 42 0D 00 F0     vpshufb     ymm14,ymm14,ymm8
  00000000000066FE: C4 42 15 00 E8     vpshufb     ymm13,ymm13,ymm8
  0000000000006703: C4 42 1D 00 E0     vpshufb     ymm12,ymm12,ymm8
  0000000000006708: C4 41 25 FE DF     vpaddd      ymm11,ymm11,ymm15
  000000000000670D: C4 41 2D FE D6     vpaddd      ymm10,ymm10,ymm14
  0000000000006712: C4 41 35 FE CD     vpaddd      ymm9,ymm9,ymm13
  0000000000006717: C5 1D FE 85 20 01  vpaddd      ymm8,ymm12,ymmword ptr [rbp+120h]
                    00 00
  000000000000671F: C4 C1 45 EF FB     vpxor       ymm7,ymm7,ymm11
  0000000000006724: C4 C1 4D EF F2     vpxor       ymm6,ymm6,ymm10
  0000000000006729: C4 C1 55 EF E9     vpxor       ymm5,ymm5,ymm9
  000000000000672E: C4 C1 5D EF E0     vpxor       ymm4,ymm4,ymm8
  0000000000006733: C5 7D 7F 85 20 01  vmovdqa     ymmword ptr [rbp+120h],ymm8
                    00 00
  000000000000673B: C5 BD 72 D7 19     vpsrld      ymm8,ymm7,19h
  0000000000006740: C5 C5 72 F7 07     vpslld      ymm7,ymm7,7
  0000000000006745: C4 C1 45 EF F8     vpxor       ymm7,ymm7,ymm8
  000000000000674A: C5 BD 72 D6 19     vpsrld      ymm8,ymm6,19h
  000000000000674F: C5 CD 72 F6 07     vpslld      ymm6,ymm6,7
  0000000000006754: C4 C1 4D EF F0     vpxor       ymm6,ymm6,ymm8
  0000000000006759: C5 BD 72 D5 19     vpsrld      ymm8,ymm5,19h
  000000000000675E: C5 D5 72 F5 07     vpslld      ymm5,ymm5,7
  0000000000006763: C4 C1 55 EF E8     vpxor       ymm5,ymm5,ymm8
  0000000000006768: C5 BD 72 D4 19     vpsrld      ymm8,ymm4,19h
  000000000000676D: C5 DD 72 F4 07     vpslld      ymm4,ymm4,7
  0000000000006772: C4 C1 5D EF E0     vpxor       ymm4,ymm4,ymm8
  0000000000006777: C5 7D 6F 85 20 01  vmovdqa     ymm8,ymmword ptr [rbp+120h]
                    00 00
  000000000000677F: C4 E3 45 0F FF 0C  vpalignr    ymm7,ymm7,ymm7,0Ch
  0000000000006785: C4 43 25 0F DB 08  vpalignr    ymm11,ymm11,ymm11,8
  000000000000678B: C4 43 05 0F FF 04  vpalignr    ymm15,ymm15,ymm15,4
  0000000000006791: C4 E3 4D 0F F6 0C  vpalignr    ymm6,ymm6,ymm6,0Ch
  0000000000006797: C4 43 2D 0F D2 08  vpalignr    ymm10,ymm10,ymm10,8
  000000000000679D: C4 43 0D 0F F6 04  vpalignr    ymm14,ymm14,ymm14,4
  00000000000067A3: C4 E3 55 0F ED 0C  vpalignr    ymm5,ymm5,ymm5,0Ch
  00000000000067A9: C4 43 35 0F C9 08  vpalignr    ymm9,ymm9,ymm9,8
  00000000000067AF: C4 43 15 0F ED 04  vpalignr    ymm13,ymm13,ymm13,4
  00000000000067B5: C4 E3 5D 0F E4 0C  vpalignr    ymm4,ymm4,ymm4,0Ch
  00000000000067BB: C4 43 3D 0F C0 08  vpalignr    ymm8,ymm8,ymm8,8
  00000000000067C1: C4 43 1D 0F E4 04  vpalignr    ymm12,ymm12,ymm12,4
  00000000000067C7: 48 FF C1           inc         rcx
  00000000000067CA: 48 83 F9 04        cmp         rcx,4
  00000000000067CE: 0F 8C FE FA FF FF  jl          L$open_avx2_tail_512_rounds_and_x2hash
  00000000000067D4: 48 83 F9 0A        cmp         rcx,0Ah
  00000000000067D8: 0F 85 8C FB FF FF  jne         L$open_avx2_tail_512_rounds_and_x1hash
  00000000000067DE: 48 89 D9           mov         rcx,rbx
  00000000000067E1: 48 81 E9 80 01 00  sub         rcx,180h
                    00
  00000000000067E8: 48 83 E1 F0        and         rcx,0FFFFFFFFFFFFFFF0h
L$open_avx2_tail_512_hash:
  00000000000067EC: 48 85 C9           test        rcx,rcx
  00000000000067EF: 0F 84 8B 00 00 00  je          L$open_avx2_tail_512_done
  00000000000067F5: 4D 03 10           add         r10,qword ptr [r8]
  00000000000067F8: 4D 13 58 08        adc         r11,qword ptr [r8+8]
  00000000000067FC: 49 83 D4 01        adc         r12,1
  0000000000006800: 48 8B 95 A0 00 00  mov         rdx,qword ptr [rbp+0A0h]
                    00
  0000000000006807: 49 89 D7           mov         r15,rdx
  000000000000680A: C4 42 93 F6 F2     mulx        r14,r13,r10
  000000000000680F: C4 C2 FB F6 D3     mulx        rdx,rax,r11
  0000000000006814: 4D 0F AF FC        imul        r15,r12
  0000000000006818: 49 01 C6           add         r14,rax
  000000000000681B: 49 11 D7           adc         r15,rdx
  000000000000681E: 48 8B 95 A8 00 00  mov         rdx,qword ptr [rbp+0A8h]
                    00
  0000000000006825: C4 C2 AB F6 C2     mulx        rax,r10,r10
  000000000000682A: 4D 01 D6           add         r14,r10
  000000000000682D: C4 42 A3 F6 CB     mulx        r9,r11,r11
  0000000000006832: 4D 11 DF           adc         r15,r11
  0000000000006835: 49 83 D1 00        adc         r9,0
  0000000000006839: 49 0F AF D4        imul        rdx,r12
  000000000000683D: 49 01 C7           add         r15,rax
  0000000000006840: 49 11 D1           adc         r9,rdx
  0000000000006843: 4D 89 EA           mov         r10,r13
  0000000000006846: 4D 89 F3           mov         r11,r14
  0000000000006849: 4D 89 FC           mov         r12,r15
  000000000000684C: 49 83 E4 03        and         r12,3
  0000000000006850: 4D 89 FD           mov         r13,r15
  0000000000006853: 49 83 E5 FC        and         r13,0FFFFFFFFFFFFFFFCh
  0000000000006857: 4D 89 CE           mov         r14,r9
  000000000000685A: 4D 0F AC CF 02     shrd        r15,r9,2
  000000000000685F: 49 C1 E9 02        shr         r9,2
  0000000000006863: 4D 01 EF           add         r15,r13
  0000000000006866: 4D 11 F1           adc         r9,r14
  0000000000006869: 4D 01 FA           add         r10,r15
  000000000000686C: 4D 11 CB           adc         r11,r9
  000000000000686F: 49 83 D4 00        adc         r12,0
  0000000000006873: 4D 8D 40 10        lea         r8,[r8+10h]
  0000000000006877: 48 83 E9 10        sub         rcx,10h
  000000000000687B: E9 6C FF FF FF     jmp         L$open_avx2_tail_512_hash
L$open_avx2_tail_512_done:
  0000000000006880: C5 E5 FE 1D 00 00  vpaddd      ymm3,ymm3,ymmword ptr [.rdata]
                    00 00
  0000000000006888: C5 C5 FE BD E0 00  vpaddd      ymm7,ymm7,ymmword ptr [rbp+0E0h]
                    00 00
  0000000000006890: C5 25 FE 9D 00 01  vpaddd      ymm11,ymm11,ymmword ptr [rbp+100h]
                    00 00
  0000000000006898: C5 05 FE BD A0 01  vpaddd      ymm15,ymm15,ymmword ptr [rbp+1A0h]
                    00 00
  00000000000068A0: C5 ED FE 15 00 00  vpaddd      ymm2,ymm2,ymmword ptr [.rdata]
                    00 00
  00000000000068A8: C5 CD FE B5 E0 00  vpaddd      ymm6,ymm6,ymmword ptr [rbp+0E0h]
                    00 00
  00000000000068B0: C5 2D FE 95 00 01  vpaddd      ymm10,ymm10,ymmword ptr [rbp+100h]
                    00 00
  00000000000068B8: C5 0D FE B5 80 01  vpaddd      ymm14,ymm14,ymmword ptr [rbp+180h]
                    00 00
  00000000000068C0: C5 F5 FE 0D 00 00  vpaddd      ymm1,ymm1,ymmword ptr [.rdata]
                    00 00
  00000000000068C8: C5 D5 FE AD E0 00  vpaddd      ymm5,ymm5,ymmword ptr [rbp+0E0h]
                    00 00
  00000000000068D0: C5 35 FE 8D 00 01  vpaddd      ymm9,ymm9,ymmword ptr [rbp+100h]
                    00 00
  00000000000068D8: C5 15 FE AD 60 01  vpaddd      ymm13,ymm13,ymmword ptr [rbp+160h]
                    00 00
  00000000000068E0: C5 FD FE 05 00 00  vpaddd      ymm0,ymm0,ymmword ptr [.rdata]
                    00 00
  00000000000068E8: C5 DD FE A5 E0 00  vpaddd      ymm4,ymm4,ymmword ptr [rbp+0E0h]
                    00 00
  00000000000068F0: C5 3D FE 85 00 01  vpaddd      ymm8,ymm8,ymmword ptr [rbp+100h]
                    00 00
  00000000000068F8: C5 1D FE A5 40 01  vpaddd      ymm12,ymm12,ymmword ptr [rbp+140h]
                    00 00
  0000000000006900: C5 FD 7F 85 20 01  vmovdqa     ymmword ptr [rbp+120h],ymm0
                    00 00
  0000000000006908: C4 E3 45 46 C3 02  vperm2i128  ymm0,ymm7,ymm3,2
  000000000000690E: C4 E3 45 46 FB 13  vperm2i128  ymm7,ymm7,ymm3,13h
  0000000000006914: C4 C3 05 46 DB 02  vperm2i128  ymm3,ymm15,ymm11,2
  000000000000691A: C4 43 05 46 DB 13  vperm2i128  ymm11,ymm15,ymm11,13h
  0000000000006920: C5 FD EF 06        vpxor       ymm0,ymm0,ymmword ptr [rsi]
  0000000000006924: C5 E5 EF 5E 20     vpxor       ymm3,ymm3,ymmword ptr [rsi+20h]
  0000000000006929: C5 C5 EF 7E 40     vpxor       ymm7,ymm7,ymmword ptr [rsi+40h]
  000000000000692E: C5 25 EF 5E 60     vpxor       ymm11,ymm11,ymmword ptr [rsi+60h]
  0000000000006933: C5 FE 7F 07        vmovdqu     ymmword ptr [rdi],ymm0
  0000000000006937: C5 FE 7F 5F 20     vmovdqu     ymmword ptr [rdi+20h],ymm3
  000000000000693C: C5 FE 7F 7F 40     vmovdqu     ymmword ptr [rdi+40h],ymm7
  0000000000006941: C5 7E 7F 5F 60     vmovdqu     ymmword ptr [rdi+60h],ymm11
  0000000000006946: C5 FD 6F 85 20 01  vmovdqa     ymm0,ymmword ptr [rbp+120h]
                    00 00
  000000000000694E: C4 E3 4D 46 DA 02  vperm2i128  ymm3,ymm6,ymm2,2
  0000000000006954: C4 E3 4D 46 F2 13  vperm2i128  ymm6,ymm6,ymm2,13h
  000000000000695A: C4 C3 0D 46 D2 02  vperm2i128  ymm2,ymm14,ymm10,2
  0000000000006960: C4 43 0D 46 D2 13  vperm2i128  ymm10,ymm14,ymm10,13h
  0000000000006966: C5 E5 EF 9E 80 00  vpxor       ymm3,ymm3,ymmword ptr [rsi+80h]
                    00 00
  000000000000696E: C5 ED EF 96 A0 00  vpxor       ymm2,ymm2,ymmword ptr [rsi+0A0h]
                    00 00
  0000000000006976: C5 CD EF B6 C0 00  vpxor       ymm6,ymm6,ymmword ptr [rsi+0C0h]
                    00 00
  000000000000697E: C5 2D EF 96 E0 00  vpxor       ymm10,ymm10,ymmword ptr [rsi+0E0h]
                    00 00
  0000000000006986: C5 FE 7F 9F 80 00  vmovdqu     ymmword ptr [rdi+80h],ymm3
                    00 00
  000000000000698E: C5 FE 7F 97 A0 00  vmovdqu     ymmword ptr [rdi+0A0h],ymm2
                    00 00
  0000000000006996: C5 FE 7F B7 C0 00  vmovdqu     ymmword ptr [rdi+0C0h],ymm6
                    00 00
  000000000000699E: C5 7E 7F 97 E0 00  vmovdqu     ymmword ptr [rdi+0E0h],ymm10
                    00 00
  00000000000069A6: C4 E3 55 46 D9 02  vperm2i128  ymm3,ymm5,ymm1,2
  00000000000069AC: C4 E3 55 46 E9 13  vperm2i128  ymm5,ymm5,ymm1,13h
  00000000000069B2: C4 C3 15 46 C9 02  vperm2i128  ymm1,ymm13,ymm9,2
  00000000000069B8: C4 43 15 46 C9 13  vperm2i128  ymm9,ymm13,ymm9,13h
  00000000000069BE: C5 E5 EF 9E 00 01  vpxor       ymm3,ymm3,ymmword ptr [rsi+100h]
                    00 00
  00000000000069C6: C5 F5 EF 8E 20 01  vpxor       ymm1,ymm1,ymmword ptr [rsi+120h]
                    00 00
  00000000000069CE: C5 D5 EF AE 40 01  vpxor       ymm5,ymm5,ymmword ptr [rsi+140h]
                    00 00
  00000000000069D6: C5 35 EF 8E 60 01  vpxor       ymm9,ymm9,ymmword ptr [rsi+160h]
                    00 00
  00000000000069DE: C5 FE 7F 9F 00 01  vmovdqu     ymmword ptr [rdi+100h],ymm3
                    00 00
  00000000000069E6: C5 FE 7F 8F 20 01  vmovdqu     ymmword ptr [rdi+120h],ymm1
                    00 00
  00000000000069EE: C5 FE 7F AF 40 01  vmovdqu     ymmword ptr [rdi+140h],ymm5
                    00 00
  00000000000069F6: C5 7E 7F 8F 60 01  vmovdqu     ymmword ptr [rdi+160h],ymm9
                    00 00
  00000000000069FE: C4 E3 5D 46 D8 13  vperm2i128  ymm3,ymm4,ymm0,13h
  0000000000006A04: C4 E3 5D 46 C0 02  vperm2i128  ymm0,ymm4,ymm0,2
  0000000000006A0A: C4 C3 1D 46 E0 02  vperm2i128  ymm4,ymm12,ymm8,2
  0000000000006A10: C4 43 1D 46 E0 13  vperm2i128  ymm12,ymm12,ymm8,13h
  0000000000006A16: C5 7D 6F C3        vmovdqa     ymm8,ymm3
  0000000000006A1A: 48 8D B6 80 01 00  lea         rsi,[rsi+180h]
                    00
  0000000000006A21: 48 8D BF 80 01 00  lea         rdi,[rdi+180h]
                    00
  0000000000006A28: 48 81 EB 80 01 00  sub         rbx,180h
                    00
L$open_avx2_tail_128_xor:
  0000000000006A2F: 48 83 FB 20        cmp         rbx,20h
  0000000000006A33: 0F 82 27 00 00 00  jb          L$open_avx2_tail_32_xor
  0000000000006A39: 48 83 EB 20        sub         rbx,20h
  0000000000006A3D: C5 FD EF 06        vpxor       ymm0,ymm0,ymmword ptr [rsi]
  0000000000006A41: C5 FE 7F 07        vmovdqu     ymmword ptr [rdi],ymm0
  0000000000006A45: 48 8D 76 20        lea         rsi,[rsi+20h]
  0000000000006A49: 48 8D 7F 20        lea         rdi,[rdi+20h]
  0000000000006A4D: C5 FD 6F C4        vmovdqa     ymm0,ymm4
  0000000000006A51: C4 C1 7D 6F E0     vmovdqa     ymm4,ymm8
  0000000000006A56: C4 41 7D 6F C4     vmovdqa     ymm8,ymm12
  0000000000006A5B: E9 CF FF FF FF     jmp         L$open_avx2_tail_128_xor
L$open_avx2_tail_32_xor:
  0000000000006A60: 48 83 FB 10        cmp         rbx,10h
  0000000000006A64: C5 F9 6F C8        vmovdqa     xmm1,xmm0
  0000000000006A68: 0F 82 1E 00 00 00  jb          L$open_avx2_exit
  0000000000006A6E: 48 83 EB 10        sub         rbx,10h
  0000000000006A72: C5 F9 EF 0E        vpxor       xmm1,xmm0,xmmword ptr [rsi]
  0000000000006A76: C5 FA 7F 0F        vmovdqu     xmmword ptr [rdi],xmm1
  0000000000006A7A: 48 8D 76 10        lea         rsi,[rsi+10h]
  0000000000006A7E: 48 8D 7F 10        lea         rdi,[rdi+10h]
  0000000000006A82: C4 E3 7D 46 C0 11  vperm2i128  ymm0,ymm0,ymm0,11h
  0000000000006A88: C5 F9 6F C8        vmovdqa     xmm1,xmm0
L$open_avx2_exit:
  0000000000006A8C: C5 F8 77           vzeroupper
  0000000000006A8F: E9 26 B5 FF FF     jmp         L$open_sse_tail_16
L$open_avx2_192:
  0000000000006A94: C5 FD 6F C8        vmovdqa     ymm1,ymm0
  0000000000006A98: C5 FD 6F D0        vmovdqa     ymm2,ymm0
  0000000000006A9C: C5 FD 6F EC        vmovdqa     ymm5,ymm4
  0000000000006AA0: C5 FD 6F F4        vmovdqa     ymm6,ymm4
  0000000000006AA4: C4 41 7D 6F C8     vmovdqa     ymm9,ymm8
  0000000000006AA9: C4 41 7D 6F D0     vmovdqa     ymm10,ymm8
  0000000000006AAE: C5 1D FE 2D 80 00  vpaddd      ymm13,ymm12,ymmword ptr [.rdata+80h]
                    00 00
  0000000000006AB6: C4 41 7D 6F DC     vmovdqa     ymm11,ymm12
  0000000000006ABB: C4 41 7D 6F FD     vmovdqa     ymm15,ymm13
  0000000000006AC0: 41 BA 0A 00 00 00  mov         r10d,0Ah
L$open_avx2_192_rounds:
  0000000000006AC6: C5 FD FE C4        vpaddd      ymm0,ymm0,ymm4
  0000000000006ACA: C5 1D EF E0        vpxor       ymm12,ymm12,ymm0
  0000000000006ACE: C4 62 1D 00 25 40  vpshufb     ymm12,ymm12,ymmword ptr [.rdata+40h]
                    00 00 00
  0000000000006AD7: C4 41 3D FE C4     vpaddd      ymm8,ymm8,ymm12
  0000000000006ADC: C4 C1 5D EF E0     vpxor       ymm4,ymm4,ymm8
  0000000000006AE1: C5 E5 72 D4 14     vpsrld      ymm3,ymm4,14h
  0000000000006AE6: C5 DD 72 F4 0C     vpslld      ymm4,ymm4,0Ch
  0000000000006AEB: C5 DD EF E3        vpxor       ymm4,ymm4,ymm3
  0000000000006AEF: C5 FD FE C4        vpaddd      ymm0,ymm0,ymm4
  0000000000006AF3: C5 1D EF E0        vpxor       ymm12,ymm12,ymm0
  0000000000006AF7: C4 62 1D 00 25 20  vpshufb     ymm12,ymm12,ymmword ptr [.rdata+20h]
                    00 00 00
  0000000000006B00: C4 41 3D FE C4     vpaddd      ymm8,ymm8,ymm12
  0000000000006B05: C4 C1 5D EF E0     vpxor       ymm4,ymm4,ymm8
  0000000000006B0A: C5 E5 72 F4 07     vpslld      ymm3,ymm4,7
  0000000000006B0F: C5 DD 72 D4 19     vpsrld      ymm4,ymm4,19h
  0000000000006B14: C5 DD EF E3        vpxor       ymm4,ymm4,ymm3
  0000000000006B18: C4 43 1D 0F E4 0C  vpalignr    ymm12,ymm12,ymm12,0Ch
  0000000000006B1E: C4 43 3D 0F C0 08  vpalignr    ymm8,ymm8,ymm8,8
  0000000000006B24: C4 E3 5D 0F E4 04  vpalignr    ymm4,ymm4,ymm4,4
  0000000000006B2A: C5 F5 FE CD        vpaddd      ymm1,ymm1,ymm5
  0000000000006B2E: C5 15 EF E9        vpxor       ymm13,ymm13,ymm1
  0000000000006B32: C4 62 15 00 2D 40  vpshufb     ymm13,ymm13,ymmword ptr [.rdata+40h]
                    00 00 00
  0000000000006B3B: C4 41 35 FE CD     vpaddd      ymm9,ymm9,ymm13
  0000000000006B40: C4 C1 55 EF E9     vpxor       ymm5,ymm5,ymm9
  0000000000006B45: C5 E5 72 D5 14     vpsrld      ymm3,ymm5,14h
  0000000000006B4A: C5 D5 72 F5 0C     vpslld      ymm5,ymm5,0Ch
  0000000000006B4F: C5 D5 EF EB        vpxor       ymm5,ymm5,ymm3
  0000000000006B53: C5 F5 FE CD        vpaddd      ymm1,ymm1,ymm5
  0000000000006B57: C5 15 EF E9        vpxor       ymm13,ymm13,ymm1
  0000000000006B5B: C4 62 15 00 2D 20  vpshufb     ymm13,ymm13,ymmword ptr [.rdata+20h]
                    00 00 00
  0000000000006B64: C4 41 35 FE CD     vpaddd      ymm9,ymm9,ymm13
  0000000000006B69: C4 C1 55 EF E9     vpxor       ymm5,ymm5,ymm9
  0000000000006B6E: C5 E5 72 F5 07     vpslld      ymm3,ymm5,7
  0000000000006B73: C5 D5 72 D5 19     vpsrld      ymm5,ymm5,19h
  0000000000006B78: C5 D5 EF EB        vpxor       ymm5,ymm5,ymm3
  0000000000006B7C: C4 43 15 0F ED 0C  vpalignr    ymm13,ymm13,ymm13,0Ch
  0000000000006B82: C4 43 35 0F C9 08  vpalignr    ymm9,ymm9,ymm9,8
  0000000000006B88: C4 E3 55 0F ED 04  vpalignr    ymm5,ymm5,ymm5,4
  0000000000006B8E: C5 FD FE C4        vpaddd      ymm0,ymm0,ymm4
  0000000000006B92: C5 1D EF E0        vpxor       ymm12,ymm12,ymm0
  0000000000006B96: C4 62 1D 00 25 40  vpshufb     ymm12,ymm12,ymmword ptr [.rdata+40h]
                    00 00 00
  0000000000006B9F: C4 41 3D FE C4     vpaddd      ymm8,ymm8,ymm12
  0000000000006BA4: C4 C1 5D EF E0     vpxor       ymm4,ymm4,ymm8
  0000000000006BA9: C5 E5 72 D4 14     vpsrld      ymm3,ymm4,14h
  0000000000006BAE: C5 DD 72 F4 0C     vpslld      ymm4,ymm4,0Ch
  0000000000006BB3: C5 DD EF E3        vpxor       ymm4,ymm4,ymm3
  0000000000006BB7: C5 FD FE C4        vpaddd      ymm0,ymm0,ymm4
  0000000000006BBB: C5 1D EF E0        vpxor       ymm12,ymm12,ymm0
  0000000000006BBF: C4 62 1D 00 25 20  vpshufb     ymm12,ymm12,ymmword ptr [.rdata+20h]
                    00 00 00
  0000000000006BC8: C4 41 3D FE C4     vpaddd      ymm8,ymm8,ymm12
  0000000000006BCD: C4 C1 5D EF E0     vpxor       ymm4,ymm4,ymm8
  0000000000006BD2: C5 E5 72 F4 07     vpslld      ymm3,ymm4,7
  0000000000006BD7: C5 DD 72 D4 19     vpsrld      ymm4,ymm4,19h
  0000000000006BDC: C5 DD EF E3        vpxor       ymm4,ymm4,ymm3
  0000000000006BE0: C4 43 1D 0F E4 04  vpalignr    ymm12,ymm12,ymm12,4
  0000000000006BE6: C4 43 3D 0F C0 08  vpalignr    ymm8,ymm8,ymm8,8
  0000000000006BEC: C4 E3 5D 0F E4 0C  vpalignr    ymm4,ymm4,ymm4,0Ch
  0000000000006BF2: C5 F5 FE CD        vpaddd      ymm1,ymm1,ymm5
  0000000000006BF6: C5 15 EF E9        vpxor       ymm13,ymm13,ymm1
  0000000000006BFA: C4 62 15 00 2D 40  vpshufb     ymm13,ymm13,ymmword ptr [.rdata+40h]
                    00 00 00
  0000000000006C03: C4 41 35 FE CD     vpaddd      ymm9,ymm9,ymm13
  0000000000006C08: C4 C1 55 EF E9     vpxor       ymm5,ymm5,ymm9
  0000000000006C0D: C5 E5 72 D5 14     vpsrld      ymm3,ymm5,14h
  0000000000006C12: C5 D5 72 F5 0C     vpslld      ymm5,ymm5,0Ch
  0000000000006C17: C5 D5 EF EB        vpxor       ymm5,ymm5,ymm3
  0000000000006C1B: C5 F5 FE CD        vpaddd      ymm1,ymm1,ymm5
  0000000000006C1F: C5 15 EF E9        vpxor       ymm13,ymm13,ymm1
  0000000000006C23: C4 62 15 00 2D 20  vpshufb     ymm13,ymm13,ymmword ptr [.rdata+20h]
                    00 00 00
  0000000000006C2C: C4 41 35 FE CD     vpaddd      ymm9,ymm9,ymm13
  0000000000006C31: C4 C1 55 EF E9     vpxor       ymm5,ymm5,ymm9
  0000000000006C36: C5 E5 72 F5 07     vpslld      ymm3,ymm5,7
  0000000000006C3B: C5 D5 72 D5 19     vpsrld      ymm5,ymm5,19h
  0000000000006C40: C5 D5 EF EB        vpxor       ymm5,ymm5,ymm3
  0000000000006C44: C4 43 15 0F ED 04  vpalignr    ymm13,ymm13,ymm13,4
  0000000000006C4A: C4 43 35 0F C9 08  vpalignr    ymm9,ymm9,ymm9,8
  0000000000006C50: C4 E3 55 0F ED 0C  vpalignr    ymm5,ymm5,ymm5,0Ch
  0000000000006C56: 49 FF CA           dec         r10
  0000000000006C59: 0F 85 67 FE FF FF  jne         L$open_avx2_192_rounds
  0000000000006C5F: C5 FD FE C2        vpaddd      ymm0,ymm0,ymm2
  0000000000006C63: C5 F5 FE CA        vpaddd      ymm1,ymm1,ymm2
  0000000000006C67: C5 DD FE E6        vpaddd      ymm4,ymm4,ymm6
  0000000000006C6B: C5 D5 FE EE        vpaddd      ymm5,ymm5,ymm6
  0000000000006C6F: C4 41 3D FE C2     vpaddd      ymm8,ymm8,ymm10
  0000000000006C74: C4 41 35 FE CA     vpaddd      ymm9,ymm9,ymm10
  0000000000006C79: C4 41 1D FE E3     vpaddd      ymm12,ymm12,ymm11
  0000000000006C7E: C4 41 15 FE EF     vpaddd      ymm13,ymm13,ymm15
  0000000000006C83: C4 E3 5D 46 D8 02  vperm2i128  ymm3,ymm4,ymm0,2
  0000000000006C89: C5 E5 DB 1D A0 00  vpand       ymm3,ymm3,ymmword ptr [.rdata+0A0h]
                    00 00
  0000000000006C91: C5 FD 7F 9D A0 00  vmovdqa     ymmword ptr [rbp+0A0h],ymm3
                    00 00
  0000000000006C99: C4 E3 5D 46 C0 13  vperm2i128  ymm0,ymm4,ymm0,13h
  0000000000006C9F: C4 C3 1D 46 E0 13  vperm2i128  ymm4,ymm12,ymm8,13h
  0000000000006CA5: C4 63 55 46 C1 02  vperm2i128  ymm8,ymm5,ymm1,2
  0000000000006CAB: C4 43 15 46 E1 02  vperm2i128  ymm12,ymm13,ymm9,2
  0000000000006CB1: C4 E3 55 46 C9 13  vperm2i128  ymm1,ymm5,ymm1,13h
  0000000000006CB7: C4 C3 15 46 E9 13  vperm2i128  ymm5,ymm13,ymm9,13h
L$open_avx2_short:
  0000000000006CBD: 4D 89 C0           mov         r8,r8
  0000000000006CC0: E8 3B 93 FF FF     call        poly_hash_ad_internal
L$open_avx2_short_hash_and_xor_loop:
  0000000000006CC5: 48 83 FB 20        cmp         rbx,20h
  0000000000006CC9: 0F 82 6A 01 00 00  jb          L$open_avx2_short_tail_32
  0000000000006CCF: 48 83 EB 20        sub         rbx,20h
  0000000000006CD3: 4C 03 16           add         r10,qword ptr [rsi]
  0000000000006CD6: 4C 13 5E 08        adc         r11,qword ptr [rsi+8]
  0000000000006CDA: 49 83 D4 01        adc         r12,1
  0000000000006CDE: 48 8B 85 A0 00 00  mov         rax,qword ptr [rbp+0A0h]
                    00
  0000000000006CE5: 49 89 C7           mov         r15,rax
  0000000000006CE8: 49 F7 E2           mul         rax,r10
  0000000000006CEB: 49 89 C5           mov         r13,rax
  0000000000006CEE: 49 89 D6           mov         r14,rdx
  0000000000006CF1: 48 8B 85 A0 00 00  mov         rax,qword ptr [rbp+0A0h]
                    00
  0000000000006CF8: 49 F7 E3           mul         rax,r11
  0000000000006CFB: 4D 0F AF FC        imul        r15,r12
  0000000000006CFF: 49 01 C6           add         r14,rax
  0000000000006D02: 49 11 D7           adc         r15,rdx
  0000000000006D05: 48 8B 85 A8 00 00  mov         rax,qword ptr [rbp+0A8h]
                    00
  0000000000006D0C: 49 89 C1           mov         r9,rax
  0000000000006D0F: 49 F7 E2           mul         rax,r10
  0000000000006D12: 49 01 C6           add         r14,rax
  0000000000006D15: 48 83 D2 00        adc         rdx,0
  0000000000006D19: 49 89 D2           mov         r10,rdx
  0000000000006D1C: 48 8B 85 A8 00 00  mov         rax,qword ptr [rbp+0A8h]
                    00
  0000000000006D23: 49 F7 E3           mul         rax,r11
  0000000000006D26: 49 01 C7           add         r15,rax
  0000000000006D29: 48 83 D2 00        adc         rdx,0
  0000000000006D2D: 4D 0F AF CC        imul        r9,r12
  0000000000006D31: 4D 01 D7           add         r15,r10
  0000000000006D34: 49 11 D1           adc         r9,rdx
  0000000000006D37: 4D 89 EA           mov         r10,r13
  0000000000006D3A: 4D 89 F3           mov         r11,r14
  0000000000006D3D: 4D 89 FC           mov         r12,r15
  0000000000006D40: 49 83 E4 03        and         r12,3
  0000000000006D44: 4D 89 FD           mov         r13,r15
  0000000000006D47: 49 83 E5 FC        and         r13,0FFFFFFFFFFFFFFFCh
  0000000000006D4B: 4D 89 CE           mov         r14,r9
  0000000000006D4E: 4D 0F AC CF 02     shrd        r15,r9,2
  0000000000006D53: 49 C1 E9 02        shr         r9,2
  0000000000006D57: 4D 01 EF           add         r15,r13
  0000000000006D5A: 4D 11 F1           adc         r9,r14
  0000000000006D5D: 4D 01 FA           add         r10,r15
  0000000000006D60: 4D 11 CB           adc         r11,r9
  0000000000006D63: 49 83 D4 00        adc         r12,0
  0000000000006D67: 4C 03 56 10        add         r10,qword ptr [rsi+10h]
  0000000000006D6B: 4C 13 5E 18        adc         r11,qword ptr [rsi+18h]
  0000000000006D6F: 49 83 D4 01        adc         r12,1
  0000000000006D73: 48 8B 85 A0 00 00  mov         rax,qword ptr [rbp+0A0h]
                    00
  0000000000006D7A: 49 89 C7           mov         r15,rax
  0000000000006D7D: 49 F7 E2           mul         rax,r10
  0000000000006D80: 49 89 C5           mov         r13,rax
  0000000000006D83: 49 89 D6           mov         r14,rdx
  0000000000006D86: 48 8B 85 A0 00 00  mov         rax,qword ptr [rbp+0A0h]
                    00
  0000000000006D8D: 49 F7 E3           mul         rax,r11
  0000000000006D90: 4D 0F AF FC        imul        r15,r12
  0000000000006D94: 49 01 C6           add         r14,rax
  0000000000006D97: 49 11 D7           adc         r15,rdx
  0000000000006D9A: 48 8B 85 A8 00 00  mov         rax,qword ptr [rbp+0A8h]
                    00
  0000000000006DA1: 49 89 C1           mov         r9,rax
  0000000000006DA4: 49 F7 E2           mul         rax,r10
  0000000000006DA7: 49 01 C6           add         r14,rax
  0000000000006DAA: 48 83 D2 00        adc         rdx,0
  0000000000006DAE: 49 89 D2           mov         r10,rdx
  0000000000006DB1: 48 8B 85 A8 00 00  mov         rax,qword ptr [rbp+0A8h]
                    00
  0000000000006DB8: 49 F7 E3           mul         rax,r11
  0000000000006DBB: 49 01 C7           add         r15,rax
  0000000000006DBE: 48 83 D2 00        adc         rdx,0
  0000000000006DC2: 4D 0F AF CC        imul        r9,r12
  0000000000006DC6: 4D 01 D7           add         r15,r10
  0000000000006DC9: 49 11 D1           adc         r9,rdx
  0000000000006DCC: 4D 89 EA           mov         r10,r13
  0000000000006DCF: 4D 89 F3           mov         r11,r14
  0000000000006DD2: 4D 89 FC           mov         r12,r15
  0000000000006DD5: 49 83 E4 03        and         r12,3
  0000000000006DD9: 4D 89 FD           mov         r13,r15
  0000000000006DDC: 49 83 E5 FC        and         r13,0FFFFFFFFFFFFFFFCh
  0000000000006DE0: 4D 89 CE           mov         r14,r9
  0000000000006DE3: 4D 0F AC CF 02     shrd        r15,r9,2
  0000000000006DE8: 49 C1 E9 02        shr         r9,2
  0000000000006DEC: 4D 01 EF           add         r15,r13
  0000000000006DEF: 4D 11 F1           adc         r9,r14
  0000000000006DF2: 4D 01 FA           add         r10,r15
  0000000000006DF5: 4D 11 CB           adc         r11,r9
  0000000000006DF8: 49 83 D4 00        adc         r12,0
  0000000000006DFC: C5 FD EF 06        vpxor       ymm0,ymm0,ymmword ptr [rsi]
  0000000000006E00: C5 FE 7F 07        vmovdqu     ymmword ptr [rdi],ymm0
  0000000000006E04: 48 8D 76 20        lea         rsi,[rsi+20h]
  0000000000006E08: 48 8D 7F 20        lea         rdi,[rdi+20h]
  0000000000006E0C: C5 FD 6F C4        vmovdqa     ymm0,ymm4
  0000000000006E10: C4 C1 7D 6F E0     vmovdqa     ymm4,ymm8
  0000000000006E15: C4 41 7D 6F C4     vmovdqa     ymm8,ymm12
  0000000000006E1A: C5 7D 6F E1        vmovdqa     ymm12,ymm1
  0000000000006E1E: C5 FD 6F CD        vmovdqa     ymm1,ymm5
  0000000000006E22: C4 C1 7D 6F E9     vmovdqa     ymm5,ymm9
  0000000000006E27: C4 41 7D 6F CD     vmovdqa     ymm9,ymm13
  0000000000006E2C: C5 7D 6F EA        vmovdqa     ymm13,ymm2
  0000000000006E30: C5 FD 6F D6        vmovdqa     ymm2,ymm6
  0000000000006E34: E9 8C FE FF FF     jmp         L$open_avx2_short_hash_and_xor_loop
L$open_avx2_short_tail_32:
  0000000000006E39: 48 83 FB 10        cmp         rbx,10h
  0000000000006E3D: C5 F9 6F C8        vmovdqa     xmm1,xmm0
  0000000000006E41: 0F 82 AE 00 00 00  jb          L$open_avx2_short_tail_32_exit
  0000000000006E47: 48 83 EB 10        sub         rbx,10h
  0000000000006E4B: 4C 03 16           add         r10,qword ptr [rsi]
  0000000000006E4E: 4C 13 5E 08        adc         r11,qword ptr [rsi+8]
  0000000000006E52: 49 83 D4 01        adc         r12,1
  0000000000006E56: 48 8B 85 A0 00 00  mov         rax,qword ptr [rbp+0A0h]
                    00
  0000000000006E5D: 49 89 C7           mov         r15,rax
  0000000000006E60: 49 F7 E2           mul         rax,r10
  0000000000006E63: 49 89 C5           mov         r13,rax
  0000000000006E66: 49 89 D6           mov         r14,rdx
  0000000000006E69: 48 8B 85 A0 00 00  mov         rax,qword ptr [rbp+0A0h]
                    00
  0000000000006E70: 49 F7 E3           mul         rax,r11
  0000000000006E73: 4D 0F AF FC        imul        r15,r12
  0000000000006E77: 49 01 C6           add         r14,rax
  0000000000006E7A: 49 11 D7           adc         r15,rdx
  0000000000006E7D: 48 8B 85 A8 00 00  mov         rax,qword ptr [rbp+0A8h]
                    00
  0000000000006E84: 49 89 C1           mov         r9,rax
  0000000000006E87: 49 F7 E2           mul         rax,r10
  0000000000006E8A: 49 01 C6           add         r14,rax
  0000000000006E8D: 48 83 D2 00        adc         rdx,0
  0000000000006E91: 49 89 D2           mov         r10,rdx
  0000000000006E94: 48 8B 85 A8 00 00  mov         rax,qword ptr [rbp+0A8h]
                    00
  0000000000006E9B: 49 F7 E3           mul         rax,r11
  0000000000006E9E: 49 01 C7           add         r15,rax
  0000000000006EA1: 48 83 D2 00        adc         rdx,0
  0000000000006EA5: 4D 0F AF CC        imul        r9,r12
  0000000000006EA9: 4D 01 D7           add         r15,r10
  0000000000006EAC: 49 11 D1           adc         r9,rdx
  0000000000006EAF: 4D 89 EA           mov         r10,r13
  0000000000006EB2: 4D 89 F3           mov         r11,r14
  0000000000006EB5: 4D 89 FC           mov         r12,r15
  0000000000006EB8: 49 83 E4 03        and         r12,3
  0000000000006EBC: 4D 89 FD           mov         r13,r15
  0000000000006EBF: 49 83 E5 FC        and         r13,0FFFFFFFFFFFFFFFCh
  0000000000006EC3: 4D 89 CE           mov         r14,r9
  0000000000006EC6: 4D 0F AC CF 02     shrd        r15,r9,2
  0000000000006ECB: 49 C1 E9 02        shr         r9,2
  0000000000006ECF: 4D 01 EF           add         r15,r13
  0000000000006ED2: 4D 11 F1           adc         r9,r14
  0000000000006ED5: 4D 01 FA           add         r10,r15
  0000000000006ED8: 4D 11 CB           adc         r11,r9
  0000000000006EDB: 49 83 D4 00        adc         r12,0
  0000000000006EDF: C5 F9 EF 1E        vpxor       xmm3,xmm0,xmmword ptr [rsi]
  0000000000006EE3: C5 FA 7F 1F        vmovdqu     xmmword ptr [rdi],xmm3
  0000000000006EE7: 48 8D 76 10        lea         rsi,[rsi+10h]
  0000000000006EEB: 48 8D 7F 10        lea         rdi,[rdi+10h]
  0000000000006EEF: C4 E3 7D 39 C1 01  vextracti128 xmm1,ymm0,1
L$open_avx2_short_tail_32_exit:
  0000000000006EF5: C5 F8 77           vzeroupper
  0000000000006EF8: E9 BD B0 FF FF     jmp         L$open_sse_tail_16
L$open_avx2_320:
  0000000000006EFD: C5 FD 6F C8        vmovdqa     ymm1,ymm0
  0000000000006F01: C5 FD 6F D0        vmovdqa     ymm2,ymm0
  0000000000006F05: C5 FD 6F EC        vmovdqa     ymm5,ymm4
  0000000000006F09: C5 FD 6F F4        vmovdqa     ymm6,ymm4
  0000000000006F0D: C4 41 7D 6F C8     vmovdqa     ymm9,ymm8
  0000000000006F12: C4 41 7D 6F D0     vmovdqa     ymm10,ymm8
  0000000000006F17: C5 1D FE 2D 80 00  vpaddd      ymm13,ymm12,ymmword ptr [.rdata+80h]
                    00 00
  0000000000006F1F: C5 15 FE 35 80 00  vpaddd      ymm14,ymm13,ymmword ptr [.rdata+80h]
                    00 00
  0000000000006F27: C5 FD 6F FC        vmovdqa     ymm7,ymm4
  0000000000006F2B: C4 41 7D 6F D8     vmovdqa     ymm11,ymm8
  0000000000006F30: C5 7D 7F A5 40 01  vmovdqa     ymmword ptr [rbp+140h],ymm12
                    00 00
  0000000000006F38: C5 7D 7F AD 60 01  vmovdqa     ymmword ptr [rbp+160h],ymm13
                    00 00
  0000000000006F40: C5 7D 7F B5 80 01  vmovdqa     ymmword ptr [rbp+180h],ymm14
                    00 00
  0000000000006F48: 41 BA 0A 00 00 00  mov         r10d,0Ah
L$open_avx2_320_rounds:
  0000000000006F4E: C5 FD FE C4        vpaddd      ymm0,ymm0,ymm4
  0000000000006F52: C5 1D EF E0        vpxor       ymm12,ymm12,ymm0
  0000000000006F56: C4 62 1D 00 25 40  vpshufb     ymm12,ymm12,ymmword ptr [.rdata+40h]
                    00 00 00
  0000000000006F5F: C4 41 3D FE C4     vpaddd      ymm8,ymm8,ymm12
  0000000000006F64: C4 C1 5D EF E0     vpxor       ymm4,ymm4,ymm8
  0000000000006F69: C5 E5 72 D4 14     vpsrld      ymm3,ymm4,14h
  0000000000006F6E: C5 DD 72 F4 0C     vpslld      ymm4,ymm4,0Ch
  0000000000006F73: C5 DD EF E3        vpxor       ymm4,ymm4,ymm3
  0000000000006F77: C5 FD FE C4        vpaddd      ymm0,ymm0,ymm4
  0000000000006F7B: C5 1D EF E0        vpxor       ymm12,ymm12,ymm0
  0000000000006F7F: C4 62 1D 00 25 20  vpshufb     ymm12,ymm12,ymmword ptr [.rdata+20h]
                    00 00 00
  0000000000006F88: C4 41 3D FE C4     vpaddd      ymm8,ymm8,ymm12
  0000000000006F8D: C4 C1 5D EF E0     vpxor       ymm4,ymm4,ymm8
  0000000000006F92: C5 E5 72 F4 07     vpslld      ymm3,ymm4,7
  0000000000006F97: C5 DD 72 D4 19     vpsrld      ymm4,ymm4,19h
  0000000000006F9C: C5 DD EF E3        vpxor       ymm4,ymm4,ymm3
  0000000000006FA0: C4 43 1D 0F E4 0C  vpalignr    ymm12,ymm12,ymm12,0Ch
  0000000000006FA6: C4 43 3D 0F C0 08  vpalignr    ymm8,ymm8,ymm8,8
  0000000000006FAC: C4 E3 5D 0F E4 04  vpalignr    ymm4,ymm4,ymm4,4
  0000000000006FB2: C5 F5 FE CD        vpaddd      ymm1,ymm1,ymm5
  0000000000006FB6: C5 15 EF E9        vpxor       ymm13,ymm13,ymm1
  0000000000006FBA: C4 62 15 00 2D 40  vpshufb     ymm13,ymm13,ymmword ptr [.rdata+40h]
                    00 00 00
  0000000000006FC3: C4 41 35 FE CD     vpaddd      ymm9,ymm9,ymm13
  0000000000006FC8: C4 C1 55 EF E9     vpxor       ymm5,ymm5,ymm9
  0000000000006FCD: C5 E5 72 D5 14     vpsrld      ymm3,ymm5,14h
  0000000000006FD2: C5 D5 72 F5 0C     vpslld      ymm5,ymm5,0Ch
  0000000000006FD7: C5 D5 EF EB        vpxor       ymm5,ymm5,ymm3
  0000000000006FDB: C5 F5 FE CD        vpaddd      ymm1,ymm1,ymm5
  0000000000006FDF: C5 15 EF E9        vpxor       ymm13,ymm13,ymm1
  0000000000006FE3: C4 62 15 00 2D 20  vpshufb     ymm13,ymm13,ymmword ptr [.rdata+20h]
                    00 00 00
  0000000000006FEC: C4 41 35 FE CD     vpaddd      ymm9,ymm9,ymm13
  0000000000006FF1: C4 C1 55 EF E9     vpxor       ymm5,ymm5,ymm9
  0000000000006FF6: C5 E5 72 F5 07     vpslld      ymm3,ymm5,7
  0000000000006FFB: C5 D5 72 D5 19     vpsrld      ymm5,ymm5,19h
  0000000000007000: C5 D5 EF EB        vpxor       ymm5,ymm5,ymm3
  0000000000007004: C4 43 15 0F ED 0C  vpalignr    ymm13,ymm13,ymm13,0Ch
  000000000000700A: C4 43 35 0F C9 08  vpalignr    ymm9,ymm9,ymm9,8
  0000000000007010: C4 E3 55 0F ED 04  vpalignr    ymm5,ymm5,ymm5,4
  0000000000007016: C5 ED FE D6        vpaddd      ymm2,ymm2,ymm6
  000000000000701A: C5 0D EF F2        vpxor       ymm14,ymm14,ymm2
  000000000000701E: C4 62 0D 00 35 40  vpshufb     ymm14,ymm14,ymmword ptr [.rdata+40h]
                    00 00 00
  0000000000007027: C4 41 2D FE D6     vpaddd      ymm10,ymm10,ymm14
  000000000000702C: C4 C1 4D EF F2     vpxor       ymm6,ymm6,ymm10
  0000000000007031: C5 E5 72 D6 14     vpsrld      ymm3,ymm6,14h
  0000000000007036: C5 CD 72 F6 0C     vpslld      ymm6,ymm6,0Ch
  000000000000703B: C5 CD EF F3        vpxor       ymm6,ymm6,ymm3
  000000000000703F: C5 ED FE D6        vpaddd      ymm2,ymm2,ymm6
  0000000000007043: C5 0D EF F2        vpxor       ymm14,ymm14,ymm2
  0000000000007047: C4 62 0D 00 35 20  vpshufb     ymm14,ymm14,ymmword ptr [.rdata+20h]
                    00 00 00
  0000000000007050: C4 41 2D FE D6     vpaddd      ymm10,ymm10,ymm14
  0000000000007055: C4 C1 4D EF F2     vpxor       ymm6,ymm6,ymm10
  000000000000705A: C5 E5 72 F6 07     vpslld      ymm3,ymm6,7
  000000000000705F: C5 CD 72 D6 19     vpsrld      ymm6,ymm6,19h
  0000000000007064: C5 CD EF F3        vpxor       ymm6,ymm6,ymm3
  0000000000007068: C4 43 0D 0F F6 0C  vpalignr    ymm14,ymm14,ymm14,0Ch
  000000000000706E: C4 43 2D 0F D2 08  vpalignr    ymm10,ymm10,ymm10,8
  0000000000007074: C4 E3 4D 0F F6 04  vpalignr    ymm6,ymm6,ymm6,4
  000000000000707A: C5 FD FE C4        vpaddd      ymm0,ymm0,ymm4
  000000000000707E: C5 1D EF E0        vpxor       ymm12,ymm12,ymm0
  0000000000007082: C4 62 1D 00 25 40  vpshufb     ymm12,ymm12,ymmword ptr [.rdata+40h]
                    00 00 00
  000000000000708B: C4 41 3D FE C4     vpaddd      ymm8,ymm8,ymm12
  0000000000007090: C4 C1 5D EF E0     vpxor       ymm4,ymm4,ymm8
  0000000000007095: C5 E5 72 D4 14     vpsrld      ymm3,ymm4,14h
  000000000000709A: C5 DD 72 F4 0C     vpslld      ymm4,ymm4,0Ch
  000000000000709F: C5 DD EF E3        vpxor       ymm4,ymm4,ymm3
  00000000000070A3: C5 FD FE C4        vpaddd      ymm0,ymm0,ymm4
  00000000000070A7: C5 1D EF E0        vpxor       ymm12,ymm12,ymm0
  00000000000070AB: C4 62 1D 00 25 20  vpshufb     ymm12,ymm12,ymmword ptr [.rdata+20h]
                    00 00 00
  00000000000070B4: C4 41 3D FE C4     vpaddd      ymm8,ymm8,ymm12
  00000000000070B9: C4 C1 5D EF E0     vpxor       ymm4,ymm4,ymm8
  00000000000070BE: C5 E5 72 F4 07     vpslld      ymm3,ymm4,7
  00000000000070C3: C5 DD 72 D4 19     vpsrld      ymm4,ymm4,19h
  00000000000070C8: C5 DD EF E3        vpxor       ymm4,ymm4,ymm3
  00000000000070CC: C4 43 1D 0F E4 04  vpalignr    ymm12,ymm12,ymm12,4
  00000000000070D2: C4 43 3D 0F C0 08  vpalignr    ymm8,ymm8,ymm8,8
  00000000000070D8: C4 E3 5D 0F E4 0C  vpalignr    ymm4,ymm4,ymm4,0Ch
  00000000000070DE: C5 F5 FE CD        vpaddd      ymm1,ymm1,ymm5
  00000000000070E2: C5 15 EF E9        vpxor       ymm13,ymm13,ymm1
  00000000000070E6: C4 62 15 00 2D 40  vpshufb     ymm13,ymm13,ymmword ptr [.rdata+40h]
                    00 00 00
  00000000000070EF: C4 41 35 FE CD     vpaddd      ymm9,ymm9,ymm13
  00000000000070F4: C4 C1 55 EF E9     vpxor       ymm5,ymm5,ymm9
  00000000000070F9: C5 E5 72 D5 14     vpsrld      ymm3,ymm5,14h
  00000000000070FE: C5 D5 72 F5 0C     vpslld      ymm5,ymm5,0Ch
  0000000000007103: C5 D5 EF EB        vpxor       ymm5,ymm5,ymm3
  0000000000007107: C5 F5 FE CD        vpaddd      ymm1,ymm1,ymm5
  000000000000710B: C5 15 EF E9        vpxor       ymm13,ymm13,ymm1
  000000000000710F: C4 62 15 00 2D 20  vpshufb     ymm13,ymm13,ymmword ptr [.rdata+20h]
                    00 00 00
  0000000000007118: C4 41 35 FE CD     vpaddd      ymm9,ymm9,ymm13
  000000000000711D: C4 C1 55 EF E9     vpxor       ymm5,ymm5,ymm9
  0000000000007122: C5 E5 72 F5 07     vpslld      ymm3,ymm5,7
  0000000000007127: C5 D5 72 D5 19     vpsrld      ymm5,ymm5,19h
  000000000000712C: C5 D5 EF EB        vpxor       ymm5,ymm5,ymm3
  0000000000007130: C4 43 15 0F ED 04  vpalignr    ymm13,ymm13,ymm13,4
  0000000000007136: C4 43 35 0F C9 08  vpalignr    ymm9,ymm9,ymm9,8
  000000000000713C: C4 E3 55 0F ED 0C  vpalignr    ymm5,ymm5,ymm5,0Ch
  0000000000007142: C5 ED FE D6        vpaddd      ymm2,ymm2,ymm6
  0000000000007146: C5 0D EF F2        vpxor       ymm14,ymm14,ymm2
  000000000000714A: C4 62 0D 00 35 40  vpshufb     ymm14,ymm14,ymmword ptr [.rdata+40h]
                    00 00 00
  0000000000007153: C4 41 2D FE D6     vpaddd      ymm10,ymm10,ymm14
  0000000000007158: C4 C1 4D EF F2     vpxor       ymm6,ymm6,ymm10
  000000000000715D: C5 E5 72 D6 14     vpsrld      ymm3,ymm6,14h
  0000000000007162: C5 CD 72 F6 0C     vpslld      ymm6,ymm6,0Ch
  0000000000007167: C5 CD EF F3        vpxor       ymm6,ymm6,ymm3
  000000000000716B: C5 ED FE D6        vpaddd      ymm2,ymm2,ymm6
  000000000000716F: C5 0D EF F2        vpxor       ymm14,ymm14,ymm2
  0000000000007173: C4 62 0D 00 35 20  vpshufb     ymm14,ymm14,ymmword ptr [.rdata+20h]
                    00 00 00
  000000000000717C: C4 41 2D FE D6     vpaddd      ymm10,ymm10,ymm14
  0000000000007181: C4 C1 4D EF F2     vpxor       ymm6,ymm6,ymm10
  0000000000007186: C5 E5 72 F6 07     vpslld      ymm3,ymm6,7
  000000000000718B: C5 CD 72 D6 19     vpsrld      ymm6,ymm6,19h
  0000000000007190: C5 CD EF F3        vpxor       ymm6,ymm6,ymm3
  0000000000007194: C4 43 0D 0F F6 04  vpalignr    ymm14,ymm14,ymm14,4
  000000000000719A: C4 43 2D 0F D2 08  vpalignr    ymm10,ymm10,ymm10,8
  00000000000071A0: C4 E3 4D 0F F6 0C  vpalignr    ymm6,ymm6,ymm6,0Ch
  00000000000071A6: 49 FF CA           dec         r10
  00000000000071A9: 0F 85 9F FD FF FF  jne         L$open_avx2_320_rounds
  00000000000071AF: C5 FD FE 05 00 00  vpaddd      ymm0,ymm0,ymmword ptr [.rdata]
                    00 00
  00000000000071B7: C5 F5 FE 0D 00 00  vpaddd      ymm1,ymm1,ymmword ptr [.rdata]
                    00 00
  00000000000071BF: C5 ED FE 15 00 00  vpaddd      ymm2,ymm2,ymmword ptr [.rdata]
                    00 00
  00000000000071C7: C5 DD FE E7        vpaddd      ymm4,ymm4,ymm7
  00000000000071CB: C5 D5 FE EF        vpaddd      ymm5,ymm5,ymm7
  00000000000071CF: C5 CD FE F7        vpaddd      ymm6,ymm6,ymm7
  00000000000071D3: C4 41 3D FE C3     vpaddd      ymm8,ymm8,ymm11
  00000000000071D8: C4 41 35 FE CB     vpaddd      ymm9,ymm9,ymm11
  00000000000071DD: C4 41 2D FE D3     vpaddd      ymm10,ymm10,ymm11
  00000000000071E2: C5 1D FE A5 40 01  vpaddd      ymm12,ymm12,ymmword ptr [rbp+140h]
                    00 00
  00000000000071EA: C5 15 FE AD 60 01  vpaddd      ymm13,ymm13,ymmword ptr [rbp+160h]
                    00 00
  00000000000071F2: C5 0D FE B5 80 01  vpaddd      ymm14,ymm14,ymmword ptr [rbp+180h]
                    00 00
  00000000000071FA: C4 E3 5D 46 D8 02  vperm2i128  ymm3,ymm4,ymm0,2
  0000000000007200: C5 E5 DB 1D A0 00  vpand       ymm3,ymm3,ymmword ptr [.rdata+0A0h]
                    00 00
  0000000000007208: C5 FD 7F 9D A0 00  vmovdqa     ymmword ptr [rbp+0A0h],ymm3
                    00 00
  0000000000007210: C4 E3 5D 46 C0 13  vperm2i128  ymm0,ymm4,ymm0,13h
  0000000000007216: C4 C3 1D 46 E0 13  vperm2i128  ymm4,ymm12,ymm8,13h
  000000000000721C: C4 63 55 46 C1 02  vperm2i128  ymm8,ymm5,ymm1,2
  0000000000007222: C4 43 15 46 E1 02  vperm2i128  ymm12,ymm13,ymm9,2
  0000000000007228: C4 E3 55 46 C9 13  vperm2i128  ymm1,ymm5,ymm1,13h
  000000000000722E: C4 C3 15 46 E9 13  vperm2i128  ymm5,ymm13,ymm9,13h
  0000000000007234: C4 63 4D 46 CA 02  vperm2i128  ymm9,ymm6,ymm2,2
  000000000000723A: C4 43 0D 46 EA 02  vperm2i128  ymm13,ymm14,ymm10,2
  0000000000007240: C4 E3 4D 46 D2 13  vperm2i128  ymm2,ymm6,ymm2,13h
  0000000000007246: C4 C3 0D 46 F2 13  vperm2i128  ymm6,ymm14,ymm10,13h
  000000000000724C: E9 6C FA FF FF     jmp         L$open_avx2_short
  0000000000007251: 90                 nop
  0000000000007252: 90                 nop
  0000000000007253: 90                 nop
  0000000000007254: 90                 nop
  0000000000007255: 90                 nop
  0000000000007256: 90                 nop
  0000000000007257: 90                 nop
  0000000000007258: 90                 nop
  0000000000007259: 90                 nop
  000000000000725A: 90                 nop
  000000000000725B: 90                 nop
  000000000000725C: 90                 nop
  000000000000725D: 90                 nop
  000000000000725E: 90                 nop
  000000000000725F: 90                 nop
  0000000000007260: 90                 nop
  0000000000007261: 90                 nop
  0000000000007262: 90                 nop
  0000000000007263: 90                 nop
  0000000000007264: 90                 nop
  0000000000007265: 90                 nop
  0000000000007266: 90                 nop
  0000000000007267: 90                 nop
  0000000000007268: 90                 nop
  0000000000007269: 90                 nop
  000000000000726A: 90                 nop
  000000000000726B: 90                 nop
  000000000000726C: 90                 nop
  000000000000726D: 90                 nop
  000000000000726E: 90                 nop
  000000000000726F: 90                 nop
  0000000000007270: 90                 nop
  0000000000007271: 90                 nop
  0000000000007272: 90                 nop
  0000000000007273: 90                 nop
  0000000000007274: 90                 nop
  0000000000007275: 90                 nop
  0000000000007276: 90                 nop
  0000000000007277: 90                 nop
  0000000000007278: 90                 nop
  0000000000007279: 90                 nop
  000000000000727A: 90                 nop
  000000000000727B: 90                 nop
  000000000000727C: 90                 nop
  000000000000727D: 90                 nop
  000000000000727E: 90                 nop
  000000000000727F: 90                 nop
chacha20_poly1305_seal_avx2:
  0000000000007280: C5 F8 77           vzeroupper
  0000000000007283: C5 FD 6F 05 00 00  vmovdqa     ymm0,ymmword ptr [.rdata]
                    00 00
  000000000000728B: C4 C2 7D 5A 21     vbroadcasti128 ymm4,oword ptr [r9]
  0000000000007290: C4 42 7D 5A 41 10  vbroadcasti128 ymm8,oword ptr [r9+10h]
  0000000000007296: C4 42 7D 5A 61 20  vbroadcasti128 ymm12,oword ptr [r9+20h]
  000000000000729C: C5 1D FE 25 60 00  vpaddd      ymm12,ymm12,ymmword ptr [.rdata+60h]
                    00 00
  00000000000072A4: 48 81 FB C0 00 00  cmp         rbx,0C0h
                    00
  00000000000072AB: 0F 86 D9 2B 00 00  jbe         L$seal_avx2_192
  00000000000072B1: 48 81 FB 40 01 00  cmp         rbx,140h
                    00
  00000000000072B8: 0F 86 78 28 00 00  jbe         L$seal_avx2_320
  00000000000072BE: C5 FD 6F C8        vmovdqa     ymm1,ymm0
  00000000000072C2: C5 FD 6F D0        vmovdqa     ymm2,ymm0
  00000000000072C6: C5 FD 6F D8        vmovdqa     ymm3,ymm0
  00000000000072CA: C5 FD 6F EC        vmovdqa     ymm5,ymm4
  00000000000072CE: C5 FD 6F F4        vmovdqa     ymm6,ymm4
  00000000000072D2: C5 FD 6F FC        vmovdqa     ymm7,ymm4
  00000000000072D6: C5 FD 7F A5 E0 00  vmovdqa     ymmword ptr [rbp+0E0h],ymm4
                    00 00
  00000000000072DE: C4 41 7D 6F C8     vmovdqa     ymm9,ymm8
  00000000000072E3: C4 41 7D 6F D0     vmovdqa     ymm10,ymm8
  00000000000072E8: C4 41 7D 6F D8     vmovdqa     ymm11,ymm8
  00000000000072ED: C5 7D 7F 85 00 01  vmovdqa     ymmword ptr [rbp+100h],ymm8
                    00 00
  00000000000072F5: C4 41 7D 6F FC     vmovdqa     ymm15,ymm12
  00000000000072FA: C5 05 FE 35 80 00  vpaddd      ymm14,ymm15,ymmword ptr [.rdata+80h]
                    00 00
  0000000000007302: C5 0D FE 2D 80 00  vpaddd      ymm13,ymm14,ymmword ptr [.rdata+80h]
                    00 00
  000000000000730A: C5 15 FE 25 80 00  vpaddd      ymm12,ymm13,ymmword ptr [.rdata+80h]
                    00 00
  0000000000007312: C5 7D 7F A5 40 01  vmovdqa     ymmword ptr [rbp+140h],ymm12
                    00 00
  000000000000731A: C5 7D 7F AD 60 01  vmovdqa     ymmword ptr [rbp+160h],ymm13
                    00 00
  0000000000007322: C5 7D 7F B5 80 01  vmovdqa     ymmword ptr [rbp+180h],ymm14
                    00 00
  000000000000732A: C5 7D 7F BD A0 01  vmovdqa     ymmword ptr [rbp+1A0h],ymm15
                    00 00
  0000000000007332: 41 BA 0A 00 00 00  mov         r10d,0Ah
L$seal_avx2_init_rounds:
  0000000000007338: C5 7D 7F 85 20 01  vmovdqa     ymmword ptr [rbp+120h],ymm8
                    00 00
  0000000000007340: C5 7D 6F 05 40 00  vmovdqa     ymm8,ymmword ptr [.rdata+40h]
                    00 00
  0000000000007348: C5 E5 FE DF        vpaddd      ymm3,ymm3,ymm7
  000000000000734C: C5 ED FE D6        vpaddd      ymm2,ymm2,ymm6
  0000000000007350: C5 F5 FE CD        vpaddd      ymm1,ymm1,ymm5
  0000000000007354: C5 FD FE C4        vpaddd      ymm0,ymm0,ymm4
  0000000000007358: C5 05 EF FB        vpxor       ymm15,ymm15,ymm3
  000000000000735C: C5 0D EF F2        vpxor       ymm14,ymm14,ymm2
  0000000000007360: C5 15 EF E9        vpxor       ymm13,ymm13,ymm1
  0000000000007364: C5 1D EF E0        vpxor       ymm12,ymm12,ymm0
  0000000000007368: C4 42 05 00 F8     vpshufb     ymm15,ymm15,ymm8
  000000000000736D: C4 42 0D 00 F0     vpshufb     ymm14,ymm14,ymm8
  0000000000007372: C4 42 15 00 E8     vpshufb     ymm13,ymm13,ymm8
  0000000000007377: C4 42 1D 00 E0     vpshufb     ymm12,ymm12,ymm8
  000000000000737C: C4 41 25 FE DF     vpaddd      ymm11,ymm11,ymm15
  0000000000007381: C4 41 2D FE D6     vpaddd      ymm10,ymm10,ymm14
  0000000000007386: C4 41 35 FE CD     vpaddd      ymm9,ymm9,ymm13
  000000000000738B: C5 1D FE 85 20 01  vpaddd      ymm8,ymm12,ymmword ptr [rbp+120h]
                    00 00
  0000000000007393: C4 C1 45 EF FB     vpxor       ymm7,ymm7,ymm11
  0000000000007398: C4 C1 4D EF F2     vpxor       ymm6,ymm6,ymm10
  000000000000739D: C4 C1 55 EF E9     vpxor       ymm5,ymm5,ymm9
  00000000000073A2: C4 C1 5D EF E0     vpxor       ymm4,ymm4,ymm8
  00000000000073A7: C5 7D 7F 85 20 01  vmovdqa     ymmword ptr [rbp+120h],ymm8
                    00 00
  00000000000073AF: C5 BD 72 D7 14     vpsrld      ymm8,ymm7,14h
  00000000000073B4: C5 C5 72 F7 0C     vpslld      ymm7,ymm7,0Ch
  00000000000073B9: C4 C1 45 EF F8     vpxor       ymm7,ymm7,ymm8
  00000000000073BE: C5 BD 72 D6 14     vpsrld      ymm8,ymm6,14h
  00000000000073C3: C5 CD 72 F6 0C     vpslld      ymm6,ymm6,0Ch
  00000000000073C8: C4 C1 4D EF F0     vpxor       ymm6,ymm6,ymm8
  00000000000073CD: C5 BD 72 D5 14     vpsrld      ymm8,ymm5,14h
  00000000000073D2: C5 D5 72 F5 0C     vpslld      ymm5,ymm5,0Ch
  00000000000073D7: C4 C1 55 EF E8     vpxor       ymm5,ymm5,ymm8
  00000000000073DC: C5 BD 72 D4 14     vpsrld      ymm8,ymm4,14h
  00000000000073E1: C5 DD 72 F4 0C     vpslld      ymm4,ymm4,0Ch
  00000000000073E6: C4 C1 5D EF E0     vpxor       ymm4,ymm4,ymm8
  00000000000073EB: C5 7D 6F 05 20 00  vmovdqa     ymm8,ymmword ptr [.rdata+20h]
                    00 00
  00000000000073F3: C5 E5 FE DF        vpaddd      ymm3,ymm3,ymm7
  00000000000073F7: C5 ED FE D6        vpaddd      ymm2,ymm2,ymm6
  00000000000073FB: C5 F5 FE CD        vpaddd      ymm1,ymm1,ymm5
  00000000000073FF: C5 FD FE C4        vpaddd      ymm0,ymm0,ymm4
  0000000000007403: C5 05 EF FB        vpxor       ymm15,ymm15,ymm3
  0000000000007407: C5 0D EF F2        vpxor       ymm14,ymm14,ymm2
  000000000000740B: C5 15 EF E9        vpxor       ymm13,ymm13,ymm1
  000000000000740F: C5 1D EF E0        vpxor       ymm12,ymm12,ymm0
  0000000000007413: C4 42 05 00 F8     vpshufb     ymm15,ymm15,ymm8
  0000000000007418: C4 42 0D 00 F0     vpshufb     ymm14,ymm14,ymm8
  000000000000741D: C4 42 15 00 E8     vpshufb     ymm13,ymm13,ymm8
  0000000000007422: C4 42 1D 00 E0     vpshufb     ymm12,ymm12,ymm8
  0000000000007427: C4 41 25 FE DF     vpaddd      ymm11,ymm11,ymm15
  000000000000742C: C4 41 2D FE D6     vpaddd      ymm10,ymm10,ymm14
  0000000000007431: C4 41 35 FE CD     vpaddd      ymm9,ymm9,ymm13
  0000000000007436: C5 1D FE 85 20 01  vpaddd      ymm8,ymm12,ymmword ptr [rbp+120h]
                    00 00
  000000000000743E: C4 C1 45 EF FB     vpxor       ymm7,ymm7,ymm11
  0000000000007443: C4 C1 4D EF F2     vpxor       ymm6,ymm6,ymm10
  0000000000007448: C4 C1 55 EF E9     vpxor       ymm5,ymm5,ymm9
  000000000000744D: C4 C1 5D EF E0     vpxor       ymm4,ymm4,ymm8
  0000000000007452: C5 7D 7F 85 20 01  vmovdqa     ymmword ptr [rbp+120h],ymm8
                    00 00
  000000000000745A: C5 BD 72 D7 19     vpsrld      ymm8,ymm7,19h
  000000000000745F: C5 C5 72 F7 07     vpslld      ymm7,ymm7,7
  0000000000007464: C4 C1 45 EF F8     vpxor       ymm7,ymm7,ymm8
  0000000000007469: C5 BD 72 D6 19     vpsrld      ymm8,ymm6,19h
  000000000000746E: C5 CD 72 F6 07     vpslld      ymm6,ymm6,7
  0000000000007473: C4 C1 4D EF F0     vpxor       ymm6,ymm6,ymm8
  0000000000007478: C5 BD 72 D5 19     vpsrld      ymm8,ymm5,19h
  000000000000747D: C5 D5 72 F5 07     vpslld      ymm5,ymm5,7
  0000000000007482: C4 C1 55 EF E8     vpxor       ymm5,ymm5,ymm8
  0000000000007487: C5 BD 72 D4 19     vpsrld      ymm8,ymm4,19h
  000000000000748C: C5 DD 72 F4 07     vpslld      ymm4,ymm4,7
  0000000000007491: C4 C1 5D EF E0     vpxor       ymm4,ymm4,ymm8
  0000000000007496: C5 7D 6F 85 20 01  vmovdqa     ymm8,ymmword ptr [rbp+120h]
                    00 00
  000000000000749E: C4 E3 45 0F FF 04  vpalignr    ymm7,ymm7,ymm7,4
  00000000000074A4: C4 43 25 0F DB 08  vpalignr    ymm11,ymm11,ymm11,8
  00000000000074AA: C4 43 05 0F FF 0C  vpalignr    ymm15,ymm15,ymm15,0Ch
  00000000000074B0: C4 E3 4D 0F F6 04  vpalignr    ymm6,ymm6,ymm6,4
  00000000000074B6: C4 43 2D 0F D2 08  vpalignr    ymm10,ymm10,ymm10,8
  00000000000074BC: C4 43 0D 0F F6 0C  vpalignr    ymm14,ymm14,ymm14,0Ch
  00000000000074C2: C4 E3 55 0F ED 04  vpalignr    ymm5,ymm5,ymm5,4
  00000000000074C8: C4 43 35 0F C9 08  vpalignr    ymm9,ymm9,ymm9,8
  00000000000074CE: C4 43 15 0F ED 0C  vpalignr    ymm13,ymm13,ymm13,0Ch
  00000000000074D4: C4 E3 5D 0F E4 04  vpalignr    ymm4,ymm4,ymm4,4
  00000000000074DA: C4 43 3D 0F C0 08  vpalignr    ymm8,ymm8,ymm8,8
  00000000000074E0: C4 43 1D 0F E4 0C  vpalignr    ymm12,ymm12,ymm12,0Ch
  00000000000074E6: C5 7D 7F 85 20 01  vmovdqa     ymmword ptr [rbp+120h],ymm8
                    00 00
  00000000000074EE: C5 7D 6F 05 40 00  vmovdqa     ymm8,ymmword ptr [.rdata+40h]
                    00 00
  00000000000074F6: C5 E5 FE DF        vpaddd      ymm3,ymm3,ymm7
  00000000000074FA: C5 ED FE D6        vpaddd      ymm2,ymm2,ymm6
  00000000000074FE: C5 F5 FE CD        vpaddd      ymm1,ymm1,ymm5
  0000000000007502: C5 FD FE C4        vpaddd      ymm0,ymm0,ymm4
  0000000000007506: C5 05 EF FB        vpxor       ymm15,ymm15,ymm3
  000000000000750A: C5 0D EF F2        vpxor       ymm14,ymm14,ymm2
  000000000000750E: C5 15 EF E9        vpxor       ymm13,ymm13,ymm1
  0000000000007512: C5 1D EF E0        vpxor       ymm12,ymm12,ymm0
  0000000000007516: C4 42 05 00 F8     vpshufb     ymm15,ymm15,ymm8
  000000000000751B: C4 42 0D 00 F0     vpshufb     ymm14,ymm14,ymm8
  0000000000007520: C4 42 15 00 E8     vpshufb     ymm13,ymm13,ymm8
  0000000000007525: C4 42 1D 00 E0     vpshufb     ymm12,ymm12,ymm8
  000000000000752A: C4 41 25 FE DF     vpaddd      ymm11,ymm11,ymm15
  000000000000752F: C4 41 2D FE D6     vpaddd      ymm10,ymm10,ymm14
  0000000000007534: C4 41 35 FE CD     vpaddd      ymm9,ymm9,ymm13
  0000000000007539: C5 1D FE 85 20 01  vpaddd      ymm8,ymm12,ymmword ptr [rbp+120h]
                    00 00
  0000000000007541: C4 C1 45 EF FB     vpxor       ymm7,ymm7,ymm11
  0000000000007546: C4 C1 4D EF F2     vpxor       ymm6,ymm6,ymm10
  000000000000754B: C4 C1 55 EF E9     vpxor       ymm5,ymm5,ymm9
  0000000000007550: C4 C1 5D EF E0     vpxor       ymm4,ymm4,ymm8
  0000000000007555: C5 7D 7F 85 20 01  vmovdqa     ymmword ptr [rbp+120h],ymm8
                    00 00
  000000000000755D: C5 BD 72 D7 14     vpsrld      ymm8,ymm7,14h
  0000000000007562: C5 C5 72 F7 0C     vpslld      ymm7,ymm7,0Ch
  0000000000007567: C4 C1 45 EF F8     vpxor       ymm7,ymm7,ymm8
  000000000000756C: C5 BD 72 D6 14     vpsrld      ymm8,ymm6,14h
  0000000000007571: C5 CD 72 F6 0C     vpslld      ymm6,ymm6,0Ch
  0000000000007576: C4 C1 4D EF F0     vpxor       ymm6,ymm6,ymm8
  000000000000757B: C5 BD 72 D5 14     vpsrld      ymm8,ymm5,14h
  0000000000007580: C5 D5 72 F5 0C     vpslld      ymm5,ymm5,0Ch
  0000000000007585: C4 C1 55 EF E8     vpxor       ymm5,ymm5,ymm8
  000000000000758A: C5 BD 72 D4 14     vpsrld      ymm8,ymm4,14h
  000000000000758F: C5 DD 72 F4 0C     vpslld      ymm4,ymm4,0Ch
  0000000000007594: C4 C1 5D EF E0     vpxor       ymm4,ymm4,ymm8
  0000000000007599: C5 7D 6F 05 20 00  vmovdqa     ymm8,ymmword ptr [.rdata+20h]
                    00 00
  00000000000075A1: C5 E5 FE DF        vpaddd      ymm3,ymm3,ymm7
  00000000000075A5: C5 ED FE D6        vpaddd      ymm2,ymm2,ymm6
  00000000000075A9: C5 F5 FE CD        vpaddd      ymm1,ymm1,ymm5
  00000000000075AD: C5 FD FE C4        vpaddd      ymm0,ymm0,ymm4
  00000000000075B1: C5 05 EF FB        vpxor       ymm15,ymm15,ymm3
  00000000000075B5: C5 0D EF F2        vpxor       ymm14,ymm14,ymm2
  00000000000075B9: C5 15 EF E9        vpxor       ymm13,ymm13,ymm1
  00000000000075BD: C5 1D EF E0        vpxor       ymm12,ymm12,ymm0
  00000000000075C1: C4 42 05 00 F8     vpshufb     ymm15,ymm15,ymm8
  00000000000075C6: C4 42 0D 00 F0     vpshufb     ymm14,ymm14,ymm8
  00000000000075CB: C4 42 15 00 E8     vpshufb     ymm13,ymm13,ymm8
  00000000000075D0: C4 42 1D 00 E0     vpshufb     ymm12,ymm12,ymm8
  00000000000075D5: C4 41 25 FE DF     vpaddd      ymm11,ymm11,ymm15
  00000000000075DA: C4 41 2D FE D6     vpaddd      ymm10,ymm10,ymm14
  00000000000075DF: C4 41 35 FE CD     vpaddd      ymm9,ymm9,ymm13
  00000000000075E4: C5 1D FE 85 20 01  vpaddd      ymm8,ymm12,ymmword ptr [rbp+120h]
                    00 00
  00000000000075EC: C4 C1 45 EF FB     vpxor       ymm7,ymm7,ymm11
  00000000000075F1: C4 C1 4D EF F2     vpxor       ymm6,ymm6,ymm10
  00000000000075F6: C4 C1 55 EF E9     vpxor       ymm5,ymm5,ymm9
  00000000000075FB: C4 C1 5D EF E0     vpxor       ymm4,ymm4,ymm8
  0000000000007600: C5 7D 7F 85 20 01  vmovdqa     ymmword ptr [rbp+120h],ymm8
                    00 00
  0000000000007608: C5 BD 72 D7 19     vpsrld      ymm8,ymm7,19h
  000000000000760D: C5 C5 72 F7 07     vpslld      ymm7,ymm7,7
  0000000000007612: C4 C1 45 EF F8     vpxor       ymm7,ymm7,ymm8
  0000000000007617: C5 BD 72 D6 19     vpsrld      ymm8,ymm6,19h
  000000000000761C: C5 CD 72 F6 07     vpslld      ymm6,ymm6,7
  0000000000007621: C4 C1 4D EF F0     vpxor       ymm6,ymm6,ymm8
  0000000000007626: C5 BD 72 D5 19     vpsrld      ymm8,ymm5,19h
  000000000000762B: C5 D5 72 F5 07     vpslld      ymm5,ymm5,7
  0000000000007630: C4 C1 55 EF E8     vpxor       ymm5,ymm5,ymm8
  0000000000007635: C5 BD 72 D4 19     vpsrld      ymm8,ymm4,19h
  000000000000763A: C5 DD 72 F4 07     vpslld      ymm4,ymm4,7
  000000000000763F: C4 C1 5D EF E0     vpxor       ymm4,ymm4,ymm8
  0000000000007644: C5 7D 6F 85 20 01  vmovdqa     ymm8,ymmword ptr [rbp+120h]
                    00 00
  000000000000764C: C4 E3 45 0F FF 0C  vpalignr    ymm7,ymm7,ymm7,0Ch
  0000000000007652: C4 43 25 0F DB 08  vpalignr    ymm11,ymm11,ymm11,8
  0000000000007658: C4 43 05 0F FF 04  vpalignr    ymm15,ymm15,ymm15,4
  000000000000765E: C4 E3 4D 0F F6 0C  vpalignr    ymm6,ymm6,ymm6,0Ch
  0000000000007664: C4 43 2D 0F D2 08  vpalignr    ymm10,ymm10,ymm10,8
  000000000000766A: C4 43 0D 0F F6 04  vpalignr    ymm14,ymm14,ymm14,4
  0000000000007670: C4 E3 55 0F ED 0C  vpalignr    ymm5,ymm5,ymm5,0Ch
  0000000000007676: C4 43 35 0F C9 08  vpalignr    ymm9,ymm9,ymm9,8
  000000000000767C: C4 43 15 0F ED 04  vpalignr    ymm13,ymm13,ymm13,4
  0000000000007682: C4 E3 5D 0F E4 0C  vpalignr    ymm4,ymm4,ymm4,0Ch
  0000000000007688: C4 43 3D 0F C0 08  vpalignr    ymm8,ymm8,ymm8,8
  000000000000768E: C4 43 1D 0F E4 04  vpalignr    ymm12,ymm12,ymm12,4
  0000000000007694: 49 FF CA           dec         r10
  0000000000007697: 0F 85 9B FC FF FF  jne         L$seal_avx2_init_rounds
  000000000000769D: C5 E5 FE 1D 00 00  vpaddd      ymm3,ymm3,ymmword ptr [.rdata]
                    00 00
  00000000000076A5: C5 C5 FE BD E0 00  vpaddd      ymm7,ymm7,ymmword ptr [rbp+0E0h]
                    00 00
  00000000000076AD: C5 25 FE 9D 00 01  vpaddd      ymm11,ymm11,ymmword ptr [rbp+100h]
                    00 00
  00000000000076B5: C5 05 FE BD A0 01  vpaddd      ymm15,ymm15,ymmword ptr [rbp+1A0h]
                    00 00
  00000000000076BD: C5 ED FE 15 00 00  vpaddd      ymm2,ymm2,ymmword ptr [.rdata]
                    00 00
  00000000000076C5: C5 CD FE B5 E0 00  vpaddd      ymm6,ymm6,ymmword ptr [rbp+0E0h]
                    00 00
  00000000000076CD: C5 2D FE 95 00 01  vpaddd      ymm10,ymm10,ymmword ptr [rbp+100h]
                    00 00
  00000000000076D5: C5 0D FE B5 80 01  vpaddd      ymm14,ymm14,ymmword ptr [rbp+180h]
                    00 00
  00000000000076DD: C5 F5 FE 0D 00 00  vpaddd      ymm1,ymm1,ymmword ptr [.rdata]
                    00 00
  00000000000076E5: C5 D5 FE AD E0 00  vpaddd      ymm5,ymm5,ymmword ptr [rbp+0E0h]
                    00 00
  00000000000076ED: C5 35 FE 8D 00 01  vpaddd      ymm9,ymm9,ymmword ptr [rbp+100h]
                    00 00
  00000000000076F5: C5 15 FE AD 60 01  vpaddd      ymm13,ymm13,ymmword ptr [rbp+160h]
                    00 00
  00000000000076FD: C5 FD FE 05 00 00  vpaddd      ymm0,ymm0,ymmword ptr [.rdata]
                    00 00
  0000000000007705: C5 DD FE A5 E0 00  vpaddd      ymm4,ymm4,ymmword ptr [rbp+0E0h]
                    00 00
  000000000000770D: C5 3D FE 85 00 01  vpaddd      ymm8,ymm8,ymmword ptr [rbp+100h]
                    00 00
  0000000000007715: C5 1D FE A5 40 01  vpaddd      ymm12,ymm12,ymmword ptr [rbp+140h]
                    00 00
  000000000000771D: C4 43 05 46 DB 13  vperm2i128  ymm11,ymm15,ymm11,13h
  0000000000007723: C4 63 45 46 FB 02  vperm2i128  ymm15,ymm7,ymm3,2
  0000000000007729: C4 E3 45 46 DB 13  vperm2i128  ymm3,ymm7,ymm3,13h
  000000000000772F: C5 05 DB 3D A0 00  vpand       ymm15,ymm15,ymmword ptr [.rdata+0A0h]
                    00 00
  0000000000007737: C5 7D 7F BD A0 00  vmovdqa     ymmword ptr [rbp+0A0h],ymm15
                    00 00
  000000000000773F: 4D 89 C0           mov         r8,r8
  0000000000007742: E8 B9 88 FF FF     call        poly_hash_ad_internal
  0000000000007747: C5 E5 EF 1E        vpxor       ymm3,ymm3,ymmword ptr [rsi]
  000000000000774B: C5 25 EF 5E 20     vpxor       ymm11,ymm11,ymmword ptr [rsi+20h]
  0000000000007750: C5 FE 7F 1F        vmovdqu     ymmword ptr [rdi],ymm3
  0000000000007754: C5 7E 7F 5F 20     vmovdqu     ymmword ptr [rdi+20h],ymm11
  0000000000007759: C4 63 4D 46 FA 02  vperm2i128  ymm15,ymm6,ymm2,2
  000000000000775F: C4 E3 4D 46 F2 13  vperm2i128  ymm6,ymm6,ymm2,13h
  0000000000007765: C4 C3 0D 46 D2 02  vperm2i128  ymm2,ymm14,ymm10,2
  000000000000776B: C4 43 0D 46 D2 13  vperm2i128  ymm10,ymm14,ymm10,13h
  0000000000007771: C5 05 EF 7E 40     vpxor       ymm15,ymm15,ymmword ptr [rsi+40h]
  0000000000007776: C5 ED EF 56 60     vpxor       ymm2,ymm2,ymmword ptr [rsi+60h]
  000000000000777B: C5 CD EF B6 80 00  vpxor       ymm6,ymm6,ymmword ptr [rsi+80h]
                    00 00
  0000000000007783: C5 2D EF 96 A0 00  vpxor       ymm10,ymm10,ymmword ptr [rsi+0A0h]
                    00 00
  000000000000778B: C5 7E 7F 7F 40     vmovdqu     ymmword ptr [rdi+40h],ymm15
  0000000000007790: C5 FE 7F 57 60     vmovdqu     ymmword ptr [rdi+60h],ymm2
  0000000000007795: C5 FE 7F B7 80 00  vmovdqu     ymmword ptr [rdi+80h],ymm6
                    00 00
  000000000000779D: C5 7E 7F 97 A0 00  vmovdqu     ymmword ptr [rdi+0A0h],ymm10
                    00 00
  00000000000077A5: C4 63 55 46 F9 02  vperm2i128  ymm15,ymm5,ymm1,2
  00000000000077AB: C4 E3 55 46 E9 13  vperm2i128  ymm5,ymm5,ymm1,13h
  00000000000077B1: C4 C3 15 46 C9 02  vperm2i128  ymm1,ymm13,ymm9,2
  00000000000077B7: C4 43 15 46 C9 13  vperm2i128  ymm9,ymm13,ymm9,13h
  00000000000077BD: C5 05 EF BE C0 00  vpxor       ymm15,ymm15,ymmword ptr [rsi+0C0h]
                    00 00
  00000000000077C5: C5 F5 EF 8E E0 00  vpxor       ymm1,ymm1,ymmword ptr [rsi+0E0h]
                    00 00
  00000000000077CD: C5 D5 EF AE 00 01  vpxor       ymm5,ymm5,ymmword ptr [rsi+100h]
                    00 00
  00000000000077D5: C5 35 EF 8E 20 01  vpxor       ymm9,ymm9,ymmword ptr [rsi+120h]
                    00 00
  00000000000077DD: C5 7E 7F BF C0 00  vmovdqu     ymmword ptr [rdi+0C0h],ymm15
                    00 00
  00000000000077E5: C5 FE 7F 8F E0 00  vmovdqu     ymmword ptr [rdi+0E0h],ymm1
                    00 00
  00000000000077ED: C5 FE 7F AF 00 01  vmovdqu     ymmword ptr [rdi+100h],ymm5
                    00 00
  00000000000077F5: C5 7E 7F 8F 20 01  vmovdqu     ymmword ptr [rdi+120h],ymm9
                    00 00
  00000000000077FD: C4 63 5D 46 F8 13  vperm2i128  ymm15,ymm4,ymm0,13h
  0000000000007803: C4 E3 5D 46 C0 02  vperm2i128  ymm0,ymm4,ymm0,2
  0000000000007809: C4 C3 1D 46 E0 02  vperm2i128  ymm4,ymm12,ymm8,2
  000000000000780F: C4 43 1D 46 E0 13  vperm2i128  ymm12,ymm12,ymm8,13h
  0000000000007815: C4 41 7D 6F C7     vmovdqa     ymm8,ymm15
  000000000000781A: 48 8D B6 40 01 00  lea         rsi,[rsi+140h]
                    00
  0000000000007821: 48 81 EB 40 01 00  sub         rbx,140h
                    00
  0000000000007828: B9 40 01 00 00     mov         ecx,140h
  000000000000782D: 48 81 FB 80 00 00  cmp         rbx,80h
                    00
  0000000000007834: 0F 86 84 28 00 00  jbe         L$seal_avx2_short_hash_remainder
  000000000000783A: C5 FD EF 06        vpxor       ymm0,ymm0,ymmword ptr [rsi]
  000000000000783E: C5 DD EF 66 20     vpxor       ymm4,ymm4,ymmword ptr [rsi+20h]
  0000000000007843: C5 3D EF 46 40     vpxor       ymm8,ymm8,ymmword ptr [rsi+40h]
  0000000000007848: C5 1D EF 66 60     vpxor       ymm12,ymm12,ymmword ptr [rsi+60h]
  000000000000784D: C5 FE 7F 87 40 01  vmovdqu     ymmword ptr [rdi+140h],ymm0
                    00 00
  0000000000007855: C5 FE 7F A7 60 01  vmovdqu     ymmword ptr [rdi+160h],ymm4
                    00 00
  000000000000785D: C5 7E 7F 87 80 01  vmovdqu     ymmword ptr [rdi+180h],ymm8
                    00 00
  0000000000007865: C5 7E 7F A7 A0 01  vmovdqu     ymmword ptr [rdi+1A0h],ymm12
                    00 00
  000000000000786D: 48 8D B6 80 00 00  lea         rsi,[rsi+80h]
                    00
  0000000000007874: 48 81 EB 80 00 00  sub         rbx,80h
                    00
  000000000000787B: B9 08 00 00 00     mov         ecx,8
  0000000000007880: 41 B8 02 00 00 00  mov         r8d,2
  0000000000007886: 48 81 FB 80 00 00  cmp         rbx,80h
                    00
  000000000000788D: 0F 86 94 0E 00 00  jbe         L$seal_avx2_tail_128
  0000000000007893: 48 81 FB 00 01 00  cmp         rbx,100h
                    00
  000000000000789A: 0F 86 55 11 00 00  jbe         L$seal_avx2_tail_256
  00000000000078A0: 48 81 FB 80 01 00  cmp         rbx,180h
                    00
  00000000000078A7: 0F 86 AB 15 00 00  jbe         L$seal_avx2_tail_384
  00000000000078AD: 48 81 FB 00 02 00  cmp         rbx,200h
                    00
  00000000000078B4: 0F 86 5B 1B 00 00  jbe         L$seal_avx2_tail_512
  00000000000078BA: C5 FD 6F 05 00 00  vmovdqa     ymm0,ymmword ptr [.rdata]
                    00 00
  00000000000078C2: C5 FD 6F A5 E0 00  vmovdqa     ymm4,ymmword ptr [rbp+0E0h]
                    00 00
  00000000000078CA: C5 7D 6F 85 00 01  vmovdqa     ymm8,ymmword ptr [rbp+100h]
                    00 00
  00000000000078D2: C5 FD 6F C8        vmovdqa     ymm1,ymm0
  00000000000078D6: C5 FD 6F EC        vmovdqa     ymm5,ymm4
  00000000000078DA: C4 41 7D 6F C8     vmovdqa     ymm9,ymm8
  00000000000078DF: C5 FD 6F D0        vmovdqa     ymm2,ymm0
  00000000000078E3: C5 FD 6F F4        vmovdqa     ymm6,ymm4
  00000000000078E7: C4 41 7D 6F D0     vmovdqa     ymm10,ymm8
  00000000000078EC: C5 FD 6F D8        vmovdqa     ymm3,ymm0
  00000000000078F0: C5 FD 6F FC        vmovdqa     ymm7,ymm4
  00000000000078F4: C4 41 7D 6F D8     vmovdqa     ymm11,ymm8
  00000000000078F9: C5 7D 6F 25 80 00  vmovdqa     ymm12,ymmword ptr [.rdata+80h]
                    00 00
  0000000000007901: C5 1D FE BD 40 01  vpaddd      ymm15,ymm12,ymmword ptr [rbp+140h]
                    00 00
  0000000000007909: C4 41 1D FE F7     vpaddd      ymm14,ymm12,ymm15
  000000000000790E: C4 41 1D FE EE     vpaddd      ymm13,ymm12,ymm14
  0000000000007913: C4 41 1D FE E5     vpaddd      ymm12,ymm12,ymm13
  0000000000007918: C5 7D 7F BD A0 01  vmovdqa     ymmword ptr [rbp+1A0h],ymm15
                    00 00
  0000000000007920: C5 7D 7F B5 80 01  vmovdqa     ymmword ptr [rbp+180h],ymm14
                    00 00
  0000000000007928: C5 7D 7F AD 60 01  vmovdqa     ymmword ptr [rbp+160h],ymm13
                    00 00
  0000000000007930: C5 7D 7F A5 40 01  vmovdqa     ymmword ptr [rbp+140h],ymm12
                    00 00
  0000000000007938: C5 7D 7F 85 20 01  vmovdqa     ymmword ptr [rbp+120h],ymm8
                    00 00
  0000000000007940: C5 7D 6F 05 40 00  vmovdqa     ymm8,ymmword ptr [.rdata+40h]
                    00 00
  0000000000007948: C5 E5 FE DF        vpaddd      ymm3,ymm3,ymm7
  000000000000794C: C5 ED FE D6        vpaddd      ymm2,ymm2,ymm6
  0000000000007950: C5 F5 FE CD        vpaddd      ymm1,ymm1,ymm5
  0000000000007954: C5 FD FE C4        vpaddd      ymm0,ymm0,ymm4
  0000000000007958: C5 05 EF FB        vpxor       ymm15,ymm15,ymm3
  000000000000795C: C5 0D EF F2        vpxor       ymm14,ymm14,ymm2
  0000000000007960: C5 15 EF E9        vpxor       ymm13,ymm13,ymm1
  0000000000007964: C5 1D EF E0        vpxor       ymm12,ymm12,ymm0
  0000000000007968: C4 42 05 00 F8     vpshufb     ymm15,ymm15,ymm8
  000000000000796D: C4 42 0D 00 F0     vpshufb     ymm14,ymm14,ymm8
  0000000000007972: C4 42 15 00 E8     vpshufb     ymm13,ymm13,ymm8
  0000000000007977: C4 42 1D 00 E0     vpshufb     ymm12,ymm12,ymm8
  000000000000797C: C4 41 25 FE DF     vpaddd      ymm11,ymm11,ymm15
  0000000000007981: C4 41 2D FE D6     vpaddd      ymm10,ymm10,ymm14
  0000000000007986: C4 41 35 FE CD     vpaddd      ymm9,ymm9,ymm13
  000000000000798B: C5 1D FE 85 20 01  vpaddd      ymm8,ymm12,ymmword ptr [rbp+120h]
                    00 00
  0000000000007993: C4 C1 45 EF FB     vpxor       ymm7,ymm7,ymm11
  0000000000007998: C4 C1 4D EF F2     vpxor       ymm6,ymm6,ymm10
  000000000000799D: C4 C1 55 EF E9     vpxor       ymm5,ymm5,ymm9
  00000000000079A2: C4 C1 5D EF E0     vpxor       ymm4,ymm4,ymm8
  00000000000079A7: C5 7D 7F 85 20 01  vmovdqa     ymmword ptr [rbp+120h],ymm8
                    00 00
  00000000000079AF: C5 BD 72 D7 14     vpsrld      ymm8,ymm7,14h
  00000000000079B4: C5 C5 72 F7 0C     vpslld      ymm7,ymm7,0Ch
  00000000000079B9: C4 C1 45 EF F8     vpxor       ymm7,ymm7,ymm8
  00000000000079BE: C5 BD 72 D6 14     vpsrld      ymm8,ymm6,14h
  00000000000079C3: C5 CD 72 F6 0C     vpslld      ymm6,ymm6,0Ch
  00000000000079C8: C4 C1 4D EF F0     vpxor       ymm6,ymm6,ymm8
  00000000000079CD: C5 BD 72 D5 14     vpsrld      ymm8,ymm5,14h
  00000000000079D2: C5 D5 72 F5 0C     vpslld      ymm5,ymm5,0Ch
  00000000000079D7: C4 C1 55 EF E8     vpxor       ymm5,ymm5,ymm8
  00000000000079DC: C5 BD 72 D4 14     vpsrld      ymm8,ymm4,14h
  00000000000079E1: C5 DD 72 F4 0C     vpslld      ymm4,ymm4,0Ch
  00000000000079E6: C4 C1 5D EF E0     vpxor       ymm4,ymm4,ymm8
  00000000000079EB: C5 7D 6F 05 20 00  vmovdqa     ymm8,ymmword ptr [.rdata+20h]
                    00 00
  00000000000079F3: C5 E5 FE DF        vpaddd      ymm3,ymm3,ymm7
  00000000000079F7: C5 ED FE D6        vpaddd      ymm2,ymm2,ymm6
  00000000000079FB: C5 F5 FE CD        vpaddd      ymm1,ymm1,ymm5
  00000000000079FF: C5 FD FE C4        vpaddd      ymm0,ymm0,ymm4
  0000000000007A03: C5 05 EF FB        vpxor       ymm15,ymm15,ymm3
  0000000000007A07: C5 0D EF F2        vpxor       ymm14,ymm14,ymm2
  0000000000007A0B: C5 15 EF E9        vpxor       ymm13,ymm13,ymm1
  0000000000007A0F: C5 1D EF E0        vpxor       ymm12,ymm12,ymm0
  0000000000007A13: C4 42 05 00 F8     vpshufb     ymm15,ymm15,ymm8
  0000000000007A18: C4 42 0D 00 F0     vpshufb     ymm14,ymm14,ymm8
  0000000000007A1D: C4 42 15 00 E8     vpshufb     ymm13,ymm13,ymm8
  0000000000007A22: C4 42 1D 00 E0     vpshufb     ymm12,ymm12,ymm8
  0000000000007A27: C4 41 25 FE DF     vpaddd      ymm11,ymm11,ymm15
  0000000000007A2C: C4 41 2D FE D6     vpaddd      ymm10,ymm10,ymm14
  0000000000007A31: C4 41 35 FE CD     vpaddd      ymm9,ymm9,ymm13
  0000000000007A36: C5 1D FE 85 20 01  vpaddd      ymm8,ymm12,ymmword ptr [rbp+120h]
                    00 00
  0000000000007A3E: C4 C1 45 EF FB     vpxor       ymm7,ymm7,ymm11
  0000000000007A43: C4 C1 4D EF F2     vpxor       ymm6,ymm6,ymm10
  0000000000007A48: C4 C1 55 EF E9     vpxor       ymm5,ymm5,ymm9
  0000000000007A4D: C4 C1 5D EF E0     vpxor       ymm4,ymm4,ymm8
  0000000000007A52: C5 7D 7F 85 20 01  vmovdqa     ymmword ptr [rbp+120h],ymm8
                    00 00
  0000000000007A5A: C5 BD 72 D7 19     vpsrld      ymm8,ymm7,19h
  0000000000007A5F: C5 C5 72 F7 07     vpslld      ymm7,ymm7,7
  0000000000007A64: C4 C1 45 EF F8     vpxor       ymm7,ymm7,ymm8
  0000000000007A69: C5 BD 72 D6 19     vpsrld      ymm8,ymm6,19h
  0000000000007A6E: C5 CD 72 F6 07     vpslld      ymm6,ymm6,7
  0000000000007A73: C4 C1 4D EF F0     vpxor       ymm6,ymm6,ymm8
  0000000000007A78: C5 BD 72 D5 19     vpsrld      ymm8,ymm5,19h
  0000000000007A7D: C5 D5 72 F5 07     vpslld      ymm5,ymm5,7
  0000000000007A82: C4 C1 55 EF E8     vpxor       ymm5,ymm5,ymm8
  0000000000007A87: C5 BD 72 D4 19     vpsrld      ymm8,ymm4,19h
  0000000000007A8C: C5 DD 72 F4 07     vpslld      ymm4,ymm4,7
  0000000000007A91: C4 C1 5D EF E0     vpxor       ymm4,ymm4,ymm8
  0000000000007A96: C5 7D 6F 85 20 01  vmovdqa     ymm8,ymmword ptr [rbp+120h]
                    00 00
  0000000000007A9E: C4 E3 45 0F FF 04  vpalignr    ymm7,ymm7,ymm7,4
  0000000000007AA4: C4 43 25 0F DB 08  vpalignr    ymm11,ymm11,ymm11,8
  0000000000007AAA: C4 43 05 0F FF 0C  vpalignr    ymm15,ymm15,ymm15,0Ch
  0000000000007AB0: C4 E3 4D 0F F6 04  vpalignr    ymm6,ymm6,ymm6,4
  0000000000007AB6: C4 43 2D 0F D2 08  vpalignr    ymm10,ymm10,ymm10,8
  0000000000007ABC: C4 43 0D 0F F6 0C  vpalignr    ymm14,ymm14,ymm14,0Ch
  0000000000007AC2: C4 E3 55 0F ED 04  vpalignr    ymm5,ymm5,ymm5,4
  0000000000007AC8: C4 43 35 0F C9 08  vpalignr    ymm9,ymm9,ymm9,8
  0000000000007ACE: C4 43 15 0F ED 0C  vpalignr    ymm13,ymm13,ymm13,0Ch
  0000000000007AD4: C4 E3 5D 0F E4 04  vpalignr    ymm4,ymm4,ymm4,4
  0000000000007ADA: C4 43 3D 0F C0 08  vpalignr    ymm8,ymm8,ymm8,8
  0000000000007AE0: C4 43 1D 0F E4 0C  vpalignr    ymm12,ymm12,ymm12,0Ch
  0000000000007AE6: C5 7D 7F 85 20 01  vmovdqa     ymmword ptr [rbp+120h],ymm8
                    00 00
  0000000000007AEE: C5 7D 6F 05 40 00  vmovdqa     ymm8,ymmword ptr [.rdata+40h]
                    00 00
  0000000000007AF6: C5 E5 FE DF        vpaddd      ymm3,ymm3,ymm7
  0000000000007AFA: C5 ED FE D6        vpaddd      ymm2,ymm2,ymm6
  0000000000007AFE: C5 F5 FE CD        vpaddd      ymm1,ymm1,ymm5
  0000000000007B02: C5 FD FE C4        vpaddd      ymm0,ymm0,ymm4
  0000000000007B06: C5 05 EF FB        vpxor       ymm15,ymm15,ymm3
  0000000000007B0A: C5 0D EF F2        vpxor       ymm14,ymm14,ymm2
  0000000000007B0E: C5 15 EF E9        vpxor       ymm13,ymm13,ymm1
  0000000000007B12: C5 1D EF E0        vpxor       ymm12,ymm12,ymm0
  0000000000007B16: C4 42 05 00 F8     vpshufb     ymm15,ymm15,ymm8
  0000000000007B1B: C4 42 0D 00 F0     vpshufb     ymm14,ymm14,ymm8
  0000000000007B20: C4 42 15 00 E8     vpshufb     ymm13,ymm13,ymm8
  0000000000007B25: C4 42 1D 00 E0     vpshufb     ymm12,ymm12,ymm8
  0000000000007B2A: C4 41 25 FE DF     vpaddd      ymm11,ymm11,ymm15
  0000000000007B2F: C4 41 2D FE D6     vpaddd      ymm10,ymm10,ymm14
  0000000000007B34: C4 41 35 FE CD     vpaddd      ymm9,ymm9,ymm13
  0000000000007B39: C5 1D FE 85 20 01  vpaddd      ymm8,ymm12,ymmword ptr [rbp+120h]
                    00 00
  0000000000007B41: C4 C1 45 EF FB     vpxor       ymm7,ymm7,ymm11
  0000000000007B46: C4 C1 4D EF F2     vpxor       ymm6,ymm6,ymm10
  0000000000007B4B: C4 C1 55 EF E9     vpxor       ymm5,ymm5,ymm9
  0000000000007B50: C4 C1 5D EF E0     vpxor       ymm4,ymm4,ymm8
  0000000000007B55: C5 7D 7F 85 20 01  vmovdqa     ymmword ptr [rbp+120h],ymm8
                    00 00
  0000000000007B5D: C5 BD 72 D7 14     vpsrld      ymm8,ymm7,14h
  0000000000007B62: C5 C5 72 F7 0C     vpslld      ymm7,ymm7,0Ch
  0000000000007B67: C4 C1 45 EF F8     vpxor       ymm7,ymm7,ymm8
  0000000000007B6C: C5 BD 72 D6 14     vpsrld      ymm8,ymm6,14h
  0000000000007B71: C5 CD 72 F6 0C     vpslld      ymm6,ymm6,0Ch
  0000000000007B76: C4 C1 4D EF F0     vpxor       ymm6,ymm6,ymm8
  0000000000007B7B: C5 BD 72 D5 14     vpsrld      ymm8,ymm5,14h
  0000000000007B80: C5 D5 72 F5 0C     vpslld      ymm5,ymm5,0Ch
  0000000000007B85: C4 C1 55 EF E8     vpxor       ymm5,ymm5,ymm8
  0000000000007B8A: C5 BD 72 D4 14     vpsrld      ymm8,ymm4,14h
  0000000000007B8F: C5 DD 72 F4 0C     vpslld      ymm4,ymm4,0Ch
  0000000000007B94: C4 C1 5D EF E0     vpxor       ymm4,ymm4,ymm8
  0000000000007B99: C5 7D 6F 05 20 00  vmovdqa     ymm8,ymmword ptr [.rdata+20h]
                    00 00
  0000000000007BA1: C5 E5 FE DF        vpaddd      ymm3,ymm3,ymm7
  0000000000007BA5: C5 ED FE D6        vpaddd      ymm2,ymm2,ymm6
  0000000000007BA9: C5 F5 FE CD        vpaddd      ymm1,ymm1,ymm5
  0000000000007BAD: C5 FD FE C4        vpaddd      ymm0,ymm0,ymm4
  0000000000007BB1: C5 05 EF FB        vpxor       ymm15,ymm15,ymm3
  0000000000007BB5: C5 0D EF F2        vpxor       ymm14,ymm14,ymm2
  0000000000007BB9: C5 15 EF E9        vpxor       ymm13,ymm13,ymm1
  0000000000007BBD: C5 1D EF E0        vpxor       ymm12,ymm12,ymm0
  0000000000007BC1: C4 42 05 00 F8     vpshufb     ymm15,ymm15,ymm8
  0000000000007BC6: C4 42 0D 00 F0     vpshufb     ymm14,ymm14,ymm8
  0000000000007BCB: C4 42 15 00 E8     vpshufb     ymm13,ymm13,ymm8
  0000000000007BD0: C4 42 1D 00 E0     vpshufb     ymm12,ymm12,ymm8
  0000000000007BD5: C4 41 25 FE DF     vpaddd      ymm11,ymm11,ymm15
  0000000000007BDA: C4 41 2D FE D6     vpaddd      ymm10,ymm10,ymm14
  0000000000007BDF: C4 41 35 FE CD     vpaddd      ymm9,ymm9,ymm13
  0000000000007BE4: C5 1D FE 85 20 01  vpaddd      ymm8,ymm12,ymmword ptr [rbp+120h]
                    00 00
  0000000000007BEC: C4 C1 45 EF FB     vpxor       ymm7,ymm7,ymm11
  0000000000007BF1: C4 C1 4D EF F2     vpxor       ymm6,ymm6,ymm10
  0000000000007BF6: C4 C1 55 EF E9     vpxor       ymm5,ymm5,ymm9
  0000000000007BFB: C4 C1 5D EF E0     vpxor       ymm4,ymm4,ymm8
  0000000000007C00: C5 7D 7F 85 20 01  vmovdqa     ymmword ptr [rbp+120h],ymm8
                    00 00
  0000000000007C08: C5 BD 72 D7 19     vpsrld      ymm8,ymm7,19h
  0000000000007C0D: C5 C5 72 F7 07     vpslld      ymm7,ymm7,7
  0000000000007C12: C4 C1 45 EF F8     vpxor       ymm7,ymm7,ymm8
  0000000000007C17: C5 BD 72 D6 19     vpsrld      ymm8,ymm6,19h
  0000000000007C1C: C5 CD 72 F6 07     vpslld      ymm6,ymm6,7
  0000000000007C21: C4 C1 4D EF F0     vpxor       ymm6,ymm6,ymm8
  0000000000007C26: C5 BD 72 D5 19     vpsrld      ymm8,ymm5,19h
  0000000000007C2B: C5 D5 72 F5 07     vpslld      ymm5,ymm5,7
  0000000000007C30: C4 C1 55 EF E8     vpxor       ymm5,ymm5,ymm8
  0000000000007C35: C5 BD 72 D4 19     vpsrld      ymm8,ymm4,19h
  0000000000007C3A: C5 DD 72 F4 07     vpslld      ymm4,ymm4,7
  0000000000007C3F: C4 C1 5D EF E0     vpxor       ymm4,ymm4,ymm8
  0000000000007C44: C5 7D 6F 85 20 01  vmovdqa     ymm8,ymmword ptr [rbp+120h]
                    00 00
  0000000000007C4C: C4 E3 45 0F FF 0C  vpalignr    ymm7,ymm7,ymm7,0Ch
  0000000000007C52: C4 43 25 0F DB 08  vpalignr    ymm11,ymm11,ymm11,8
  0000000000007C58: C4 43 05 0F FF 04  vpalignr    ymm15,ymm15,ymm15,4
  0000000000007C5E: C4 E3 4D 0F F6 0C  vpalignr    ymm6,ymm6,ymm6,0Ch
  0000000000007C64: C4 43 2D 0F D2 08  vpalignr    ymm10,ymm10,ymm10,8
  0000000000007C6A: C4 43 0D 0F F6 04  vpalignr    ymm14,ymm14,ymm14,4
  0000000000007C70: C4 E3 55 0F ED 0C  vpalignr    ymm5,ymm5,ymm5,0Ch
  0000000000007C76: C4 43 35 0F C9 08  vpalignr    ymm9,ymm9,ymm9,8
  0000000000007C7C: C4 43 15 0F ED 04  vpalignr    ymm13,ymm13,ymm13,4
  0000000000007C82: C4 E3 5D 0F E4 0C  vpalignr    ymm4,ymm4,ymm4,0Ch
  0000000000007C88: C4 43 3D 0F C0 08  vpalignr    ymm8,ymm8,ymm8,8
  0000000000007C8E: C4 43 1D 0F E4 04  vpalignr    ymm12,ymm12,ymm12,4
  0000000000007C94: C5 7D 7F 85 20 01  vmovdqa     ymmword ptr [rbp+120h],ymm8
                    00 00
  0000000000007C9C: C5 7D 6F 05 40 00  vmovdqa     ymm8,ymmword ptr [.rdata+40h]
                    00 00
  0000000000007CA4: C5 E5 FE DF        vpaddd      ymm3,ymm3,ymm7
  0000000000007CA8: C5 ED FE D6        vpaddd      ymm2,ymm2,ymm6
  0000000000007CAC: C5 F5 FE CD        vpaddd      ymm1,ymm1,ymm5
  0000000000007CB0: C5 FD FE C4        vpaddd      ymm0,ymm0,ymm4
  0000000000007CB4: C5 05 EF FB        vpxor       ymm15,ymm15,ymm3
  0000000000007CB8: C5 0D EF F2        vpxor       ymm14,ymm14,ymm2
  0000000000007CBC: C5 15 EF E9        vpxor       ymm13,ymm13,ymm1
  0000000000007CC0: C5 1D EF E0        vpxor       ymm12,ymm12,ymm0
  0000000000007CC4: C4 42 05 00 F8     vpshufb     ymm15,ymm15,ymm8
  0000000000007CC9: C4 42 0D 00 F0     vpshufb     ymm14,ymm14,ymm8
  0000000000007CCE: C4 42 15 00 E8     vpshufb     ymm13,ymm13,ymm8
  0000000000007CD3: C4 42 1D 00 E0     vpshufb     ymm12,ymm12,ymm8
  0000000000007CD8: C4 41 25 FE DF     vpaddd      ymm11,ymm11,ymm15
  0000000000007CDD: C4 41 2D FE D6     vpaddd      ymm10,ymm10,ymm14
  0000000000007CE2: C4 41 35 FE CD     vpaddd      ymm9,ymm9,ymm13
  0000000000007CE7: C5 1D FE 85 20 01  vpaddd      ymm8,ymm12,ymmword ptr [rbp+120h]
                    00 00
  0000000000007CEF: C4 C1 45 EF FB     vpxor       ymm7,ymm7,ymm11
  0000000000007CF4: C4 C1 4D EF F2     vpxor       ymm6,ymm6,ymm10
  0000000000007CF9: C4 C1 55 EF E9     vpxor       ymm5,ymm5,ymm9
  0000000000007CFE: C4 C1 5D EF E0     vpxor       ymm4,ymm4,ymm8
  0000000000007D03: C5 7D 7F 85 20 01  vmovdqa     ymmword ptr [rbp+120h],ymm8
                    00 00
  0000000000007D0B: C5 BD 72 D7 14     vpsrld      ymm8,ymm7,14h
  0000000000007D10: C5 C5 72 F7 0C     vpslld      ymm7,ymm7,0Ch
  0000000000007D15: C4 C1 45 EF F8     vpxor       ymm7,ymm7,ymm8
  0000000000007D1A: C5 BD 72 D6 14     vpsrld      ymm8,ymm6,14h
  0000000000007D1F: C5 CD 72 F6 0C     vpslld      ymm6,ymm6,0Ch
  0000000000007D24: C4 C1 4D EF F0     vpxor       ymm6,ymm6,ymm8
  0000000000007D29: C5 BD 72 D5 14     vpsrld      ymm8,ymm5,14h
  0000000000007D2E: C5 D5 72 F5 0C     vpslld      ymm5,ymm5,0Ch
  0000000000007D33: C4 C1 55 EF E8     vpxor       ymm5,ymm5,ymm8
  0000000000007D38: C5 BD 72 D4 14     vpsrld      ymm8,ymm4,14h
  0000000000007D3D: C5 DD 72 F4 0C     vpslld      ymm4,ymm4,0Ch
  0000000000007D42: C4 C1 5D EF E0     vpxor       ymm4,ymm4,ymm8
  0000000000007D47: C5 7D 6F 05 20 00  vmovdqa     ymm8,ymmword ptr [.rdata+20h]
                    00 00
  0000000000007D4F: C5 E5 FE DF        vpaddd      ymm3,ymm3,ymm7
  0000000000007D53: C5 ED FE D6        vpaddd      ymm2,ymm2,ymm6
  0000000000007D57: C5 F5 FE CD        vpaddd      ymm1,ymm1,ymm5
  0000000000007D5B: C5 FD FE C4        vpaddd      ymm0,ymm0,ymm4
  0000000000007D5F: C5 05 EF FB        vpxor       ymm15,ymm15,ymm3
  0000000000007D63: 48 83 EF 10        sub         rdi,10h
  0000000000007D67: B9 09 00 00 00     mov         ecx,9
  0000000000007D6C: E9 FC 01 00 00     jmp         L$seal_avx2_main_loop_rounds_entry
  0000000000007D71: 90                 nop
  0000000000007D72: 90                 nop
  0000000000007D73: 90                 nop
  0000000000007D74: 90                 nop
  0000000000007D75: 90                 nop
  0000000000007D76: 90                 nop
  0000000000007D77: 90                 nop
  0000000000007D78: 90                 nop
  0000000000007D79: 90                 nop
  0000000000007D7A: 90                 nop
  0000000000007D7B: 90                 nop
  0000000000007D7C: 90                 nop
  0000000000007D7D: 90                 nop
  0000000000007D7E: 90                 nop
  0000000000007D7F: 90                 nop
L$seal_avx2_main_loop:
  0000000000007D80: C5 FD 6F 05 00 00  vmovdqa     ymm0,ymmword ptr [.rdata]
                    00 00
  0000000000007D88: C5 FD 6F A5 E0 00  vmovdqa     ymm4,ymmword ptr [rbp+0E0h]
                    00 00
  0000000000007D90: C5 7D 6F 85 00 01  vmovdqa     ymm8,ymmword ptr [rbp+100h]
                    00 00
  0000000000007D98: C5 FD 6F C8        vmovdqa     ymm1,ymm0
  0000000000007D9C: C5 FD 6F EC        vmovdqa     ymm5,ymm4
  0000000000007DA0: C4 41 7D 6F C8     vmovdqa     ymm9,ymm8
  0000000000007DA5: C5 FD 6F D0        vmovdqa     ymm2,ymm0
  0000000000007DA9: C5 FD 6F F4        vmovdqa     ymm6,ymm4
  0000000000007DAD: C4 41 7D 6F D0     vmovdqa     ymm10,ymm8
  0000000000007DB2: C5 FD 6F D8        vmovdqa     ymm3,ymm0
  0000000000007DB6: C5 FD 6F FC        vmovdqa     ymm7,ymm4
  0000000000007DBA: C4 41 7D 6F D8     vmovdqa     ymm11,ymm8
  0000000000007DBF: C5 7D 6F 25 80 00  vmovdqa     ymm12,ymmword ptr [.rdata+80h]
                    00 00
  0000000000007DC7: C5 1D FE BD 40 01  vpaddd      ymm15,ymm12,ymmword ptr [rbp+140h]
                    00 00
  0000000000007DCF: C4 41 1D FE F7     vpaddd      ymm14,ymm12,ymm15
  0000000000007DD4: C4 41 1D FE EE     vpaddd      ymm13,ymm12,ymm14
  0000000000007DD9: C4 41 1D FE E5     vpaddd      ymm12,ymm12,ymm13
  0000000000007DDE: C5 7D 7F BD A0 01  vmovdqa     ymmword ptr [rbp+1A0h],ymm15
                    00 00
  0000000000007DE6: C5 7D 7F B5 80 01  vmovdqa     ymmword ptr [rbp+180h],ymm14
                    00 00
  0000000000007DEE: C5 7D 7F AD 60 01  vmovdqa     ymmword ptr [rbp+160h],ymm13
                    00 00
  0000000000007DF6: C5 7D 7F A5 40 01  vmovdqa     ymmword ptr [rbp+140h],ymm12
                    00 00
  0000000000007DFE: B9 0A 00 00 00     mov         ecx,0Ah
  0000000000007E03: 90                 nop
  0000000000007E04: 90                 nop
  0000000000007E05: 90                 nop
  0000000000007E06: 90                 nop
  0000000000007E07: 90                 nop
  0000000000007E08: 90                 nop
  0000000000007E09: 90                 nop
  0000000000007E0A: 90                 nop
  0000000000007E0B: 90                 nop
  0000000000007E0C: 90                 nop
  0000000000007E0D: 90                 nop
  0000000000007E0E: 90                 nop
  0000000000007E0F: 90                 nop
  0000000000007E10: 90                 nop
  0000000000007E11: 90                 nop
  0000000000007E12: 90                 nop
  0000000000007E13: 90                 nop
  0000000000007E14: 90                 nop
  0000000000007E15: 90                 nop
  0000000000007E16: 90                 nop
  0000000000007E17: 90                 nop
  0000000000007E18: 90                 nop
  0000000000007E19: 90                 nop
  0000000000007E1A: 90                 nop
  0000000000007E1B: 90                 nop
  0000000000007E1C: 90                 nop
  0000000000007E1D: 90                 nop
  0000000000007E1E: 90                 nop
  0000000000007E1F: 90                 nop
L$seal_avx2_main_loop_rounds:
  0000000000007E20: 4C 03 17           add         r10,qword ptr [rdi]
  0000000000007E23: 4C 13 5F 08        adc         r11,qword ptr [rdi+8]
  0000000000007E27: 49 83 D4 01        adc         r12,1
  0000000000007E2B: C5 7D 7F 85 20 01  vmovdqa     ymmword ptr [rbp+120h],ymm8
                    00 00
  0000000000007E33: C5 7D 6F 05 40 00  vmovdqa     ymm8,ymmword ptr [.rdata+40h]
                    00 00
  0000000000007E3B: C5 E5 FE DF        vpaddd      ymm3,ymm3,ymm7
  0000000000007E3F: C5 ED FE D6        vpaddd      ymm2,ymm2,ymm6
  0000000000007E43: C5 F5 FE CD        vpaddd      ymm1,ymm1,ymm5
  0000000000007E47: C5 FD FE C4        vpaddd      ymm0,ymm0,ymm4
  0000000000007E4B: C5 05 EF FB        vpxor       ymm15,ymm15,ymm3
  0000000000007E4F: C5 0D EF F2        vpxor       ymm14,ymm14,ymm2
  0000000000007E53: C5 15 EF E9        vpxor       ymm13,ymm13,ymm1
  0000000000007E57: C5 1D EF E0        vpxor       ymm12,ymm12,ymm0
  0000000000007E5B: 48 8B 95 A0 00 00  mov         rdx,qword ptr [rbp+0A0h]
                    00
  0000000000007E62: 49 89 D7           mov         r15,rdx
  0000000000007E65: C4 42 93 F6 F2     mulx        r14,r13,r10
  0000000000007E6A: C4 C2 FB F6 D3     mulx        rdx,rax,r11
  0000000000007E6F: 4D 0F AF FC        imul        r15,r12
  0000000000007E73: 49 01 C6           add         r14,rax
  0000000000007E76: 49 11 D7           adc         r15,rdx
  0000000000007E79: C4 42 05 00 F8     vpshufb     ymm15,ymm15,ymm8
  0000000000007E7E: C4 42 0D 00 F0     vpshufb     ymm14,ymm14,ymm8
  0000000000007E83: C4 42 15 00 E8     vpshufb     ymm13,ymm13,ymm8
  0000000000007E88: C4 42 1D 00 E0     vpshufb     ymm12,ymm12,ymm8
  0000000000007E8D: C4 41 25 FE DF     vpaddd      ymm11,ymm11,ymm15
  0000000000007E92: C4 41 2D FE D6     vpaddd      ymm10,ymm10,ymm14
  0000000000007E97: C4 41 35 FE CD     vpaddd      ymm9,ymm9,ymm13
  0000000000007E9C: C5 1D FE 85 20 01  vpaddd      ymm8,ymm12,ymmword ptr [rbp+120h]
                    00 00
  0000000000007EA4: C4 C1 45 EF FB     vpxor       ymm7,ymm7,ymm11
  0000000000007EA9: 48 8B 95 A8 00 00  mov         rdx,qword ptr [rbp+0A8h]
                    00
  0000000000007EB0: C4 C2 AB F6 C2     mulx        rax,r10,r10
  0000000000007EB5: 4D 01 D6           add         r14,r10
  0000000000007EB8: C4 42 A3 F6 CB     mulx        r9,r11,r11
  0000000000007EBD: 4D 11 DF           adc         r15,r11
  0000000000007EC0: 49 83 D1 00        adc         r9,0
  0000000000007EC4: 49 0F AF D4        imul        rdx,r12
  0000000000007EC8: C4 C1 4D EF F2     vpxor       ymm6,ymm6,ymm10
  0000000000007ECD: C4 C1 55 EF E9     vpxor       ymm5,ymm5,ymm9
  0000000000007ED2: C4 C1 5D EF E0     vpxor       ymm4,ymm4,ymm8
  0000000000007ED7: C5 7D 7F 85 20 01  vmovdqa     ymmword ptr [rbp+120h],ymm8
                    00 00
  0000000000007EDF: C5 BD 72 D7 14     vpsrld      ymm8,ymm7,14h
  0000000000007EE4: C5 C5 72 F7 0C     vpslld      ymm7,ymm7,0Ch
  0000000000007EE9: C4 C1 45 EF F8     vpxor       ymm7,ymm7,ymm8
  0000000000007EEE: C5 BD 72 D6 14     vpsrld      ymm8,ymm6,14h
  0000000000007EF3: C5 CD 72 F6 0C     vpslld      ymm6,ymm6,0Ch
  0000000000007EF8: C4 C1 4D EF F0     vpxor       ymm6,ymm6,ymm8
  0000000000007EFD: C5 BD 72 D5 14     vpsrld      ymm8,ymm5,14h
  0000000000007F02: C5 D5 72 F5 0C     vpslld      ymm5,ymm5,0Ch
  0000000000007F07: 49 01 C7           add         r15,rax
  0000000000007F0A: 49 11 D1           adc         r9,rdx
  0000000000007F0D: C4 C1 55 EF E8     vpxor       ymm5,ymm5,ymm8
  0000000000007F12: C5 BD 72 D4 14     vpsrld      ymm8,ymm4,14h
  0000000000007F17: C5 DD 72 F4 0C     vpslld      ymm4,ymm4,0Ch
  0000000000007F1C: C4 C1 5D EF E0     vpxor       ymm4,ymm4,ymm8
  0000000000007F21: C5 7D 6F 05 20 00  vmovdqa     ymm8,ymmword ptr [.rdata+20h]
                    00 00
  0000000000007F29: C5 E5 FE DF        vpaddd      ymm3,ymm3,ymm7
  0000000000007F2D: C5 ED FE D6        vpaddd      ymm2,ymm2,ymm6
  0000000000007F31: C5 F5 FE CD        vpaddd      ymm1,ymm1,ymm5
  0000000000007F35: C5 FD FE C4        vpaddd      ymm0,ymm0,ymm4
  0000000000007F39: C5 05 EF FB        vpxor       ymm15,ymm15,ymm3
  0000000000007F3D: 4D 89 EA           mov         r10,r13
  0000000000007F40: 4D 89 F3           mov         r11,r14
  0000000000007F43: 4D 89 FC           mov         r12,r15
  0000000000007F46: 49 83 E4 03        and         r12,3
  0000000000007F4A: 4D 89 FD           mov         r13,r15
  0000000000007F4D: 49 83 E5 FC        and         r13,0FFFFFFFFFFFFFFFCh
  0000000000007F51: 4D 89 CE           mov         r14,r9
  0000000000007F54: 4D 0F AC CF 02     shrd        r15,r9,2
  0000000000007F59: 49 C1 E9 02        shr         r9,2
  0000000000007F5D: 4D 01 EF           add         r15,r13
  0000000000007F60: 4D 11 F1           adc         r9,r14
  0000000000007F63: 4D 01 FA           add         r10,r15
  0000000000007F66: 4D 11 CB           adc         r11,r9
  0000000000007F69: 49 83 D4 00        adc         r12,0
L$seal_avx2_main_loop_rounds_entry:
  0000000000007F6D: C5 0D EF F2        vpxor       ymm14,ymm14,ymm2
  0000000000007F71: C5 15 EF E9        vpxor       ymm13,ymm13,ymm1
  0000000000007F75: C5 1D EF E0        vpxor       ymm12,ymm12,ymm0
  0000000000007F79: C4 42 05 00 F8     vpshufb     ymm15,ymm15,ymm8
  0000000000007F7E: C4 42 0D 00 F0     vpshufb     ymm14,ymm14,ymm8
  0000000000007F83: C4 42 15 00 E8     vpshufb     ymm13,ymm13,ymm8
  0000000000007F88: C4 42 1D 00 E0     vpshufb     ymm12,ymm12,ymm8
  0000000000007F8D: C4 41 25 FE DF     vpaddd      ymm11,ymm11,ymm15
  0000000000007F92: C4 41 2D FE D6     vpaddd      ymm10,ymm10,ymm14
  0000000000007F97: 4C 03 57 10        add         r10,qword ptr [rdi+10h]
  0000000000007F9B: 4C 13 5F 18        adc         r11,qword ptr [rdi+18h]
  0000000000007F9F: 49 83 D4 01        adc         r12,1
  0000000000007FA3: C4 41 35 FE CD     vpaddd      ymm9,ymm9,ymm13
  0000000000007FA8: C5 1D FE 85 20 01  vpaddd      ymm8,ymm12,ymmword ptr [rbp+120h]
                    00 00
  0000000000007FB0: C4 C1 45 EF FB     vpxor       ymm7,ymm7,ymm11
  0000000000007FB5: C4 C1 4D EF F2     vpxor       ymm6,ymm6,ymm10
  0000000000007FBA: C4 C1 55 EF E9     vpxor       ymm5,ymm5,ymm9
  0000000000007FBF: C4 C1 5D EF E0     vpxor       ymm4,ymm4,ymm8
  0000000000007FC4: C5 7D 7F 85 20 01  vmovdqa     ymmword ptr [rbp+120h],ymm8
                    00 00
  0000000000007FCC: C5 BD 72 D7 19     vpsrld      ymm8,ymm7,19h
  0000000000007FD1: 48 8B 95 A0 00 00  mov         rdx,qword ptr [rbp+0A0h]
                    00
  0000000000007FD8: 49 89 D7           mov         r15,rdx
  0000000000007FDB: C4 42 93 F6 F2     mulx        r14,r13,r10
  0000000000007FE0: C4 C2 FB F6 D3     mulx        rdx,rax,r11
  0000000000007FE5: 4D 0F AF FC        imul        r15,r12
  0000000000007FE9: 49 01 C6           add         r14,rax
  0000000000007FEC: 49 11 D7           adc         r15,rdx
  0000000000007FEF: C5 C5 72 F7 07     vpslld      ymm7,ymm7,7
  0000000000007FF4: C4 C1 45 EF F8     vpxor       ymm7,ymm7,ymm8
  0000000000007FF9: C5 BD 72 D6 19     vpsrld      ymm8,ymm6,19h
  0000000000007FFE: C5 CD 72 F6 07     vpslld      ymm6,ymm6,7
  0000000000008003: C4 C1 4D EF F0     vpxor       ymm6,ymm6,ymm8
  0000000000008008: C5 BD 72 D5 19     vpsrld      ymm8,ymm5,19h
  000000000000800D: C5 D5 72 F5 07     vpslld      ymm5,ymm5,7
  0000000000008012: C4 C1 55 EF E8     vpxor       ymm5,ymm5,ymm8
  0000000000008017: C5 BD 72 D4 19     vpsrld      ymm8,ymm4,19h
  000000000000801C: C5 DD 72 F4 07     vpslld      ymm4,ymm4,7
  0000000000008021: C4 C1 5D EF E0     vpxor       ymm4,ymm4,ymm8
  0000000000008026: C5 7D 6F 85 20 01  vmovdqa     ymm8,ymmword ptr [rbp+120h]
                    00 00
  000000000000802E: C4 E3 45 0F FF 04  vpalignr    ymm7,ymm7,ymm7,4
  0000000000008034: C4 43 25 0F DB 08  vpalignr    ymm11,ymm11,ymm11,8
  000000000000803A: C4 43 05 0F FF 0C  vpalignr    ymm15,ymm15,ymm15,0Ch
  0000000000008040: C4 E3 4D 0F F6 04  vpalignr    ymm6,ymm6,ymm6,4
  0000000000008046: C4 43 2D 0F D2 08  vpalignr    ymm10,ymm10,ymm10,8
  000000000000804C: C4 43 0D 0F F6 0C  vpalignr    ymm14,ymm14,ymm14,0Ch
  0000000000008052: 48 8B 95 A8 00 00  mov         rdx,qword ptr [rbp+0A8h]
                    00
  0000000000008059: C4 C2 AB F6 C2     mulx        rax,r10,r10
  000000000000805E: 4D 01 D6           add         r14,r10
  0000000000008061: C4 42 A3 F6 CB     mulx        r9,r11,r11
  0000000000008066: 4D 11 DF           adc         r15,r11
  0000000000008069: 49 83 D1 00        adc         r9,0
  000000000000806D: 49 0F AF D4        imul        rdx,r12
  0000000000008071: C4 E3 55 0F ED 04  vpalignr    ymm5,ymm5,ymm5,4
  0000000000008077: C4 43 35 0F C9 08  vpalignr    ymm9,ymm9,ymm9,8
  000000000000807D: C4 43 15 0F ED 0C  vpalignr    ymm13,ymm13,ymm13,0Ch
  0000000000008083: C4 E3 5D 0F E4 04  vpalignr    ymm4,ymm4,ymm4,4
  0000000000008089: C4 43 3D 0F C0 08  vpalignr    ymm8,ymm8,ymm8,8
  000000000000808F: C4 43 1D 0F E4 0C  vpalignr    ymm12,ymm12,ymm12,0Ch
  0000000000008095: C5 7D 7F 85 20 01  vmovdqa     ymmword ptr [rbp+120h],ymm8
                    00 00
  000000000000809D: C5 7D 6F 05 40 00  vmovdqa     ymm8,ymmword ptr [.rdata+40h]
                    00 00
  00000000000080A5: C5 E5 FE DF        vpaddd      ymm3,ymm3,ymm7
  00000000000080A9: C5 ED FE D6        vpaddd      ymm2,ymm2,ymm6
  00000000000080AD: C5 F5 FE CD        vpaddd      ymm1,ymm1,ymm5
  00000000000080B1: C5 FD FE C4        vpaddd      ymm0,ymm0,ymm4
  00000000000080B5: C5 05 EF FB        vpxor       ymm15,ymm15,ymm3
  00000000000080B9: C5 0D EF F2        vpxor       ymm14,ymm14,ymm2
  00000000000080BD: C5 15 EF E9        vpxor       ymm13,ymm13,ymm1
  00000000000080C1: C5 1D EF E0        vpxor       ymm12,ymm12,ymm0
  00000000000080C5: C4 42 05 00 F8     vpshufb     ymm15,ymm15,ymm8
  00000000000080CA: C4 42 0D 00 F0     vpshufb     ymm14,ymm14,ymm8
  00000000000080CF: 49 01 C7           add         r15,rax
  00000000000080D2: 49 11 D1           adc         r9,rdx
  00000000000080D5: C4 42 15 00 E8     vpshufb     ymm13,ymm13,ymm8
  00000000000080DA: C4 42 1D 00 E0     vpshufb     ymm12,ymm12,ymm8
  00000000000080DF: C4 41 25 FE DF     vpaddd      ymm11,ymm11,ymm15
  00000000000080E4: C4 41 2D FE D6     vpaddd      ymm10,ymm10,ymm14
  00000000000080E9: C4 41 35 FE CD     vpaddd      ymm9,ymm9,ymm13
  00000000000080EE: C5 1D FE 85 20 01  vpaddd      ymm8,ymm12,ymmword ptr [rbp+120h]
                    00 00
  00000000000080F6: C4 C1 45 EF FB     vpxor       ymm7,ymm7,ymm11
  00000000000080FB: C4 C1 4D EF F2     vpxor       ymm6,ymm6,ymm10
  0000000000008100: C4 C1 55 EF E9     vpxor       ymm5,ymm5,ymm9
  0000000000008105: 4D 89 EA           mov         r10,r13
  0000000000008108: 4D 89 F3           mov         r11,r14
  000000000000810B: 4D 89 FC           mov         r12,r15
  000000000000810E: 49 83 E4 03        and         r12,3
  0000000000008112: 4D 89 FD           mov         r13,r15
  0000000000008115: 49 83 E5 FC        and         r13,0FFFFFFFFFFFFFFFCh
  0000000000008119: 4D 89 CE           mov         r14,r9
  000000000000811C: 4D 0F AC CF 02     shrd        r15,r9,2
  0000000000008121: 49 C1 E9 02        shr         r9,2
  0000000000008125: 4D 01 EF           add         r15,r13
  0000000000008128: 4D 11 F1           adc         r9,r14
  000000000000812B: 4D 01 FA           add         r10,r15
  000000000000812E: 4D 11 CB           adc         r11,r9
  0000000000008131: 49 83 D4 00        adc         r12,0
  0000000000008135: C4 C1 5D EF E0     vpxor       ymm4,ymm4,ymm8
  000000000000813A: C5 7D 7F 85 20 01  vmovdqa     ymmword ptr [rbp+120h],ymm8
                    00 00
  0000000000008142: C5 BD 72 D7 14     vpsrld      ymm8,ymm7,14h
  0000000000008147: C5 C5 72 F7 0C     vpslld      ymm7,ymm7,0Ch
  000000000000814C: C4 C1 45 EF F8     vpxor       ymm7,ymm7,ymm8
  0000000000008151: C5 BD 72 D6 14     vpsrld      ymm8,ymm6,14h
  0000000000008156: C5 CD 72 F6 0C     vpslld      ymm6,ymm6,0Ch
  000000000000815B: C4 C1 4D EF F0     vpxor       ymm6,ymm6,ymm8
  0000000000008160: 4C 03 57 20        add         r10,qword ptr [rdi+20h]
  0000000000008164: 4C 13 5F 28        adc         r11,qword ptr [rdi+28h]
  0000000000008168: 49 83 D4 01        adc         r12,1
  000000000000816C: 48 8D 7F 30        lea         rdi,[rdi+30h]
  0000000000008170: C5 BD 72 D5 14     vpsrld      ymm8,ymm5,14h
  0000000000008175: C5 D5 72 F5 0C     vpslld      ymm5,ymm5,0Ch
  000000000000817A: C4 C1 55 EF E8     vpxor       ymm5,ymm5,ymm8
  000000000000817F: C5 BD 72 D4 14     vpsrld      ymm8,ymm4,14h
  0000000000008184: C5 DD 72 F4 0C     vpslld      ymm4,ymm4,0Ch
  0000000000008189: C4 C1 5D EF E0     vpxor       ymm4,ymm4,ymm8
  000000000000818E: C5 7D 6F 05 20 00  vmovdqa     ymm8,ymmword ptr [.rdata+20h]
                    00 00
  0000000000008196: C5 E5 FE DF        vpaddd      ymm3,ymm3,ymm7
  000000000000819A: C5 ED FE D6        vpaddd      ymm2,ymm2,ymm6
  000000000000819E: C5 F5 FE CD        vpaddd      ymm1,ymm1,ymm5
  00000000000081A2: C5 FD FE C4        vpaddd      ymm0,ymm0,ymm4
  00000000000081A6: C5 05 EF FB        vpxor       ymm15,ymm15,ymm3
  00000000000081AA: C5 0D EF F2        vpxor       ymm14,ymm14,ymm2
  00000000000081AE: C5 15 EF E9        vpxor       ymm13,ymm13,ymm1
  00000000000081B2: C5 1D EF E0        vpxor       ymm12,ymm12,ymm0
  00000000000081B6: C4 42 05 00 F8     vpshufb     ymm15,ymm15,ymm8
  00000000000081BB: C4 42 0D 00 F0     vpshufb     ymm14,ymm14,ymm8
  00000000000081C0: C4 42 15 00 E8     vpshufb     ymm13,ymm13,ymm8
  00000000000081C5: 48 8B 95 A0 00 00  mov         rdx,qword ptr [rbp+0A0h]
                    00
  00000000000081CC: 49 89 D7           mov         r15,rdx
  00000000000081CF: C4 42 93 F6 F2     mulx        r14,r13,r10
  00000000000081D4: C4 C2 FB F6 D3     mulx        rdx,rax,r11
  00000000000081D9: 4D 0F AF FC        imul        r15,r12
  00000000000081DD: 49 01 C6           add         r14,rax
  00000000000081E0: 49 11 D7           adc         r15,rdx
  00000000000081E3: C4 42 1D 00 E0     vpshufb     ymm12,ymm12,ymm8
  00000000000081E8: C4 41 25 FE DF     vpaddd      ymm11,ymm11,ymm15
  00000000000081ED: C4 41 2D FE D6     vpaddd      ymm10,ymm10,ymm14
  00000000000081F2: C4 41 35 FE CD     vpaddd      ymm9,ymm9,ymm13
  00000000000081F7: C5 1D FE 85 20 01  vpaddd      ymm8,ymm12,ymmword ptr [rbp+120h]
                    00 00
  00000000000081FF: C4 C1 45 EF FB     vpxor       ymm7,ymm7,ymm11
  0000000000008204: C4 C1 4D EF F2     vpxor       ymm6,ymm6,ymm10
  0000000000008209: C4 C1 55 EF E9     vpxor       ymm5,ymm5,ymm9
  000000000000820E: 48 8B 95 A8 00 00  mov         rdx,qword ptr [rbp+0A8h]
                    00
  0000000000008215: C4 C2 AB F6 C2     mulx        rax,r10,r10
  000000000000821A: 4D 01 D6           add         r14,r10
  000000000000821D: C4 42 A3 F6 CB     mulx        r9,r11,r11
  0000000000008222: 4D 11 DF           adc         r15,r11
  0000000000008225: 49 83 D1 00        adc         r9,0
  0000000000008229: 49 0F AF D4        imul        rdx,r12
  000000000000822D: C4 C1 5D EF E0     vpxor       ymm4,ymm4,ymm8
  0000000000008232: C5 7D 7F 85 20 01  vmovdqa     ymmword ptr [rbp+120h],ymm8
                    00 00
  000000000000823A: C5 BD 72 D7 19     vpsrld      ymm8,ymm7,19h
  000000000000823F: C5 C5 72 F7 07     vpslld      ymm7,ymm7,7
  0000000000008244: C4 C1 45 EF F8     vpxor       ymm7,ymm7,ymm8
  0000000000008249: C5 BD 72 D6 19     vpsrld      ymm8,ymm6,19h
  000000000000824E: C5 CD 72 F6 07     vpslld      ymm6,ymm6,7
  0000000000008253: C4 C1 4D EF F0     vpxor       ymm6,ymm6,ymm8
  0000000000008258: 49 01 C7           add         r15,rax
  000000000000825B: 49 11 D1           adc         r9,rdx
  000000000000825E: C5 BD 72 D5 19     vpsrld      ymm8,ymm5,19h
  0000000000008263: C5 D5 72 F5 07     vpslld      ymm5,ymm5,7
  0000000000008268: C4 C1 55 EF E8     vpxor       ymm5,ymm5,ymm8
  000000000000826D: C5 BD 72 D4 19     vpsrld      ymm8,ymm4,19h
  0000000000008272: C5 DD 72 F4 07     vpslld      ymm4,ymm4,7
  0000000000008277: C4 C1 5D EF E0     vpxor       ymm4,ymm4,ymm8
  000000000000827C: C5 7D 6F 85 20 01  vmovdqa     ymm8,ymmword ptr [rbp+120h]
                    00 00
  0000000000008284: C4 E3 45 0F FF 0C  vpalignr    ymm7,ymm7,ymm7,0Ch
  000000000000828A: C4 43 25 0F DB 08  vpalignr    ymm11,ymm11,ymm11,8
  0000000000008290: C4 43 05 0F FF 04  vpalignr    ymm15,ymm15,ymm15,4
  0000000000008296: C4 E3 4D 0F F6 0C  vpalignr    ymm6,ymm6,ymm6,0Ch
  000000000000829C: C4 43 2D 0F D2 08  vpalignr    ymm10,ymm10,ymm10,8
  00000000000082A2: C4 43 0D 0F F6 04  vpalignr    ymm14,ymm14,ymm14,4
  00000000000082A8: C4 E3 55 0F ED 0C  vpalignr    ymm5,ymm5,ymm5,0Ch
  00000000000082AE: C4 43 35 0F C9 08  vpalignr    ymm9,ymm9,ymm9,8
  00000000000082B4: C4 43 15 0F ED 04  vpalignr    ymm13,ymm13,ymm13,4
  00000000000082BA: C4 E3 5D 0F E4 0C  vpalignr    ymm4,ymm4,ymm4,0Ch
  00000000000082C0: C4 43 3D 0F C0 08  vpalignr    ymm8,ymm8,ymm8,8
  00000000000082C6: 4D 89 EA           mov         r10,r13
  00000000000082C9: 4D 89 F3           mov         r11,r14
  00000000000082CC: 4D 89 FC           mov         r12,r15
  00000000000082CF: 49 83 E4 03        and         r12,3
  00000000000082D3: 4D 89 FD           mov         r13,r15
  00000000000082D6: 49 83 E5 FC        and         r13,0FFFFFFFFFFFFFFFCh
  00000000000082DA: 4D 89 CE           mov         r14,r9
  00000000000082DD: 4D 0F AC CF 02     shrd        r15,r9,2
  00000000000082E2: 49 C1 E9 02        shr         r9,2
  00000000000082E6: 4D 01 EF           add         r15,r13
  00000000000082E9: 4D 11 F1           adc         r9,r14
  00000000000082EC: 4D 01 FA           add         r10,r15
  00000000000082EF: 4D 11 CB           adc         r11,r9
  00000000000082F2: 49 83 D4 00        adc         r12,0
  00000000000082F6: C4 43 1D 0F E4 04  vpalignr    ymm12,ymm12,ymm12,4
  00000000000082FC: 48 FF C9           dec         rcx
  00000000000082FF: 0F 85 1B FB FF FF  jne         L$seal_avx2_main_loop_rounds
  0000000000008305: C5 E5 FE 1D 00 00  vpaddd      ymm3,ymm3,ymmword ptr [.rdata]
                    00 00
  000000000000830D: C5 C5 FE BD E0 00  vpaddd      ymm7,ymm7,ymmword ptr [rbp+0E0h]
                    00 00
  0000000000008315: C5 25 FE 9D 00 01  vpaddd      ymm11,ymm11,ymmword ptr [rbp+100h]
                    00 00
  000000000000831D: C5 05 FE BD A0 01  vpaddd      ymm15,ymm15,ymmword ptr [rbp+1A0h]
                    00 00
  0000000000008325: C5 ED FE 15 00 00  vpaddd      ymm2,ymm2,ymmword ptr [.rdata]
                    00 00
  000000000000832D: C5 CD FE B5 E0 00  vpaddd      ymm6,ymm6,ymmword ptr [rbp+0E0h]
                    00 00
  0000000000008335: C5 2D FE 95 00 01  vpaddd      ymm10,ymm10,ymmword ptr [rbp+100h]
                    00 00
  000000000000833D: C5 0D FE B5 80 01  vpaddd      ymm14,ymm14,ymmword ptr [rbp+180h]
                    00 00
  0000000000008345: C5 F5 FE 0D 00 00  vpaddd      ymm1,ymm1,ymmword ptr [.rdata]
                    00 00
  000000000000834D: C5 D5 FE AD E0 00  vpaddd      ymm5,ymm5,ymmword ptr [rbp+0E0h]
                    00 00
  0000000000008355: C5 35 FE 8D 00 01  vpaddd      ymm9,ymm9,ymmword ptr [rbp+100h]
                    00 00
  000000000000835D: C5 15 FE AD 60 01  vpaddd      ymm13,ymm13,ymmword ptr [rbp+160h]
                    00 00
  0000000000008365: C5 FD FE 05 00 00  vpaddd      ymm0,ymm0,ymmword ptr [.rdata]
                    00 00
  000000000000836D: C5 DD FE A5 E0 00  vpaddd      ymm4,ymm4,ymmword ptr [rbp+0E0h]
                    00 00
  0000000000008375: C5 3D FE 85 00 01  vpaddd      ymm8,ymm8,ymmword ptr [rbp+100h]
                    00 00
  000000000000837D: C5 1D FE A5 40 01  vpaddd      ymm12,ymm12,ymmword ptr [rbp+140h]
                    00 00
  0000000000008385: C5 FD 7F 85 20 01  vmovdqa     ymmword ptr [rbp+120h],ymm0
                    00 00
  000000000000838D: 4C 03 17           add         r10,qword ptr [rdi]
  0000000000008390: 4C 13 5F 08        adc         r11,qword ptr [rdi+8]
  0000000000008394: 49 83 D4 01        adc         r12,1
  0000000000008398: 48 8B 95 A0 00 00  mov         rdx,qword ptr [rbp+0A0h]
                    00
  000000000000839F: 49 89 D7           mov         r15,rdx
  00000000000083A2: C4 42 93 F6 F2     mulx        r14,r13,r10
  00000000000083A7: C4 C2 FB F6 D3     mulx        rdx,rax,r11
  00000000000083AC: 4D 0F AF FC        imul        r15,r12
  00000000000083B0: 49 01 C6           add         r14,rax
  00000000000083B3: 49 11 D7           adc         r15,rdx
  00000000000083B6: 48 8B 95 A8 00 00  mov         rdx,qword ptr [rbp+0A8h]
                    00
  00000000000083BD: C4 C2 AB F6 C2     mulx        rax,r10,r10
  00000000000083C2: 4D 01 D6           add         r14,r10
  00000000000083C5: C4 42 A3 F6 CB     mulx        r9,r11,r11
  00000000000083CA: 4D 11 DF           adc         r15,r11
  00000000000083CD: 49 83 D1 00        adc         r9,0
  00000000000083D1: 49 0F AF D4        imul        rdx,r12
  00000000000083D5: 49 01 C7           add         r15,rax
  00000000000083D8: 49 11 D1           adc         r9,rdx
  00000000000083DB: 4D 89 EA           mov         r10,r13
  00000000000083DE: 4D 89 F3           mov         r11,r14
  00000000000083E1: 4D 89 FC           mov         r12,r15
  00000000000083E4: 49 83 E4 03        and         r12,3
  00000000000083E8: 4D 89 FD           mov         r13,r15
  00000000000083EB: 49 83 E5 FC        and         r13,0FFFFFFFFFFFFFFFCh
  00000000000083EF: 4D 89 CE           mov         r14,r9
  00000000000083F2: 4D 0F AC CF 02     shrd        r15,r9,2
  00000000000083F7: 49 C1 E9 02        shr         r9,2
  00000000000083FB: 4D 01 EF           add         r15,r13
  00000000000083FE: 4D 11 F1           adc         r9,r14
  0000000000008401: 4D 01 FA           add         r10,r15
  0000000000008404: 4D 11 CB           adc         r11,r9
  0000000000008407: 49 83 D4 00        adc         r12,0
  000000000000840B: 4C 03 57 10        add         r10,qword ptr [rdi+10h]
  000000000000840F: 4C 13 5F 18        adc         r11,qword ptr [rdi+18h]
  0000000000008413: 49 83 D4 01        adc         r12,1
  0000000000008417: 48 8B 95 A0 00 00  mov         rdx,qword ptr [rbp+0A0h]
                    00
  000000000000841E: 49 89 D7           mov         r15,rdx
  0000000000008421: C4 42 93 F6 F2     mulx        r14,r13,r10
  0000000000008426: C4 C2 FB F6 D3     mulx        rdx,rax,r11
  000000000000842B: 4D 0F AF FC        imul        r15,r12
  000000000000842F: 49 01 C6           add         r14,rax
  0000000000008432: 49 11 D7           adc         r15,rdx
  0000000000008435: 48 8B 95 A8 00 00  mov         rdx,qword ptr [rbp+0A8h]
                    00
  000000000000843C: C4 C2 AB F6 C2     mulx        rax,r10,r10
  0000000000008441: 4D 01 D6           add         r14,r10
  0000000000008444: C4 42 A3 F6 CB     mulx        r9,r11,r11
  0000000000008449: 4D 11 DF           adc         r15,r11
  000000000000844C: 49 83 D1 00        adc         r9,0
  0000000000008450: 49 0F AF D4        imul        rdx,r12
  0000000000008454: 49 01 C7           add         r15,rax
  0000000000008457: 49 11 D1           adc         r9,rdx
  000000000000845A: 4D 89 EA           mov         r10,r13
  000000000000845D: 4D 89 F3           mov         r11,r14
  0000000000008460: 4D 89 FC           mov         r12,r15
  0000000000008463: 49 83 E4 03        and         r12,3
  0000000000008467: 4D 89 FD           mov         r13,r15
  000000000000846A: 49 83 E5 FC        and         r13,0FFFFFFFFFFFFFFFCh
  000000000000846E: 4D 89 CE           mov         r14,r9
  0000000000008471: 4D 0F AC CF 02     shrd        r15,r9,2
  0000000000008476: 49 C1 E9 02        shr         r9,2
  000000000000847A: 4D 01 EF           add         r15,r13
  000000000000847D: 4D 11 F1           adc         r9,r14
  0000000000008480: 4D 01 FA           add         r10,r15
  0000000000008483: 4D 11 CB           adc         r11,r9
  0000000000008486: 49 83 D4 00        adc         r12,0
  000000000000848A: 48 8D 7F 20        lea         rdi,[rdi+20h]
  000000000000848E: C4 E3 45 46 C3 02  vperm2i128  ymm0,ymm7,ymm3,2
  0000000000008494: C4 E3 45 46 FB 13  vperm2i128  ymm7,ymm7,ymm3,13h
  000000000000849A: C4 C3 05 46 DB 02  vperm2i128  ymm3,ymm15,ymm11,2
  00000000000084A0: C4 43 05 46 DB 13  vperm2i128  ymm11,ymm15,ymm11,13h
  00000000000084A6: C5 FD EF 06        vpxor       ymm0,ymm0,ymmword ptr [rsi]
  00000000000084AA: C5 E5 EF 5E 20     vpxor       ymm3,ymm3,ymmword ptr [rsi+20h]
  00000000000084AF: C5 C5 EF 7E 40     vpxor       ymm7,ymm7,ymmword ptr [rsi+40h]
  00000000000084B4: C5 25 EF 5E 60     vpxor       ymm11,ymm11,ymmword ptr [rsi+60h]
  00000000000084B9: C5 FE 7F 07        vmovdqu     ymmword ptr [rdi],ymm0
  00000000000084BD: C5 FE 7F 5F 20     vmovdqu     ymmword ptr [rdi+20h],ymm3
  00000000000084C2: C5 FE 7F 7F 40     vmovdqu     ymmword ptr [rdi+40h],ymm7
  00000000000084C7: C5 7E 7F 5F 60     vmovdqu     ymmword ptr [rdi+60h],ymm11
  00000000000084CC: C5 FD 6F 85 20 01  vmovdqa     ymm0,ymmword ptr [rbp+120h]
                    00 00
  00000000000084D4: C4 E3 4D 46 DA 02  vperm2i128  ymm3,ymm6,ymm2,2
  00000000000084DA: C4 E3 4D 46 F2 13  vperm2i128  ymm6,ymm6,ymm2,13h
  00000000000084E0: C4 C3 0D 46 D2 02  vperm2i128  ymm2,ymm14,ymm10,2
  00000000000084E6: C4 43 0D 46 D2 13  vperm2i128  ymm10,ymm14,ymm10,13h
  00000000000084EC: C5 E5 EF 9E 80 00  vpxor       ymm3,ymm3,ymmword ptr [rsi+80h]
                    00 00
  00000000000084F4: C5 ED EF 96 A0 00  vpxor       ymm2,ymm2,ymmword ptr [rsi+0A0h]
                    00 00
  00000000000084FC: C5 CD EF B6 C0 00  vpxor       ymm6,ymm6,ymmword ptr [rsi+0C0h]
                    00 00
  0000000000008504: C5 2D EF 96 E0 00  vpxor       ymm10,ymm10,ymmword ptr [rsi+0E0h]
                    00 00
  000000000000850C: C5 FE 7F 9F 80 00  vmovdqu     ymmword ptr [rdi+80h],ymm3
                    00 00
  0000000000008514: C5 FE 7F 97 A0 00  vmovdqu     ymmword ptr [rdi+0A0h],ymm2
                    00 00
  000000000000851C: C5 FE 7F B7 C0 00  vmovdqu     ymmword ptr [rdi+0C0h],ymm6
                    00 00
  0000000000008524: C5 7E 7F 97 E0 00  vmovdqu     ymmword ptr [rdi+0E0h],ymm10
                    00 00
  000000000000852C: C4 E3 55 46 D9 02  vperm2i128  ymm3,ymm5,ymm1,2
  0000000000008532: C4 E3 55 46 E9 13  vperm2i128  ymm5,ymm5,ymm1,13h
  0000000000008538: C4 C3 15 46 C9 02  vperm2i128  ymm1,ymm13,ymm9,2
  000000000000853E: C4 43 15 46 C9 13  vperm2i128  ymm9,ymm13,ymm9,13h
  0000000000008544: C5 E5 EF 9E 00 01  vpxor       ymm3,ymm3,ymmword ptr [rsi+100h]
                    00 00
  000000000000854C: C5 F5 EF 8E 20 01  vpxor       ymm1,ymm1,ymmword ptr [rsi+120h]
                    00 00
  0000000000008554: C5 D5 EF AE 40 01  vpxor       ymm5,ymm5,ymmword ptr [rsi+140h]
                    00 00
  000000000000855C: C5 35 EF 8E 60 01  vpxor       ymm9,ymm9,ymmword ptr [rsi+160h]
                    00 00
  0000000000008564: C5 FE 7F 9F 00 01  vmovdqu     ymmword ptr [rdi+100h],ymm3
                    00 00
  000000000000856C: C5 FE 7F 8F 20 01  vmovdqu     ymmword ptr [rdi+120h],ymm1
                    00 00
  0000000000008574: C5 FE 7F AF 40 01  vmovdqu     ymmword ptr [rdi+140h],ymm5
                    00 00
  000000000000857C: C5 7E 7F 8F 60 01  vmovdqu     ymmword ptr [rdi+160h],ymm9
                    00 00
  0000000000008584: C4 E3 5D 46 D8 02  vperm2i128  ymm3,ymm4,ymm0,2
  000000000000858A: C4 E3 5D 46 E0 13  vperm2i128  ymm4,ymm4,ymm0,13h
  0000000000008590: C4 C3 1D 46 C0 02  vperm2i128  ymm0,ymm12,ymm8,2
  0000000000008596: C4 43 1D 46 C0 13  vperm2i128  ymm8,ymm12,ymm8,13h
  000000000000859C: C5 E5 EF 9E 80 01  vpxor       ymm3,ymm3,ymmword ptr [rsi+180h]
                    00 00
  00000000000085A4: C5 FD EF 86 A0 01  vpxor       ymm0,ymm0,ymmword ptr [rsi+1A0h]
                    00 00
  00000000000085AC: C5 DD EF A6 C0 01  vpxor       ymm4,ymm4,ymmword ptr [rsi+1C0h]
                    00 00
  00000000000085B4: C5 3D EF 86 E0 01  vpxor       ymm8,ymm8,ymmword ptr [rsi+1E0h]
                    00 00
  00000000000085BC: C5 FE 7F 9F 80 01  vmovdqu     ymmword ptr [rdi+180h],ymm3
                    00 00
  00000000000085C4: C5 FE 7F 87 A0 01  vmovdqu     ymmword ptr [rdi+1A0h],ymm0
                    00 00
  00000000000085CC: C5 FE 7F A7 C0 01  vmovdqu     ymmword ptr [rdi+1C0h],ymm4
                    00 00
  00000000000085D4: C5 7E 7F 87 E0 01  vmovdqu     ymmword ptr [rdi+1E0h],ymm8
                    00 00
  00000000000085DC: 48 8D B6 00 02 00  lea         rsi,[rsi+200h]
                    00
  00000000000085E3: 48 81 EB 00 02 00  sub         rbx,200h
                    00
  00000000000085EA: 48 81 FB 00 02 00  cmp         rbx,200h
                    00
  00000000000085F1: 0F 8F 89 F7 FF FF  jg          L$seal_avx2_main_loop
  00000000000085F7: 4C 03 17           add         r10,qword ptr [rdi]
  00000000000085FA: 4C 13 5F 08        adc         r11,qword ptr [rdi+8]
  00000000000085FE: 49 83 D4 01        adc         r12,1
  0000000000008602: 48 8B 95 A0 00 00  mov         rdx,qword ptr [rbp+0A0h]
                    00
  0000000000008609: 49 89 D7           mov         r15,rdx
  000000000000860C: C4 42 93 F6 F2     mulx        r14,r13,r10
  0000000000008611: C4 C2 FB F6 D3     mulx        rdx,rax,r11
  0000000000008616: 4D 0F AF FC        imul        r15,r12
  000000000000861A: 49 01 C6           add         r14,rax
  000000000000861D: 49 11 D7           adc         r15,rdx
  0000000000008620: 48 8B 95 A8 00 00  mov         rdx,qword ptr [rbp+0A8h]
                    00
  0000000000008627: C4 C2 AB F6 C2     mulx        rax,r10,r10
  000000000000862C: 4D 01 D6           add         r14,r10
  000000000000862F: C4 42 A3 F6 CB     mulx        r9,r11,r11
  0000000000008634: 4D 11 DF           adc         r15,r11
  0000000000008637: 49 83 D1 00        adc         r9,0
  000000000000863B: 49 0F AF D4        imul        rdx,r12
  000000000000863F: 49 01 C7           add         r15,rax
  0000000000008642: 49 11 D1           adc         r9,rdx
  0000000000008645: 4D 89 EA           mov         r10,r13
  0000000000008648: 4D 89 F3           mov         r11,r14
  000000000000864B: 4D 89 FC           mov         r12,r15
  000000000000864E: 49 83 E4 03        and         r12,3
  0000000000008652: 4D 89 FD           mov         r13,r15
  0000000000008655: 49 83 E5 FC        and         r13,0FFFFFFFFFFFFFFFCh
  0000000000008659: 4D 89 CE           mov         r14,r9
  000000000000865C: 4D 0F AC CF 02     shrd        r15,r9,2
  0000000000008661: 49 C1 E9 02        shr         r9,2
  0000000000008665: 4D 01 EF           add         r15,r13
  0000000000008668: 4D 11 F1           adc         r9,r14
  000000000000866B: 4D 01 FA           add         r10,r15
  000000000000866E: 4D 11 CB           adc         r11,r9
  0000000000008671: 49 83 D4 00        adc         r12,0
  0000000000008675: 4C 03 57 10        add         r10,qword ptr [rdi+10h]
  0000000000008679: 4C 13 5F 18        adc         r11,qword ptr [rdi+18h]
  000000000000867D: 49 83 D4 01        adc         r12,1
  0000000000008681: 48 8B 95 A0 00 00  mov         rdx,qword ptr [rbp+0A0h]
                    00
  0000000000008688: 49 89 D7           mov         r15,rdx
  000000000000868B: C4 42 93 F6 F2     mulx        r14,r13,r10
  0000000000008690: C4 C2 FB F6 D3     mulx        rdx,rax,r11
  0000000000008695: 4D 0F AF FC        imul        r15,r12
  0000000000008699: 49 01 C6           add         r14,rax
  000000000000869C: 49 11 D7           adc         r15,rdx
  000000000000869F: 48 8B 95 A8 00 00  mov         rdx,qword ptr [rbp+0A8h]
                    00
  00000000000086A6: C4 C2 AB F6 C2     mulx        rax,r10,r10
  00000000000086AB: 4D 01 D6           add         r14,r10
  00000000000086AE: C4 42 A3 F6 CB     mulx        r9,r11,r11
  00000000000086B3: 4D 11 DF           adc         r15,r11
  00000000000086B6: 49 83 D1 00        adc         r9,0
  00000000000086BA: 49 0F AF D4        imul        rdx,r12
  00000000000086BE: 49 01 C7           add         r15,rax
  00000000000086C1: 49 11 D1           adc         r9,rdx
  00000000000086C4: 4D 89 EA           mov         r10,r13
  00000000000086C7: 4D 89 F3           mov         r11,r14
  00000000000086CA: 4D 89 FC           mov         r12,r15
  00000000000086CD: 49 83 E4 03        and         r12,3
  00000000000086D1: 4D 89 FD           mov         r13,r15
  00000000000086D4: 49 83 E5 FC        and         r13,0FFFFFFFFFFFFFFFCh
  00000000000086D8: 4D 89 CE           mov         r14,r9
  00000000000086DB: 4D 0F AC CF 02     shrd        r15,r9,2
  00000000000086E0: 49 C1 E9 02        shr         r9,2
  00000000000086E4: 4D 01 EF           add         r15,r13
  00000000000086E7: 4D 11 F1           adc         r9,r14
  00000000000086EA: 4D 01 FA           add         r10,r15
  00000000000086ED: 4D 11 CB           adc         r11,r9
  00000000000086F0: 49 83 D4 00        adc         r12,0
  00000000000086F4: 48 8D 7F 20        lea         rdi,[rdi+20h]
  00000000000086F8: B9 0A 00 00 00     mov         ecx,0Ah
  00000000000086FD: 4D 31 C0           xor         r8,r8
  0000000000008700: 48 81 FB 80 01 00  cmp         rbx,180h
                    00
  0000000000008707: 0F 87 08 0D 00 00  ja          L$seal_avx2_tail_512
  000000000000870D: 48 81 FB 00 01 00  cmp         rbx,100h
                    00
  0000000000008714: 0F 87 3E 07 00 00  ja          L$seal_avx2_tail_384
  000000000000871A: 48 81 FB 80 00 00  cmp         rbx,80h
                    00
  0000000000008721: 0F 87 CE 02 00 00  ja          L$seal_avx2_tail_256
L$seal_avx2_tail_128:
  0000000000008727: C5 FD 6F 05 00 00  vmovdqa     ymm0,ymmword ptr [.rdata]
                    00 00
  000000000000872F: C5 FD 6F A5 E0 00  vmovdqa     ymm4,ymmword ptr [rbp+0E0h]
                    00 00
  0000000000008737: C5 7D 6F 85 00 01  vmovdqa     ymm8,ymmword ptr [rbp+100h]
                    00 00
  000000000000873F: C5 7D 6F 25 80 00  vmovdqa     ymm12,ymmword ptr [.rdata+80h]
                    00 00
  0000000000008747: C5 1D FE A5 40 01  vpaddd      ymm12,ymm12,ymmword ptr [rbp+140h]
                    00 00
  000000000000874F: C5 7D 7F A5 40 01  vmovdqa     ymmword ptr [rbp+140h],ymm12
                    00 00
L$seal_avx2_tail_128_rounds_and_3xhash:
  0000000000008757: 4C 03 17           add         r10,qword ptr [rdi]
  000000000000875A: 4C 13 5F 08        adc         r11,qword ptr [rdi+8]
  000000000000875E: 49 83 D4 01        adc         r12,1
  0000000000008762: 48 8B 95 A0 00 00  mov         rdx,qword ptr [rbp+0A0h]
                    00
  0000000000008769: 49 89 D7           mov         r15,rdx
  000000000000876C: C4 42 93 F6 F2     mulx        r14,r13,r10
  0000000000008771: C4 C2 FB F6 D3     mulx        rdx,rax,r11
  0000000000008776: 4D 0F AF FC        imul        r15,r12
  000000000000877A: 49 01 C6           add         r14,rax
  000000000000877D: 49 11 D7           adc         r15,rdx
  0000000000008780: 48 8B 95 A8 00 00  mov         rdx,qword ptr [rbp+0A8h]
                    00
  0000000000008787: C4 C2 AB F6 C2     mulx        rax,r10,r10
  000000000000878C: 4D 01 D6           add         r14,r10
  000000000000878F: C4 42 A3 F6 CB     mulx        r9,r11,r11
  0000000000008794: 4D 11 DF           adc         r15,r11
  0000000000008797: 49 83 D1 00        adc         r9,0
  000000000000879B: 49 0F AF D4        imul        rdx,r12
  000000000000879F: 49 01 C7           add         r15,rax
  00000000000087A2: 49 11 D1           adc         r9,rdx
  00000000000087A5: 4D 89 EA           mov         r10,r13
  00000000000087A8: 4D 89 F3           mov         r11,r14
  00000000000087AB: 4D 89 FC           mov         r12,r15
  00000000000087AE: 49 83 E4 03        and         r12,3
  00000000000087B2: 4D 89 FD           mov         r13,r15
  00000000000087B5: 49 83 E5 FC        and         r13,0FFFFFFFFFFFFFFFCh
  00000000000087B9: 4D 89 CE           mov         r14,r9
  00000000000087BC: 4D 0F AC CF 02     shrd        r15,r9,2
  00000000000087C1: 49 C1 E9 02        shr         r9,2
  00000000000087C5: 4D 01 EF           add         r15,r13
  00000000000087C8: 4D 11 F1           adc         r9,r14
  00000000000087CB: 4D 01 FA           add         r10,r15
  00000000000087CE: 4D 11 CB           adc         r11,r9
  00000000000087D1: 49 83 D4 00        adc         r12,0
  00000000000087D5: 48 8D 7F 10        lea         rdi,[rdi+10h]
L$seal_avx2_tail_128_rounds_and_2xhash:
  00000000000087D9: C5 FD FE C4        vpaddd      ymm0,ymm0,ymm4
  00000000000087DD: C5 1D EF E0        vpxor       ymm12,ymm12,ymm0
  00000000000087E1: C4 62 1D 00 25 40  vpshufb     ymm12,ymm12,ymmword ptr [.rdata+40h]
                    00 00 00
  00000000000087EA: C4 41 3D FE C4     vpaddd      ymm8,ymm8,ymm12
  00000000000087EF: C4 C1 5D EF E0     vpxor       ymm4,ymm4,ymm8
  00000000000087F4: C5 E5 72 D4 14     vpsrld      ymm3,ymm4,14h
  00000000000087F9: C5 DD 72 F4 0C     vpslld      ymm4,ymm4,0Ch
  00000000000087FE: C5 DD EF E3        vpxor       ymm4,ymm4,ymm3
  0000000000008802: C5 FD FE C4        vpaddd      ymm0,ymm0,ymm4
  0000000000008806: C5 1D EF E0        vpxor       ymm12,ymm12,ymm0
  000000000000880A: C4 62 1D 00 25 20  vpshufb     ymm12,ymm12,ymmword ptr [.rdata+20h]
                    00 00 00
  0000000000008813: C4 41 3D FE C4     vpaddd      ymm8,ymm8,ymm12
  0000000000008818: C4 C1 5D EF E0     vpxor       ymm4,ymm4,ymm8
  000000000000881D: C5 E5 72 F4 07     vpslld      ymm3,ymm4,7
  0000000000008822: C5 DD 72 D4 19     vpsrld      ymm4,ymm4,19h
  0000000000008827: C5 DD EF E3        vpxor       ymm4,ymm4,ymm3
  000000000000882B: C4 43 1D 0F E4 0C  vpalignr    ymm12,ymm12,ymm12,0Ch
  0000000000008831: C4 43 3D 0F C0 08  vpalignr    ymm8,ymm8,ymm8,8
  0000000000008837: C4 E3 5D 0F E4 04  vpalignr    ymm4,ymm4,ymm4,4
  000000000000883D: 4C 03 17           add         r10,qword ptr [rdi]
  0000000000008840: 4C 13 5F 08        adc         r11,qword ptr [rdi+8]
  0000000000008844: 49 83 D4 01        adc         r12,1
  0000000000008848: 48 8B 95 A0 00 00  mov         rdx,qword ptr [rbp+0A0h]
                    00
  000000000000884F: 49 89 D7           mov         r15,rdx
  0000000000008852: C4 42 93 F6 F2     mulx        r14,r13,r10
  0000000000008857: C4 C2 FB F6 D3     mulx        rdx,rax,r11
  000000000000885C: 4D 0F AF FC        imul        r15,r12
  0000000000008860: 49 01 C6           add         r14,rax
  0000000000008863: 49 11 D7           adc         r15,rdx
  0000000000008866: 48 8B 95 A8 00 00  mov         rdx,qword ptr [rbp+0A8h]
                    00
  000000000000886D: C4 C2 AB F6 C2     mulx        rax,r10,r10
  0000000000008872: 4D 01 D6           add         r14,r10
  0000000000008875: C4 42 A3 F6 CB     mulx        r9,r11,r11
  000000000000887A: 4D 11 DF           adc         r15,r11
  000000000000887D: 49 83 D1 00        adc         r9,0
  0000000000008881: 49 0F AF D4        imul        rdx,r12
  0000000000008885: 49 01 C7           add         r15,rax
  0000000000008888: 49 11 D1           adc         r9,rdx
  000000000000888B: 4D 89 EA           mov         r10,r13
  000000000000888E: 4D 89 F3           mov         r11,r14
  0000000000008891: 4D 89 FC           mov         r12,r15
  0000000000008894: 49 83 E4 03        and         r12,3
  0000000000008898: 4D 89 FD           mov         r13,r15
  000000000000889B: 49 83 E5 FC        and         r13,0FFFFFFFFFFFFFFFCh
  000000000000889F: 4D 89 CE           mov         r14,r9
  00000000000088A2: 4D 0F AC CF 02     shrd        r15,r9,2
  00000000000088A7: 49 C1 E9 02        shr         r9,2
  00000000000088AB: 4D 01 EF           add         r15,r13
  00000000000088AE: 4D 11 F1           adc         r9,r14
  00000000000088B1: 4D 01 FA           add         r10,r15
  00000000000088B4: 4D 11 CB           adc         r11,r9
  00000000000088B7: 49 83 D4 00        adc         r12,0
  00000000000088BB: C5 FD FE C4        vpaddd      ymm0,ymm0,ymm4
  00000000000088BF: C5 1D EF E0        vpxor       ymm12,ymm12,ymm0
  00000000000088C3: C4 62 1D 00 25 40  vpshufb     ymm12,ymm12,ymmword ptr [.rdata+40h]
                    00 00 00
  00000000000088CC: C4 41 3D FE C4     vpaddd      ymm8,ymm8,ymm12
  00000000000088D1: C4 C1 5D EF E0     vpxor       ymm4,ymm4,ymm8
  00000000000088D6: C5 E5 72 D4 14     vpsrld      ymm3,ymm4,14h
  00000000000088DB: C5 DD 72 F4 0C     vpslld      ymm4,ymm4,0Ch
  00000000000088E0: C5 DD EF E3        vpxor       ymm4,ymm4,ymm3
  00000000000088E4: C5 FD FE C4        vpaddd      ymm0,ymm0,ymm4
  00000000000088E8: C5 1D EF E0        vpxor       ymm12,ymm12,ymm0
  00000000000088EC: C4 62 1D 00 25 20  vpshufb     ymm12,ymm12,ymmword ptr [.rdata+20h]
                    00 00 00
  00000000000088F5: C4 41 3D FE C4     vpaddd      ymm8,ymm8,ymm12
  00000000000088FA: C4 C1 5D EF E0     vpxor       ymm4,ymm4,ymm8
  00000000000088FF: C5 E5 72 F4 07     vpslld      ymm3,ymm4,7
  0000000000008904: C5 DD 72 D4 19     vpsrld      ymm4,ymm4,19h
  0000000000008909: C5 DD EF E3        vpxor       ymm4,ymm4,ymm3
  000000000000890D: C4 43 1D 0F E4 04  vpalignr    ymm12,ymm12,ymm12,4
  0000000000008913: C4 43 3D 0F C0 08  vpalignr    ymm8,ymm8,ymm8,8
  0000000000008919: C4 E3 5D 0F E4 0C  vpalignr    ymm4,ymm4,ymm4,0Ch
  000000000000891F: 4C 03 57 10        add         r10,qword ptr [rdi+10h]
  0000000000008923: 4C 13 5F 18        adc         r11,qword ptr [rdi+18h]
  0000000000008927: 49 83 D4 01        adc         r12,1
  000000000000892B: 48 8B 95 A0 00 00  mov         rdx,qword ptr [rbp+0A0h]
                    00
  0000000000008932: 49 89 D7           mov         r15,rdx
  0000000000008935: C4 42 93 F6 F2     mulx        r14,r13,r10
  000000000000893A: C4 C2 FB F6 D3     mulx        rdx,rax,r11
  000000000000893F: 4D 0F AF FC        imul        r15,r12
  0000000000008943: 49 01 C6           add         r14,rax
  0000000000008946: 49 11 D7           adc         r15,rdx
  0000000000008949: 48 8B 95 A8 00 00  mov         rdx,qword ptr [rbp+0A8h]
                    00
  0000000000008950: C4 C2 AB F6 C2     mulx        rax,r10,r10
  0000000000008955: 4D 01 D6           add         r14,r10
  0000000000008958: C4 42 A3 F6 CB     mulx        r9,r11,r11
  000000000000895D: 4D 11 DF           adc         r15,r11
  0000000000008960: 49 83 D1 00        adc         r9,0
  0000000000008964: 49 0F AF D4        imul        rdx,r12
  0000000000008968: 49 01 C7           add         r15,rax
  000000000000896B: 49 11 D1           adc         r9,rdx
  000000000000896E: 4D 89 EA           mov         r10,r13
  0000000000008971: 4D 89 F3           mov         r11,r14
  0000000000008974: 4D 89 FC           mov         r12,r15
  0000000000008977: 49 83 E4 03        and         r12,3
  000000000000897B: 4D 89 FD           mov         r13,r15
  000000000000897E: 49 83 E5 FC        and         r13,0FFFFFFFFFFFFFFFCh
  0000000000008982: 4D 89 CE           mov         r14,r9
  0000000000008985: 4D 0F AC CF 02     shrd        r15,r9,2
  000000000000898A: 49 C1 E9 02        shr         r9,2
  000000000000898E: 4D 01 EF           add         r15,r13
  0000000000008991: 4D 11 F1           adc         r9,r14
  0000000000008994: 4D 01 FA           add         r10,r15
  0000000000008997: 4D 11 CB           adc         r11,r9
  000000000000899A: 49 83 D4 00        adc         r12,0
  000000000000899E: 48 8D 7F 20        lea         rdi,[rdi+20h]
  00000000000089A2: 48 FF C9           dec         rcx
  00000000000089A5: 0F 8F AC FD FF FF  jg          L$seal_avx2_tail_128_rounds_and_3xhash
  00000000000089AB: 49 FF C8           dec         r8
  00000000000089AE: 0F 8D 25 FE FF FF  jge         L$seal_avx2_tail_128_rounds_and_2xhash
  00000000000089B4: C5 FD FE 05 00 00  vpaddd      ymm0,ymm0,ymmword ptr [.rdata]
                    00 00
  00000000000089BC: C5 DD FE A5 E0 00  vpaddd      ymm4,ymm4,ymmword ptr [rbp+0E0h]
                    00 00
  00000000000089C4: C5 3D FE 85 00 01  vpaddd      ymm8,ymm8,ymmword ptr [rbp+100h]
                    00 00
  00000000000089CC: C5 1D FE A5 40 01  vpaddd      ymm12,ymm12,ymmword ptr [rbp+140h]
                    00 00
  00000000000089D4: C4 E3 5D 46 D8 13  vperm2i128  ymm3,ymm4,ymm0,13h
  00000000000089DA: C4 E3 5D 46 C0 02  vperm2i128  ymm0,ymm4,ymm0,2
  00000000000089E0: C4 C3 1D 46 E0 02  vperm2i128  ymm4,ymm12,ymm8,2
  00000000000089E6: C4 43 1D 46 E0 13  vperm2i128  ymm12,ymm12,ymm8,13h
  00000000000089EC: C5 7D 6F C3        vmovdqa     ymm8,ymm3
  00000000000089F0: E9 74 17 00 00     jmp         L$seal_avx2_short_loop
L$seal_avx2_tail_256:
  00000000000089F5: C5 FD 6F 05 00 00  vmovdqa     ymm0,ymmword ptr [.rdata]
                    00 00
  00000000000089FD: C5 FD 6F A5 E0 00  vmovdqa     ymm4,ymmword ptr [rbp+0E0h]
                    00 00
  0000000000008A05: C5 7D 6F 85 00 01  vmovdqa     ymm8,ymmword ptr [rbp+100h]
                    00 00
  0000000000008A0D: C5 FD 6F C8        vmovdqa     ymm1,ymm0
  0000000000008A11: C5 FD 6F EC        vmovdqa     ymm5,ymm4
  0000000000008A15: C4 41 7D 6F C8     vmovdqa     ymm9,ymm8
  0000000000008A1A: C5 7D 6F 25 80 00  vmovdqa     ymm12,ymmword ptr [.rdata+80h]
                    00 00
  0000000000008A22: C5 1D FE AD 40 01  vpaddd      ymm13,ymm12,ymmword ptr [rbp+140h]
                    00 00
  0000000000008A2A: C4 41 1D FE E5     vpaddd      ymm12,ymm12,ymm13
  0000000000008A2F: C5 7D 7F A5 40 01  vmovdqa     ymmword ptr [rbp+140h],ymm12
                    00 00
  0000000000008A37: C5 7D 7F AD 60 01  vmovdqa     ymmword ptr [rbp+160h],ymm13
                    00 00
L$seal_avx2_tail_256_rounds_and_3xhash:
  0000000000008A3F: 4C 03 17           add         r10,qword ptr [rdi]
  0000000000008A42: 4C 13 5F 08        adc         r11,qword ptr [rdi+8]
  0000000000008A46: 49 83 D4 01        adc         r12,1
  0000000000008A4A: 48 8B 85 A0 00 00  mov         rax,qword ptr [rbp+0A0h]
                    00
  0000000000008A51: 49 89 C7           mov         r15,rax
  0000000000008A54: 49 F7 E2           mul         rax,r10
  0000000000008A57: 49 89 C5           mov         r13,rax
  0000000000008A5A: 49 89 D6           mov         r14,rdx
  0000000000008A5D: 48 8B 85 A0 00 00  mov         rax,qword ptr [rbp+0A0h]
                    00
  0000000000008A64: 49 F7 E3           mul         rax,r11
  0000000000008A67: 4D 0F AF FC        imul        r15,r12
  0000000000008A6B: 49 01 C6           add         r14,rax
  0000000000008A6E: 49 11 D7           adc         r15,rdx
  0000000000008A71: 48 8B 85 A8 00 00  mov         rax,qword ptr [rbp+0A8h]
                    00
  0000000000008A78: 49 89 C1           mov         r9,rax
  0000000000008A7B: 49 F7 E2           mul         rax,r10
  0000000000008A7E: 49 01 C6           add         r14,rax
  0000000000008A81: 48 83 D2 00        adc         rdx,0
  0000000000008A85: 49 89 D2           mov         r10,rdx
  0000000000008A88: 48 8B 85 A8 00 00  mov         rax,qword ptr [rbp+0A8h]
                    00
  0000000000008A8F: 49 F7 E3           mul         rax,r11
  0000000000008A92: 49 01 C7           add         r15,rax
  0000000000008A95: 48 83 D2 00        adc         rdx,0
  0000000000008A99: 4D 0F AF CC        imul        r9,r12
  0000000000008A9D: 4D 01 D7           add         r15,r10
  0000000000008AA0: 49 11 D1           adc         r9,rdx
  0000000000008AA3: 4D 89 EA           mov         r10,r13
  0000000000008AA6: 4D 89 F3           mov         r11,r14
  0000000000008AA9: 4D 89 FC           mov         r12,r15
  0000000000008AAC: 49 83 E4 03        and         r12,3
  0000000000008AB0: 4D 89 FD           mov         r13,r15
  0000000000008AB3: 49 83 E5 FC        and         r13,0FFFFFFFFFFFFFFFCh
  0000000000008AB7: 4D 89 CE           mov         r14,r9
  0000000000008ABA: 4D 0F AC CF 02     shrd        r15,r9,2
  0000000000008ABF: 49 C1 E9 02        shr         r9,2
  0000000000008AC3: 4D 01 EF           add         r15,r13
  0000000000008AC6: 4D 11 F1           adc         r9,r14
  0000000000008AC9: 4D 01 FA           add         r10,r15
  0000000000008ACC: 4D 11 CB           adc         r11,r9
  0000000000008ACF: 49 83 D4 00        adc         r12,0
  0000000000008AD3: 48 8D 7F 10        lea         rdi,[rdi+10h]
L$seal_avx2_tail_256_rounds_and_2xhash:
  0000000000008AD7: C5 FD FE C4        vpaddd      ymm0,ymm0,ymm4
  0000000000008ADB: C5 1D EF E0        vpxor       ymm12,ymm12,ymm0
  0000000000008ADF: C4 62 1D 00 25 40  vpshufb     ymm12,ymm12,ymmword ptr [.rdata+40h]
                    00 00 00
  0000000000008AE8: C4 41 3D FE C4     vpaddd      ymm8,ymm8,ymm12
  0000000000008AED: C4 C1 5D EF E0     vpxor       ymm4,ymm4,ymm8
  0000000000008AF2: C5 E5 72 D4 14     vpsrld      ymm3,ymm4,14h
  0000000000008AF7: C5 DD 72 F4 0C     vpslld      ymm4,ymm4,0Ch
  0000000000008AFC: C5 DD EF E3        vpxor       ymm4,ymm4,ymm3
  0000000000008B00: C5 FD FE C4        vpaddd      ymm0,ymm0,ymm4
  0000000000008B04: C5 1D EF E0        vpxor       ymm12,ymm12,ymm0
  0000000000008B08: C4 62 1D 00 25 20  vpshufb     ymm12,ymm12,ymmword ptr [.rdata+20h]
                    00 00 00
  0000000000008B11: C4 41 3D FE C4     vpaddd      ymm8,ymm8,ymm12
  0000000000008B16: C4 C1 5D EF E0     vpxor       ymm4,ymm4,ymm8
  0000000000008B1B: C5 E5 72 F4 07     vpslld      ymm3,ymm4,7
  0000000000008B20: C5 DD 72 D4 19     vpsrld      ymm4,ymm4,19h
  0000000000008B25: C5 DD EF E3        vpxor       ymm4,ymm4,ymm3
  0000000000008B29: C4 43 1D 0F E4 0C  vpalignr    ymm12,ymm12,ymm12,0Ch
  0000000000008B2F: C4 43 3D 0F C0 08  vpalignr    ymm8,ymm8,ymm8,8
  0000000000008B35: C4 E3 5D 0F E4 04  vpalignr    ymm4,ymm4,ymm4,4
  0000000000008B3B: C5 F5 FE CD        vpaddd      ymm1,ymm1,ymm5
  0000000000008B3F: C5 15 EF E9        vpxor       ymm13,ymm13,ymm1
  0000000000008B43: C4 62 15 00 2D 40  vpshufb     ymm13,ymm13,ymmword ptr [.rdata+40h]
                    00 00 00
  0000000000008B4C: C4 41 35 FE CD     vpaddd      ymm9,ymm9,ymm13
  0000000000008B51: C4 C1 55 EF E9     vpxor       ymm5,ymm5,ymm9
  0000000000008B56: C5 E5 72 D5 14     vpsrld      ymm3,ymm5,14h
  0000000000008B5B: C5 D5 72 F5 0C     vpslld      ymm5,ymm5,0Ch
  0000000000008B60: C5 D5 EF EB        vpxor       ymm5,ymm5,ymm3
  0000000000008B64: C5 F5 FE CD        vpaddd      ymm1,ymm1,ymm5
  0000000000008B68: C5 15 EF E9        vpxor       ymm13,ymm13,ymm1
  0000000000008B6C: C4 62 15 00 2D 20  vpshufb     ymm13,ymm13,ymmword ptr [.rdata+20h]
                    00 00 00
  0000000000008B75: C4 41 35 FE CD     vpaddd      ymm9,ymm9,ymm13
  0000000000008B7A: C4 C1 55 EF E9     vpxor       ymm5,ymm5,ymm9
  0000000000008B7F: C5 E5 72 F5 07     vpslld      ymm3,ymm5,7
  0000000000008B84: C5 D5 72 D5 19     vpsrld      ymm5,ymm5,19h
  0000000000008B89: C5 D5 EF EB        vpxor       ymm5,ymm5,ymm3
  0000000000008B8D: C4 43 15 0F ED 0C  vpalignr    ymm13,ymm13,ymm13,0Ch
  0000000000008B93: C4 43 35 0F C9 08  vpalignr    ymm9,ymm9,ymm9,8
  0000000000008B99: C4 E3 55 0F ED 04  vpalignr    ymm5,ymm5,ymm5,4
  0000000000008B9F: 4C 03 17           add         r10,qword ptr [rdi]
  0000000000008BA2: 4C 13 5F 08        adc         r11,qword ptr [rdi+8]
  0000000000008BA6: 49 83 D4 01        adc         r12,1
  0000000000008BAA: 48 8B 85 A0 00 00  mov         rax,qword ptr [rbp+0A0h]
                    00
  0000000000008BB1: 49 89 C7           mov         r15,rax
  0000000000008BB4: 49 F7 E2           mul         rax,r10
  0000000000008BB7: 49 89 C5           mov         r13,rax
  0000000000008BBA: 49 89 D6           mov         r14,rdx
  0000000000008BBD: 48 8B 85 A0 00 00  mov         rax,qword ptr [rbp+0A0h]
                    00
  0000000000008BC4: 49 F7 E3           mul         rax,r11
  0000000000008BC7: 4D 0F AF FC        imul        r15,r12
  0000000000008BCB: 49 01 C6           add         r14,rax
  0000000000008BCE: 49 11 D7           adc         r15,rdx
  0000000000008BD1: 48 8B 85 A8 00 00  mov         rax,qword ptr [rbp+0A8h]
                    00
  0000000000008BD8: 49 89 C1           mov         r9,rax
  0000000000008BDB: 49 F7 E2           mul         rax,r10
  0000000000008BDE: 49 01 C6           add         r14,rax
  0000000000008BE1: 48 83 D2 00        adc         rdx,0
  0000000000008BE5: 49 89 D2           mov         r10,rdx
  0000000000008BE8: 48 8B 85 A8 00 00  mov         rax,qword ptr [rbp+0A8h]
                    00
  0000000000008BEF: 49 F7 E3           mul         rax,r11
  0000000000008BF2: 49 01 C7           add         r15,rax
  0000000000008BF5: 48 83 D2 00        adc         rdx,0
  0000000000008BF9: 4D 0F AF CC        imul        r9,r12
  0000000000008BFD: 4D 01 D7           add         r15,r10
  0000000000008C00: 49 11 D1           adc         r9,rdx
  0000000000008C03: 4D 89 EA           mov         r10,r13
  0000000000008C06: 4D 89 F3           mov         r11,r14
  0000000000008C09: 4D 89 FC           mov         r12,r15
  0000000000008C0C: 49 83 E4 03        and         r12,3
  0000000000008C10: 4D 89 FD           mov         r13,r15
  0000000000008C13: 49 83 E5 FC        and         r13,0FFFFFFFFFFFFFFFCh
  0000000000008C17: 4D 89 CE           mov         r14,r9
  0000000000008C1A: 4D 0F AC CF 02     shrd        r15,r9,2
  0000000000008C1F: 49 C1 E9 02        shr         r9,2
  0000000000008C23: 4D 01 EF           add         r15,r13
  0000000000008C26: 4D 11 F1           adc         r9,r14
  0000000000008C29: 4D 01 FA           add         r10,r15
  0000000000008C2C: 4D 11 CB           adc         r11,r9
  0000000000008C2F: 49 83 D4 00        adc         r12,0
  0000000000008C33: C5 FD FE C4        vpaddd      ymm0,ymm0,ymm4
  0000000000008C37: C5 1D EF E0        vpxor       ymm12,ymm12,ymm0
  0000000000008C3B: C4 62 1D 00 25 40  vpshufb     ymm12,ymm12,ymmword ptr [.rdata+40h]
                    00 00 00
  0000000000008C44: C4 41 3D FE C4     vpaddd      ymm8,ymm8,ymm12
  0000000000008C49: C4 C1 5D EF E0     vpxor       ymm4,ymm4,ymm8
  0000000000008C4E: C5 E5 72 D4 14     vpsrld      ymm3,ymm4,14h
  0000000000008C53: C5 DD 72 F4 0C     vpslld      ymm4,ymm4,0Ch
  0000000000008C58: C5 DD EF E3        vpxor       ymm4,ymm4,ymm3
  0000000000008C5C: C5 FD FE C4        vpaddd      ymm0,ymm0,ymm4
  0000000000008C60: C5 1D EF E0        vpxor       ymm12,ymm12,ymm0
  0000000000008C64: C4 62 1D 00 25 20  vpshufb     ymm12,ymm12,ymmword ptr [.rdata+20h]
                    00 00 00
  0000000000008C6D: C4 41 3D FE C4     vpaddd      ymm8,ymm8,ymm12
  0000000000008C72: C4 C1 5D EF E0     vpxor       ymm4,ymm4,ymm8
  0000000000008C77: C5 E5 72 F4 07     vpslld      ymm3,ymm4,7
  0000000000008C7C: C5 DD 72 D4 19     vpsrld      ymm4,ymm4,19h
  0000000000008C81: C5 DD EF E3        vpxor       ymm4,ymm4,ymm3
  0000000000008C85: C4 43 1D 0F E4 04  vpalignr    ymm12,ymm12,ymm12,4
  0000000000008C8B: C4 43 3D 0F C0 08  vpalignr    ymm8,ymm8,ymm8,8
  0000000000008C91: C4 E3 5D 0F E4 0C  vpalignr    ymm4,ymm4,ymm4,0Ch
  0000000000008C97: C5 F5 FE CD        vpaddd      ymm1,ymm1,ymm5
  0000000000008C9B: C5 15 EF E9        vpxor       ymm13,ymm13,ymm1
  0000000000008C9F: C4 62 15 00 2D 40  vpshufb     ymm13,ymm13,ymmword ptr [.rdata+40h]
                    00 00 00
  0000000000008CA8: C4 41 35 FE CD     vpaddd      ymm9,ymm9,ymm13
  0000000000008CAD: C4 C1 55 EF E9     vpxor       ymm5,ymm5,ymm9
  0000000000008CB2: C5 E5 72 D5 14     vpsrld      ymm3,ymm5,14h
  0000000000008CB7: C5 D5 72 F5 0C     vpslld      ymm5,ymm5,0Ch
  0000000000008CBC: C5 D5 EF EB        vpxor       ymm5,ymm5,ymm3
  0000000000008CC0: C5 F5 FE CD        vpaddd      ymm1,ymm1,ymm5
  0000000000008CC4: C5 15 EF E9        vpxor       ymm13,ymm13,ymm1
  0000000000008CC8: C4 62 15 00 2D 20  vpshufb     ymm13,ymm13,ymmword ptr [.rdata+20h]
                    00 00 00
  0000000000008CD1: C4 41 35 FE CD     vpaddd      ymm9,ymm9,ymm13
  0000000000008CD6: C4 C1 55 EF E9     vpxor       ymm5,ymm5,ymm9
  0000000000008CDB: C5 E5 72 F5 07     vpslld      ymm3,ymm5,7
  0000000000008CE0: C5 D5 72 D5 19     vpsrld      ymm5,ymm5,19h
  0000000000008CE5: C5 D5 EF EB        vpxor       ymm5,ymm5,ymm3
  0000000000008CE9: C4 43 15 0F ED 04  vpalignr    ymm13,ymm13,ymm13,4
  0000000000008CEF: C4 43 35 0F C9 08  vpalignr    ymm9,ymm9,ymm9,8
  0000000000008CF5: C4 E3 55 0F ED 0C  vpalignr    ymm5,ymm5,ymm5,0Ch
  0000000000008CFB: 4C 03 57 10        add         r10,qword ptr [rdi+10h]
  0000000000008CFF: 4C 13 5F 18        adc         r11,qword ptr [rdi+18h]
  0000000000008D03: 49 83 D4 01        adc         r12,1
  0000000000008D07: 48 8B 85 A0 00 00  mov         rax,qword ptr [rbp+0A0h]
                    00
  0000000000008D0E: 49 89 C7           mov         r15,rax
  0000000000008D11: 49 F7 E2           mul         rax,r10
  0000000000008D14: 49 89 C5           mov         r13,rax
  0000000000008D17: 49 89 D6           mov         r14,rdx
  0000000000008D1A: 48 8B 85 A0 00 00  mov         rax,qword ptr [rbp+0A0h]
                    00
  0000000000008D21: 49 F7 E3           mul         rax,r11
  0000000000008D24: 4D 0F AF FC        imul        r15,r12
  0000000000008D28: 49 01 C6           add         r14,rax
  0000000000008D2B: 49 11 D7           adc         r15,rdx
  0000000000008D2E: 48 8B 85 A8 00 00  mov         rax,qword ptr [rbp+0A8h]
                    00
  0000000000008D35: 49 89 C1           mov         r9,rax
  0000000000008D38: 49 F7 E2           mul         rax,r10
  0000000000008D3B: 49 01 C6           add         r14,rax
  0000000000008D3E: 48 83 D2 00        adc         rdx,0
  0000000000008D42: 49 89 D2           mov         r10,rdx
  0000000000008D45: 48 8B 85 A8 00 00  mov         rax,qword ptr [rbp+0A8h]
                    00
  0000000000008D4C: 49 F7 E3           mul         rax,r11
  0000000000008D4F: 49 01 C7           add         r15,rax
  0000000000008D52: 48 83 D2 00        adc         rdx,0
  0000000000008D56: 4D 0F AF CC        imul        r9,r12
  0000000000008D5A: 4D 01 D7           add         r15,r10
  0000000000008D5D: 49 11 D1           adc         r9,rdx
  0000000000008D60: 4D 89 EA           mov         r10,r13
  0000000000008D63: 4D 89 F3           mov         r11,r14
  0000000000008D66: 4D 89 FC           mov         r12,r15
  0000000000008D69: 49 83 E4 03        and         r12,3
  0000000000008D6D: 4D 89 FD           mov         r13,r15
  0000000000008D70: 49 83 E5 FC        and         r13,0FFFFFFFFFFFFFFFCh
  0000000000008D74: 4D 89 CE           mov         r14,r9
  0000000000008D77: 4D 0F AC CF 02     shrd        r15,r9,2
  0000000000008D7C: 49 C1 E9 02        shr         r9,2
  0000000000008D80: 4D 01 EF           add         r15,r13
  0000000000008D83: 4D 11 F1           adc         r9,r14
  0000000000008D86: 4D 01 FA           add         r10,r15
  0000000000008D89: 4D 11 CB           adc         r11,r9
  0000000000008D8C: 49 83 D4 00        adc         r12,0
  0000000000008D90: 48 8D 7F 20        lea         rdi,[rdi+20h]
  0000000000008D94: 48 FF C9           dec         rcx
  0000000000008D97: 0F 8F A2 FC FF FF  jg          L$seal_avx2_tail_256_rounds_and_3xhash
  0000000000008D9D: 49 FF C8           dec         r8
  0000000000008DA0: 0F 8D 31 FD FF FF  jge         L$seal_avx2_tail_256_rounds_and_2xhash
  0000000000008DA6: C5 F5 FE 0D 00 00  vpaddd      ymm1,ymm1,ymmword ptr [.rdata]
                    00 00
  0000000000008DAE: C5 D5 FE AD E0 00  vpaddd      ymm5,ymm5,ymmword ptr [rbp+0E0h]
                    00 00
  0000000000008DB6: C5 35 FE 8D 00 01  vpaddd      ymm9,ymm9,ymmword ptr [rbp+100h]
                    00 00
  0000000000008DBE: C5 15 FE AD 60 01  vpaddd      ymm13,ymm13,ymmword ptr [rbp+160h]
                    00 00
  0000000000008DC6: C5 FD FE 05 00 00  vpaddd      ymm0,ymm0,ymmword ptr [.rdata]
                    00 00
  0000000000008DCE: C5 DD FE A5 E0 00  vpaddd      ymm4,ymm4,ymmword ptr [rbp+0E0h]
                    00 00
  0000000000008DD6: C5 3D FE 85 00 01  vpaddd      ymm8,ymm8,ymmword ptr [rbp+100h]
                    00 00
  0000000000008DDE: C5 1D FE A5 40 01  vpaddd      ymm12,ymm12,ymmword ptr [rbp+140h]
                    00 00
  0000000000008DE6: C4 E3 55 46 D9 02  vperm2i128  ymm3,ymm5,ymm1,2
  0000000000008DEC: C4 E3 55 46 E9 13  vperm2i128  ymm5,ymm5,ymm1,13h
  0000000000008DF2: C4 C3 15 46 C9 02  vperm2i128  ymm1,ymm13,ymm9,2
  0000000000008DF8: C4 43 15 46 C9 13  vperm2i128  ymm9,ymm13,ymm9,13h
  0000000000008DFE: C5 E5 EF 1E        vpxor       ymm3,ymm3,ymmword ptr [rsi]
  0000000000008E02: C5 F5 EF 4E 20     vpxor       ymm1,ymm1,ymmword ptr [rsi+20h]
  0000000000008E07: C5 D5 EF 6E 40     vpxor       ymm5,ymm5,ymmword ptr [rsi+40h]
  0000000000008E0C: C5 35 EF 4E 60     vpxor       ymm9,ymm9,ymmword ptr [rsi+60h]
  0000000000008E11: C5 FE 7F 1F        vmovdqu     ymmword ptr [rdi],ymm3
  0000000000008E15: C5 FE 7F 4F 20     vmovdqu     ymmword ptr [rdi+20h],ymm1
  0000000000008E1A: C5 FE 7F 6F 40     vmovdqu     ymmword ptr [rdi+40h],ymm5
  0000000000008E1F: C5 7E 7F 4F 60     vmovdqu     ymmword ptr [rdi+60h],ymm9
  0000000000008E24: C4 E3 5D 46 D8 13  vperm2i128  ymm3,ymm4,ymm0,13h
  0000000000008E2A: C4 E3 5D 46 C0 02  vperm2i128  ymm0,ymm4,ymm0,2
  0000000000008E30: C4 C3 1D 46 E0 02  vperm2i128  ymm4,ymm12,ymm8,2
  0000000000008E36: C4 43 1D 46 E0 13  vperm2i128  ymm12,ymm12,ymm8,13h
  0000000000008E3C: C5 7D 6F C3        vmovdqa     ymm8,ymm3
  0000000000008E40: B9 80 00 00 00     mov         ecx,80h
  0000000000008E45: 48 8D B6 80 00 00  lea         rsi,[rsi+80h]
                    00
  0000000000008E4C: 48 81 EB 80 00 00  sub         rbx,80h
                    00
  0000000000008E53: E9 66 12 00 00     jmp         L$seal_avx2_short_hash_remainder
L$seal_avx2_tail_384:
  0000000000008E58: C5 FD 6F 05 00 00  vmovdqa     ymm0,ymmword ptr [.rdata]
                    00 00
  0000000000008E60: C5 FD 6F A5 E0 00  vmovdqa     ymm4,ymmword ptr [rbp+0E0h]
                    00 00
  0000000000008E68: C5 7D 6F 85 00 01  vmovdqa     ymm8,ymmword ptr [rbp+100h]
                    00 00
  0000000000008E70: C5 FD 6F C8        vmovdqa     ymm1,ymm0
  0000000000008E74: C5 FD 6F EC        vmovdqa     ymm5,ymm4
  0000000000008E78: C4 41 7D 6F C8     vmovdqa     ymm9,ymm8
  0000000000008E7D: C5 FD 6F D0        vmovdqa     ymm2,ymm0
  0000000000008E81: C5 FD 6F F4        vmovdqa     ymm6,ymm4
  0000000000008E85: C4 41 7D 6F D0     vmovdqa     ymm10,ymm8
  0000000000008E8A: C5 7D 6F 25 80 00  vmovdqa     ymm12,ymmword ptr [.rdata+80h]
                    00 00
  0000000000008E92: C5 1D FE B5 40 01  vpaddd      ymm14,ymm12,ymmword ptr [rbp+140h]
                    00 00
  0000000000008E9A: C4 41 1D FE EE     vpaddd      ymm13,ymm12,ymm14
  0000000000008E9F: C4 41 1D FE E5     vpaddd      ymm12,ymm12,ymm13
  0000000000008EA4: C5 7D 7F A5 40 01  vmovdqa     ymmword ptr [rbp+140h],ymm12
                    00 00
  0000000000008EAC: C5 7D 7F AD 60 01  vmovdqa     ymmword ptr [rbp+160h],ymm13
                    00 00
  0000000000008EB4: C5 7D 7F B5 80 01  vmovdqa     ymmword ptr [rbp+180h],ymm14
                    00 00
L$seal_avx2_tail_384_rounds_and_3xhash:
  0000000000008EBC: 4C 03 17           add         r10,qword ptr [rdi]
  0000000000008EBF: 4C 13 5F 08        adc         r11,qword ptr [rdi+8]
  0000000000008EC3: 49 83 D4 01        adc         r12,1
  0000000000008EC7: 48 8B 85 A0 00 00  mov         rax,qword ptr [rbp+0A0h]
                    00
  0000000000008ECE: 49 89 C7           mov         r15,rax
  0000000000008ED1: 49 F7 E2           mul         rax,r10
  0000000000008ED4: 49 89 C5           mov         r13,rax
  0000000000008ED7: 49 89 D6           mov         r14,rdx
  0000000000008EDA: 48 8B 85 A0 00 00  mov         rax,qword ptr [rbp+0A0h]
                    00
  0000000000008EE1: 49 F7 E3           mul         rax,r11
  0000000000008EE4: 4D 0F AF FC        imul        r15,r12
  0000000000008EE8: 49 01 C6           add         r14,rax
  0000000000008EEB: 49 11 D7           adc         r15,rdx
  0000000000008EEE: 48 8B 85 A8 00 00  mov         rax,qword ptr [rbp+0A8h]
                    00
  0000000000008EF5: 49 89 C1           mov         r9,rax
  0000000000008EF8: 49 F7 E2           mul         rax,r10
  0000000000008EFB: 49 01 C6           add         r14,rax
  0000000000008EFE: 48 83 D2 00        adc         rdx,0
  0000000000008F02: 49 89 D2           mov         r10,rdx
  0000000000008F05: 48 8B 85 A8 00 00  mov         rax,qword ptr [rbp+0A8h]
                    00
  0000000000008F0C: 49 F7 E3           mul         rax,r11
  0000000000008F0F: 49 01 C7           add         r15,rax
  0000000000008F12: 48 83 D2 00        adc         rdx,0
  0000000000008F16: 4D 0F AF CC        imul        r9,r12
  0000000000008F1A: 4D 01 D7           add         r15,r10
  0000000000008F1D: 49 11 D1           adc         r9,rdx
  0000000000008F20: 4D 89 EA           mov         r10,r13
  0000000000008F23: 4D 89 F3           mov         r11,r14
  0000000000008F26: 4D 89 FC           mov         r12,r15
  0000000000008F29: 49 83 E4 03        and         r12,3
  0000000000008F2D: 4D 89 FD           mov         r13,r15
  0000000000008F30: 49 83 E5 FC        and         r13,0FFFFFFFFFFFFFFFCh
  0000000000008F34: 4D 89 CE           mov         r14,r9
  0000000000008F37: 4D 0F AC CF 02     shrd        r15,r9,2
  0000000000008F3C: 49 C1 E9 02        shr         r9,2
  0000000000008F40: 4D 01 EF           add         r15,r13
  0000000000008F43: 4D 11 F1           adc         r9,r14
  0000000000008F46: 4D 01 FA           add         r10,r15
  0000000000008F49: 4D 11 CB           adc         r11,r9
  0000000000008F4C: 49 83 D4 00        adc         r12,0
  0000000000008F50: 48 8D 7F 10        lea         rdi,[rdi+10h]
L$seal_avx2_tail_384_rounds_and_2xhash:
  0000000000008F54: C5 FD FE C4        vpaddd      ymm0,ymm0,ymm4
  0000000000008F58: C5 1D EF E0        vpxor       ymm12,ymm12,ymm0
  0000000000008F5C: C4 62 1D 00 25 40  vpshufb     ymm12,ymm12,ymmword ptr [.rdata+40h]
                    00 00 00
  0000000000008F65: C4 41 3D FE C4     vpaddd      ymm8,ymm8,ymm12
  0000000000008F6A: C4 C1 5D EF E0     vpxor       ymm4,ymm4,ymm8
  0000000000008F6F: C5 E5 72 D4 14     vpsrld      ymm3,ymm4,14h
  0000000000008F74: C5 DD 72 F4 0C     vpslld      ymm4,ymm4,0Ch
  0000000000008F79: C5 DD EF E3        vpxor       ymm4,ymm4,ymm3
  0000000000008F7D: C5 FD FE C4        vpaddd      ymm0,ymm0,ymm4
  0000000000008F81: C5 1D EF E0        vpxor       ymm12,ymm12,ymm0
  0000000000008F85: C4 62 1D 00 25 20  vpshufb     ymm12,ymm12,ymmword ptr [.rdata+20h]
                    00 00 00
  0000000000008F8E: C4 41 3D FE C4     vpaddd      ymm8,ymm8,ymm12
  0000000000008F93: C4 C1 5D EF E0     vpxor       ymm4,ymm4,ymm8
  0000000000008F98: C5 E5 72 F4 07     vpslld      ymm3,ymm4,7
  0000000000008F9D: C5 DD 72 D4 19     vpsrld      ymm4,ymm4,19h
  0000000000008FA2: C5 DD EF E3        vpxor       ymm4,ymm4,ymm3
  0000000000008FA6: C4 43 1D 0F E4 0C  vpalignr    ymm12,ymm12,ymm12,0Ch
  0000000000008FAC: C4 43 3D 0F C0 08  vpalignr    ymm8,ymm8,ymm8,8
  0000000000008FB2: C4 E3 5D 0F E4 04  vpalignr    ymm4,ymm4,ymm4,4
  0000000000008FB8: C5 F5 FE CD        vpaddd      ymm1,ymm1,ymm5
  0000000000008FBC: C5 15 EF E9        vpxor       ymm13,ymm13,ymm1
  0000000000008FC0: C4 62 15 00 2D 40  vpshufb     ymm13,ymm13,ymmword ptr [.rdata+40h]
                    00 00 00
  0000000000008FC9: C4 41 35 FE CD     vpaddd      ymm9,ymm9,ymm13
  0000000000008FCE: C4 C1 55 EF E9     vpxor       ymm5,ymm5,ymm9
  0000000000008FD3: C5 E5 72 D5 14     vpsrld      ymm3,ymm5,14h
  0000000000008FD8: C5 D5 72 F5 0C     vpslld      ymm5,ymm5,0Ch
  0000000000008FDD: C5 D5 EF EB        vpxor       ymm5,ymm5,ymm3
  0000000000008FE1: C5 F5 FE CD        vpaddd      ymm1,ymm1,ymm5
  0000000000008FE5: C5 15 EF E9        vpxor       ymm13,ymm13,ymm1
  0000000000008FE9: C4 62 15 00 2D 20  vpshufb     ymm13,ymm13,ymmword ptr [.rdata+20h]
                    00 00 00
  0000000000008FF2: C4 41 35 FE CD     vpaddd      ymm9,ymm9,ymm13
  0000000000008FF7: C4 C1 55 EF E9     vpxor       ymm5,ymm5,ymm9
  0000000000008FFC: C5 E5 72 F5 07     vpslld      ymm3,ymm5,7
  0000000000009001: C5 D5 72 D5 19     vpsrld      ymm5,ymm5,19h
  0000000000009006: C5 D5 EF EB        vpxor       ymm5,ymm5,ymm3
  000000000000900A: C4 43 15 0F ED 0C  vpalignr    ymm13,ymm13,ymm13,0Ch
  0000000000009010: C4 43 35 0F C9 08  vpalignr    ymm9,ymm9,ymm9,8
  0000000000009016: C4 E3 55 0F ED 04  vpalignr    ymm5,ymm5,ymm5,4
  000000000000901C: 4C 03 17           add         r10,qword ptr [rdi]
  000000000000901F: 4C 13 5F 08        adc         r11,qword ptr [rdi+8]
  0000000000009023: 49 83 D4 01        adc         r12,1
  0000000000009027: 48 8B 85 A0 00 00  mov         rax,qword ptr [rbp+0A0h]
                    00
  000000000000902E: 49 89 C7           mov         r15,rax
  0000000000009031: 49 F7 E2           mul         rax,r10
  0000000000009034: 49 89 C5           mov         r13,rax
  0000000000009037: 49 89 D6           mov         r14,rdx
  000000000000903A: 48 8B 85 A0 00 00  mov         rax,qword ptr [rbp+0A0h]
                    00
  0000000000009041: 49 F7 E3           mul         rax,r11
  0000000000009044: 4D 0F AF FC        imul        r15,r12
  0000000000009048: 49 01 C6           add         r14,rax
  000000000000904B: 49 11 D7           adc         r15,rdx
  000000000000904E: 48 8B 85 A8 00 00  mov         rax,qword ptr [rbp+0A8h]
                    00
  0000000000009055: 49 89 C1           mov         r9,rax
  0000000000009058: 49 F7 E2           mul         rax,r10
  000000000000905B: 49 01 C6           add         r14,rax
  000000000000905E: 48 83 D2 00        adc         rdx,0
  0000000000009062: 49 89 D2           mov         r10,rdx
  0000000000009065: 48 8B 85 A8 00 00  mov         rax,qword ptr [rbp+0A8h]
                    00
  000000000000906C: 49 F7 E3           mul         rax,r11
  000000000000906F: 49 01 C7           add         r15,rax
  0000000000009072: 48 83 D2 00        adc         rdx,0
  0000000000009076: 4D 0F AF CC        imul        r9,r12
  000000000000907A: 4D 01 D7           add         r15,r10
  000000000000907D: 49 11 D1           adc         r9,rdx
  0000000000009080: 4D 89 EA           mov         r10,r13
  0000000000009083: 4D 89 F3           mov         r11,r14
  0000000000009086: 4D 89 FC           mov         r12,r15
  0000000000009089: 49 83 E4 03        and         r12,3
  000000000000908D: 4D 89 FD           mov         r13,r15
  0000000000009090: 49 83 E5 FC        and         r13,0FFFFFFFFFFFFFFFCh
  0000000000009094: 4D 89 CE           mov         r14,r9
  0000000000009097: 4D 0F AC CF 02     shrd        r15,r9,2
  000000000000909C: 49 C1 E9 02        shr         r9,2
  00000000000090A0: 4D 01 EF           add         r15,r13
  00000000000090A3: 4D 11 F1           adc         r9,r14
  00000000000090A6: 4D 01 FA           add         r10,r15
  00000000000090A9: 4D 11 CB           adc         r11,r9
  00000000000090AC: 49 83 D4 00        adc         r12,0
  00000000000090B0: C5 ED FE D6        vpaddd      ymm2,ymm2,ymm6
  00000000000090B4: C5 0D EF F2        vpxor       ymm14,ymm14,ymm2
  00000000000090B8: C4 62 0D 00 35 40  vpshufb     ymm14,ymm14,ymmword ptr [.rdata+40h]
                    00 00 00
  00000000000090C1: C4 41 2D FE D6     vpaddd      ymm10,ymm10,ymm14
  00000000000090C6: C4 C1 4D EF F2     vpxor       ymm6,ymm6,ymm10
  00000000000090CB: C5 E5 72 D6 14     vpsrld      ymm3,ymm6,14h
  00000000000090D0: C5 CD 72 F6 0C     vpslld      ymm6,ymm6,0Ch
  00000000000090D5: C5 CD EF F3        vpxor       ymm6,ymm6,ymm3
  00000000000090D9: C5 ED FE D6        vpaddd      ymm2,ymm2,ymm6
  00000000000090DD: C5 0D EF F2        vpxor       ymm14,ymm14,ymm2
  00000000000090E1: C4 62 0D 00 35 20  vpshufb     ymm14,ymm14,ymmword ptr [.rdata+20h]
                    00 00 00
  00000000000090EA: C4 41 2D FE D6     vpaddd      ymm10,ymm10,ymm14
  00000000000090EF: C4 C1 4D EF F2     vpxor       ymm6,ymm6,ymm10
  00000000000090F4: C5 E5 72 F6 07     vpslld      ymm3,ymm6,7
  00000000000090F9: C5 CD 72 D6 19     vpsrld      ymm6,ymm6,19h
  00000000000090FE: C5 CD EF F3        vpxor       ymm6,ymm6,ymm3
  0000000000009102: C4 43 0D 0F F6 0C  vpalignr    ymm14,ymm14,ymm14,0Ch
  0000000000009108: C4 43 2D 0F D2 08  vpalignr    ymm10,ymm10,ymm10,8
  000000000000910E: C4 E3 4D 0F F6 04  vpalignr    ymm6,ymm6,ymm6,4
  0000000000009114: C5 FD FE C4        vpaddd      ymm0,ymm0,ymm4
  0000000000009118: C5 1D EF E0        vpxor       ymm12,ymm12,ymm0
  000000000000911C: C4 62 1D 00 25 40  vpshufb     ymm12,ymm12,ymmword ptr [.rdata+40h]
                    00 00 00
  0000000000009125: C4 41 3D FE C4     vpaddd      ymm8,ymm8,ymm12
  000000000000912A: C4 C1 5D EF E0     vpxor       ymm4,ymm4,ymm8
  000000000000912F: C5 E5 72 D4 14     vpsrld      ymm3,ymm4,14h
  0000000000009134: C5 DD 72 F4 0C     vpslld      ymm4,ymm4,0Ch
  0000000000009139: C5 DD EF E3        vpxor       ymm4,ymm4,ymm3
  000000000000913D: C5 FD FE C4        vpaddd      ymm0,ymm0,ymm4
  0000000000009141: C5 1D EF E0        vpxor       ymm12,ymm12,ymm0
  0000000000009145: C4 62 1D 00 25 20  vpshufb     ymm12,ymm12,ymmword ptr [.rdata+20h]
                    00 00 00
  000000000000914E: C4 41 3D FE C4     vpaddd      ymm8,ymm8,ymm12
  0000000000009153: C4 C1 5D EF E0     vpxor       ymm4,ymm4,ymm8
  0000000000009158: C5 E5 72 F4 07     vpslld      ymm3,ymm4,7
  000000000000915D: C5 DD 72 D4 19     vpsrld      ymm4,ymm4,19h
  0000000000009162: C5 DD EF E3        vpxor       ymm4,ymm4,ymm3
  0000000000009166: C4 43 1D 0F E4 04  vpalignr    ymm12,ymm12,ymm12,4
  000000000000916C: C4 43 3D 0F C0 08  vpalignr    ymm8,ymm8,ymm8,8
  0000000000009172: C4 E3 5D 0F E4 0C  vpalignr    ymm4,ymm4,ymm4,0Ch
  0000000000009178: 4C 03 57 10        add         r10,qword ptr [rdi+10h]
  000000000000917C: 4C 13 5F 18        adc         r11,qword ptr [rdi+18h]
  0000000000009180: 49 83 D4 01        adc         r12,1
  0000000000009184: 48 8B 85 A0 00 00  mov         rax,qword ptr [rbp+0A0h]
                    00
  000000000000918B: 49 89 C7           mov         r15,rax
  000000000000918E: 49 F7 E2           mul         rax,r10
  0000000000009191: 49 89 C5           mov         r13,rax
  0000000000009194: 49 89 D6           mov         r14,rdx
  0000000000009197: 48 8B 85 A0 00 00  mov         rax,qword ptr [rbp+0A0h]
                    00
  000000000000919E: 49 F7 E3           mul         rax,r11
  00000000000091A1: 4D 0F AF FC        imul        r15,r12
  00000000000091A5: 49 01 C6           add         r14,rax
  00000000000091A8: 49 11 D7           adc         r15,rdx
  00000000000091AB: 48 8B 85 A8 00 00  mov         rax,qword ptr [rbp+0A8h]
                    00
  00000000000091B2: 49 89 C1           mov         r9,rax
  00000000000091B5: 49 F7 E2           mul         rax,r10
  00000000000091B8: 49 01 C6           add         r14,rax
  00000000000091BB: 48 83 D2 00        adc         rdx,0
  00000000000091BF: 49 89 D2           mov         r10,rdx
  00000000000091C2: 48 8B 85 A8 00 00  mov         rax,qword ptr [rbp+0A8h]
                    00
  00000000000091C9: 49 F7 E3           mul         rax,r11
  00000000000091CC: 49 01 C7           add         r15,rax
  00000000000091CF: 48 83 D2 00        adc         rdx,0
  00000000000091D3: 4D 0F AF CC        imul        r9,r12
  00000000000091D7: 4D 01 D7           add         r15,r10
  00000000000091DA: 49 11 D1           adc         r9,rdx
  00000000000091DD: 4D 89 EA           mov         r10,r13
  00000000000091E0: 4D 89 F3           mov         r11,r14
  00000000000091E3: 4D 89 FC           mov         r12,r15
  00000000000091E6: 49 83 E4 03        and         r12,3
  00000000000091EA: 4D 89 FD           mov         r13,r15
  00000000000091ED: 49 83 E5 FC        and         r13,0FFFFFFFFFFFFFFFCh
  00000000000091F1: 4D 89 CE           mov         r14,r9
  00000000000091F4: 4D 0F AC CF 02     shrd        r15,r9,2
  00000000000091F9: 49 C1 E9 02        shr         r9,2
  00000000000091FD: 4D 01 EF           add         r15,r13
  0000000000009200: 4D 11 F1           adc         r9,r14
  0000000000009203: 4D 01 FA           add         r10,r15
  0000000000009206: 4D 11 CB           adc         r11,r9
  0000000000009209: 49 83 D4 00        adc         r12,0
  000000000000920D: C5 F5 FE CD        vpaddd      ymm1,ymm1,ymm5
  0000000000009211: C5 15 EF E9        vpxor       ymm13,ymm13,ymm1
  0000000000009215: C4 62 15 00 2D 40  vpshufb     ymm13,ymm13,ymmword ptr [.rdata+40h]
                    00 00 00
  000000000000921E: C4 41 35 FE CD     vpaddd      ymm9,ymm9,ymm13
  0000000000009223: C4 C1 55 EF E9     vpxor       ymm5,ymm5,ymm9
  0000000000009228: C5 E5 72 D5 14     vpsrld      ymm3,ymm5,14h
  000000000000922D: C5 D5 72 F5 0C     vpslld      ymm5,ymm5,0Ch
  0000000000009232: C5 D5 EF EB        vpxor       ymm5,ymm5,ymm3
  0000000000009236: C5 F5 FE CD        vpaddd      ymm1,ymm1,ymm5
  000000000000923A: C5 15 EF E9        vpxor       ymm13,ymm13,ymm1
  000000000000923E: C4 62 15 00 2D 20  vpshufb     ymm13,ymm13,ymmword ptr [.rdata+20h]
                    00 00 00
  0000000000009247: C4 41 35 FE CD     vpaddd      ymm9,ymm9,ymm13
  000000000000924C: C4 C1 55 EF E9     vpxor       ymm5,ymm5,ymm9
  0000000000009251: C5 E5 72 F5 07     vpslld      ymm3,ymm5,7
  0000000000009256: C5 D5 72 D5 19     vpsrld      ymm5,ymm5,19h
  000000000000925B: C5 D5 EF EB        vpxor       ymm5,ymm5,ymm3
  000000000000925F: C4 43 15 0F ED 04  vpalignr    ymm13,ymm13,ymm13,4
  0000000000009265: C4 43 35 0F C9 08  vpalignr    ymm9,ymm9,ymm9,8
  000000000000926B: C4 E3 55 0F ED 0C  vpalignr    ymm5,ymm5,ymm5,0Ch
  0000000000009271: C5 ED FE D6        vpaddd      ymm2,ymm2,ymm6
  0000000000009275: C5 0D EF F2        vpxor       ymm14,ymm14,ymm2
  0000000000009279: C4 62 0D 00 35 40  vpshufb     ymm14,ymm14,ymmword ptr [.rdata+40h]
                    00 00 00
  0000000000009282: C4 41 2D FE D6     vpaddd      ymm10,ymm10,ymm14
  0000000000009287: C4 C1 4D EF F2     vpxor       ymm6,ymm6,ymm10
  000000000000928C: C5 E5 72 D6 14     vpsrld      ymm3,ymm6,14h
  0000000000009291: C5 CD 72 F6 0C     vpslld      ymm6,ymm6,0Ch
  0000000000009296: C5 CD EF F3        vpxor       ymm6,ymm6,ymm3
  000000000000929A: C5 ED FE D6        vpaddd      ymm2,ymm2,ymm6
  000000000000929E: C5 0D EF F2        vpxor       ymm14,ymm14,ymm2
  00000000000092A2: C4 62 0D 00 35 20  vpshufb     ymm14,ymm14,ymmword ptr [.rdata+20h]
                    00 00 00
  00000000000092AB: C4 41 2D FE D6     vpaddd      ymm10,ymm10,ymm14
  00000000000092B0: C4 C1 4D EF F2     vpxor       ymm6,ymm6,ymm10
  00000000000092B5: C5 E5 72 F6 07     vpslld      ymm3,ymm6,7
  00000000000092BA: C5 CD 72 D6 19     vpsrld      ymm6,ymm6,19h
  00000000000092BF: C5 CD EF F3        vpxor       ymm6,ymm6,ymm3
  00000000000092C3: C4 43 0D 0F F6 04  vpalignr    ymm14,ymm14,ymm14,4
  00000000000092C9: C4 43 2D 0F D2 08  vpalignr    ymm10,ymm10,ymm10,8
  00000000000092CF: C4 E3 4D 0F F6 0C  vpalignr    ymm6,ymm6,ymm6,0Ch
  00000000000092D5: 48 8D 7F 20        lea         rdi,[rdi+20h]
  00000000000092D9: 48 FF C9           dec         rcx
  00000000000092DC: 0F 8F DA FB FF FF  jg          L$seal_avx2_tail_384_rounds_and_3xhash
  00000000000092E2: 49 FF C8           dec         r8
  00000000000092E5: 0F 8D 69 FC FF FF  jge         L$seal_avx2_tail_384_rounds_and_2xhash
  00000000000092EB: C5 ED FE 15 00 00  vpaddd      ymm2,ymm2,ymmword ptr [.rdata]
                    00 00
  00000000000092F3: C5 CD FE B5 E0 00  vpaddd      ymm6,ymm6,ymmword ptr [rbp+0E0h]
                    00 00
  00000000000092FB: C5 2D FE 95 00 01  vpaddd      ymm10,ymm10,ymmword ptr [rbp+100h]
                    00 00
  0000000000009303: C5 0D FE B5 80 01  vpaddd      ymm14,ymm14,ymmword ptr [rbp+180h]
                    00 00
  000000000000930B: C5 F5 FE 0D 00 00  vpaddd      ymm1,ymm1,ymmword ptr [.rdata]
                    00 00
  0000000000009313: C5 D5 FE AD E0 00  vpaddd      ymm5,ymm5,ymmword ptr [rbp+0E0h]
                    00 00
  000000000000931B: C5 35 FE 8D 00 01  vpaddd      ymm9,ymm9,ymmword ptr [rbp+100h]
                    00 00
  0000000000009323: C5 15 FE AD 60 01  vpaddd      ymm13,ymm13,ymmword ptr [rbp+160h]
                    00 00
  000000000000932B: C5 FD FE 05 00 00  vpaddd      ymm0,ymm0,ymmword ptr [.rdata]
                    00 00
  0000000000009333: C5 DD FE A5 E0 00  vpaddd      ymm4,ymm4,ymmword ptr [rbp+0E0h]
                    00 00
  000000000000933B: C5 3D FE 85 00 01  vpaddd      ymm8,ymm8,ymmword ptr [rbp+100h]
                    00 00
  0000000000009343: C5 1D FE A5 40 01  vpaddd      ymm12,ymm12,ymmword ptr [rbp+140h]
                    00 00
  000000000000934B: C4 E3 4D 46 DA 02  vperm2i128  ymm3,ymm6,ymm2,2
  0000000000009351: C4 E3 4D 46 F2 13  vperm2i128  ymm6,ymm6,ymm2,13h
  0000000000009357: C4 C3 0D 46 D2 02  vperm2i128  ymm2,ymm14,ymm10,2
  000000000000935D: C4 43 0D 46 D2 13  vperm2i128  ymm10,ymm14,ymm10,13h
  0000000000009363: C5 E5 EF 1E        vpxor       ymm3,ymm3,ymmword ptr [rsi]
  0000000000009367: C5 ED EF 56 20     vpxor       ymm2,ymm2,ymmword ptr [rsi+20h]
  000000000000936C: C5 CD EF 76 40     vpxor       ymm6,ymm6,ymmword ptr [rsi+40h]
  0000000000009371: C5 2D EF 56 60     vpxor       ymm10,ymm10,ymmword ptr [rsi+60h]
  0000000000009376: C5 FE 7F 1F        vmovdqu     ymmword ptr [rdi],ymm3
  000000000000937A: C5 FE 7F 57 20     vmovdqu     ymmword ptr [rdi+20h],ymm2
  000000000000937F: C5 FE 7F 77 40     vmovdqu     ymmword ptr [rdi+40h],ymm6
  0000000000009384: C5 7E 7F 57 60     vmovdqu     ymmword ptr [rdi+60h],ymm10
  0000000000009389: C4 E3 55 46 D9 02  vperm2i128  ymm3,ymm5,ymm1,2
  000000000000938F: C4 E3 55 46 E9 13  vperm2i128  ymm5,ymm5,ymm1,13h
  0000000000009395: C4 C3 15 46 C9 02  vperm2i128  ymm1,ymm13,ymm9,2
  000000000000939B: C4 43 15 46 C9 13  vperm2i128  ymm9,ymm13,ymm9,13h
  00000000000093A1: C5 E5 EF 9E 80 00  vpxor       ymm3,ymm3,ymmword ptr [rsi+80h]
                    00 00
  00000000000093A9: C5 F5 EF 8E A0 00  vpxor       ymm1,ymm1,ymmword ptr [rsi+0A0h]
                    00 00
  00000000000093B1: C5 D5 EF AE C0 00  vpxor       ymm5,ymm5,ymmword ptr [rsi+0C0h]
                    00 00
  00000000000093B9: C5 35 EF 8E E0 00  vpxor       ymm9,ymm9,ymmword ptr [rsi+0E0h]
                    00 00
  00000000000093C1: C5 FE 7F 9F 80 00  vmovdqu     ymmword ptr [rdi+80h],ymm3
                    00 00
  00000000000093C9: C5 FE 7F 8F A0 00  vmovdqu     ymmword ptr [rdi+0A0h],ymm1
                    00 00
  00000000000093D1: C5 FE 7F AF C0 00  vmovdqu     ymmword ptr [rdi+0C0h],ymm5
                    00 00
  00000000000093D9: C5 7E 7F 8F E0 00  vmovdqu     ymmword ptr [rdi+0E0h],ymm9
                    00 00
  00000000000093E1: C4 E3 5D 46 D8 13  vperm2i128  ymm3,ymm4,ymm0,13h
  00000000000093E7: C4 E3 5D 46 C0 02  vperm2i128  ymm0,ymm4,ymm0,2
  00000000000093ED: C4 C3 1D 46 E0 02  vperm2i128  ymm4,ymm12,ymm8,2
  00000000000093F3: C4 43 1D 46 E0 13  vperm2i128  ymm12,ymm12,ymm8,13h
  00000000000093F9: C5 7D 6F C3        vmovdqa     ymm8,ymm3
  00000000000093FD: B9 00 01 00 00     mov         ecx,100h
  0000000000009402: 48 8D B6 00 01 00  lea         rsi,[rsi+100h]
                    00
  0000000000009409: 48 81 EB 00 01 00  sub         rbx,100h
                    00
  0000000000009410: E9 A9 0C 00 00     jmp         L$seal_avx2_short_hash_remainder
L$seal_avx2_tail_512:
  0000000000009415: C5 FD 6F 05 00 00  vmovdqa     ymm0,ymmword ptr [.rdata]
                    00 00
  000000000000941D: C5 FD 6F A5 E0 00  vmovdqa     ymm4,ymmword ptr [rbp+0E0h]
                    00 00
  0000000000009425: C5 7D 6F 85 00 01  vmovdqa     ymm8,ymmword ptr [rbp+100h]
                    00 00
  000000000000942D: C5 FD 6F C8        vmovdqa     ymm1,ymm0
  0000000000009431: C5 FD 6F EC        vmovdqa     ymm5,ymm4
  0000000000009435: C4 41 7D 6F C8     vmovdqa     ymm9,ymm8
  000000000000943A: C5 FD 6F D0        vmovdqa     ymm2,ymm0
  000000000000943E: C5 FD 6F F4        vmovdqa     ymm6,ymm4
  0000000000009442: C4 41 7D 6F D0     vmovdqa     ymm10,ymm8
  0000000000009447: C5 FD 6F D8        vmovdqa     ymm3,ymm0
  000000000000944B: C5 FD 6F FC        vmovdqa     ymm7,ymm4
  000000000000944F: C4 41 7D 6F D8     vmovdqa     ymm11,ymm8
  0000000000009454: C5 7D 6F 25 80 00  vmovdqa     ymm12,ymmword ptr [.rdata+80h]
                    00 00
  000000000000945C: C5 1D FE BD 40 01  vpaddd      ymm15,ymm12,ymmword ptr [rbp+140h]
                    00 00
  0000000000009464: C4 41 1D FE F7     vpaddd      ymm14,ymm12,ymm15
  0000000000009469: C4 41 1D FE EE     vpaddd      ymm13,ymm12,ymm14
  000000000000946E: C4 41 1D FE E5     vpaddd      ymm12,ymm12,ymm13
  0000000000009473: C5 7D 7F BD A0 01  vmovdqa     ymmword ptr [rbp+1A0h],ymm15
                    00 00
  000000000000947B: C5 7D 7F B5 80 01  vmovdqa     ymmword ptr [rbp+180h],ymm14
                    00 00
  0000000000009483: C5 7D 7F AD 60 01  vmovdqa     ymmword ptr [rbp+160h],ymm13
                    00 00
  000000000000948B: C5 7D 7F A5 40 01  vmovdqa     ymmword ptr [rbp+140h],ymm12
                    00 00
L$seal_avx2_tail_512_rounds_and_3xhash:
  0000000000009493: 4C 03 17           add         r10,qword ptr [rdi]
  0000000000009496: 4C 13 5F 08        adc         r11,qword ptr [rdi+8]
  000000000000949A: 49 83 D4 01        adc         r12,1
  000000000000949E: 48 8B 95 A0 00 00  mov         rdx,qword ptr [rbp+0A0h]
                    00
  00000000000094A5: 49 89 D7           mov         r15,rdx
  00000000000094A8: C4 42 93 F6 F2     mulx        r14,r13,r10
  00000000000094AD: C4 C2 FB F6 D3     mulx        rdx,rax,r11
  00000000000094B2: 4D 0F AF FC        imul        r15,r12
  00000000000094B6: 49 01 C6           add         r14,rax
  00000000000094B9: 49 11 D7           adc         r15,rdx
  00000000000094BC: 48 8B 95 A8 00 00  mov         rdx,qword ptr [rbp+0A8h]
                    00
  00000000000094C3: C4 C2 AB F6 C2     mulx        rax,r10,r10
  00000000000094C8: 4D 01 D6           add         r14,r10
  00000000000094CB: C4 42 A3 F6 CB     mulx        r9,r11,r11
  00000000000094D0: 4D 11 DF           adc         r15,r11
  00000000000094D3: 49 83 D1 00        adc         r9,0
  00000000000094D7: 49 0F AF D4        imul        rdx,r12
  00000000000094DB: 49 01 C7           add         r15,rax
  00000000000094DE: 49 11 D1           adc         r9,rdx
  00000000000094E1: 4D 89 EA           mov         r10,r13
  00000000000094E4: 4D 89 F3           mov         r11,r14
  00000000000094E7: 4D 89 FC           mov         r12,r15
  00000000000094EA: 49 83 E4 03        and         r12,3
  00000000000094EE: 4D 89 FD           mov         r13,r15
  00000000000094F1: 49 83 E5 FC        and         r13,0FFFFFFFFFFFFFFFCh
  00000000000094F5: 4D 89 CE           mov         r14,r9
  00000000000094F8: 4D 0F AC CF 02     shrd        r15,r9,2
  00000000000094FD: 49 C1 E9 02        shr         r9,2
  0000000000009501: 4D 01 EF           add         r15,r13
  0000000000009504: 4D 11 F1           adc         r9,r14
  0000000000009507: 4D 01 FA           add         r10,r15
  000000000000950A: 4D 11 CB           adc         r11,r9
  000000000000950D: 49 83 D4 00        adc         r12,0
  0000000000009511: 48 8D 7F 10        lea         rdi,[rdi+10h]
L$seal_avx2_tail_512_rounds_and_2xhash:
  0000000000009515: C5 7D 7F 85 20 01  vmovdqa     ymmword ptr [rbp+120h],ymm8
                    00 00
  000000000000951D: C5 7D 6F 05 40 00  vmovdqa     ymm8,ymmword ptr [.rdata+40h]
                    00 00
  0000000000009525: C5 E5 FE DF        vpaddd      ymm3,ymm3,ymm7
  0000000000009529: C5 ED FE D6        vpaddd      ymm2,ymm2,ymm6
  000000000000952D: C5 F5 FE CD        vpaddd      ymm1,ymm1,ymm5
  0000000000009531: C5 FD FE C4        vpaddd      ymm0,ymm0,ymm4
  0000000000009535: C5 05 EF FB        vpxor       ymm15,ymm15,ymm3
  0000000000009539: C5 0D EF F2        vpxor       ymm14,ymm14,ymm2
  000000000000953D: C5 15 EF E9        vpxor       ymm13,ymm13,ymm1
  0000000000009541: C5 1D EF E0        vpxor       ymm12,ymm12,ymm0
  0000000000009545: C4 42 05 00 F8     vpshufb     ymm15,ymm15,ymm8
  000000000000954A: C4 42 0D 00 F0     vpshufb     ymm14,ymm14,ymm8
  000000000000954F: C4 42 15 00 E8     vpshufb     ymm13,ymm13,ymm8
  0000000000009554: C4 42 1D 00 E0     vpshufb     ymm12,ymm12,ymm8
  0000000000009559: C4 41 25 FE DF     vpaddd      ymm11,ymm11,ymm15
  000000000000955E: C4 41 2D FE D6     vpaddd      ymm10,ymm10,ymm14
  0000000000009563: C4 41 35 FE CD     vpaddd      ymm9,ymm9,ymm13
  0000000000009568: C5 1D FE 85 20 01  vpaddd      ymm8,ymm12,ymmword ptr [rbp+120h]
                    00 00
  0000000000009570: C4 C1 45 EF FB     vpxor       ymm7,ymm7,ymm11
  0000000000009575: C4 C1 4D EF F2     vpxor       ymm6,ymm6,ymm10
  000000000000957A: 4C 03 17           add         r10,qword ptr [rdi]
  000000000000957D: 4C 13 5F 08        adc         r11,qword ptr [rdi+8]
  0000000000009581: 49 83 D4 01        adc         r12,1
  0000000000009585: C4 C1 55 EF E9     vpxor       ymm5,ymm5,ymm9
  000000000000958A: C4 C1 5D EF E0     vpxor       ymm4,ymm4,ymm8
  000000000000958F: C5 7D 7F 85 20 01  vmovdqa     ymmword ptr [rbp+120h],ymm8
                    00 00
  0000000000009597: C5 BD 72 D7 14     vpsrld      ymm8,ymm7,14h
  000000000000959C: C5 C5 72 F7 0C     vpslld      ymm7,ymm7,0Ch
  00000000000095A1: C4 C1 45 EF F8     vpxor       ymm7,ymm7,ymm8
  00000000000095A6: C5 BD 72 D6 14     vpsrld      ymm8,ymm6,14h
  00000000000095AB: C5 CD 72 F6 0C     vpslld      ymm6,ymm6,0Ch
  00000000000095B0: C4 C1 4D EF F0     vpxor       ymm6,ymm6,ymm8
  00000000000095B5: C5 BD 72 D5 14     vpsrld      ymm8,ymm5,14h
  00000000000095BA: C5 D5 72 F5 0C     vpslld      ymm5,ymm5,0Ch
  00000000000095BF: C4 C1 55 EF E8     vpxor       ymm5,ymm5,ymm8
  00000000000095C4: C5 BD 72 D4 14     vpsrld      ymm8,ymm4,14h
  00000000000095C9: C5 DD 72 F4 0C     vpslld      ymm4,ymm4,0Ch
  00000000000095CE: C4 C1 5D EF E0     vpxor       ymm4,ymm4,ymm8
  00000000000095D3: C5 7D 6F 05 20 00  vmovdqa     ymm8,ymmword ptr [.rdata+20h]
                    00 00
  00000000000095DB: C5 E5 FE DF        vpaddd      ymm3,ymm3,ymm7
  00000000000095DF: C5 ED FE D6        vpaddd      ymm2,ymm2,ymm6
  00000000000095E3: C5 F5 FE CD        vpaddd      ymm1,ymm1,ymm5
  00000000000095E7: C5 FD FE C4        vpaddd      ymm0,ymm0,ymm4
  00000000000095EB: 48 8B 95 A0 00 00  mov         rdx,qword ptr [rbp+0A0h]
                    00
  00000000000095F2: 49 89 D7           mov         r15,rdx
  00000000000095F5: C4 42 93 F6 F2     mulx        r14,r13,r10
  00000000000095FA: C4 C2 FB F6 D3     mulx        rdx,rax,r11
  00000000000095FF: 4D 0F AF FC        imul        r15,r12
  0000000000009603: 49 01 C6           add         r14,rax
  0000000000009606: 49 11 D7           adc         r15,rdx
  0000000000009609: C5 05 EF FB        vpxor       ymm15,ymm15,ymm3
  000000000000960D: C5 0D EF F2        vpxor       ymm14,ymm14,ymm2
  0000000000009611: C5 15 EF E9        vpxor       ymm13,ymm13,ymm1
  0000000000009615: C5 1D EF E0        vpxor       ymm12,ymm12,ymm0
  0000000000009619: C4 42 05 00 F8     vpshufb     ymm15,ymm15,ymm8
  000000000000961E: C4 42 0D 00 F0     vpshufb     ymm14,ymm14,ymm8
  0000000000009623: C4 42 15 00 E8     vpshufb     ymm13,ymm13,ymm8
  0000000000009628: C4 42 1D 00 E0     vpshufb     ymm12,ymm12,ymm8
  000000000000962D: C4 41 25 FE DF     vpaddd      ymm11,ymm11,ymm15
  0000000000009632: C4 41 2D FE D6     vpaddd      ymm10,ymm10,ymm14
  0000000000009637: C4 41 35 FE CD     vpaddd      ymm9,ymm9,ymm13
  000000000000963C: C5 1D FE 85 20 01  vpaddd      ymm8,ymm12,ymmword ptr [rbp+120h]
                    00 00
  0000000000009644: C4 C1 45 EF FB     vpxor       ymm7,ymm7,ymm11
  0000000000009649: C4 C1 4D EF F2     vpxor       ymm6,ymm6,ymm10
  000000000000964E: C4 C1 55 EF E9     vpxor       ymm5,ymm5,ymm9
  0000000000009653: C4 C1 5D EF E0     vpxor       ymm4,ymm4,ymm8
  0000000000009658: C5 7D 7F 85 20 01  vmovdqa     ymmword ptr [rbp+120h],ymm8
                    00 00
  0000000000009660: C5 BD 72 D7 19     vpsrld      ymm8,ymm7,19h
  0000000000009665: C5 C5 72 F7 07     vpslld      ymm7,ymm7,7
  000000000000966A: C4 C1 45 EF F8     vpxor       ymm7,ymm7,ymm8
  000000000000966F: 48 8B 95 A8 00 00  mov         rdx,qword ptr [rbp+0A8h]
                    00
  0000000000009676: C4 C2 AB F6 C2     mulx        rax,r10,r10
  000000000000967B: 4D 01 D6           add         r14,r10
  000000000000967E: C4 42 A3 F6 CB     mulx        r9,r11,r11
  0000000000009683: 4D 11 DF           adc         r15,r11
  0000000000009686: 49 83 D1 00        adc         r9,0
  000000000000968A: 49 0F AF D4        imul        rdx,r12
  000000000000968E: C5 BD 72 D6 19     vpsrld      ymm8,ymm6,19h
  0000000000009693: C5 CD 72 F6 07     vpslld      ymm6,ymm6,7
  0000000000009698: C4 C1 4D EF F0     vpxor       ymm6,ymm6,ymm8
  000000000000969D: C5 BD 72 D5 19     vpsrld      ymm8,ymm5,19h
  00000000000096A2: C5 D5 72 F5 07     vpslld      ymm5,ymm5,7
  00000000000096A7: C4 C1 55 EF E8     vpxor       ymm5,ymm5,ymm8
  00000000000096AC: C5 BD 72 D4 19     vpsrld      ymm8,ymm4,19h
  00000000000096B1: C5 DD 72 F4 07     vpslld      ymm4,ymm4,7
  00000000000096B6: C4 C1 5D EF E0     vpxor       ymm4,ymm4,ymm8
  00000000000096BB: C5 7D 6F 85 20 01  vmovdqa     ymm8,ymmword ptr [rbp+120h]
                    00 00
  00000000000096C3: C4 E3 45 0F FF 04  vpalignr    ymm7,ymm7,ymm7,4
  00000000000096C9: C4 43 25 0F DB 08  vpalignr    ymm11,ymm11,ymm11,8
  00000000000096CF: C4 43 05 0F FF 0C  vpalignr    ymm15,ymm15,ymm15,0Ch
  00000000000096D5: C4 E3 4D 0F F6 04  vpalignr    ymm6,ymm6,ymm6,4
  00000000000096DB: C4 43 2D 0F D2 08  vpalignr    ymm10,ymm10,ymm10,8
  00000000000096E1: C4 43 0D 0F F6 0C  vpalignr    ymm14,ymm14,ymm14,0Ch
  00000000000096E7: C4 E3 55 0F ED 04  vpalignr    ymm5,ymm5,ymm5,4
  00000000000096ED: C4 43 35 0F C9 08  vpalignr    ymm9,ymm9,ymm9,8
  00000000000096F3: C4 43 15 0F ED 0C  vpalignr    ymm13,ymm13,ymm13,0Ch
  00000000000096F9: C4 E3 5D 0F E4 04  vpalignr    ymm4,ymm4,ymm4,4
  00000000000096FF: 49 01 C7           add         r15,rax
  0000000000009702: 49 11 D1           adc         r9,rdx
  0000000000009705: C4 43 3D 0F C0 08  vpalignr    ymm8,ymm8,ymm8,8
  000000000000970B: C4 43 1D 0F E4 0C  vpalignr    ymm12,ymm12,ymm12,0Ch
  0000000000009711: C5 7D 7F 85 20 01  vmovdqa     ymmword ptr [rbp+120h],ymm8
                    00 00
  0000000000009719: C5 7D 6F 05 40 00  vmovdqa     ymm8,ymmword ptr [.rdata+40h]
                    00 00
  0000000000009721: C5 E5 FE DF        vpaddd      ymm3,ymm3,ymm7
  0000000000009725: C5 ED FE D6        vpaddd      ymm2,ymm2,ymm6
  0000000000009729: C5 F5 FE CD        vpaddd      ymm1,ymm1,ymm5
  000000000000972D: C5 FD FE C4        vpaddd      ymm0,ymm0,ymm4
  0000000000009731: C5 05 EF FB        vpxor       ymm15,ymm15,ymm3
  0000000000009735: C5 0D EF F2        vpxor       ymm14,ymm14,ymm2
  0000000000009739: C5 15 EF E9        vpxor       ymm13,ymm13,ymm1
  000000000000973D: C5 1D EF E0        vpxor       ymm12,ymm12,ymm0
  0000000000009741: C4 42 05 00 F8     vpshufb     ymm15,ymm15,ymm8
  0000000000009746: C4 42 0D 00 F0     vpshufb     ymm14,ymm14,ymm8
  000000000000974B: C4 42 15 00 E8     vpshufb     ymm13,ymm13,ymm8
  0000000000009750: C4 42 1D 00 E0     vpshufb     ymm12,ymm12,ymm8
  0000000000009755: C4 41 25 FE DF     vpaddd      ymm11,ymm11,ymm15
  000000000000975A: C4 41 2D FE D6     vpaddd      ymm10,ymm10,ymm14
  000000000000975F: C4 41 35 FE CD     vpaddd      ymm9,ymm9,ymm13
  0000000000009764: C5 1D FE 85 20 01  vpaddd      ymm8,ymm12,ymmword ptr [rbp+120h]
                    00 00
  000000000000976C: 4D 89 EA           mov         r10,r13
  000000000000976F: 4D 89 F3           mov         r11,r14
  0000000000009772: 4D 89 FC           mov         r12,r15
  0000000000009775: 49 83 E4 03        and         r12,3
  0000000000009779: 4D 89 FD           mov         r13,r15
  000000000000977C: 49 83 E5 FC        and         r13,0FFFFFFFFFFFFFFFCh
  0000000000009780: 4D 89 CE           mov         r14,r9
  0000000000009783: 4D 0F AC CF 02     shrd        r15,r9,2
  0000000000009788: 49 C1 E9 02        shr         r9,2
  000000000000978C: 4D 01 EF           add         r15,r13
  000000000000978F: 4D 11 F1           adc         r9,r14
  0000000000009792: 4D 01 FA           add         r10,r15
  0000000000009795: 4D 11 CB           adc         r11,r9
  0000000000009798: 49 83 D4 00        adc         r12,0
  000000000000979C: C4 C1 45 EF FB     vpxor       ymm7,ymm7,ymm11
  00000000000097A1: C4 C1 4D EF F2     vpxor       ymm6,ymm6,ymm10
  00000000000097A6: C4 C1 55 EF E9     vpxor       ymm5,ymm5,ymm9
  00000000000097AB: C4 C1 5D EF E0     vpxor       ymm4,ymm4,ymm8
  00000000000097B0: C5 7D 7F 85 20 01  vmovdqa     ymmword ptr [rbp+120h],ymm8
                    00 00
  00000000000097B8: C5 BD 72 D7 14     vpsrld      ymm8,ymm7,14h
  00000000000097BD: C5 C5 72 F7 0C     vpslld      ymm7,ymm7,0Ch
  00000000000097C2: C4 C1 45 EF F8     vpxor       ymm7,ymm7,ymm8
  00000000000097C7: C5 BD 72 D6 14     vpsrld      ymm8,ymm6,14h
  00000000000097CC: C5 CD 72 F6 0C     vpslld      ymm6,ymm6,0Ch
  00000000000097D1: C4 C1 4D EF F0     vpxor       ymm6,ymm6,ymm8
  00000000000097D6: C5 BD 72 D5 14     vpsrld      ymm8,ymm5,14h
  00000000000097DB: C5 D5 72 F5 0C     vpslld      ymm5,ymm5,0Ch
  00000000000097E0: C4 C1 55 EF E8     vpxor       ymm5,ymm5,ymm8
  00000000000097E5: C5 BD 72 D4 14     vpsrld      ymm8,ymm4,14h
  00000000000097EA: C5 DD 72 F4 0C     vpslld      ymm4,ymm4,0Ch
  00000000000097EF: C4 C1 5D EF E0     vpxor       ymm4,ymm4,ymm8
  00000000000097F4: C5 7D 6F 05 20 00  vmovdqa     ymm8,ymmword ptr [.rdata+20h]
                    00 00
  00000000000097FC: C5 E5 FE DF        vpaddd      ymm3,ymm3,ymm7
  0000000000009800: C5 ED FE D6        vpaddd      ymm2,ymm2,ymm6
  0000000000009804: 4C 03 57 10        add         r10,qword ptr [rdi+10h]
  0000000000009808: 4C 13 5F 18        adc         r11,qword ptr [rdi+18h]
  000000000000980C: 49 83 D4 01        adc         r12,1
  0000000000009810: C5 F5 FE CD        vpaddd      ymm1,ymm1,ymm5
  0000000000009814: C5 FD FE C4        vpaddd      ymm0,ymm0,ymm4
  0000000000009818: C5 05 EF FB        vpxor       ymm15,ymm15,ymm3
  000000000000981C: C5 0D EF F2        vpxor       ymm14,ymm14,ymm2
  0000000000009820: C5 15 EF E9        vpxor       ymm13,ymm13,ymm1
  0000000000009824: C5 1D EF E0        vpxor       ymm12,ymm12,ymm0
  0000000000009828: C4 42 05 00 F8     vpshufb     ymm15,ymm15,ymm8
  000000000000982D: C4 42 0D 00 F0     vpshufb     ymm14,ymm14,ymm8
  0000000000009832: C4 42 15 00 E8     vpshufb     ymm13,ymm13,ymm8
  0000000000009837: C4 42 1D 00 E0     vpshufb     ymm12,ymm12,ymm8
  000000000000983C: C4 41 25 FE DF     vpaddd      ymm11,ymm11,ymm15
  0000000000009841: C4 41 2D FE D6     vpaddd      ymm10,ymm10,ymm14
  0000000000009846: C4 41 35 FE CD     vpaddd      ymm9,ymm9,ymm13
  000000000000984B: C5 1D FE 85 20 01  vpaddd      ymm8,ymm12,ymmword ptr [rbp+120h]
                    00 00
  0000000000009853: C4 C1 45 EF FB     vpxor       ymm7,ymm7,ymm11
  0000000000009858: C4 C1 4D EF F2     vpxor       ymm6,ymm6,ymm10
  000000000000985D: C4 C1 55 EF E9     vpxor       ymm5,ymm5,ymm9
  0000000000009862: C4 C1 5D EF E0     vpxor       ymm4,ymm4,ymm8
  0000000000009867: C5 7D 7F 85 20 01  vmovdqa     ymmword ptr [rbp+120h],ymm8
                    00 00
  000000000000986F: C5 BD 72 D7 19     vpsrld      ymm8,ymm7,19h
  0000000000009874: 48 8B 95 A0 00 00  mov         rdx,qword ptr [rbp+0A0h]
                    00
  000000000000987B: 49 89 D7           mov         r15,rdx
  000000000000987E: C4 42 93 F6 F2     mulx        r14,r13,r10
  0000000000009883: C4 C2 FB F6 D3     mulx        rdx,rax,r11
  0000000000009888: 4D 0F AF FC        imul        r15,r12
  000000000000988C: 49 01 C6           add         r14,rax
  000000000000988F: 49 11 D7           adc         r15,rdx
  0000000000009892: C5 C5 72 F7 07     vpslld      ymm7,ymm7,7
  0000000000009897: C4 C1 45 EF F8     vpxor       ymm7,ymm7,ymm8
  000000000000989C: C5 BD 72 D6 19     vpsrld      ymm8,ymm6,19h
  00000000000098A1: C5 CD 72 F6 07     vpslld      ymm6,ymm6,7
  00000000000098A6: C4 C1 4D EF F0     vpxor       ymm6,ymm6,ymm8
  00000000000098AB: C5 BD 72 D5 19     vpsrld      ymm8,ymm5,19h
  00000000000098B0: C5 D5 72 F5 07     vpslld      ymm5,ymm5,7
  00000000000098B5: C4 C1 55 EF E8     vpxor       ymm5,ymm5,ymm8
  00000000000098BA: C5 BD 72 D4 19     vpsrld      ymm8,ymm4,19h
  00000000000098BF: C5 DD 72 F4 07     vpslld      ymm4,ymm4,7
  00000000000098C4: C4 C1 5D EF E0     vpxor       ymm4,ymm4,ymm8
  00000000000098C9: C5 7D 6F 85 20 01  vmovdqa     ymm8,ymmword ptr [rbp+120h]
                    00 00
  00000000000098D1: C4 E3 45 0F FF 0C  vpalignr    ymm7,ymm7,ymm7,0Ch
  00000000000098D7: C4 43 25 0F DB 08  vpalignr    ymm11,ymm11,ymm11,8
  00000000000098DD: C4 43 05 0F FF 04  vpalignr    ymm15,ymm15,ymm15,4
  00000000000098E3: C4 E3 4D 0F F6 0C  vpalignr    ymm6,ymm6,ymm6,0Ch
  00000000000098E9: C4 43 2D 0F D2 08  vpalignr    ymm10,ymm10,ymm10,8
  00000000000098EF: C4 43 0D 0F F6 04  vpalignr    ymm14,ymm14,ymm14,4
  00000000000098F5: C4 E3 55 0F ED 0C  vpalignr    ymm5,ymm5,ymm5,0Ch
  00000000000098FB: C4 43 35 0F C9 08  vpalignr    ymm9,ymm9,ymm9,8
  0000000000009901: 48 8B 95 A8 00 00  mov         rdx,qword ptr [rbp+0A8h]
                    00
  0000000000009908: C4 C2 AB F6 C2     mulx        rax,r10,r10
  000000000000990D: 4D 01 D6           add         r14,r10
  0000000000009910: C4 42 A3 F6 CB     mulx        r9,r11,r11
  0000000000009915: 4D 11 DF           adc         r15,r11
  0000000000009918: 49 83 D1 00        adc         r9,0
  000000000000991C: 49 0F AF D4        imul        rdx,r12
  0000000000009920: C4 43 15 0F ED 04  vpalignr    ymm13,ymm13,ymm13,4
  0000000000009926: C4 E3 5D 0F E4 0C  vpalignr    ymm4,ymm4,ymm4,0Ch
  000000000000992C: C4 43 3D 0F C0 08  vpalignr    ymm8,ymm8,ymm8,8
  0000000000009932: C4 43 1D 0F E4 04  vpalignr    ymm12,ymm12,ymm12,4
  0000000000009938: 49 01 C7           add         r15,rax
  000000000000993B: 49 11 D1           adc         r9,rdx
  000000000000993E: 4D 89 EA           mov         r10,r13
  0000000000009941: 4D 89 F3           mov         r11,r14
  0000000000009944: 4D 89 FC           mov         r12,r15
  0000000000009947: 49 83 E4 03        and         r12,3
  000000000000994B: 4D 89 FD           mov         r13,r15
  000000000000994E: 49 83 E5 FC        and         r13,0FFFFFFFFFFFFFFFCh
  0000000000009952: 4D 89 CE           mov         r14,r9
  0000000000009955: 4D 0F AC CF 02     shrd        r15,r9,2
  000000000000995A: 49 C1 E9 02        shr         r9,2
  000000000000995E: 4D 01 EF           add         r15,r13
  0000000000009961: 4D 11 F1           adc         r9,r14
  0000000000009964: 4D 01 FA           add         r10,r15
  0000000000009967: 4D 11 CB           adc         r11,r9
  000000000000996A: 49 83 D4 00        adc         r12,0
  000000000000996E: 48 8D 7F 20        lea         rdi,[rdi+20h]
  0000000000009972: 48 FF C9           dec         rcx
  0000000000009975: 0F 8F 18 FB FF FF  jg          L$seal_avx2_tail_512_rounds_and_3xhash
  000000000000997B: 49 FF C8           dec         r8
  000000000000997E: 0F 8D 91 FB FF FF  jge         L$seal_avx2_tail_512_rounds_and_2xhash
  0000000000009984: C5 E5 FE 1D 00 00  vpaddd      ymm3,ymm3,ymmword ptr [.rdata]
                    00 00
  000000000000998C: C5 C5 FE BD E0 00  vpaddd      ymm7,ymm7,ymmword ptr [rbp+0E0h]
                    00 00
  0000000000009994: C5 25 FE 9D 00 01  vpaddd      ymm11,ymm11,ymmword ptr [rbp+100h]
                    00 00
  000000000000999C: C5 05 FE BD A0 01  vpaddd      ymm15,ymm15,ymmword ptr [rbp+1A0h]
                    00 00
  00000000000099A4: C5 ED FE 15 00 00  vpaddd      ymm2,ymm2,ymmword ptr [.rdata]
                    00 00
  00000000000099AC: C5 CD FE B5 E0 00  vpaddd      ymm6,ymm6,ymmword ptr [rbp+0E0h]
                    00 00
  00000000000099B4: C5 2D FE 95 00 01  vpaddd      ymm10,ymm10,ymmword ptr [rbp+100h]
                    00 00
  00000000000099BC: C5 0D FE B5 80 01  vpaddd      ymm14,ymm14,ymmword ptr [rbp+180h]
                    00 00
  00000000000099C4: C5 F5 FE 0D 00 00  vpaddd      ymm1,ymm1,ymmword ptr [.rdata]
                    00 00
  00000000000099CC: C5 D5 FE AD E0 00  vpaddd      ymm5,ymm5,ymmword ptr [rbp+0E0h]
                    00 00
  00000000000099D4: C5 35 FE 8D 00 01  vpaddd      ymm9,ymm9,ymmword ptr [rbp+100h]
                    00 00
  00000000000099DC: C5 15 FE AD 60 01  vpaddd      ymm13,ymm13,ymmword ptr [rbp+160h]
                    00 00
  00000000000099E4: C5 FD FE 05 00 00  vpaddd      ymm0,ymm0,ymmword ptr [.rdata]
                    00 00
  00000000000099EC: C5 DD FE A5 E0 00  vpaddd      ymm4,ymm4,ymmword ptr [rbp+0E0h]
                    00 00
  00000000000099F4: C5 3D FE 85 00 01  vpaddd      ymm8,ymm8,ymmword ptr [rbp+100h]
                    00 00
  00000000000099FC: C5 1D FE A5 40 01  vpaddd      ymm12,ymm12,ymmword ptr [rbp+140h]
                    00 00
  0000000000009A04: C5 FD 7F 85 20 01  vmovdqa     ymmword ptr [rbp+120h],ymm0
                    00 00
  0000000000009A0C: C4 E3 45 46 C3 02  vperm2i128  ymm0,ymm7,ymm3,2
  0000000000009A12: C4 E3 45 46 FB 13  vperm2i128  ymm7,ymm7,ymm3,13h
  0000000000009A18: C4 C3 05 46 DB 02  vperm2i128  ymm3,ymm15,ymm11,2
  0000000000009A1E: C4 43 05 46 DB 13  vperm2i128  ymm11,ymm15,ymm11,13h
  0000000000009A24: C5 FD EF 06        vpxor       ymm0,ymm0,ymmword ptr [rsi]
  0000000000009A28: C5 E5 EF 5E 20     vpxor       ymm3,ymm3,ymmword ptr [rsi+20h]
  0000000000009A2D: C5 C5 EF 7E 40     vpxor       ymm7,ymm7,ymmword ptr [rsi+40h]
  0000000000009A32: C5 25 EF 5E 60     vpxor       ymm11,ymm11,ymmword ptr [rsi+60h]
  0000000000009A37: C5 FE 7F 07        vmovdqu     ymmword ptr [rdi],ymm0
  0000000000009A3B: C5 FE 7F 5F 20     vmovdqu     ymmword ptr [rdi+20h],ymm3
  0000000000009A40: C5 FE 7F 7F 40     vmovdqu     ymmword ptr [rdi+40h],ymm7
  0000000000009A45: C5 7E 7F 5F 60     vmovdqu     ymmword ptr [rdi+60h],ymm11
  0000000000009A4A: C5 FD 6F 85 20 01  vmovdqa     ymm0,ymmword ptr [rbp+120h]
                    00 00
  0000000000009A52: C4 E3 4D 46 DA 02  vperm2i128  ymm3,ymm6,ymm2,2
  0000000000009A58: C4 E3 4D 46 F2 13  vperm2i128  ymm6,ymm6,ymm2,13h
  0000000000009A5E: C4 C3 0D 46 D2 02  vperm2i128  ymm2,ymm14,ymm10,2
  0000000000009A64: C4 43 0D 46 D2 13  vperm2i128  ymm10,ymm14,ymm10,13h
  0000000000009A6A: C5 E5 EF 9E 80 00  vpxor       ymm3,ymm3,ymmword ptr [rsi+80h]
                    00 00
  0000000000009A72: C5 ED EF 96 A0 00  vpxor       ymm2,ymm2,ymmword ptr [rsi+0A0h]
                    00 00
  0000000000009A7A: C5 CD EF B6 C0 00  vpxor       ymm6,ymm6,ymmword ptr [rsi+0C0h]
                    00 00
  0000000000009A82: C5 2D EF 96 E0 00  vpxor       ymm10,ymm10,ymmword ptr [rsi+0E0h]
                    00 00
  0000000000009A8A: C5 FE 7F 9F 80 00  vmovdqu     ymmword ptr [rdi+80h],ymm3
                    00 00
  0000000000009A92: C5 FE 7F 97 A0 00  vmovdqu     ymmword ptr [rdi+0A0h],ymm2
                    00 00
  0000000000009A9A: C5 FE 7F B7 C0 00  vmovdqu     ymmword ptr [rdi+0C0h],ymm6
                    00 00
  0000000000009AA2: C5 7E 7F 97 E0 00  vmovdqu     ymmword ptr [rdi+0E0h],ymm10
                    00 00
  0000000000009AAA: C4 E3 55 46 D9 02  vperm2i128  ymm3,ymm5,ymm1,2
  0000000000009AB0: C4 E3 55 46 E9 13  vperm2i128  ymm5,ymm5,ymm1,13h
  0000000000009AB6: C4 C3 15 46 C9 02  vperm2i128  ymm1,ymm13,ymm9,2
  0000000000009ABC: C4 43 15 46 C9 13  vperm2i128  ymm9,ymm13,ymm9,13h
  0000000000009AC2: C5 E5 EF 9E 00 01  vpxor       ymm3,ymm3,ymmword ptr [rsi+100h]
                    00 00
  0000000000009ACA: C5 F5 EF 8E 20 01  vpxor       ymm1,ymm1,ymmword ptr [rsi+120h]
                    00 00
  0000000000009AD2: C5 D5 EF AE 40 01  vpxor       ymm5,ymm5,ymmword ptr [rsi+140h]
                    00 00
  0000000000009ADA: C5 35 EF 8E 60 01  vpxor       ymm9,ymm9,ymmword ptr [rsi+160h]
                    00 00
  0000000000009AE2: C5 FE 7F 9F 00 01  vmovdqu     ymmword ptr [rdi+100h],ymm3
                    00 00
  0000000000009AEA: C5 FE 7F 8F 20 01  vmovdqu     ymmword ptr [rdi+120h],ymm1
                    00 00
  0000000000009AF2: C5 FE 7F AF 40 01  vmovdqu     ymmword ptr [rdi+140h],ymm5
                    00 00
  0000000000009AFA: C5 7E 7F 8F 60 01  vmovdqu     ymmword ptr [rdi+160h],ymm9
                    00 00
  0000000000009B02: C4 E3 5D 46 D8 13  vperm2i128  ymm3,ymm4,ymm0,13h
  0000000000009B08: C4 E3 5D 46 C0 02  vperm2i128  ymm0,ymm4,ymm0,2
  0000000000009B0E: C4 C3 1D 46 E0 02  vperm2i128  ymm4,ymm12,ymm8,2
  0000000000009B14: C4 43 1D 46 E0 13  vperm2i128  ymm12,ymm12,ymm8,13h
  0000000000009B1A: C5 7D 6F C3        vmovdqa     ymm8,ymm3
  0000000000009B1E: B9 80 01 00 00     mov         ecx,180h
  0000000000009B23: 48 8D B6 80 01 00  lea         rsi,[rsi+180h]
                    00
  0000000000009B2A: 48 81 EB 80 01 00  sub         rbx,180h
                    00
  0000000000009B31: E9 88 05 00 00     jmp         L$seal_avx2_short_hash_remainder
L$seal_avx2_320:
  0000000000009B36: C5 FD 6F C8        vmovdqa     ymm1,ymm0
  0000000000009B3A: C5 FD 6F D0        vmovdqa     ymm2,ymm0
  0000000000009B3E: C5 FD 6F EC        vmovdqa     ymm5,ymm4
  0000000000009B42: C5 FD 6F F4        vmovdqa     ymm6,ymm4
  0000000000009B46: C4 41 7D 6F C8     vmovdqa     ymm9,ymm8
  0000000000009B4B: C4 41 7D 6F D0     vmovdqa     ymm10,ymm8
  0000000000009B50: C5 1D FE 2D 80 00  vpaddd      ymm13,ymm12,ymmword ptr [.rdata+80h]
                    00 00
  0000000000009B58: C5 15 FE 35 80 00  vpaddd      ymm14,ymm13,ymmword ptr [.rdata+80h]
                    00 00
  0000000000009B60: C5 FD 6F FC        vmovdqa     ymm7,ymm4
  0000000000009B64: C4 41 7D 6F D8     vmovdqa     ymm11,ymm8
  0000000000009B69: C5 7D 7F A5 40 01  vmovdqa     ymmword ptr [rbp+140h],ymm12
                    00 00
  0000000000009B71: C5 7D 7F AD 60 01  vmovdqa     ymmword ptr [rbp+160h],ymm13
                    00 00
  0000000000009B79: C5 7D 7F B5 80 01  vmovdqa     ymmword ptr [rbp+180h],ymm14
                    00 00
  0000000000009B81: 41 BA 0A 00 00 00  mov         r10d,0Ah
L$seal_avx2_320_rounds:
  0000000000009B87: C5 FD FE C4        vpaddd      ymm0,ymm0,ymm4
  0000000000009B8B: C5 1D EF E0        vpxor       ymm12,ymm12,ymm0
  0000000000009B8F: C4 62 1D 00 25 40  vpshufb     ymm12,ymm12,ymmword ptr [.rdata+40h]
                    00 00 00
  0000000000009B98: C4 41 3D FE C4     vpaddd      ymm8,ymm8,ymm12
  0000000000009B9D: C4 C1 5D EF E0     vpxor       ymm4,ymm4,ymm8
  0000000000009BA2: C5 E5 72 D4 14     vpsrld      ymm3,ymm4,14h
  0000000000009BA7: C5 DD 72 F4 0C     vpslld      ymm4,ymm4,0Ch
  0000000000009BAC: C5 DD EF E3        vpxor       ymm4,ymm4,ymm3
  0000000000009BB0: C5 FD FE C4        vpaddd      ymm0,ymm0,ymm4
  0000000000009BB4: C5 1D EF E0        vpxor       ymm12,ymm12,ymm0
  0000000000009BB8: C4 62 1D 00 25 20  vpshufb     ymm12,ymm12,ymmword ptr [.rdata+20h]
                    00 00 00
  0000000000009BC1: C4 41 3D FE C4     vpaddd      ymm8,ymm8,ymm12
  0000000000009BC6: C4 C1 5D EF E0     vpxor       ymm4,ymm4,ymm8
  0000000000009BCB: C5 E5 72 F4 07     vpslld      ymm3,ymm4,7
  0000000000009BD0: C5 DD 72 D4 19     vpsrld      ymm4,ymm4,19h
  0000000000009BD5: C5 DD EF E3        vpxor       ymm4,ymm4,ymm3
  0000000000009BD9: C4 43 1D 0F E4 0C  vpalignr    ymm12,ymm12,ymm12,0Ch
  0000000000009BDF: C4 43 3D 0F C0 08  vpalignr    ymm8,ymm8,ymm8,8
  0000000000009BE5: C4 E3 5D 0F E4 04  vpalignr    ymm4,ymm4,ymm4,4
  0000000000009BEB: C5 F5 FE CD        vpaddd      ymm1,ymm1,ymm5
  0000000000009BEF: C5 15 EF E9        vpxor       ymm13,ymm13,ymm1
  0000000000009BF3: C4 62 15 00 2D 40  vpshufb     ymm13,ymm13,ymmword ptr [.rdata+40h]
                    00 00 00
  0000000000009BFC: C4 41 35 FE CD     vpaddd      ymm9,ymm9,ymm13
  0000000000009C01: C4 C1 55 EF E9     vpxor       ymm5,ymm5,ymm9
  0000000000009C06: C5 E5 72 D5 14     vpsrld      ymm3,ymm5,14h
  0000000000009C0B: C5 D5 72 F5 0C     vpslld      ymm5,ymm5,0Ch
  0000000000009C10: C5 D5 EF EB        vpxor       ymm5,ymm5,ymm3
  0000000000009C14: C5 F5 FE CD        vpaddd      ymm1,ymm1,ymm5
  0000000000009C18: C5 15 EF E9        vpxor       ymm13,ymm13,ymm1
  0000000000009C1C: C4 62 15 00 2D 20  vpshufb     ymm13,ymm13,ymmword ptr [.rdata+20h]
                    00 00 00
  0000000000009C25: C4 41 35 FE CD     vpaddd      ymm9,ymm9,ymm13
  0000000000009C2A: C4 C1 55 EF E9     vpxor       ymm5,ymm5,ymm9
  0000000000009C2F: C5 E5 72 F5 07     vpslld      ymm3,ymm5,7
  0000000000009C34: C5 D5 72 D5 19     vpsrld      ymm5,ymm5,19h
  0000000000009C39: C5 D5 EF EB        vpxor       ymm5,ymm5,ymm3
  0000000000009C3D: C4 43 15 0F ED 0C  vpalignr    ymm13,ymm13,ymm13,0Ch
  0000000000009C43: C4 43 35 0F C9 08  vpalignr    ymm9,ymm9,ymm9,8
  0000000000009C49: C4 E3 55 0F ED 04  vpalignr    ymm5,ymm5,ymm5,4
  0000000000009C4F: C5 ED FE D6        vpaddd      ymm2,ymm2,ymm6
  0000000000009C53: C5 0D EF F2        vpxor       ymm14,ymm14,ymm2
  0000000000009C57: C4 62 0D 00 35 40  vpshufb     ymm14,ymm14,ymmword ptr [.rdata+40h]
                    00 00 00
  0000000000009C60: C4 41 2D FE D6     vpaddd      ymm10,ymm10,ymm14
  0000000000009C65: C4 C1 4D EF F2     vpxor       ymm6,ymm6,ymm10
  0000000000009C6A: C5 E5 72 D6 14     vpsrld      ymm3,ymm6,14h
  0000000000009C6F: C5 CD 72 F6 0C     vpslld      ymm6,ymm6,0Ch
  0000000000009C74: C5 CD EF F3        vpxor       ymm6,ymm6,ymm3
  0000000000009C78: C5 ED FE D6        vpaddd      ymm2,ymm2,ymm6
  0000000000009C7C: C5 0D EF F2        vpxor       ymm14,ymm14,ymm2
  0000000000009C80: C4 62 0D 00 35 20  vpshufb     ymm14,ymm14,ymmword ptr [.rdata+20h]
                    00 00 00
  0000000000009C89: C4 41 2D FE D6     vpaddd      ymm10,ymm10,ymm14
  0000000000009C8E: C4 C1 4D EF F2     vpxor       ymm6,ymm6,ymm10
  0000000000009C93: C5 E5 72 F6 07     vpslld      ymm3,ymm6,7
  0000000000009C98: C5 CD 72 D6 19     vpsrld      ymm6,ymm6,19h
  0000000000009C9D: C5 CD EF F3        vpxor       ymm6,ymm6,ymm3
  0000000000009CA1: C4 43 0D 0F F6 0C  vpalignr    ymm14,ymm14,ymm14,0Ch
  0000000000009CA7: C4 43 2D 0F D2 08  vpalignr    ymm10,ymm10,ymm10,8
  0000000000009CAD: C4 E3 4D 0F F6 04  vpalignr    ymm6,ymm6,ymm6,4
  0000000000009CB3: C5 FD FE C4        vpaddd      ymm0,ymm0,ymm4
  0000000000009CB7: C5 1D EF E0        vpxor       ymm12,ymm12,ymm0
  0000000000009CBB: C4 62 1D 00 25 40  vpshufb     ymm12,ymm12,ymmword ptr [.rdata+40h]
                    00 00 00
  0000000000009CC4: C4 41 3D FE C4     vpaddd      ymm8,ymm8,ymm12
  0000000000009CC9: C4 C1 5D EF E0     vpxor       ymm4,ymm4,ymm8
  0000000000009CCE: C5 E5 72 D4 14     vpsrld      ymm3,ymm4,14h
  0000000000009CD3: C5 DD 72 F4 0C     vpslld      ymm4,ymm4,0Ch
  0000000000009CD8: C5 DD EF E3        vpxor       ymm4,ymm4,ymm3
  0000000000009CDC: C5 FD FE C4        vpaddd      ymm0,ymm0,ymm4
  0000000000009CE0: C5 1D EF E0        vpxor       ymm12,ymm12,ymm0
  0000000000009CE4: C4 62 1D 00 25 20  vpshufb     ymm12,ymm12,ymmword ptr [.rdata+20h]
                    00 00 00
  0000000000009CED: C4 41 3D FE C4     vpaddd      ymm8,ymm8,ymm12
  0000000000009CF2: C4 C1 5D EF E0     vpxor       ymm4,ymm4,ymm8
  0000000000009CF7: C5 E5 72 F4 07     vpslld      ymm3,ymm4,7
  0000000000009CFC: C5 DD 72 D4 19     vpsrld      ymm4,ymm4,19h
  0000000000009D01: C5 DD EF E3        vpxor       ymm4,ymm4,ymm3
  0000000000009D05: C4 43 1D 0F E4 04  vpalignr    ymm12,ymm12,ymm12,4
  0000000000009D0B: C4 43 3D 0F C0 08  vpalignr    ymm8,ymm8,ymm8,8
  0000000000009D11: C4 E3 5D 0F E4 0C  vpalignr    ymm4,ymm4,ymm4,0Ch
  0000000000009D17: C5 F5 FE CD        vpaddd      ymm1,ymm1,ymm5
  0000000000009D1B: C5 15 EF E9        vpxor       ymm13,ymm13,ymm1
  0000000000009D1F: C4 62 15 00 2D 40  vpshufb     ymm13,ymm13,ymmword ptr [.rdata+40h]
                    00 00 00
  0000000000009D28: C4 41 35 FE CD     vpaddd      ymm9,ymm9,ymm13
  0000000000009D2D: C4 C1 55 EF E9     vpxor       ymm5,ymm5,ymm9
  0000000000009D32: C5 E5 72 D5 14     vpsrld      ymm3,ymm5,14h
  0000000000009D37: C5 D5 72 F5 0C     vpslld      ymm5,ymm5,0Ch
  0000000000009D3C: C5 D5 EF EB        vpxor       ymm5,ymm5,ymm3
  0000000000009D40: C5 F5 FE CD        vpaddd      ymm1,ymm1,ymm5
  0000000000009D44: C5 15 EF E9        vpxor       ymm13,ymm13,ymm1
  0000000000009D48: C4 62 15 00 2D 20  vpshufb     ymm13,ymm13,ymmword ptr [.rdata+20h]
                    00 00 00
  0000000000009D51: C4 41 35 FE CD     vpaddd      ymm9,ymm9,ymm13
  0000000000009D56: C4 C1 55 EF E9     vpxor       ymm5,ymm5,ymm9
  0000000000009D5B: C5 E5 72 F5 07     vpslld      ymm3,ymm5,7
  0000000000009D60: C5 D5 72 D5 19     vpsrld      ymm5,ymm5,19h
  0000000000009D65: C5 D5 EF EB        vpxor       ymm5,ymm5,ymm3
  0000000000009D69: C4 43 15 0F ED 04  vpalignr    ymm13,ymm13,ymm13,4
  0000000000009D6F: C4 43 35 0F C9 08  vpalignr    ymm9,ymm9,ymm9,8
  0000000000009D75: C4 E3 55 0F ED 0C  vpalignr    ymm5,ymm5,ymm5,0Ch
  0000000000009D7B: C5 ED FE D6        vpaddd      ymm2,ymm2,ymm6
  0000000000009D7F: C5 0D EF F2        vpxor       ymm14,ymm14,ymm2
  0000000000009D83: C4 62 0D 00 35 40  vpshufb     ymm14,ymm14,ymmword ptr [.rdata+40h]
                    00 00 00
  0000000000009D8C: C4 41 2D FE D6     vpaddd      ymm10,ymm10,ymm14
  0000000000009D91: C4 C1 4D EF F2     vpxor       ymm6,ymm6,ymm10
  0000000000009D96: C5 E5 72 D6 14     vpsrld      ymm3,ymm6,14h
  0000000000009D9B: C5 CD 72 F6 0C     vpslld      ymm6,ymm6,0Ch
  0000000000009DA0: C5 CD EF F3        vpxor       ymm6,ymm6,ymm3
  0000000000009DA4: C5 ED FE D6        vpaddd      ymm2,ymm2,ymm6
  0000000000009DA8: C5 0D EF F2        vpxor       ymm14,ymm14,ymm2
  0000000000009DAC: C4 62 0D 00 35 20  vpshufb     ymm14,ymm14,ymmword ptr [.rdata+20h]
                    00 00 00
  0000000000009DB5: C4 41 2D FE D6     vpaddd      ymm10,ymm10,ymm14
  0000000000009DBA: C4 C1 4D EF F2     vpxor       ymm6,ymm6,ymm10
  0000000000009DBF: C5 E5 72 F6 07     vpslld      ymm3,ymm6,7
  0000000000009DC4: C5 CD 72 D6 19     vpsrld      ymm6,ymm6,19h
  0000000000009DC9: C5 CD EF F3        vpxor       ymm6,ymm6,ymm3
  0000000000009DCD: C4 43 0D 0F F6 04  vpalignr    ymm14,ymm14,ymm14,4
  0000000000009DD3: C4 43 2D 0F D2 08  vpalignr    ymm10,ymm10,ymm10,8
  0000000000009DD9: C4 E3 4D 0F F6 0C  vpalignr    ymm6,ymm6,ymm6,0Ch
  0000000000009DDF: 49 FF CA           dec         r10
  0000000000009DE2: 0F 85 9F FD FF FF  jne         L$seal_avx2_320_rounds
  0000000000009DE8: C5 FD FE 05 00 00  vpaddd      ymm0,ymm0,ymmword ptr [.rdata]
                    00 00
  0000000000009DF0: C5 F5 FE 0D 00 00  vpaddd      ymm1,ymm1,ymmword ptr [.rdata]
                    00 00
  0000000000009DF8: C5 ED FE 15 00 00  vpaddd      ymm2,ymm2,ymmword ptr [.rdata]
                    00 00
  0000000000009E00: C5 DD FE E7        vpaddd      ymm4,ymm4,ymm7
  0000000000009E04: C5 D5 FE EF        vpaddd      ymm5,ymm5,ymm7
  0000000000009E08: C5 CD FE F7        vpaddd      ymm6,ymm6,ymm7
  0000000000009E0C: C4 41 3D FE C3     vpaddd      ymm8,ymm8,ymm11
  0000000000009E11: C4 41 35 FE CB     vpaddd      ymm9,ymm9,ymm11
  0000000000009E16: C4 41 2D FE D3     vpaddd      ymm10,ymm10,ymm11
  0000000000009E1B: C5 1D FE A5 40 01  vpaddd      ymm12,ymm12,ymmword ptr [rbp+140h]
                    00 00
  0000000000009E23: C5 15 FE AD 60 01  vpaddd      ymm13,ymm13,ymmword ptr [rbp+160h]
                    00 00
  0000000000009E2B: C5 0D FE B5 80 01  vpaddd      ymm14,ymm14,ymmword ptr [rbp+180h]
                    00 00
  0000000000009E33: C4 E3 5D 46 D8 02  vperm2i128  ymm3,ymm4,ymm0,2
  0000000000009E39: C5 E5 DB 1D A0 00  vpand       ymm3,ymm3,ymmword ptr [.rdata+0A0h]
                    00 00
  0000000000009E41: C5 FD 7F 9D A0 00  vmovdqa     ymmword ptr [rbp+0A0h],ymm3
                    00 00
  0000000000009E49: C4 E3 5D 46 C0 13  vperm2i128  ymm0,ymm4,ymm0,13h
  0000000000009E4F: C4 C3 1D 46 E0 13  vperm2i128  ymm4,ymm12,ymm8,13h
  0000000000009E55: C4 63 55 46 C1 02  vperm2i128  ymm8,ymm5,ymm1,2
  0000000000009E5B: C4 43 15 46 E1 02  vperm2i128  ymm12,ymm13,ymm9,2
  0000000000009E61: C4 E3 55 46 C9 13  vperm2i128  ymm1,ymm5,ymm1,13h
  0000000000009E67: C4 C3 15 46 E9 13  vperm2i128  ymm5,ymm13,ymm9,13h
  0000000000009E6D: C4 63 4D 46 CA 02  vperm2i128  ymm9,ymm6,ymm2,2
  0000000000009E73: C4 43 0D 46 EA 02  vperm2i128  ymm13,ymm14,ymm10,2
  0000000000009E79: C4 E3 4D 46 D2 13  vperm2i128  ymm2,ymm6,ymm2,13h
  0000000000009E7F: C4 C3 0D 46 F2 13  vperm2i128  ymm6,ymm14,ymm10,13h
  0000000000009E85: E9 29 02 00 00     jmp         L$seal_avx2_short
L$seal_avx2_192:
  0000000000009E8A: C5 FD 6F C8        vmovdqa     ymm1,ymm0
  0000000000009E8E: C5 FD 6F D0        vmovdqa     ymm2,ymm0
  0000000000009E92: C5 FD 6F EC        vmovdqa     ymm5,ymm4
  0000000000009E96: C5 FD 6F F4        vmovdqa     ymm6,ymm4
  0000000000009E9A: C4 41 7D 6F C8     vmovdqa     ymm9,ymm8
  0000000000009E9F: C4 41 7D 6F D0     vmovdqa     ymm10,ymm8
  0000000000009EA4: C5 1D FE 2D 80 00  vpaddd      ymm13,ymm12,ymmword ptr [.rdata+80h]
                    00 00
  0000000000009EAC: C4 41 7D 6F DC     vmovdqa     ymm11,ymm12
  0000000000009EB1: C4 41 7D 6F FD     vmovdqa     ymm15,ymm13
  0000000000009EB6: 41 BA 0A 00 00 00  mov         r10d,0Ah
L$seal_avx2_192_rounds:
  0000000000009EBC: C5 FD FE C4        vpaddd      ymm0,ymm0,ymm4
  0000000000009EC0: C5 1D EF E0        vpxor       ymm12,ymm12,ymm0
  0000000000009EC4: C4 62 1D 00 25 40  vpshufb     ymm12,ymm12,ymmword ptr [.rdata+40h]
                    00 00 00
  0000000000009ECD: C4 41 3D FE C4     vpaddd      ymm8,ymm8,ymm12
  0000000000009ED2: C4 C1 5D EF E0     vpxor       ymm4,ymm4,ymm8
  0000000000009ED7: C5 E5 72 D4 14     vpsrld      ymm3,ymm4,14h
  0000000000009EDC: C5 DD 72 F4 0C     vpslld      ymm4,ymm4,0Ch
  0000000000009EE1: C5 DD EF E3        vpxor       ymm4,ymm4,ymm3
  0000000000009EE5: C5 FD FE C4        vpaddd      ymm0,ymm0,ymm4
  0000000000009EE9: C5 1D EF E0        vpxor       ymm12,ymm12,ymm0
  0000000000009EED: C4 62 1D 00 25 20  vpshufb     ymm12,ymm12,ymmword ptr [.rdata+20h]
                    00 00 00
  0000000000009EF6: C4 41 3D FE C4     vpaddd      ymm8,ymm8,ymm12
  0000000000009EFB: C4 C1 5D EF E0     vpxor       ymm4,ymm4,ymm8
  0000000000009F00: C5 E5 72 F4 07     vpslld      ymm3,ymm4,7
  0000000000009F05: C5 DD 72 D4 19     vpsrld      ymm4,ymm4,19h
  0000000000009F0A: C5 DD EF E3        vpxor       ymm4,ymm4,ymm3
  0000000000009F0E: C4 43 1D 0F E4 0C  vpalignr    ymm12,ymm12,ymm12,0Ch
  0000000000009F14: C4 43 3D 0F C0 08  vpalignr    ymm8,ymm8,ymm8,8
  0000000000009F1A: C4 E3 5D 0F E4 04  vpalignr    ymm4,ymm4,ymm4,4
  0000000000009F20: C5 F5 FE CD        vpaddd      ymm1,ymm1,ymm5
  0000000000009F24: C5 15 EF E9        vpxor       ymm13,ymm13,ymm1
  0000000000009F28: C4 62 15 00 2D 40  vpshufb     ymm13,ymm13,ymmword ptr [.rdata+40h]
                    00 00 00
  0000000000009F31: C4 41 35 FE CD     vpaddd      ymm9,ymm9,ymm13
  0000000000009F36: C4 C1 55 EF E9     vpxor       ymm5,ymm5,ymm9
  0000000000009F3B: C5 E5 72 D5 14     vpsrld      ymm3,ymm5,14h
  0000000000009F40: C5 D5 72 F5 0C     vpslld      ymm5,ymm5,0Ch
  0000000000009F45: C5 D5 EF EB        vpxor       ymm5,ymm5,ymm3
  0000000000009F49: C5 F5 FE CD        vpaddd      ymm1,ymm1,ymm5
  0000000000009F4D: C5 15 EF E9        vpxor       ymm13,ymm13,ymm1
  0000000000009F51: C4 62 15 00 2D 20  vpshufb     ymm13,ymm13,ymmword ptr [.rdata+20h]
                    00 00 00
  0000000000009F5A: C4 41 35 FE CD     vpaddd      ymm9,ymm9,ymm13
  0000000000009F5F: C4 C1 55 EF E9     vpxor       ymm5,ymm5,ymm9
  0000000000009F64: C5 E5 72 F5 07     vpslld      ymm3,ymm5,7
  0000000000009F69: C5 D5 72 D5 19     vpsrld      ymm5,ymm5,19h
  0000000000009F6E: C5 D5 EF EB        vpxor       ymm5,ymm5,ymm3
  0000000000009F72: C4 43 15 0F ED 0C  vpalignr    ymm13,ymm13,ymm13,0Ch
  0000000000009F78: C4 43 35 0F C9 08  vpalignr    ymm9,ymm9,ymm9,8
  0000000000009F7E: C4 E3 55 0F ED 04  vpalignr    ymm5,ymm5,ymm5,4
  0000000000009F84: C5 FD FE C4        vpaddd      ymm0,ymm0,ymm4
  0000000000009F88: C5 1D EF E0        vpxor       ymm12,ymm12,ymm0
  0000000000009F8C: C4 62 1D 00 25 40  vpshufb     ymm12,ymm12,ymmword ptr [.rdata+40h]
                    00 00 00
  0000000000009F95: C4 41 3D FE C4     vpaddd      ymm8,ymm8,ymm12
  0000000000009F9A: C4 C1 5D EF E0     vpxor       ymm4,ymm4,ymm8
  0000000000009F9F: C5 E5 72 D4 14     vpsrld      ymm3,ymm4,14h
  0000000000009FA4: C5 DD 72 F4 0C     vpslld      ymm4,ymm4,0Ch
  0000000000009FA9: C5 DD EF E3        vpxor       ymm4,ymm4,ymm3
  0000000000009FAD: C5 FD FE C4        vpaddd      ymm0,ymm0,ymm4
  0000000000009FB1: C5 1D EF E0        vpxor       ymm12,ymm12,ymm0
  0000000000009FB5: C4 62 1D 00 25 20  vpshufb     ymm12,ymm12,ymmword ptr [.rdata+20h]
                    00 00 00
  0000000000009FBE: C4 41 3D FE C4     vpaddd      ymm8,ymm8,ymm12
  0000000000009FC3: C4 C1 5D EF E0     vpxor       ymm4,ymm4,ymm8
  0000000000009FC8: C5 E5 72 F4 07     vpslld      ymm3,ymm4,7
  0000000000009FCD: C5 DD 72 D4 19     vpsrld      ymm4,ymm4,19h
  0000000000009FD2: C5 DD EF E3        vpxor       ymm4,ymm4,ymm3
  0000000000009FD6: C4 43 1D 0F E4 04  vpalignr    ymm12,ymm12,ymm12,4
  0000000000009FDC: C4 43 3D 0F C0 08  vpalignr    ymm8,ymm8,ymm8,8
  0000000000009FE2: C4 E3 5D 0F E4 0C  vpalignr    ymm4,ymm4,ymm4,0Ch
  0000000000009FE8: C5 F5 FE CD        vpaddd      ymm1,ymm1,ymm5
  0000000000009FEC: C5 15 EF E9        vpxor       ymm13,ymm13,ymm1
  0000000000009FF0: C4 62 15 00 2D 40  vpshufb     ymm13,ymm13,ymmword ptr [.rdata+40h]
                    00 00 00
  0000000000009FF9: C4 41 35 FE CD     vpaddd      ymm9,ymm9,ymm13
  0000000000009FFE: C4 C1 55 EF E9     vpxor       ymm5,ymm5,ymm9
  000000000000A003: C5 E5 72 D5 14     vpsrld      ymm3,ymm5,14h
  000000000000A008: C5 D5 72 F5 0C     vpslld      ymm5,ymm5,0Ch
  000000000000A00D: C5 D5 EF EB        vpxor       ymm5,ymm5,ymm3
  000000000000A011: C5 F5 FE CD        vpaddd      ymm1,ymm1,ymm5
  000000000000A015: C5 15 EF E9        vpxor       ymm13,ymm13,ymm1
  000000000000A019: C4 62 15 00 2D 20  vpshufb     ymm13,ymm13,ymmword ptr [.rdata+20h]
                    00 00 00
  000000000000A022: C4 41 35 FE CD     vpaddd      ymm9,ymm9,ymm13
  000000000000A027: C4 C1 55 EF E9     vpxor       ymm5,ymm5,ymm9
  000000000000A02C: C5 E5 72 F5 07     vpslld      ymm3,ymm5,7
  000000000000A031: C5 D5 72 D5 19     vpsrld      ymm5,ymm5,19h
  000000000000A036: C5 D5 EF EB        vpxor       ymm5,ymm5,ymm3
  000000000000A03A: C4 43 15 0F ED 04  vpalignr    ymm13,ymm13,ymm13,4
  000000000000A040: C4 43 35 0F C9 08  vpalignr    ymm9,ymm9,ymm9,8
  000000000000A046: C4 E3 55 0F ED 0C  vpalignr    ymm5,ymm5,ymm5,0Ch
  000000000000A04C: 49 FF CA           dec         r10
  000000000000A04F: 0F 85 67 FE FF FF  jne         L$seal_avx2_192_rounds
  000000000000A055: C5 FD FE C2        vpaddd      ymm0,ymm0,ymm2
  000000000000A059: C5 F5 FE CA        vpaddd      ymm1,ymm1,ymm2
  000000000000A05D: C5 DD FE E6        vpaddd      ymm4,ymm4,ymm6
  000000000000A061: C5 D5 FE EE        vpaddd      ymm5,ymm5,ymm6
  000000000000A065: C4 41 3D FE C2     vpaddd      ymm8,ymm8,ymm10
  000000000000A06A: C4 41 35 FE CA     vpaddd      ymm9,ymm9,ymm10
  000000000000A06F: C4 41 1D FE E3     vpaddd      ymm12,ymm12,ymm11
  000000000000A074: C4 41 15 FE EF     vpaddd      ymm13,ymm13,ymm15
  000000000000A079: C4 E3 5D 46 D8 02  vperm2i128  ymm3,ymm4,ymm0,2
  000000000000A07F: C5 E5 DB 1D A0 00  vpand       ymm3,ymm3,ymmword ptr [.rdata+0A0h]
                    00 00
  000000000000A087: C5 FD 7F 9D A0 00  vmovdqa     ymmword ptr [rbp+0A0h],ymm3
                    00 00
  000000000000A08F: C4 E3 5D 46 C0 13  vperm2i128  ymm0,ymm4,ymm0,13h
  000000000000A095: C4 C3 1D 46 E0 13  vperm2i128  ymm4,ymm12,ymm8,13h
  000000000000A09B: C4 63 55 46 C1 02  vperm2i128  ymm8,ymm5,ymm1,2
  000000000000A0A1: C4 43 15 46 E1 02  vperm2i128  ymm12,ymm13,ymm9,2
  000000000000A0A7: C4 E3 55 46 C9 13  vperm2i128  ymm1,ymm5,ymm1,13h
  000000000000A0AD: C4 C3 15 46 E9 13  vperm2i128  ymm5,ymm13,ymm9,13h
L$seal_avx2_short:
  000000000000A0B3: 4D 89 C0           mov         r8,r8
  000000000000A0B6: E8 45 5F FF FF     call        poly_hash_ad_internal
  000000000000A0BB: 48 31 C9           xor         rcx,rcx
L$seal_avx2_short_hash_remainder:
  000000000000A0BE: 48 83 F9 10        cmp         rcx,10h
  000000000000A0C2: 0F 82 A1 00 00 00  jb          L$seal_avx2_short_loop
  000000000000A0C8: 4C 03 17           add         r10,qword ptr [rdi]
  000000000000A0CB: 4C 13 5F 08        adc         r11,qword ptr [rdi+8]
  000000000000A0CF: 49 83 D4 01        adc         r12,1
  000000000000A0D3: 48 8B 85 A0 00 00  mov         rax,qword ptr [rbp+0A0h]
                    00
  000000000000A0DA: 49 89 C7           mov         r15,rax
  000000000000A0DD: 49 F7 E2           mul         rax,r10
  000000000000A0E0: 49 89 C5           mov         r13,rax
  000000000000A0E3: 49 89 D6           mov         r14,rdx
  000000000000A0E6: 48 8B 85 A0 00 00  mov         rax,qword ptr [rbp+0A0h]
                    00
  000000000000A0ED: 49 F7 E3           mul         rax,r11
  000000000000A0F0: 4D 0F AF FC        imul        r15,r12
  000000000000A0F4: 49 01 C6           add         r14,rax
  000000000000A0F7: 49 11 D7           adc         r15,rdx
  000000000000A0FA: 48 8B 85 A8 00 00  mov         rax,qword ptr [rbp+0A8h]
                    00
  000000000000A101: 49 89 C1           mov         r9,rax
  000000000000A104: 49 F7 E2           mul         rax,r10
  000000000000A107: 49 01 C6           add         r14,rax
  000000000000A10A: 48 83 D2 00        adc         rdx,0
  000000000000A10E: 49 89 D2           mov         r10,rdx
  000000000000A111: 48 8B 85 A8 00 00  mov         rax,qword ptr [rbp+0A8h]
                    00
  000000000000A118: 49 F7 E3           mul         rax,r11
  000000000000A11B: 49 01 C7           add         r15,rax
  000000000000A11E: 48 83 D2 00        adc         rdx,0
  000000000000A122: 4D 0F AF CC        imul        r9,r12
  000000000000A126: 4D 01 D7           add         r15,r10
  000000000000A129: 49 11 D1           adc         r9,rdx
  000000000000A12C: 4D 89 EA           mov         r10,r13
  000000000000A12F: 4D 89 F3           mov         r11,r14
  000000000000A132: 4D 89 FC           mov         r12,r15
  000000000000A135: 49 83 E4 03        and         r12,3
  000000000000A139: 4D 89 FD           mov         r13,r15
  000000000000A13C: 49 83 E5 FC        and         r13,0FFFFFFFFFFFFFFFCh
  000000000000A140: 4D 89 CE           mov         r14,r9
  000000000000A143: 4D 0F AC CF 02     shrd        r15,r9,2
  000000000000A148: 49 C1 E9 02        shr         r9,2
  000000000000A14C: 4D 01 EF           add         r15,r13
  000000000000A14F: 4D 11 F1           adc         r9,r14
  000000000000A152: 4D 01 FA           add         r10,r15
  000000000000A155: 4D 11 CB           adc         r11,r9
  000000000000A158: 49 83 D4 00        adc         r12,0
  000000000000A15C: 48 83 E9 10        sub         rcx,10h
  000000000000A160: 48 83 C7 10        add         rdi,10h
  000000000000A164: E9 55 FF FF FF     jmp         L$seal_avx2_short_hash_remainder
L$seal_avx2_short_loop:
  000000000000A169: 48 83 FB 20        cmp         rbx,20h
  000000000000A16D: 0F 82 6A 01 00 00  jb          L$seal_avx2_short_tail
  000000000000A173: 48 83 EB 20        sub         rbx,20h
  000000000000A177: C5 FD EF 06        vpxor       ymm0,ymm0,ymmword ptr [rsi]
  000000000000A17B: C5 FE 7F 07        vmovdqu     ymmword ptr [rdi],ymm0
  000000000000A17F: 48 8D 76 20        lea         rsi,[rsi+20h]
  000000000000A183: 4C 03 17           add         r10,qword ptr [rdi]
  000000000000A186: 4C 13 5F 08        adc         r11,qword ptr [rdi+8]
  000000000000A18A: 49 83 D4 01        adc         r12,1
  000000000000A18E: 48 8B 85 A0 00 00  mov         rax,qword ptr [rbp+0A0h]
                    00
  000000000000A195: 49 89 C7           mov         r15,rax
  000000000000A198: 49 F7 E2           mul         rax,r10
  000000000000A19B: 49 89 C5           mov         r13,rax
  000000000000A19E: 49 89 D6           mov         r14,rdx
  000000000000A1A1: 48 8B 85 A0 00 00  mov         rax,qword ptr [rbp+0A0h]
                    00
  000000000000A1A8: 49 F7 E3           mul         rax,r11
  000000000000A1AB: 4D 0F AF FC        imul        r15,r12
  000000000000A1AF: 49 01 C6           add         r14,rax
  000000000000A1B2: 49 11 D7           adc         r15,rdx
  000000000000A1B5: 48 8B 85 A8 00 00  mov         rax,qword ptr [rbp+0A8h]
                    00
  000000000000A1BC: 49 89 C1           mov         r9,rax
  000000000000A1BF: 49 F7 E2           mul         rax,r10
  000000000000A1C2: 49 01 C6           add         r14,rax
  000000000000A1C5: 48 83 D2 00        adc         rdx,0
  000000000000A1C9: 49 89 D2           mov         r10,rdx
  000000000000A1CC: 48 8B 85 A8 00 00  mov         rax,qword ptr [rbp+0A8h]
                    00
  000000000000A1D3: 49 F7 E3           mul         rax,r11
  000000000000A1D6: 49 01 C7           add         r15,rax
  000000000000A1D9: 48 83 D2 00        adc         rdx,0
  000000000000A1DD: 4D 0F AF CC        imul        r9,r12
  000000000000A1E1: 4D 01 D7           add         r15,r10
  000000000000A1E4: 49 11 D1           adc         r9,rdx
  000000000000A1E7: 4D 89 EA           mov         r10,r13
  000000000000A1EA: 4D 89 F3           mov         r11,r14
  000000000000A1ED: 4D 89 FC           mov         r12,r15
  000000000000A1F0: 49 83 E4 03        and         r12,3
  000000000000A1F4: 4D 89 FD           mov         r13,r15
  000000000000A1F7: 49 83 E5 FC        and         r13,0FFFFFFFFFFFFFFFCh
  000000000000A1FB: 4D 89 CE           mov         r14,r9
  000000000000A1FE: 4D 0F AC CF 02     shrd        r15,r9,2
  000000000000A203: 49 C1 E9 02        shr         r9,2
  000000000000A207: 4D 01 EF           add         r15,r13
  000000000000A20A: 4D 11 F1           adc         r9,r14
  000000000000A20D: 4D 01 FA           add         r10,r15
  000000000000A210: 4D 11 CB           adc         r11,r9
  000000000000A213: 49 83 D4 00        adc         r12,0
  000000000000A217: 4C 03 57 10        add         r10,qword ptr [rdi+10h]
  000000000000A21B: 4C 13 5F 18        adc         r11,qword ptr [rdi+18h]
  000000000000A21F: 49 83 D4 01        adc         r12,1
  000000000000A223: 48 8B 85 A0 00 00  mov         rax,qword ptr [rbp+0A0h]
                    00
  000000000000A22A: 49 89 C7           mov         r15,rax
  000000000000A22D: 49 F7 E2           mul         rax,r10
  000000000000A230: 49 89 C5           mov         r13,rax
  000000000000A233: 49 89 D6           mov         r14,rdx
  000000000000A236: 48 8B 85 A0 00 00  mov         rax,qword ptr [rbp+0A0h]
                    00
  000000000000A23D: 49 F7 E3           mul         rax,r11
  000000000000A240: 4D 0F AF FC        imul        r15,r12
  000000000000A244: 49 01 C6           add         r14,rax
  000000000000A247: 49 11 D7           adc         r15,rdx
  000000000000A24A: 48 8B 85 A8 00 00  mov         rax,qword ptr [rbp+0A8h]
                    00
  000000000000A251: 49 89 C1           mov         r9,rax
  000000000000A254: 49 F7 E2           mul         rax,r10
  000000000000A257: 49 01 C6           add         r14,rax
  000000000000A25A: 48 83 D2 00        adc         rdx,0
  000000000000A25E: 49 89 D2           mov         r10,rdx
  000000000000A261: 48 8B 85 A8 00 00  mov         rax,qword ptr [rbp+0A8h]
                    00
  000000000000A268: 49 F7 E3           mul         rax,r11
  000000000000A26B: 49 01 C7           add         r15,rax
  000000000000A26E: 48 83 D2 00        adc         rdx,0
  000000000000A272: 4D 0F AF CC        imul        r9,r12
  000000000000A276: 4D 01 D7           add         r15,r10
  000000000000A279: 49 11 D1           adc         r9,rdx
  000000000000A27C: 4D 89 EA           mov         r10,r13
  000000000000A27F: 4D 89 F3           mov         r11,r14
  000000000000A282: 4D 89 FC           mov         r12,r15
  000000000000A285: 49 83 E4 03        and         r12,3
  000000000000A289: 4D 89 FD           mov         r13,r15
  000000000000A28C: 49 83 E5 FC        and         r13,0FFFFFFFFFFFFFFFCh
  000000000000A290: 4D 89 CE           mov         r14,r9
  000000000000A293: 4D 0F AC CF 02     shrd        r15,r9,2
  000000000000A298: 49 C1 E9 02        shr         r9,2
  000000000000A29C: 4D 01 EF           add         r15,r13
  000000000000A29F: 4D 11 F1           adc         r9,r14
  000000000000A2A2: 4D 01 FA           add         r10,r15
  000000000000A2A5: 4D 11 CB           adc         r11,r9
  000000000000A2A8: 49 83 D4 00        adc         r12,0
  000000000000A2AC: 48 8D 7F 20        lea         rdi,[rdi+20h]
  000000000000A2B0: C5 FD 6F C4        vmovdqa     ymm0,ymm4
  000000000000A2B4: C4 C1 7D 6F E0     vmovdqa     ymm4,ymm8
  000000000000A2B9: C4 41 7D 6F C4     vmovdqa     ymm8,ymm12
  000000000000A2BE: C5 7D 6F E1        vmovdqa     ymm12,ymm1
  000000000000A2C2: C5 FD 6F CD        vmovdqa     ymm1,ymm5
  000000000000A2C6: C4 C1 7D 6F E9     vmovdqa     ymm5,ymm9
  000000000000A2CB: C4 41 7D 6F CD     vmovdqa     ymm9,ymm13
  000000000000A2D0: C5 7D 6F EA        vmovdqa     ymm13,ymm2
  000000000000A2D4: C5 FD 6F D6        vmovdqa     ymm2,ymm6
  000000000000A2D8: E9 8C FE FF FF     jmp         L$seal_avx2_short_loop
L$seal_avx2_short_tail:
  000000000000A2DD: 48 83 FB 10        cmp         rbx,10h
  000000000000A2E1: 0F 82 AE 00 00 00  jb          L$seal_avx2_exit
  000000000000A2E7: 48 83 EB 10        sub         rbx,10h
  000000000000A2EB: C5 F9 EF 1E        vpxor       xmm3,xmm0,xmmword ptr [rsi]
  000000000000A2EF: C5 FA 7F 1F        vmovdqu     xmmword ptr [rdi],xmm3
  000000000000A2F3: 48 8D 76 10        lea         rsi,[rsi+10h]
  000000000000A2F7: 4C 03 17           add         r10,qword ptr [rdi]
  000000000000A2FA: 4C 13 5F 08        adc         r11,qword ptr [rdi+8]
  000000000000A2FE: 49 83 D4 01        adc         r12,1
  000000000000A302: 48 8B 85 A0 00 00  mov         rax,qword ptr [rbp+0A0h]
                    00
  000000000000A309: 49 89 C7           mov         r15,rax
  000000000000A30C: 49 F7 E2           mul         rax,r10
  000000000000A30F: 49 89 C5           mov         r13,rax
  000000000000A312: 49 89 D6           mov         r14,rdx
  000000000000A315: 48 8B 85 A0 00 00  mov         rax,qword ptr [rbp+0A0h]
                    00
  000000000000A31C: 49 F7 E3           mul         rax,r11
  000000000000A31F: 4D 0F AF FC        imul        r15,r12
  000000000000A323: 49 01 C6           add         r14,rax
  000000000000A326: 49 11 D7           adc         r15,rdx
  000000000000A329: 48 8B 85 A8 00 00  mov         rax,qword ptr [rbp+0A8h]
                    00
  000000000000A330: 49 89 C1           mov         r9,rax
  000000000000A333: 49 F7 E2           mul         rax,r10
  000000000000A336: 49 01 C6           add         r14,rax
  000000000000A339: 48 83 D2 00        adc         rdx,0
  000000000000A33D: 49 89 D2           mov         r10,rdx
  000000000000A340: 48 8B 85 A8 00 00  mov         rax,qword ptr [rbp+0A8h]
                    00
  000000000000A347: 49 F7 E3           mul         rax,r11
  000000000000A34A: 49 01 C7           add         r15,rax
  000000000000A34D: 48 83 D2 00        adc         rdx,0
  000000000000A351: 4D 0F AF CC        imul        r9,r12
  000000000000A355: 4D 01 D7           add         r15,r10
  000000000000A358: 49 11 D1           adc         r9,rdx
  000000000000A35B: 4D 89 EA           mov         r10,r13
  000000000000A35E: 4D 89 F3           mov         r11,r14
  000000000000A361: 4D 89 FC           mov         r12,r15
  000000000000A364: 49 83 E4 03        and         r12,3
  000000000000A368: 4D 89 FD           mov         r13,r15
  000000000000A36B: 49 83 E5 FC        and         r13,0FFFFFFFFFFFFFFFCh
  000000000000A36F: 4D 89 CE           mov         r14,r9
  000000000000A372: 4D 0F AC CF 02     shrd        r15,r9,2
  000000000000A377: 49 C1 E9 02        shr         r9,2
  000000000000A37B: 4D 01 EF           add         r15,r13
  000000000000A37E: 4D 11 F1           adc         r9,r14
  000000000000A381: 4D 01 FA           add         r10,r15
  000000000000A384: 4D 11 CB           adc         r11,r9
  000000000000A387: 49 83 D4 00        adc         r12,0
  000000000000A38B: 48 8D 7F 10        lea         rdi,[rdi+10h]
  000000000000A38F: C4 E3 7D 39 C0 01  vextracti128 xmm0,ymm0,1
L$seal_avx2_exit:
  000000000000A395: C5 F8 77           vzeroupper
  000000000000A398: E9 90 9F FF FF     jmp         L$seal_sse_tail_16

  Summary

          1C .debug$T
         1C0 .rdata
        A39D .text
