Copyright (C) Microsoft Corporation.  All rights reserved.


Dump of file p256-x86_64-asm.obj

File Type: COFF OBJECT

aws_lc_0_21_2_ecp_nistz256_neg:
  0000000000000000: 48 89 7C 24 08     mov         qword ptr [rsp+8],rdi
  0000000000000005: 48 89 74 24 10     mov         qword ptr [rsp+10h],rsi
  000000000000000A: 48 89 E0           mov         rax,rsp
L$SEH_begin_ecp_nistz256_neg:
  000000000000000D: 48 89 CF           mov         rdi,rcx
  0000000000000010: 48 89 D6           mov         rsi,rdx
  0000000000000013: 41 54              push        r12
  0000000000000015: 41 55              push        r13
L$neg_body:
  0000000000000017: 4D 31 C0           xor         r8,r8
  000000000000001A: 4D 31 C9           xor         r9,r9
  000000000000001D: 4D 31 D2           xor         r10,r10
  0000000000000020: 4D 31 DB           xor         r11,r11
  0000000000000023: 4D 31 ED           xor         r13,r13
  0000000000000026: 4C 2B 06           sub         r8,qword ptr [rsi]
  0000000000000029: 4C 1B 4E 08        sbb         r9,qword ptr [rsi+8]
  000000000000002D: 4C 1B 56 10        sbb         r10,qword ptr [rsi+10h]
  0000000000000031: 4C 89 C0           mov         rax,r8
  0000000000000034: 4C 1B 5E 18        sbb         r11,qword ptr [rsi+18h]
  0000000000000038: 48 8D 35 00 00 00  lea         rsi,[.rdata]
                    00
  000000000000003F: 4C 89 CA           mov         rdx,r9
  0000000000000042: 49 83 DD 00        sbb         r13,0
  0000000000000046: 4C 03 06           add         r8,qword ptr [rsi]
  0000000000000049: 4C 89 D1           mov         rcx,r10
  000000000000004C: 4C 13 4E 08        adc         r9,qword ptr [rsi+8]
  0000000000000050: 4C 13 56 10        adc         r10,qword ptr [rsi+10h]
  0000000000000054: 4D 89 DC           mov         r12,r11
  0000000000000057: 4C 13 5E 18        adc         r11,qword ptr [rsi+18h]
  000000000000005B: 4D 85 ED           test        r13,r13
  000000000000005E: 4C 0F 44 C0        cmove       r8,rax
  0000000000000062: 4C 0F 44 CA        cmove       r9,rdx
  0000000000000066: 4C 89 07           mov         qword ptr [rdi],r8
  0000000000000069: 4C 0F 44 D1        cmove       r10,rcx
  000000000000006D: 4C 89 4F 08        mov         qword ptr [rdi+8],r9
  0000000000000071: 4D 0F 44 DC        cmove       r11,r12
  0000000000000075: 4C 89 57 10        mov         qword ptr [rdi+10h],r10
  0000000000000079: 4C 89 5F 18        mov         qword ptr [rdi+18h],r11
  000000000000007D: 4C 8B 2C 24        mov         r13,qword ptr [rsp]
  0000000000000081: 4C 8B 64 24 08     mov         r12,qword ptr [rsp+8]
  0000000000000086: 48 8D 64 24 10     lea         rsp,[rsp+10h]
L$neg_epilogue:
  000000000000008B: 48 8B 7C 24 08     mov         rdi,qword ptr [rsp+8]
  0000000000000090: 48 8B 74 24 10     mov         rsi,qword ptr [rsp+10h]
  0000000000000095: F3 C3              rep ret
L$SEH_end_ecp_nistz256_neg:
  0000000000000097: 90                 nop
  0000000000000098: 90                 nop
  0000000000000099: 90                 nop
  000000000000009A: 90                 nop
  000000000000009B: 90                 nop
  000000000000009C: 90                 nop
  000000000000009D: 90                 nop
  000000000000009E: 90                 nop
  000000000000009F: 90                 nop
aws_lc_0_21_2_ecp_nistz256_ord_mul_mont:
  00000000000000A0: 48 89 7C 24 08     mov         qword ptr [rsp+8],rdi
  00000000000000A5: 48 89 74 24 10     mov         qword ptr [rsp+10h],rsi
  00000000000000AA: 48 89 E0           mov         rax,rsp
L$SEH_begin_ecp_nistz256_ord_mul_mont:
  00000000000000AD: 48 89 CF           mov         rdi,rcx
  00000000000000B0: 48 89 D6           mov         rsi,rdx
  00000000000000B3: 4C 89 C2           mov         rdx,r8
  00000000000000B6: 48 8D 0D 00 00 00  lea         rcx,[aws_lc_0_21_2_OPENSSL_ia32cap_P]
                    00
  00000000000000BD: 48 8B 49 08        mov         rcx,qword ptr [rcx+8]
  00000000000000C1: 81 E1 00 01 08 00  and         ecx,80100h
  00000000000000C7: 81 F9 00 01 08 00  cmp         ecx,80100h
  00000000000000CD: 0F 84 83 06 00 00  je          L$ecp_nistz256_ord_mul_montx
  00000000000000D3: 55                 push        rbp
  00000000000000D4: 53                 push        rbx
  00000000000000D5: 41 54              push        r12
  00000000000000D7: 41 55              push        r13
  00000000000000D9: 41 56              push        r14
  00000000000000DB: 41 57              push        r15
L$ord_mul_body:
  00000000000000DD: 48 8B 02           mov         rax,qword ptr [rdx]
  00000000000000E0: 48 89 D3           mov         rbx,rdx
  00000000000000E3: 4C 8D 35 A0 00 00  lea         r14,[.rdata+0A0h]
                    00
  00000000000000EA: 4C 8B 3D C0 00 00  mov         r15,qword ptr [.rdata+0C0h]
                    00
  00000000000000F1: 48 89 C1           mov         rcx,rax
  00000000000000F4: 48 F7 26           mul         rax,qword ptr [rsi]
  00000000000000F7: 49 89 C0           mov         r8,rax
  00000000000000FA: 48 89 C8           mov         rax,rcx
  00000000000000FD: 49 89 D1           mov         r9,rdx
  0000000000000100: 48 F7 66 08        mul         rax,qword ptr [rsi+8]
  0000000000000104: 49 01 C1           add         r9,rax
  0000000000000107: 48 89 C8           mov         rax,rcx
  000000000000010A: 48 83 D2 00        adc         rdx,0
  000000000000010E: 49 89 D2           mov         r10,rdx
  0000000000000111: 48 F7 66 10        mul         rax,qword ptr [rsi+10h]
  0000000000000115: 49 01 C2           add         r10,rax
  0000000000000118: 48 89 C8           mov         rax,rcx
  000000000000011B: 48 83 D2 00        adc         rdx,0
  000000000000011F: 4D 89 C5           mov         r13,r8
  0000000000000122: 4D 0F AF C7        imul        r8,r15
  0000000000000126: 49 89 D3           mov         r11,rdx
  0000000000000129: 48 F7 66 18        mul         rax,qword ptr [rsi+18h]
  000000000000012D: 49 01 C3           add         r11,rax
  0000000000000130: 4C 89 C0           mov         rax,r8
  0000000000000133: 48 83 D2 00        adc         rdx,0
  0000000000000137: 49 89 D4           mov         r12,rdx
  000000000000013A: 49 F7 26           mul         rax,qword ptr [r14]
  000000000000013D: 4C 89 C5           mov         rbp,r8
  0000000000000140: 49 01 C5           add         r13,rax
  0000000000000143: 4C 89 C0           mov         rax,r8
  0000000000000146: 48 83 D2 00        adc         rdx,0
  000000000000014A: 48 89 D1           mov         rcx,rdx
  000000000000014D: 4D 29 C2           sub         r10,r8
  0000000000000150: 49 83 D8 00        sbb         r8,0
  0000000000000154: 49 F7 66 08        mul         rax,qword ptr [r14+8]
  0000000000000158: 49 01 C9           add         r9,rcx
  000000000000015B: 48 83 D2 00        adc         rdx,0
  000000000000015F: 49 01 C1           add         r9,rax
  0000000000000162: 48 89 E8           mov         rax,rbp
  0000000000000165: 49 11 D2           adc         r10,rdx
  0000000000000168: 48 89 EA           mov         rdx,rbp
  000000000000016B: 49 83 D0 00        adc         r8,0
  000000000000016F: 48 C1 E0 20        shl         rax,20h
  0000000000000173: 48 C1 EA 20        shr         rdx,20h
  0000000000000177: 49 29 C3           sub         r11,rax
  000000000000017A: 48 8B 43 08        mov         rax,qword ptr [rbx+8]
  000000000000017E: 48 19 D5           sbb         rbp,rdx
  0000000000000181: 4D 01 C3           add         r11,r8
  0000000000000184: 49 11 EC           adc         r12,rbp
  0000000000000187: 49 83 D5 00        adc         r13,0
  000000000000018B: 48 89 C1           mov         rcx,rax
  000000000000018E: 48 F7 26           mul         rax,qword ptr [rsi]
  0000000000000191: 49 01 C1           add         r9,rax
  0000000000000194: 48 89 C8           mov         rax,rcx
  0000000000000197: 48 83 D2 00        adc         rdx,0
  000000000000019B: 48 89 D5           mov         rbp,rdx
  000000000000019E: 48 F7 66 08        mul         rax,qword ptr [rsi+8]
  00000000000001A2: 49 01 EA           add         r10,rbp
  00000000000001A5: 48 83 D2 00        adc         rdx,0
  00000000000001A9: 49 01 C2           add         r10,rax
  00000000000001AC: 48 89 C8           mov         rax,rcx
  00000000000001AF: 48 83 D2 00        adc         rdx,0
  00000000000001B3: 48 89 D5           mov         rbp,rdx
  00000000000001B6: 48 F7 66 10        mul         rax,qword ptr [rsi+10h]
  00000000000001BA: 49 01 EB           add         r11,rbp
  00000000000001BD: 48 83 D2 00        adc         rdx,0
  00000000000001C1: 49 01 C3           add         r11,rax
  00000000000001C4: 48 89 C8           mov         rax,rcx
  00000000000001C7: 48 83 D2 00        adc         rdx,0
  00000000000001CB: 4C 89 C9           mov         rcx,r9
  00000000000001CE: 4D 0F AF CF        imul        r9,r15
  00000000000001D2: 48 89 D5           mov         rbp,rdx
  00000000000001D5: 48 F7 66 18        mul         rax,qword ptr [rsi+18h]
  00000000000001D9: 49 01 EC           add         r12,rbp
  00000000000001DC: 48 83 D2 00        adc         rdx,0
  00000000000001E0: 4D 31 C0           xor         r8,r8
  00000000000001E3: 49 01 C4           add         r12,rax
  00000000000001E6: 4C 89 C8           mov         rax,r9
  00000000000001E9: 49 11 D5           adc         r13,rdx
  00000000000001EC: 49 83 D0 00        adc         r8,0
  00000000000001F0: 49 F7 26           mul         rax,qword ptr [r14]
  00000000000001F3: 4C 89 CD           mov         rbp,r9
  00000000000001F6: 48 01 C1           add         rcx,rax
  00000000000001F9: 4C 89 C8           mov         rax,r9
  00000000000001FC: 48 11 D1           adc         rcx,rdx
  00000000000001FF: 4D 29 CB           sub         r11,r9
  0000000000000202: 49 83 D9 00        sbb         r9,0
  0000000000000206: 49 F7 66 08        mul         rax,qword ptr [r14+8]
  000000000000020A: 49 01 CA           add         r10,rcx
  000000000000020D: 48 83 D2 00        adc         rdx,0
  0000000000000211: 49 01 C2           add         r10,rax
  0000000000000214: 48 89 E8           mov         rax,rbp
  0000000000000217: 49 11 D3           adc         r11,rdx
  000000000000021A: 48 89 EA           mov         rdx,rbp
  000000000000021D: 49 83 D1 00        adc         r9,0
  0000000000000221: 48 C1 E0 20        shl         rax,20h
  0000000000000225: 48 C1 EA 20        shr         rdx,20h
  0000000000000229: 49 29 C4           sub         r12,rax
  000000000000022C: 48 8B 43 10        mov         rax,qword ptr [rbx+10h]
  0000000000000230: 48 19 D5           sbb         rbp,rdx
  0000000000000233: 4D 01 CC           add         r12,r9
  0000000000000236: 49 11 ED           adc         r13,rbp
  0000000000000239: 49 83 D0 00        adc         r8,0
  000000000000023D: 48 89 C1           mov         rcx,rax
  0000000000000240: 48 F7 26           mul         rax,qword ptr [rsi]
  0000000000000243: 49 01 C2           add         r10,rax
  0000000000000246: 48 89 C8           mov         rax,rcx
  0000000000000249: 48 83 D2 00        adc         rdx,0
  000000000000024D: 48 89 D5           mov         rbp,rdx
  0000000000000250: 48 F7 66 08        mul         rax,qword ptr [rsi+8]
  0000000000000254: 49 01 EB           add         r11,rbp
  0000000000000257: 48 83 D2 00        adc         rdx,0
  000000000000025B: 49 01 C3           add         r11,rax
  000000000000025E: 48 89 C8           mov         rax,rcx
  0000000000000261: 48 83 D2 00        adc         rdx,0
  0000000000000265: 48 89 D5           mov         rbp,rdx
  0000000000000268: 48 F7 66 10        mul         rax,qword ptr [rsi+10h]
  000000000000026C: 49 01 EC           add         r12,rbp
  000000000000026F: 48 83 D2 00        adc         rdx,0
  0000000000000273: 49 01 C4           add         r12,rax
  0000000000000276: 48 89 C8           mov         rax,rcx
  0000000000000279: 48 83 D2 00        adc         rdx,0
  000000000000027D: 4C 89 D1           mov         rcx,r10
  0000000000000280: 4D 0F AF D7        imul        r10,r15
  0000000000000284: 48 89 D5           mov         rbp,rdx
  0000000000000287: 48 F7 66 18        mul         rax,qword ptr [rsi+18h]
  000000000000028B: 49 01 ED           add         r13,rbp
  000000000000028E: 48 83 D2 00        adc         rdx,0
  0000000000000292: 4D 31 C9           xor         r9,r9
  0000000000000295: 49 01 C5           add         r13,rax
  0000000000000298: 4C 89 D0           mov         rax,r10
  000000000000029B: 49 11 D0           adc         r8,rdx
  000000000000029E: 49 83 D1 00        adc         r9,0
  00000000000002A2: 49 F7 26           mul         rax,qword ptr [r14]
  00000000000002A5: 4C 89 D5           mov         rbp,r10
  00000000000002A8: 48 01 C1           add         rcx,rax
  00000000000002AB: 4C 89 D0           mov         rax,r10
  00000000000002AE: 48 11 D1           adc         rcx,rdx
  00000000000002B1: 4D 29 D4           sub         r12,r10
  00000000000002B4: 49 83 DA 00        sbb         r10,0
  00000000000002B8: 49 F7 66 08        mul         rax,qword ptr [r14+8]
  00000000000002BC: 49 01 CB           add         r11,rcx
  00000000000002BF: 48 83 D2 00        adc         rdx,0
  00000000000002C3: 49 01 C3           add         r11,rax
  00000000000002C6: 48 89 E8           mov         rax,rbp
  00000000000002C9: 49 11 D4           adc         r12,rdx
  00000000000002CC: 48 89 EA           mov         rdx,rbp
  00000000000002CF: 49 83 D2 00        adc         r10,0
  00000000000002D3: 48 C1 E0 20        shl         rax,20h
  00000000000002D7: 48 C1 EA 20        shr         rdx,20h
  00000000000002DB: 49 29 C5           sub         r13,rax
  00000000000002DE: 48 8B 43 18        mov         rax,qword ptr [rbx+18h]
  00000000000002E2: 48 19 D5           sbb         rbp,rdx
  00000000000002E5: 4D 01 D5           add         r13,r10
  00000000000002E8: 49 11 E8           adc         r8,rbp
  00000000000002EB: 49 83 D1 00        adc         r9,0
  00000000000002EF: 48 89 C1           mov         rcx,rax
  00000000000002F2: 48 F7 26           mul         rax,qword ptr [rsi]
  00000000000002F5: 49 01 C3           add         r11,rax
  00000000000002F8: 48 89 C8           mov         rax,rcx
  00000000000002FB: 48 83 D2 00        adc         rdx,0
  00000000000002FF: 48 89 D5           mov         rbp,rdx
  0000000000000302: 48 F7 66 08        mul         rax,qword ptr [rsi+8]
  0000000000000306: 49 01 EC           add         r12,rbp
  0000000000000309: 48 83 D2 00        adc         rdx,0
  000000000000030D: 49 01 C4           add         r12,rax
  0000000000000310: 48 89 C8           mov         rax,rcx
  0000000000000313: 48 83 D2 00        adc         rdx,0
  0000000000000317: 48 89 D5           mov         rbp,rdx
  000000000000031A: 48 F7 66 10        mul         rax,qword ptr [rsi+10h]
  000000000000031E: 49 01 ED           add         r13,rbp
  0000000000000321: 48 83 D2 00        adc         rdx,0
  0000000000000325: 49 01 C5           add         r13,rax
  0000000000000328: 48 89 C8           mov         rax,rcx
  000000000000032B: 48 83 D2 00        adc         rdx,0
  000000000000032F: 4C 89 D9           mov         rcx,r11
  0000000000000332: 4D 0F AF DF        imul        r11,r15
  0000000000000336: 48 89 D5           mov         rbp,rdx
  0000000000000339: 48 F7 66 18        mul         rax,qword ptr [rsi+18h]
  000000000000033D: 49 01 E8           add         r8,rbp
  0000000000000340: 48 83 D2 00        adc         rdx,0
  0000000000000344: 4D 31 D2           xor         r10,r10
  0000000000000347: 49 01 C0           add         r8,rax
  000000000000034A: 4C 89 D8           mov         rax,r11
  000000000000034D: 49 11 D1           adc         r9,rdx
  0000000000000350: 49 83 D2 00        adc         r10,0
  0000000000000354: 49 F7 26           mul         rax,qword ptr [r14]
  0000000000000357: 4C 89 DD           mov         rbp,r11
  000000000000035A: 48 01 C1           add         rcx,rax
  000000000000035D: 4C 89 D8           mov         rax,r11
  0000000000000360: 48 11 D1           adc         rcx,rdx
  0000000000000363: 4D 29 DD           sub         r13,r11
  0000000000000366: 49 83 DB 00        sbb         r11,0
  000000000000036A: 49 F7 66 08        mul         rax,qword ptr [r14+8]
  000000000000036E: 49 01 CC           add         r12,rcx
  0000000000000371: 48 83 D2 00        adc         rdx,0
  0000000000000375: 49 01 C4           add         r12,rax
  0000000000000378: 48 89 E8           mov         rax,rbp
  000000000000037B: 49 11 D5           adc         r13,rdx
  000000000000037E: 48 89 EA           mov         rdx,rbp
  0000000000000381: 49 83 D3 00        adc         r11,0
  0000000000000385: 48 C1 E0 20        shl         rax,20h
  0000000000000389: 48 C1 EA 20        shr         rdx,20h
  000000000000038D: 49 29 C0           sub         r8,rax
  0000000000000390: 48 19 D5           sbb         rbp,rdx
  0000000000000393: 4D 01 D8           add         r8,r11
  0000000000000396: 49 11 E9           adc         r9,rbp
  0000000000000399: 49 83 D2 00        adc         r10,0
  000000000000039D: 4C 89 E6           mov         rsi,r12
  00000000000003A0: 4D 2B 26           sub         r12,qword ptr [r14]
  00000000000003A3: 4D 89 EB           mov         r11,r13
  00000000000003A6: 4D 1B 6E 08        sbb         r13,qword ptr [r14+8]
  00000000000003AA: 4C 89 C1           mov         rcx,r8
  00000000000003AD: 4D 1B 46 10        sbb         r8,qword ptr [r14+10h]
  00000000000003B1: 4C 89 CD           mov         rbp,r9
  00000000000003B4: 4D 1B 4E 18        sbb         r9,qword ptr [r14+18h]
  00000000000003B8: 49 83 DA 00        sbb         r10,0
  00000000000003BC: 4C 0F 42 E6        cmovb       r12,rsi
  00000000000003C0: 4D 0F 42 EB        cmovb       r13,r11
  00000000000003C4: 4C 0F 42 C1        cmovb       r8,rcx
  00000000000003C8: 4C 0F 42 CD        cmovb       r9,rbp
  00000000000003CC: 4C 89 27           mov         qword ptr [rdi],r12
  00000000000003CF: 4C 89 6F 08        mov         qword ptr [rdi+8],r13
  00000000000003D3: 4C 89 47 10        mov         qword ptr [rdi+10h],r8
  00000000000003D7: 4C 89 4F 18        mov         qword ptr [rdi+18h],r9
  00000000000003DB: 4C 8B 3C 24        mov         r15,qword ptr [rsp]
  00000000000003DF: 4C 8B 74 24 08     mov         r14,qword ptr [rsp+8]
  00000000000003E4: 4C 8B 6C 24 10     mov         r13,qword ptr [rsp+10h]
  00000000000003E9: 4C 8B 64 24 18     mov         r12,qword ptr [rsp+18h]
  00000000000003EE: 48 8B 5C 24 20     mov         rbx,qword ptr [rsp+20h]
  00000000000003F3: 48 8B 6C 24 28     mov         rbp,qword ptr [rsp+28h]
  00000000000003F8: 48 8D 64 24 30     lea         rsp,[rsp+30h]
L$ord_mul_epilogue:
  00000000000003FD: 48 8B 7C 24 08     mov         rdi,qword ptr [rsp+8]
  0000000000000402: 48 8B 74 24 10     mov         rsi,qword ptr [rsp+10h]
  0000000000000407: F3 C3              rep ret
L$SEH_end_ecp_nistz256_ord_mul_mont:
  0000000000000409: 90                 nop
  000000000000040A: 90                 nop
  000000000000040B: 90                 nop
  000000000000040C: 90                 nop
  000000000000040D: 90                 nop
  000000000000040E: 90                 nop
  000000000000040F: 90                 nop
  0000000000000410: 90                 nop
  0000000000000411: 90                 nop
  0000000000000412: 90                 nop
  0000000000000413: 90                 nop
  0000000000000414: 90                 nop
  0000000000000415: 90                 nop
  0000000000000416: 90                 nop
  0000000000000417: 90                 nop
  0000000000000418: 90                 nop
  0000000000000419: 90                 nop
  000000000000041A: 90                 nop
  000000000000041B: 90                 nop
  000000000000041C: 90                 nop
  000000000000041D: 90                 nop
  000000000000041E: 90                 nop
  000000000000041F: 90                 nop
aws_lc_0_21_2_ecp_nistz256_ord_sqr_mont:
  0000000000000420: 48 89 7C 24 08     mov         qword ptr [rsp+8],rdi
  0000000000000425: 48 89 74 24 10     mov         qword ptr [rsp+10h],rsi
  000000000000042A: 48 89 E0           mov         rax,rsp
L$SEH_begin_ecp_nistz256_ord_sqr_mont:
  000000000000042D: 48 89 CF           mov         rdi,rcx
  0000000000000430: 48 89 D6           mov         rsi,rdx
  0000000000000433: 4C 89 C2           mov         rdx,r8
  0000000000000436: 48 8D 0D 00 00 00  lea         rcx,[aws_lc_0_21_2_OPENSSL_ia32cap_P]
                    00
  000000000000043D: 48 8B 49 08        mov         rcx,qword ptr [rcx+8]
  0000000000000441: 81 E1 00 01 08 00  and         ecx,80100h
  0000000000000447: 81 F9 00 01 08 00  cmp         ecx,80100h
  000000000000044D: 0F 84 E3 06 00 00  je          L$ecp_nistz256_ord_sqr_montx
  0000000000000453: 55                 push        rbp
  0000000000000454: 53                 push        rbx
  0000000000000455: 41 54              push        r12
  0000000000000457: 41 55              push        r13
  0000000000000459: 41 56              push        r14
  000000000000045B: 41 57              push        r15
L$ord_sqr_body:
  000000000000045D: 4C 8B 06           mov         r8,qword ptr [rsi]
  0000000000000460: 48 8B 46 08        mov         rax,qword ptr [rsi+8]
  0000000000000464: 4C 8B 76 10        mov         r14,qword ptr [rsi+10h]
  0000000000000468: 4C 8B 7E 18        mov         r15,qword ptr [rsi+18h]
  000000000000046C: 48 8D 35 A0 00 00  lea         rsi,[.rdata+0A0h]
                    00
  0000000000000473: 48 89 D3           mov         rbx,rdx
  0000000000000476: E9 05 00 00 00     jmp         L$oop_ord_sqr
  000000000000047B: 90                 nop
  000000000000047C: 90                 nop
  000000000000047D: 90                 nop
  000000000000047E: 90                 nop
  000000000000047F: 90                 nop
L$oop_ord_sqr:
  0000000000000480: 48 89 C5           mov         rbp,rax
  0000000000000483: 49 F7 E0           mul         rax,r8
  0000000000000486: 49 89 C1           mov         r9,rax
  0000000000000489: 66 48 0F 6E CD     movq        xmm1,rbp
  000000000000048E: 4C 89 F0           mov         rax,r14
  0000000000000491: 49 89 D2           mov         r10,rdx
  0000000000000494: 49 F7 E0           mul         rax,r8
  0000000000000497: 49 01 C2           add         r10,rax
  000000000000049A: 4C 89 F8           mov         rax,r15
  000000000000049D: 66 49 0F 6E D6     movq        xmm2,r14
  00000000000004A2: 48 83 D2 00        adc         rdx,0
  00000000000004A6: 49 89 D3           mov         r11,rdx
  00000000000004A9: 49 F7 E0           mul         rax,r8
  00000000000004AC: 49 01 C3           add         r11,rax
  00000000000004AF: 4C 89 F8           mov         rax,r15
  00000000000004B2: 66 49 0F 6E DF     movq        xmm3,r15
  00000000000004B7: 48 83 D2 00        adc         rdx,0
  00000000000004BB: 49 89 D4           mov         r12,rdx
  00000000000004BE: 49 F7 E6           mul         rax,r14
  00000000000004C1: 49 89 C5           mov         r13,rax
  00000000000004C4: 4C 89 F0           mov         rax,r14
  00000000000004C7: 49 89 D6           mov         r14,rdx
  00000000000004CA: 48 F7 E5           mul         rax,rbp
  00000000000004CD: 49 01 C3           add         r11,rax
  00000000000004D0: 4C 89 F8           mov         rax,r15
  00000000000004D3: 48 83 D2 00        adc         rdx,0
  00000000000004D7: 49 89 D7           mov         r15,rdx
  00000000000004DA: 48 F7 E5           mul         rax,rbp
  00000000000004DD: 49 01 C4           add         r12,rax
  00000000000004E0: 48 83 D2 00        adc         rdx,0
  00000000000004E4: 4D 01 FC           add         r12,r15
  00000000000004E7: 49 11 D5           adc         r13,rdx
  00000000000004EA: 49 83 D6 00        adc         r14,0
  00000000000004EE: 4D 31 FF           xor         r15,r15
  00000000000004F1: 4C 89 C0           mov         rax,r8
  00000000000004F4: 4D 01 C9           add         r9,r9
  00000000000004F7: 4D 11 D2           adc         r10,r10
  00000000000004FA: 4D 11 DB           adc         r11,r11
  00000000000004FD: 4D 11 E4           adc         r12,r12
  0000000000000500: 4D 11 ED           adc         r13,r13
  0000000000000503: 4D 11 F6           adc         r14,r14
  0000000000000506: 49 83 D7 00        adc         r15,0
  000000000000050A: 48 F7 E0           mul         rax,rax
  000000000000050D: 49 89 C0           mov         r8,rax
  0000000000000510: 66 48 0F 7E C8     movq        rax,xmm1
  0000000000000515: 48 89 D5           mov         rbp,rdx
  0000000000000518: 48 F7 E0           mul         rax,rax
  000000000000051B: 49 01 E9           add         r9,rbp
  000000000000051E: 49 11 C2           adc         r10,rax
  0000000000000521: 66 48 0F 7E D0     movq        rax,xmm2
  0000000000000526: 48 83 D2 00        adc         rdx,0
  000000000000052A: 48 89 D5           mov         rbp,rdx
  000000000000052D: 48 F7 E0           mul         rax,rax
  0000000000000530: 49 01 EB           add         r11,rbp
  0000000000000533: 49 11 C4           adc         r12,rax
  0000000000000536: 66 48 0F 7E D8     movq        rax,xmm3
  000000000000053B: 48 83 D2 00        adc         rdx,0
  000000000000053F: 48 89 D5           mov         rbp,rdx
  0000000000000542: 4C 89 C1           mov         rcx,r8
  0000000000000545: 4C 0F AF 46 20     imul        r8,qword ptr [rsi+20h]
  000000000000054A: 48 F7 E0           mul         rax,rax
  000000000000054D: 49 01 ED           add         r13,rbp
  0000000000000550: 49 11 C6           adc         r14,rax
  0000000000000553: 48 8B 06           mov         rax,qword ptr [rsi]
  0000000000000556: 49 11 D7           adc         r15,rdx
  0000000000000559: 49 F7 E0           mul         rax,r8
  000000000000055C: 4C 89 C5           mov         rbp,r8
  000000000000055F: 48 01 C1           add         rcx,rax
  0000000000000562: 48 8B 46 08        mov         rax,qword ptr [rsi+8]
  0000000000000566: 48 11 D1           adc         rcx,rdx
  0000000000000569: 4D 29 C2           sub         r10,r8
  000000000000056C: 48 83 DD 00        sbb         rbp,0
  0000000000000570: 49 F7 E0           mul         rax,r8
  0000000000000573: 49 01 C9           add         r9,rcx
  0000000000000576: 48 83 D2 00        adc         rdx,0
  000000000000057A: 49 01 C1           add         r9,rax
  000000000000057D: 4C 89 C0           mov         rax,r8
  0000000000000580: 49 11 D2           adc         r10,rdx
  0000000000000583: 4C 89 C2           mov         rdx,r8
  0000000000000586: 48 83 D5 00        adc         rbp,0
  000000000000058A: 4C 89 C9           mov         rcx,r9
  000000000000058D: 4C 0F AF 4E 20     imul        r9,qword ptr [rsi+20h]
  0000000000000592: 48 C1 E0 20        shl         rax,20h
  0000000000000596: 48 C1 EA 20        shr         rdx,20h
  000000000000059A: 49 29 C3           sub         r11,rax
  000000000000059D: 48 8B 06           mov         rax,qword ptr [rsi]
  00000000000005A0: 49 19 D0           sbb         r8,rdx
  00000000000005A3: 49 01 EB           add         r11,rbp
  00000000000005A6: 49 83 D0 00        adc         r8,0
  00000000000005AA: 49 F7 E1           mul         rax,r9
  00000000000005AD: 4C 89 CD           mov         rbp,r9
  00000000000005B0: 48 01 C1           add         rcx,rax
  00000000000005B3: 48 8B 46 08        mov         rax,qword ptr [rsi+8]
  00000000000005B7: 48 11 D1           adc         rcx,rdx
  00000000000005BA: 4D 29 CB           sub         r11,r9
  00000000000005BD: 48 83 DD 00        sbb         rbp,0
  00000000000005C1: 49 F7 E1           mul         rax,r9
  00000000000005C4: 49 01 CA           add         r10,rcx
  00000000000005C7: 48 83 D2 00        adc         rdx,0
  00000000000005CB: 49 01 C2           add         r10,rax
  00000000000005CE: 4C 89 C8           mov         rax,r9
  00000000000005D1: 49 11 D3           adc         r11,rdx
  00000000000005D4: 4C 89 CA           mov         rdx,r9
  00000000000005D7: 48 83 D5 00        adc         rbp,0
  00000000000005DB: 4C 89 D1           mov         rcx,r10
  00000000000005DE: 4C 0F AF 56 20     imul        r10,qword ptr [rsi+20h]
  00000000000005E3: 48 C1 E0 20        shl         rax,20h
  00000000000005E7: 48 C1 EA 20        shr         rdx,20h
  00000000000005EB: 49 29 C0           sub         r8,rax
  00000000000005EE: 48 8B 06           mov         rax,qword ptr [rsi]
  00000000000005F1: 49 19 D1           sbb         r9,rdx
  00000000000005F4: 49 01 E8           add         r8,rbp
  00000000000005F7: 49 83 D1 00        adc         r9,0
  00000000000005FB: 49 F7 E2           mul         rax,r10
  00000000000005FE: 4C 89 D5           mov         rbp,r10
  0000000000000601: 48 01 C1           add         rcx,rax
  0000000000000604: 48 8B 46 08        mov         rax,qword ptr [rsi+8]
  0000000000000608: 48 11 D1           adc         rcx,rdx
  000000000000060B: 4D 29 D0           sub         r8,r10
  000000000000060E: 48 83 DD 00        sbb         rbp,0
  0000000000000612: 49 F7 E2           mul         rax,r10
  0000000000000615: 49 01 CB           add         r11,rcx
  0000000000000618: 48 83 D2 00        adc         rdx,0
  000000000000061C: 49 01 C3           add         r11,rax
  000000000000061F: 4C 89 D0           mov         rax,r10
  0000000000000622: 49 11 D0           adc         r8,rdx
  0000000000000625: 4C 89 D2           mov         rdx,r10
  0000000000000628: 48 83 D5 00        adc         rbp,0
  000000000000062C: 4C 89 D9           mov         rcx,r11
  000000000000062F: 4C 0F AF 5E 20     imul        r11,qword ptr [rsi+20h]
  0000000000000634: 48 C1 E0 20        shl         rax,20h
  0000000000000638: 48 C1 EA 20        shr         rdx,20h
  000000000000063C: 49 29 C1           sub         r9,rax
  000000000000063F: 48 8B 06           mov         rax,qword ptr [rsi]
  0000000000000642: 49 19 D2           sbb         r10,rdx
  0000000000000645: 49 01 E9           add         r9,rbp
  0000000000000648: 49 83 D2 00        adc         r10,0
  000000000000064C: 49 F7 E3           mul         rax,r11
  000000000000064F: 4C 89 DD           mov         rbp,r11
  0000000000000652: 48 01 C1           add         rcx,rax
  0000000000000655: 48 8B 46 08        mov         rax,qword ptr [rsi+8]
  0000000000000659: 48 11 D1           adc         rcx,rdx
  000000000000065C: 4D 29 D9           sub         r9,r11
  000000000000065F: 48 83 DD 00        sbb         rbp,0
  0000000000000663: 49 F7 E3           mul         rax,r11
  0000000000000666: 49 01 C8           add         r8,rcx
  0000000000000669: 48 83 D2 00        adc         rdx,0
  000000000000066D: 49 01 C0           add         r8,rax
  0000000000000670: 4C 89 D8           mov         rax,r11
  0000000000000673: 49 11 D1           adc         r9,rdx
  0000000000000676: 4C 89 DA           mov         rdx,r11
  0000000000000679: 48 83 D5 00        adc         rbp,0
  000000000000067D: 48 C1 E0 20        shl         rax,20h
  0000000000000681: 48 C1 EA 20        shr         rdx,20h
  0000000000000685: 49 29 C2           sub         r10,rax
  0000000000000688: 49 19 D3           sbb         r11,rdx
  000000000000068B: 49 01 EA           add         r10,rbp
  000000000000068E: 49 83 D3 00        adc         r11,0
  0000000000000692: 48 31 D2           xor         rdx,rdx
  0000000000000695: 4D 01 E0           add         r8,r12
  0000000000000698: 4D 11 E9           adc         r9,r13
  000000000000069B: 4D 89 C4           mov         r12,r8
  000000000000069E: 4D 11 F2           adc         r10,r14
  00000000000006A1: 4D 11 FB           adc         r11,r15
  00000000000006A4: 4C 89 C8           mov         rax,r9
  00000000000006A7: 48 83 D2 00        adc         rdx,0
  00000000000006AB: 4C 2B 06           sub         r8,qword ptr [rsi]
  00000000000006AE: 4D 89 D6           mov         r14,r10
  00000000000006B1: 4C 1B 4E 08        sbb         r9,qword ptr [rsi+8]
  00000000000006B5: 4C 1B 56 10        sbb         r10,qword ptr [rsi+10h]
  00000000000006B9: 4D 89 DF           mov         r15,r11
  00000000000006BC: 4C 1B 5E 18        sbb         r11,qword ptr [rsi+18h]
  00000000000006C0: 48 83 DA 00        sbb         rdx,0
  00000000000006C4: 4D 0F 42 C4        cmovb       r8,r12
  00000000000006C8: 49 0F 43 C1        cmovae      rax,r9
  00000000000006CC: 4D 0F 43 F2        cmovae      r14,r10
  00000000000006D0: 4D 0F 43 FB        cmovae      r15,r11
  00000000000006D4: 48 FF CB           dec         rbx
  00000000000006D7: 0F 85 A3 FD FF FF  jne         L$oop_ord_sqr
  00000000000006DD: 4C 89 07           mov         qword ptr [rdi],r8
  00000000000006E0: 48 89 47 08        mov         qword ptr [rdi+8],rax
  00000000000006E4: 66 0F EF C9        pxor        xmm1,xmm1
  00000000000006E8: 4C 89 77 10        mov         qword ptr [rdi+10h],r14
  00000000000006EC: 66 0F EF D2        pxor        xmm2,xmm2
  00000000000006F0: 4C 89 7F 18        mov         qword ptr [rdi+18h],r15
  00000000000006F4: 66 0F EF DB        pxor        xmm3,xmm3
  00000000000006F8: 4C 8B 3C 24        mov         r15,qword ptr [rsp]
  00000000000006FC: 4C 8B 74 24 08     mov         r14,qword ptr [rsp+8]
  0000000000000701: 4C 8B 6C 24 10     mov         r13,qword ptr [rsp+10h]
  0000000000000706: 4C 8B 64 24 18     mov         r12,qword ptr [rsp+18h]
  000000000000070B: 48 8B 5C 24 20     mov         rbx,qword ptr [rsp+20h]
  0000000000000710: 48 8B 6C 24 28     mov         rbp,qword ptr [rsp+28h]
  0000000000000715: 48 8D 64 24 30     lea         rsp,[rsp+30h]
L$ord_sqr_epilogue:
  000000000000071A: 48 8B 7C 24 08     mov         rdi,qword ptr [rsp+8]
  000000000000071F: 48 8B 74 24 10     mov         rsi,qword ptr [rsp+10h]
  0000000000000724: F3 C3              rep ret
L$SEH_end_ecp_nistz256_ord_sqr_mont:
  0000000000000726: 90                 nop
  0000000000000727: 90                 nop
  0000000000000728: 90                 nop
  0000000000000729: 90                 nop
  000000000000072A: 90                 nop
  000000000000072B: 90                 nop
  000000000000072C: 90                 nop
  000000000000072D: 90                 nop
  000000000000072E: 90                 nop
  000000000000072F: 90                 nop
  0000000000000730: 90                 nop
  0000000000000731: 90                 nop
  0000000000000732: 90                 nop
  0000000000000733: 90                 nop
  0000000000000734: 90                 nop
  0000000000000735: 90                 nop
  0000000000000736: 90                 nop
  0000000000000737: 90                 nop
  0000000000000738: 90                 nop
  0000000000000739: 90                 nop
  000000000000073A: 90                 nop
  000000000000073B: 90                 nop
  000000000000073C: 90                 nop
  000000000000073D: 90                 nop
  000000000000073E: 90                 nop
  000000000000073F: 90                 nop
ecp_nistz256_ord_mul_montx:
  0000000000000740: 48 89 7C 24 08     mov         qword ptr [rsp+8],rdi
  0000000000000745: 48 89 74 24 10     mov         qword ptr [rsp+10h],rsi
  000000000000074A: 48 89 E0           mov         rax,rsp
L$SEH_begin_ecp_nistz256_ord_mul_montx:
  000000000000074D: 48 89 CF           mov         rdi,rcx
  0000000000000750: 48 89 D6           mov         rsi,rdx
  0000000000000753: 4C 89 C2           mov         rdx,r8
L$ecp_nistz256_ord_mul_montx:
  0000000000000756: 55                 push        rbp
  0000000000000757: 53                 push        rbx
  0000000000000758: 41 54              push        r12
  000000000000075A: 41 55              push        r13
  000000000000075C: 41 56              push        r14
  000000000000075E: 41 57              push        r15
L$ord_mulx_body:
  0000000000000760: 48 89 D3           mov         rbx,rdx
  0000000000000763: 48 8B 12           mov         rdx,qword ptr [rdx]
  0000000000000766: 4C 8B 0E           mov         r9,qword ptr [rsi]
  0000000000000769: 4C 8B 56 08        mov         r10,qword ptr [rsi+8]
  000000000000076D: 4C 8B 5E 10        mov         r11,qword ptr [rsi+10h]
  0000000000000771: 4C 8B 66 18        mov         r12,qword ptr [rsi+18h]
  0000000000000775: 48 8D 76 80        lea         rsi,[rsi-80h]
  0000000000000779: 4C 8D 35 20 00 00  lea         r14,[.rdata+20h]
                    00
  0000000000000780: 4C 8B 3D C0 00 00  mov         r15,qword ptr [.rdata+0C0h]
                    00
  0000000000000787: C4 42 BB F6 C9     mulx        r9,r8,r9
  000000000000078C: C4 42 F3 F6 D2     mulx        r10,rcx,r10
  0000000000000791: C4 42 D3 F6 DB     mulx        r11,rbp,r11
  0000000000000796: 49 01 C9           add         r9,rcx
  0000000000000799: C4 42 F3 F6 E4     mulx        r12,rcx,r12
  000000000000079E: 4C 89 C2           mov         rdx,r8
  00000000000007A1: C4 C2 EB F6 C7     mulx        rax,rdx,r15
  00000000000007A6: 49 11 EA           adc         r10,rbp
  00000000000007A9: 49 11 CB           adc         r11,rcx
  00000000000007AC: 49 83 D4 00        adc         r12,0
  00000000000007B0: 4D 31 ED           xor         r13,r13
  00000000000007B3: C4 C2 F3 F6 AE 80  mulx        rbp,rcx,qword ptr [r14+80h]
                    00 00 00
  00000000000007BC: 66 4C 0F 38 F6 C1  adcx        r8,rcx
  00000000000007C2: F3 4C 0F 38 F6 CD  adox        r9,rbp
  00000000000007C8: C4 C2 F3 F6 AE 88  mulx        rbp,rcx,qword ptr [r14+88h]
                    00 00 00
  00000000000007D1: 66 4C 0F 38 F6 C9  adcx        r9,rcx
  00000000000007D7: F3 4C 0F 38 F6 D5  adox        r10,rbp
  00000000000007DD: C4 C2 F3 F6 AE 90  mulx        rbp,rcx,qword ptr [r14+90h]
                    00 00 00
  00000000000007E6: 66 4C 0F 38 F6 D1  adcx        r10,rcx
  00000000000007EC: F3 4C 0F 38 F6 DD  adox        r11,rbp
  00000000000007F2: C4 C2 F3 F6 AE 98  mulx        rbp,rcx,qword ptr [r14+98h]
                    00 00 00
  00000000000007FB: 48 8B 53 08        mov         rdx,qword ptr [rbx+8]
  00000000000007FF: 66 4C 0F 38 F6 D9  adcx        r11,rcx
  0000000000000805: F3 4C 0F 38 F6 E5  adox        r12,rbp
  000000000000080B: 66 4D 0F 38 F6 E0  adcx        r12,r8
  0000000000000811: F3 4D 0F 38 F6 E8  adox        r13,r8
  0000000000000817: 49 83 D5 00        adc         r13,0
  000000000000081B: C4 E2 F3 F6 AE 80  mulx        rbp,rcx,qword ptr [rsi+80h]
                    00 00 00
  0000000000000824: 66 4C 0F 38 F6 C9  adcx        r9,rcx
  000000000000082A: F3 4C 0F 38 F6 D5  adox        r10,rbp
  0000000000000830: C4 E2 F3 F6 AE 88  mulx        rbp,rcx,qword ptr [rsi+88h]
                    00 00 00
  0000000000000839: 66 4C 0F 38 F6 D1  adcx        r10,rcx
  000000000000083F: F3 4C 0F 38 F6 DD  adox        r11,rbp
  0000000000000845: C4 E2 F3 F6 AE 90  mulx        rbp,rcx,qword ptr [rsi+90h]
                    00 00 00
  000000000000084E: 66 4C 0F 38 F6 D9  adcx        r11,rcx
  0000000000000854: F3 4C 0F 38 F6 E5  adox        r12,rbp
  000000000000085A: C4 E2 F3 F6 AE 98  mulx        rbp,rcx,qword ptr [rsi+98h]
                    00 00 00
  0000000000000863: 4C 89 CA           mov         rdx,r9
  0000000000000866: C4 C2 EB F6 C7     mulx        rax,rdx,r15
  000000000000086B: 66 4C 0F 38 F6 E1  adcx        r12,rcx
  0000000000000871: F3 4C 0F 38 F6 ED  adox        r13,rbp
  0000000000000877: 66 4D 0F 38 F6 E8  adcx        r13,r8
  000000000000087D: F3 4D 0F 38 F6 C0  adox        r8,r8
  0000000000000883: 49 83 D0 00        adc         r8,0
  0000000000000887: C4 C2 F3 F6 AE 80  mulx        rbp,rcx,qword ptr [r14+80h]
                    00 00 00
  0000000000000890: 66 4C 0F 38 F6 C9  adcx        r9,rcx
  0000000000000896: F3 4C 0F 38 F6 D5  adox        r10,rbp
  000000000000089C: C4 C2 F3 F6 AE 88  mulx        rbp,rcx,qword ptr [r14+88h]
                    00 00 00
  00000000000008A5: 66 4C 0F 38 F6 D1  adcx        r10,rcx
  00000000000008AB: F3 4C 0F 38 F6 DD  adox        r11,rbp
  00000000000008B1: C4 C2 F3 F6 AE 90  mulx        rbp,rcx,qword ptr [r14+90h]
                    00 00 00
  00000000000008BA: 66 4C 0F 38 F6 D9  adcx        r11,rcx
  00000000000008C0: F3 4C 0F 38 F6 E5  adox        r12,rbp
  00000000000008C6: C4 C2 F3 F6 AE 98  mulx        rbp,rcx,qword ptr [r14+98h]
                    00 00 00
  00000000000008CF: 48 8B 53 10        mov         rdx,qword ptr [rbx+10h]
  00000000000008D3: 66 4C 0F 38 F6 E1  adcx        r12,rcx
  00000000000008D9: F3 4C 0F 38 F6 ED  adox        r13,rbp
  00000000000008DF: 66 4D 0F 38 F6 E9  adcx        r13,r9
  00000000000008E5: F3 4D 0F 38 F6 C1  adox        r8,r9
  00000000000008EB: 49 83 D0 00        adc         r8,0
  00000000000008EF: C4 E2 F3 F6 AE 80  mulx        rbp,rcx,qword ptr [rsi+80h]
                    00 00 00
  00000000000008F8: 66 4C 0F 38 F6 D1  adcx        r10,rcx
  00000000000008FE: F3 4C 0F 38 F6 DD  adox        r11,rbp
  0000000000000904: C4 E2 F3 F6 AE 88  mulx        rbp,rcx,qword ptr [rsi+88h]
                    00 00 00
  000000000000090D: 66 4C 0F 38 F6 D9  adcx        r11,rcx
  0000000000000913: F3 4C 0F 38 F6 E5  adox        r12,rbp
  0000000000000919: C4 E2 F3 F6 AE 90  mulx        rbp,rcx,qword ptr [rsi+90h]
                    00 00 00
  0000000000000922: 66 4C 0F 38 F6 E1  adcx        r12,rcx
  0000000000000928: F3 4C 0F 38 F6 ED  adox        r13,rbp
  000000000000092E: C4 E2 F3 F6 AE 98  mulx        rbp,rcx,qword ptr [rsi+98h]
                    00 00 00
  0000000000000937: 4C 89 D2           mov         rdx,r10
  000000000000093A: C4 C2 EB F6 C7     mulx        rax,rdx,r15
  000000000000093F: 66 4C 0F 38 F6 E9  adcx        r13,rcx
  0000000000000945: F3 4C 0F 38 F6 C5  adox        r8,rbp
  000000000000094B: 66 4D 0F 38 F6 C1  adcx        r8,r9
  0000000000000951: F3 4D 0F 38 F6 C9  adox        r9,r9
  0000000000000957: 49 83 D1 00        adc         r9,0
  000000000000095B: C4 C2 F3 F6 AE 80  mulx        rbp,rcx,qword ptr [r14+80h]
                    00 00 00
  0000000000000964: 66 4C 0F 38 F6 D1  adcx        r10,rcx
  000000000000096A: F3 4C 0F 38 F6 DD  adox        r11,rbp
  0000000000000970: C4 C2 F3 F6 AE 88  mulx        rbp,rcx,qword ptr [r14+88h]
                    00 00 00
  0000000000000979: 66 4C 0F 38 F6 D9  adcx        r11,rcx
  000000000000097F: F3 4C 0F 38 F6 E5  adox        r12,rbp
  0000000000000985: C4 C2 F3 F6 AE 90  mulx        rbp,rcx,qword ptr [r14+90h]
                    00 00 00
  000000000000098E: 66 4C 0F 38 F6 E1  adcx        r12,rcx
  0000000000000994: F3 4C 0F 38 F6 ED  adox        r13,rbp
  000000000000099A: C4 C2 F3 F6 AE 98  mulx        rbp,rcx,qword ptr [r14+98h]
                    00 00 00
  00000000000009A3: 48 8B 53 18        mov         rdx,qword ptr [rbx+18h]
  00000000000009A7: 66 4C 0F 38 F6 E9  adcx        r13,rcx
  00000000000009AD: F3 4C 0F 38 F6 C5  adox        r8,rbp
  00000000000009B3: 66 4D 0F 38 F6 C2  adcx        r8,r10
  00000000000009B9: F3 4D 0F 38 F6 CA  adox        r9,r10
  00000000000009BF: 49 83 D1 00        adc         r9,0
  00000000000009C3: C4 E2 F3 F6 AE 80  mulx        rbp,rcx,qword ptr [rsi+80h]
                    00 00 00
  00000000000009CC: 66 4C 0F 38 F6 D9  adcx        r11,rcx
  00000000000009D2: F3 4C 0F 38 F6 E5  adox        r12,rbp
  00000000000009D8: C4 E2 F3 F6 AE 88  mulx        rbp,rcx,qword ptr [rsi+88h]
                    00 00 00
  00000000000009E1: 66 4C 0F 38 F6 E1  adcx        r12,rcx
  00000000000009E7: F3 4C 0F 38 F6 ED  adox        r13,rbp
  00000000000009ED: C4 E2 F3 F6 AE 90  mulx        rbp,rcx,qword ptr [rsi+90h]
                    00 00 00
  00000000000009F6: 66 4C 0F 38 F6 E9  adcx        r13,rcx
  00000000000009FC: F3 4C 0F 38 F6 C5  adox        r8,rbp
  0000000000000A02: C4 E2 F3 F6 AE 98  mulx        rbp,rcx,qword ptr [rsi+98h]
                    00 00 00
  0000000000000A0B: 4C 89 DA           mov         rdx,r11
  0000000000000A0E: C4 C2 EB F6 C7     mulx        rax,rdx,r15
  0000000000000A13: 66 4C 0F 38 F6 C1  adcx        r8,rcx
  0000000000000A19: F3 4C 0F 38 F6 CD  adox        r9,rbp
  0000000000000A1F: 66 4D 0F 38 F6 CA  adcx        r9,r10
  0000000000000A25: F3 4D 0F 38 F6 D2  adox        r10,r10
  0000000000000A2B: 49 83 D2 00        adc         r10,0
  0000000000000A2F: C4 C2 F3 F6 AE 80  mulx        rbp,rcx,qword ptr [r14+80h]
                    00 00 00
  0000000000000A38: 66 4C 0F 38 F6 D9  adcx        r11,rcx
  0000000000000A3E: F3 4C 0F 38 F6 E5  adox        r12,rbp
  0000000000000A44: C4 C2 F3 F6 AE 88  mulx        rbp,rcx,qword ptr [r14+88h]
                    00 00 00
  0000000000000A4D: 66 4C 0F 38 F6 E1  adcx        r12,rcx
  0000000000000A53: F3 4C 0F 38 F6 ED  adox        r13,rbp
  0000000000000A59: C4 C2 F3 F6 AE 90  mulx        rbp,rcx,qword ptr [r14+90h]
                    00 00 00
  0000000000000A62: 66 4C 0F 38 F6 E9  adcx        r13,rcx
  0000000000000A68: F3 4C 0F 38 F6 C5  adox        r8,rbp
  0000000000000A6E: C4 C2 F3 F6 AE 98  mulx        rbp,rcx,qword ptr [r14+98h]
                    00 00 00
  0000000000000A77: 4D 8D B6 80 00 00  lea         r14,[r14+80h]
                    00
  0000000000000A7E: 4C 89 E3           mov         rbx,r12
  0000000000000A81: 66 4C 0F 38 F6 C1  adcx        r8,rcx
  0000000000000A87: F3 4C 0F 38 F6 CD  adox        r9,rbp
  0000000000000A8D: 4C 89 EA           mov         rdx,r13
  0000000000000A90: 66 4D 0F 38 F6 CB  adcx        r9,r11
  0000000000000A96: F3 4D 0F 38 F6 D3  adox        r10,r11
  0000000000000A9C: 49 83 D2 00        adc         r10,0
  0000000000000AA0: 4C 89 C1           mov         rcx,r8
  0000000000000AA3: 4D 2B 26           sub         r12,qword ptr [r14]
  0000000000000AA6: 4D 1B 6E 08        sbb         r13,qword ptr [r14+8]
  0000000000000AAA: 4D 1B 46 10        sbb         r8,qword ptr [r14+10h]
  0000000000000AAE: 4C 89 CD           mov         rbp,r9
  0000000000000AB1: 4D 1B 4E 18        sbb         r9,qword ptr [r14+18h]
  0000000000000AB5: 49 83 DA 00        sbb         r10,0
  0000000000000AB9: 4C 0F 42 E3        cmovb       r12,rbx
  0000000000000ABD: 4C 0F 42 EA        cmovb       r13,rdx
  0000000000000AC1: 4C 0F 42 C1        cmovb       r8,rcx
  0000000000000AC5: 4C 0F 42 CD        cmovb       r9,rbp
  0000000000000AC9: 4C 89 27           mov         qword ptr [rdi],r12
  0000000000000ACC: 4C 89 6F 08        mov         qword ptr [rdi+8],r13
  0000000000000AD0: 4C 89 47 10        mov         qword ptr [rdi+10h],r8
  0000000000000AD4: 4C 89 4F 18        mov         qword ptr [rdi+18h],r9
  0000000000000AD8: 4C 8B 3C 24        mov         r15,qword ptr [rsp]
  0000000000000ADC: 4C 8B 74 24 08     mov         r14,qword ptr [rsp+8]
  0000000000000AE1: 4C 8B 6C 24 10     mov         r13,qword ptr [rsp+10h]
  0000000000000AE6: 4C 8B 64 24 18     mov         r12,qword ptr [rsp+18h]
  0000000000000AEB: 48 8B 5C 24 20     mov         rbx,qword ptr [rsp+20h]
  0000000000000AF0: 48 8B 6C 24 28     mov         rbp,qword ptr [rsp+28h]
  0000000000000AF5: 48 8D 64 24 30     lea         rsp,[rsp+30h]
L$ord_mulx_epilogue:
  0000000000000AFA: 48 8B 7C 24 08     mov         rdi,qword ptr [rsp+8]
  0000000000000AFF: 48 8B 74 24 10     mov         rsi,qword ptr [rsp+10h]
  0000000000000B04: F3 C3              rep ret
L$SEH_end_ecp_nistz256_ord_mul_montx:
  0000000000000B06: 90                 nop
  0000000000000B07: 90                 nop
  0000000000000B08: 90                 nop
  0000000000000B09: 90                 nop
  0000000000000B0A: 90                 nop
  0000000000000B0B: 90                 nop
  0000000000000B0C: 90                 nop
  0000000000000B0D: 90                 nop
  0000000000000B0E: 90                 nop
  0000000000000B0F: 90                 nop
  0000000000000B10: 90                 nop
  0000000000000B11: 90                 nop
  0000000000000B12: 90                 nop
  0000000000000B13: 90                 nop
  0000000000000B14: 90                 nop
  0000000000000B15: 90                 nop
  0000000000000B16: 90                 nop
  0000000000000B17: 90                 nop
  0000000000000B18: 90                 nop
  0000000000000B19: 90                 nop
  0000000000000B1A: 90                 nop
  0000000000000B1B: 90                 nop
  0000000000000B1C: 90                 nop
  0000000000000B1D: 90                 nop
  0000000000000B1E: 90                 nop
  0000000000000B1F: 90                 nop
ecp_nistz256_ord_sqr_montx:
  0000000000000B20: 48 89 7C 24 08     mov         qword ptr [rsp+8],rdi
  0000000000000B25: 48 89 74 24 10     mov         qword ptr [rsp+10h],rsi
  0000000000000B2A: 48 89 E0           mov         rax,rsp
L$SEH_begin_ecp_nistz256_ord_sqr_montx:
  0000000000000B2D: 48 89 CF           mov         rdi,rcx
  0000000000000B30: 48 89 D6           mov         rsi,rdx
  0000000000000B33: 4C 89 C2           mov         rdx,r8
L$ecp_nistz256_ord_sqr_montx:
  0000000000000B36: 55                 push        rbp
  0000000000000B37: 53                 push        rbx
  0000000000000B38: 41 54              push        r12
  0000000000000B3A: 41 55              push        r13
  0000000000000B3C: 41 56              push        r14
  0000000000000B3E: 41 57              push        r15
L$ord_sqrx_body:
  0000000000000B40: 48 89 D3           mov         rbx,rdx
  0000000000000B43: 48 8B 16           mov         rdx,qword ptr [rsi]
  0000000000000B46: 4C 8B 76 08        mov         r14,qword ptr [rsi+8]
  0000000000000B4A: 4C 8B 7E 10        mov         r15,qword ptr [rsi+10h]
  0000000000000B4E: 4C 8B 46 18        mov         r8,qword ptr [rsi+18h]
  0000000000000B52: 48 8D 35 A0 00 00  lea         rsi,[.rdata+0A0h]
                    00
  0000000000000B59: E9 02 00 00 00     jmp         L$oop_ord_sqrx
  0000000000000B5E: 90                 nop
  0000000000000B5F: 90                 nop
L$oop_ord_sqrx:
  0000000000000B60: C4 42 B3 F6 D6     mulx        r10,r9,r14
  0000000000000B65: C4 42 F3 F6 DF     mulx        r11,rcx,r15
  0000000000000B6A: 48 89 D0           mov         rax,rdx
  0000000000000B6D: 66 49 0F 6E CE     movq        xmm1,r14
  0000000000000B72: C4 42 D3 F6 E0     mulx        r12,rbp,r8
  0000000000000B77: 4C 89 F2           mov         rdx,r14
  0000000000000B7A: 49 01 CA           add         r10,rcx
  0000000000000B7D: 66 49 0F 6E D7     movq        xmm2,r15
  0000000000000B82: 49 11 EB           adc         r11,rbp
  0000000000000B85: 49 83 D4 00        adc         r12,0
  0000000000000B89: 4D 31 ED           xor         r13,r13
  0000000000000B8C: C4 C2 F3 F6 EF     mulx        rbp,rcx,r15
  0000000000000B91: 66 4C 0F 38 F6 D9  adcx        r11,rcx
  0000000000000B97: F3 4C 0F 38 F6 E5  adox        r12,rbp
  0000000000000B9D: C4 C2 F3 F6 E8     mulx        rbp,rcx,r8
  0000000000000BA2: 4C 89 FA           mov         rdx,r15
  0000000000000BA5: 66 4C 0F 38 F6 E1  adcx        r12,rcx
  0000000000000BAB: F3 4C 0F 38 F6 ED  adox        r13,rbp
  0000000000000BB1: 49 83 D5 00        adc         r13,0
  0000000000000BB5: C4 42 F3 F6 F0     mulx        r14,rcx,r8
  0000000000000BBA: 48 89 C2           mov         rdx,rax
  0000000000000BBD: 66 49 0F 6E D8     movq        xmm3,r8
  0000000000000BC2: 4D 31 FF           xor         r15,r15
  0000000000000BC5: 66 4D 0F 38 F6 C9  adcx        r9,r9
  0000000000000BCB: F3 4C 0F 38 F6 E9  adox        r13,rcx
  0000000000000BD1: 66 4D 0F 38 F6 D2  adcx        r10,r10
  0000000000000BD7: F3 4D 0F 38 F6 F7  adox        r14,r15
  0000000000000BDD: C4 E2 BB F6 EA     mulx        rbp,r8,rdx
  0000000000000BE2: 66 48 0F 7E CA     movq        rdx,xmm1
  0000000000000BE7: 66 4D 0F 38 F6 DB  adcx        r11,r11
  0000000000000BED: F3 4C 0F 38 F6 CD  adox        r9,rbp
  0000000000000BF3: 66 4D 0F 38 F6 E4  adcx        r12,r12
  0000000000000BF9: C4 E2 F3 F6 C2     mulx        rax,rcx,rdx
  0000000000000BFE: 66 48 0F 7E D2     movq        rdx,xmm2
  0000000000000C03: 66 4D 0F 38 F6 ED  adcx        r13,r13
  0000000000000C09: F3 4C 0F 38 F6 D1  adox        r10,rcx
  0000000000000C0F: 66 4D 0F 38 F6 F6  adcx        r14,r14
  0000000000000C15: C4 E2 F3 F6 EA     mulx        rbp,rcx,rdx
  0000000000000C1A: 67 66 48 0F 7E DA  movq        rdx,xmm3
  0000000000000C20: F3 4C 0F 38 F6 D8  adox        r11,rax
  0000000000000C26: 66 4D 0F 38 F6 FF  adcx        r15,r15
  0000000000000C2C: F3 4C 0F 38 F6 E1  adox        r12,rcx
  0000000000000C32: F3 4C 0F 38 F6 ED  adox        r13,rbp
  0000000000000C38: C4 E2 F3 F6 C2     mulx        rax,rcx,rdx
  0000000000000C3D: F3 4C 0F 38 F6 F1  adox        r14,rcx
  0000000000000C43: F3 4C 0F 38 F6 F8  adox        r15,rax
  0000000000000C49: 4C 89 C2           mov         rdx,r8
  0000000000000C4C: C4 E2 EB F6 4E 20  mulx        rcx,rdx,qword ptr [rsi+20h]
  0000000000000C52: 48 31 C0           xor         rax,rax
  0000000000000C55: C4 E2 F3 F6 2E     mulx        rbp,rcx,qword ptr [rsi]
  0000000000000C5A: 66 4C 0F 38 F6 C1  adcx        r8,rcx
  0000000000000C60: F3 4C 0F 38 F6 CD  adox        r9,rbp
  0000000000000C66: C4 E2 F3 F6 6E 08  mulx        rbp,rcx,qword ptr [rsi+8]
  0000000000000C6C: 66 4C 0F 38 F6 C9  adcx        r9,rcx
  0000000000000C72: F3 4C 0F 38 F6 D5  adox        r10,rbp
  0000000000000C78: C4 E2 F3 F6 6E 10  mulx        rbp,rcx,qword ptr [rsi+10h]
  0000000000000C7E: 66 4C 0F 38 F6 D1  adcx        r10,rcx
  0000000000000C84: F3 4C 0F 38 F6 DD  adox        r11,rbp
  0000000000000C8A: C4 E2 F3 F6 6E 18  mulx        rbp,rcx,qword ptr [rsi+18h]
  0000000000000C90: 66 4C 0F 38 F6 D9  adcx        r11,rcx
  0000000000000C96: F3 4C 0F 38 F6 C5  adox        r8,rbp
  0000000000000C9C: 66 4C 0F 38 F6 C0  adcx        r8,rax
  0000000000000CA2: 4C 89 CA           mov         rdx,r9
  0000000000000CA5: C4 E2 EB F6 4E 20  mulx        rcx,rdx,qword ptr [rsi+20h]
  0000000000000CAB: C4 E2 F3 F6 2E     mulx        rbp,rcx,qword ptr [rsi]
  0000000000000CB0: F3 4C 0F 38 F6 C9  adox        r9,rcx
  0000000000000CB6: 66 4C 0F 38 F6 D5  adcx        r10,rbp
  0000000000000CBC: C4 E2 F3 F6 6E 08  mulx        rbp,rcx,qword ptr [rsi+8]
  0000000000000CC2: F3 4C 0F 38 F6 D1  adox        r10,rcx
  0000000000000CC8: 66 4C 0F 38 F6 DD  adcx        r11,rbp
  0000000000000CCE: C4 E2 F3 F6 6E 10  mulx        rbp,rcx,qword ptr [rsi+10h]
  0000000000000CD4: F3 4C 0F 38 F6 D9  adox        r11,rcx
  0000000000000CDA: 66 4C 0F 38 F6 C5  adcx        r8,rbp
  0000000000000CE0: C4 E2 F3 F6 6E 18  mulx        rbp,rcx,qword ptr [rsi+18h]
  0000000000000CE6: F3 4C 0F 38 F6 C1  adox        r8,rcx
  0000000000000CEC: 66 4C 0F 38 F6 CD  adcx        r9,rbp
  0000000000000CF2: F3 4C 0F 38 F6 C8  adox        r9,rax
  0000000000000CF8: 4C 89 D2           mov         rdx,r10
  0000000000000CFB: C4 E2 EB F6 4E 20  mulx        rcx,rdx,qword ptr [rsi+20h]
  0000000000000D01: C4 E2 F3 F6 2E     mulx        rbp,rcx,qword ptr [rsi]
  0000000000000D06: 66 4C 0F 38 F6 D1  adcx        r10,rcx
  0000000000000D0C: F3 4C 0F 38 F6 DD  adox        r11,rbp
  0000000000000D12: C4 E2 F3 F6 6E 08  mulx        rbp,rcx,qword ptr [rsi+8]
  0000000000000D18: 66 4C 0F 38 F6 D9  adcx        r11,rcx
  0000000000000D1E: F3 4C 0F 38 F6 C5  adox        r8,rbp
  0000000000000D24: C4 E2 F3 F6 6E 10  mulx        rbp,rcx,qword ptr [rsi+10h]
  0000000000000D2A: 66 4C 0F 38 F6 C1  adcx        r8,rcx
  0000000000000D30: F3 4C 0F 38 F6 CD  adox        r9,rbp
  0000000000000D36: C4 E2 F3 F6 6E 18  mulx        rbp,rcx,qword ptr [rsi+18h]
  0000000000000D3C: 66 4C 0F 38 F6 C9  adcx        r9,rcx
  0000000000000D42: F3 4C 0F 38 F6 D5  adox        r10,rbp
  0000000000000D48: 66 4C 0F 38 F6 D0  adcx        r10,rax
  0000000000000D4E: 4C 89 DA           mov         rdx,r11
  0000000000000D51: C4 E2 EB F6 4E 20  mulx        rcx,rdx,qword ptr [rsi+20h]
  0000000000000D57: C4 E2 F3 F6 2E     mulx        rbp,rcx,qword ptr [rsi]
  0000000000000D5C: F3 4C 0F 38 F6 D9  adox        r11,rcx
  0000000000000D62: 66 4C 0F 38 F6 C5  adcx        r8,rbp
  0000000000000D68: C4 E2 F3 F6 6E 08  mulx        rbp,rcx,qword ptr [rsi+8]
  0000000000000D6E: F3 4C 0F 38 F6 C1  adox        r8,rcx
  0000000000000D74: 66 4C 0F 38 F6 CD  adcx        r9,rbp
  0000000000000D7A: C4 E2 F3 F6 6E 10  mulx        rbp,rcx,qword ptr [rsi+10h]
  0000000000000D80: F3 4C 0F 38 F6 C9  adox        r9,rcx
  0000000000000D86: 66 4C 0F 38 F6 D5  adcx        r10,rbp
  0000000000000D8C: C4 E2 F3 F6 6E 18  mulx        rbp,rcx,qword ptr [rsi+18h]
  0000000000000D92: F3 4C 0F 38 F6 D1  adox        r10,rcx
  0000000000000D98: 66 4C 0F 38 F6 DD  adcx        r11,rbp
  0000000000000D9E: F3 4C 0F 38 F6 D8  adox        r11,rax
  0000000000000DA4: 4D 01 C4           add         r12,r8
  0000000000000DA7: 4D 11 E9           adc         r9,r13
  0000000000000DAA: 4C 89 E2           mov         rdx,r12
  0000000000000DAD: 4D 11 F2           adc         r10,r14
  0000000000000DB0: 4D 11 FB           adc         r11,r15
  0000000000000DB3: 4D 89 CE           mov         r14,r9
  0000000000000DB6: 48 83 D0 00        adc         rax,0
  0000000000000DBA: 4C 2B 26           sub         r12,qword ptr [rsi]
  0000000000000DBD: 4D 89 D7           mov         r15,r10
  0000000000000DC0: 4C 1B 4E 08        sbb         r9,qword ptr [rsi+8]
  0000000000000DC4: 4C 1B 56 10        sbb         r10,qword ptr [rsi+10h]
  0000000000000DC8: 4D 89 D8           mov         r8,r11
  0000000000000DCB: 4C 1B 5E 18        sbb         r11,qword ptr [rsi+18h]
  0000000000000DCF: 48 83 D8 00        sbb         rax,0
  0000000000000DD3: 49 0F 43 D4        cmovae      rdx,r12
  0000000000000DD7: 4D 0F 43 F1        cmovae      r14,r9
  0000000000000DDB: 4D 0F 43 FA        cmovae      r15,r10
  0000000000000DDF: 4D 0F 43 C3        cmovae      r8,r11
  0000000000000DE3: 48 FF CB           dec         rbx
  0000000000000DE6: 0F 85 74 FD FF FF  jne         L$oop_ord_sqrx
  0000000000000DEC: 48 89 17           mov         qword ptr [rdi],rdx
  0000000000000DEF: 4C 89 77 08        mov         qword ptr [rdi+8],r14
  0000000000000DF3: 66 0F EF C9        pxor        xmm1,xmm1
  0000000000000DF7: 4C 89 7F 10        mov         qword ptr [rdi+10h],r15
  0000000000000DFB: 66 0F EF D2        pxor        xmm2,xmm2
  0000000000000DFF: 4C 89 47 18        mov         qword ptr [rdi+18h],r8
  0000000000000E03: 66 0F EF DB        pxor        xmm3,xmm3
  0000000000000E07: 4C 8B 3C 24        mov         r15,qword ptr [rsp]
  0000000000000E0B: 4C 8B 74 24 08     mov         r14,qword ptr [rsp+8]
  0000000000000E10: 4C 8B 6C 24 10     mov         r13,qword ptr [rsp+10h]
  0000000000000E15: 4C 8B 64 24 18     mov         r12,qword ptr [rsp+18h]
  0000000000000E1A: 48 8B 5C 24 20     mov         rbx,qword ptr [rsp+20h]
  0000000000000E1F: 48 8B 6C 24 28     mov         rbp,qword ptr [rsp+28h]
  0000000000000E24: 48 8D 64 24 30     lea         rsp,[rsp+30h]
L$ord_sqrx_epilogue:
  0000000000000E29: 48 8B 7C 24 08     mov         rdi,qword ptr [rsp+8]
  0000000000000E2E: 48 8B 74 24 10     mov         rsi,qword ptr [rsp+10h]
  0000000000000E33: F3 C3              rep ret
L$SEH_end_ecp_nistz256_ord_sqr_montx:
  0000000000000E35: 90                 nop
  0000000000000E36: 90                 nop
  0000000000000E37: 90                 nop
  0000000000000E38: 90                 nop
  0000000000000E39: 90                 nop
  0000000000000E3A: 90                 nop
  0000000000000E3B: 90                 nop
  0000000000000E3C: 90                 nop
  0000000000000E3D: 90                 nop
  0000000000000E3E: 90                 nop
  0000000000000E3F: 90                 nop
aws_lc_0_21_2_ecp_nistz256_mul_mont:
  0000000000000E40: 48 89 7C 24 08     mov         qword ptr [rsp+8],rdi
  0000000000000E45: 48 89 74 24 10     mov         qword ptr [rsp+10h],rsi
  0000000000000E4A: 48 89 E0           mov         rax,rsp
L$SEH_begin_ecp_nistz256_mul_mont:
  0000000000000E4D: 48 89 CF           mov         rdi,rcx
  0000000000000E50: 48 89 D6           mov         rsi,rdx
  0000000000000E53: 4C 89 C2           mov         rdx,r8
  0000000000000E56: 48 8D 0D 00 00 00  lea         rcx,[aws_lc_0_21_2_OPENSSL_ia32cap_P]
                    00
  0000000000000E5D: 48 8B 49 08        mov         rcx,qword ptr [rcx+8]
  0000000000000E61: 81 E1 00 01 08 00  and         ecx,80100h
L$mul_mont:
  0000000000000E67: 55                 push        rbp
  0000000000000E68: 53                 push        rbx
  0000000000000E69: 41 54              push        r12
  0000000000000E6B: 41 55              push        r13
  0000000000000E6D: 41 56              push        r14
  0000000000000E6F: 41 57              push        r15
L$mul_body:
  0000000000000E71: 81 F9 00 01 08 00  cmp         ecx,80100h
  0000000000000E77: 0F 84 23 00 00 00  je          L$mul_montx
  0000000000000E7D: 48 89 D3           mov         rbx,rdx
  0000000000000E80: 48 8B 02           mov         rax,qword ptr [rdx]
  0000000000000E83: 4C 8B 0E           mov         r9,qword ptr [rsi]
  0000000000000E86: 4C 8B 56 08        mov         r10,qword ptr [rsi+8]
  0000000000000E8A: 4C 8B 5E 10        mov         r11,qword ptr [rsi+10h]
  0000000000000E8E: 4C 8B 66 18        mov         r12,qword ptr [rsi+18h]
  0000000000000E92: E8 69 00 00 00     call        __ecp_nistz256_mul_montq
  0000000000000E97: E9 22 00 00 00     jmp         L$mul_mont_done
  0000000000000E9C: 90                 nop
  0000000000000E9D: 90                 nop
  0000000000000E9E: 90                 nop
  0000000000000E9F: 90                 nop
L$mul_montx:
  0000000000000EA0: 48 89 D3           mov         rbx,rdx
  0000000000000EA3: 48 8B 12           mov         rdx,qword ptr [rdx]
  0000000000000EA6: 4C 8B 0E           mov         r9,qword ptr [rsi]
  0000000000000EA9: 4C 8B 56 08        mov         r10,qword ptr [rsi+8]
  0000000000000EAD: 4C 8B 5E 10        mov         r11,qword ptr [rsi+10h]
  0000000000000EB1: 4C 8B 66 18        mov         r12,qword ptr [rsi+18h]
  0000000000000EB5: 48 8D 76 80        lea         rsi,[rsi-80h]
  0000000000000EB9: E8 02 05 00 00     call        __ecp_nistz256_mul_montx
L$mul_mont_done:
  0000000000000EBE: 4C 8B 3C 24        mov         r15,qword ptr [rsp]
  0000000000000EC2: 4C 8B 74 24 08     mov         r14,qword ptr [rsp+8]
  0000000000000EC7: 4C 8B 6C 24 10     mov         r13,qword ptr [rsp+10h]
  0000000000000ECC: 4C 8B 64 24 18     mov         r12,qword ptr [rsp+18h]
  0000000000000ED1: 48 8B 5C 24 20     mov         rbx,qword ptr [rsp+20h]
  0000000000000ED6: 48 8B 6C 24 28     mov         rbp,qword ptr [rsp+28h]
  0000000000000EDB: 48 8D 64 24 30     lea         rsp,[rsp+30h]
L$mul_epilogue:
  0000000000000EE0: 48 8B 7C 24 08     mov         rdi,qword ptr [rsp+8]
  0000000000000EE5: 48 8B 74 24 10     mov         rsi,qword ptr [rsp+10h]
  0000000000000EEA: F3 C3              rep ret
L$SEH_end_ecp_nistz256_mul_mont:
  0000000000000EEC: 90                 nop
  0000000000000EED: 90                 nop
  0000000000000EEE: 90                 nop
  0000000000000EEF: 90                 nop
  0000000000000EF0: 90                 nop
  0000000000000EF1: 90                 nop
  0000000000000EF2: 90                 nop
  0000000000000EF3: 90                 nop
  0000000000000EF4: 90                 nop
  0000000000000EF5: 90                 nop
  0000000000000EF6: 90                 nop
  0000000000000EF7: 90                 nop
  0000000000000EF8: 90                 nop
  0000000000000EF9: 90                 nop
  0000000000000EFA: 90                 nop
  0000000000000EFB: 90                 nop
  0000000000000EFC: 90                 nop
  0000000000000EFD: 90                 nop
  0000000000000EFE: 90                 nop
  0000000000000EFF: 90                 nop
__ecp_nistz256_mul_montq:
  0000000000000F00: 48 89 C5           mov         rbp,rax
  0000000000000F03: 49 F7 E1           mul         rax,r9
  0000000000000F06: 4C 8B 35 08 00 00  mov         r14,qword ptr [.rdata+8]
                    00
  0000000000000F0D: 49 89 C0           mov         r8,rax
  0000000000000F10: 48 89 E8           mov         rax,rbp
  0000000000000F13: 49 89 D1           mov         r9,rdx
  0000000000000F16: 49 F7 E2           mul         rax,r10
  0000000000000F19: 4C 8B 3D 18 00 00  mov         r15,qword ptr [.rdata+18h]
                    00
  0000000000000F20: 49 01 C1           add         r9,rax
  0000000000000F23: 48 89 E8           mov         rax,rbp
  0000000000000F26: 48 83 D2 00        adc         rdx,0
  0000000000000F2A: 49 89 D2           mov         r10,rdx
  0000000000000F2D: 49 F7 E3           mul         rax,r11
  0000000000000F30: 49 01 C2           add         r10,rax
  0000000000000F33: 48 89 E8           mov         rax,rbp
  0000000000000F36: 48 83 D2 00        adc         rdx,0
  0000000000000F3A: 49 89 D3           mov         r11,rdx
  0000000000000F3D: 49 F7 E4           mul         rax,r12
  0000000000000F40: 49 01 C3           add         r11,rax
  0000000000000F43: 4C 89 C0           mov         rax,r8
  0000000000000F46: 48 83 D2 00        adc         rdx,0
  0000000000000F4A: 4D 31 ED           xor         r13,r13
  0000000000000F4D: 49 89 D4           mov         r12,rdx
  0000000000000F50: 4C 89 C5           mov         rbp,r8
  0000000000000F53: 49 C1 E0 20        shl         r8,20h
  0000000000000F57: 49 F7 E7           mul         rax,r15
  0000000000000F5A: 48 C1 ED 20        shr         rbp,20h
  0000000000000F5E: 4D 01 C1           add         r9,r8
  0000000000000F61: 49 11 EA           adc         r10,rbp
  0000000000000F64: 49 11 C3           adc         r11,rax
  0000000000000F67: 48 8B 43 08        mov         rax,qword ptr [rbx+8]
  0000000000000F6B: 49 11 D4           adc         r12,rdx
  0000000000000F6E: 49 83 D5 00        adc         r13,0
  0000000000000F72: 4D 31 C0           xor         r8,r8
  0000000000000F75: 48 89 C5           mov         rbp,rax
  0000000000000F78: 48 F7 26           mul         rax,qword ptr [rsi]
  0000000000000F7B: 49 01 C1           add         r9,rax
  0000000000000F7E: 48 89 E8           mov         rax,rbp
  0000000000000F81: 48 83 D2 00        adc         rdx,0
  0000000000000F85: 48 89 D1           mov         rcx,rdx
  0000000000000F88: 48 F7 66 08        mul         rax,qword ptr [rsi+8]
  0000000000000F8C: 49 01 CA           add         r10,rcx
  0000000000000F8F: 48 83 D2 00        adc         rdx,0
  0000000000000F93: 49 01 C2           add         r10,rax
  0000000000000F96: 48 89 E8           mov         rax,rbp
  0000000000000F99: 48 83 D2 00        adc         rdx,0
  0000000000000F9D: 48 89 D1           mov         rcx,rdx
  0000000000000FA0: 48 F7 66 10        mul         rax,qword ptr [rsi+10h]
  0000000000000FA4: 49 01 CB           add         r11,rcx
  0000000000000FA7: 48 83 D2 00        adc         rdx,0
  0000000000000FAB: 49 01 C3           add         r11,rax
  0000000000000FAE: 48 89 E8           mov         rax,rbp
  0000000000000FB1: 48 83 D2 00        adc         rdx,0
  0000000000000FB5: 48 89 D1           mov         rcx,rdx
  0000000000000FB8: 48 F7 66 18        mul         rax,qword ptr [rsi+18h]
  0000000000000FBC: 49 01 CC           add         r12,rcx
  0000000000000FBF: 48 83 D2 00        adc         rdx,0
  0000000000000FC3: 49 01 C4           add         r12,rax
  0000000000000FC6: 4C 89 C8           mov         rax,r9
  0000000000000FC9: 49 11 D5           adc         r13,rdx
  0000000000000FCC: 49 83 D0 00        adc         r8,0
  0000000000000FD0: 4C 89 CD           mov         rbp,r9
  0000000000000FD3: 49 C1 E1 20        shl         r9,20h
  0000000000000FD7: 49 F7 E7           mul         rax,r15
  0000000000000FDA: 48 C1 ED 20        shr         rbp,20h
  0000000000000FDE: 4D 01 CA           add         r10,r9
  0000000000000FE1: 49 11 EB           adc         r11,rbp
  0000000000000FE4: 49 11 C4           adc         r12,rax
  0000000000000FE7: 48 8B 43 10        mov         rax,qword ptr [rbx+10h]
  0000000000000FEB: 49 11 D5           adc         r13,rdx
  0000000000000FEE: 49 83 D0 00        adc         r8,0
  0000000000000FF2: 4D 31 C9           xor         r9,r9
  0000000000000FF5: 48 89 C5           mov         rbp,rax
  0000000000000FF8: 48 F7 26           mul         rax,qword ptr [rsi]
  0000000000000FFB: 49 01 C2           add         r10,rax
  0000000000000FFE: 48 89 E8           mov         rax,rbp
  0000000000001001: 48 83 D2 00        adc         rdx,0
  0000000000001005: 48 89 D1           mov         rcx,rdx
  0000000000001008: 48 F7 66 08        mul         rax,qword ptr [rsi+8]
  000000000000100C: 49 01 CB           add         r11,rcx
  000000000000100F: 48 83 D2 00        adc         rdx,0
  0000000000001013: 49 01 C3           add         r11,rax
  0000000000001016: 48 89 E8           mov         rax,rbp
  0000000000001019: 48 83 D2 00        adc         rdx,0
  000000000000101D: 48 89 D1           mov         rcx,rdx
  0000000000001020: 48 F7 66 10        mul         rax,qword ptr [rsi+10h]
  0000000000001024: 49 01 CC           add         r12,rcx
  0000000000001027: 48 83 D2 00        adc         rdx,0
  000000000000102B: 49 01 C4           add         r12,rax
  000000000000102E: 48 89 E8           mov         rax,rbp
  0000000000001031: 48 83 D2 00        adc         rdx,0
  0000000000001035: 48 89 D1           mov         rcx,rdx
  0000000000001038: 48 F7 66 18        mul         rax,qword ptr [rsi+18h]
  000000000000103C: 49 01 CD           add         r13,rcx
  000000000000103F: 48 83 D2 00        adc         rdx,0
  0000000000001043: 49 01 C5           add         r13,rax
  0000000000001046: 4C 89 D0           mov         rax,r10
  0000000000001049: 49 11 D0           adc         r8,rdx
  000000000000104C: 49 83 D1 00        adc         r9,0
  0000000000001050: 4C 89 D5           mov         rbp,r10
  0000000000001053: 49 C1 E2 20        shl         r10,20h
  0000000000001057: 49 F7 E7           mul         rax,r15
  000000000000105A: 48 C1 ED 20        shr         rbp,20h
  000000000000105E: 4D 01 D3           add         r11,r10
  0000000000001061: 49 11 EC           adc         r12,rbp
  0000000000001064: 49 11 C5           adc         r13,rax
  0000000000001067: 48 8B 43 18        mov         rax,qword ptr [rbx+18h]
  000000000000106B: 49 11 D0           adc         r8,rdx
  000000000000106E: 49 83 D1 00        adc         r9,0
  0000000000001072: 4D 31 D2           xor         r10,r10
  0000000000001075: 48 89 C5           mov         rbp,rax
  0000000000001078: 48 F7 26           mul         rax,qword ptr [rsi]
  000000000000107B: 49 01 C3           add         r11,rax
  000000000000107E: 48 89 E8           mov         rax,rbp
  0000000000001081: 48 83 D2 00        adc         rdx,0
  0000000000001085: 48 89 D1           mov         rcx,rdx
  0000000000001088: 48 F7 66 08        mul         rax,qword ptr [rsi+8]
  000000000000108C: 49 01 CC           add         r12,rcx
  000000000000108F: 48 83 D2 00        adc         rdx,0
  0000000000001093: 49 01 C4           add         r12,rax
  0000000000001096: 48 89 E8           mov         rax,rbp
  0000000000001099: 48 83 D2 00        adc         rdx,0
  000000000000109D: 48 89 D1           mov         rcx,rdx
  00000000000010A0: 48 F7 66 10        mul         rax,qword ptr [rsi+10h]
  00000000000010A4: 49 01 CD           add         r13,rcx
  00000000000010A7: 48 83 D2 00        adc         rdx,0
  00000000000010AB: 49 01 C5           add         r13,rax
  00000000000010AE: 48 89 E8           mov         rax,rbp
  00000000000010B1: 48 83 D2 00        adc         rdx,0
  00000000000010B5: 48 89 D1           mov         rcx,rdx
  00000000000010B8: 48 F7 66 18        mul         rax,qword ptr [rsi+18h]
  00000000000010BC: 49 01 C8           add         r8,rcx
  00000000000010BF: 48 83 D2 00        adc         rdx,0
  00000000000010C3: 49 01 C0           add         r8,rax
  00000000000010C6: 4C 89 D8           mov         rax,r11
  00000000000010C9: 49 11 D1           adc         r9,rdx
  00000000000010CC: 49 83 D2 00        adc         r10,0
  00000000000010D0: 4C 89 DD           mov         rbp,r11
  00000000000010D3: 49 C1 E3 20        shl         r11,20h
  00000000000010D7: 49 F7 E7           mul         rax,r15
  00000000000010DA: 48 C1 ED 20        shr         rbp,20h
  00000000000010DE: 4D 01 DC           add         r12,r11
  00000000000010E1: 49 11 ED           adc         r13,rbp
  00000000000010E4: 4C 89 E1           mov         rcx,r12
  00000000000010E7: 49 11 C0           adc         r8,rax
  00000000000010EA: 49 11 D1           adc         r9,rdx
  00000000000010ED: 4C 89 ED           mov         rbp,r13
  00000000000010F0: 49 83 D2 00        adc         r10,0
  00000000000010F4: 49 83 EC FF        sub         r12,0FFFFFFFFFFFFFFFFh
  00000000000010F8: 4C 89 C3           mov         rbx,r8
  00000000000010FB: 4D 19 F5           sbb         r13,r14
  00000000000010FE: 49 83 D8 00        sbb         r8,0
  0000000000001102: 4C 89 CA           mov         rdx,r9
  0000000000001105: 4D 19 F9           sbb         r9,r15
  0000000000001108: 49 83 DA 00        sbb         r10,0
  000000000000110C: 4C 0F 42 E1        cmovb       r12,rcx
  0000000000001110: 4C 0F 42 ED        cmovb       r13,rbp
  0000000000001114: 4C 89 27           mov         qword ptr [rdi],r12
  0000000000001117: 4C 0F 42 C3        cmovb       r8,rbx
  000000000000111B: 4C 89 6F 08        mov         qword ptr [rdi+8],r13
  000000000000111F: 4C 0F 42 CA        cmovb       r9,rdx
  0000000000001123: 4C 89 47 10        mov         qword ptr [rdi+10h],r8
  0000000000001127: 4C 89 4F 18        mov         qword ptr [rdi+18h],r9
  000000000000112B: F3 C3              rep ret
  000000000000112D: 90                 nop
  000000000000112E: 90                 nop
  000000000000112F: 90                 nop
  0000000000001130: 90                 nop
  0000000000001131: 90                 nop
  0000000000001132: 90                 nop
  0000000000001133: 90                 nop
  0000000000001134: 90                 nop
  0000000000001135: 90                 nop
  0000000000001136: 90                 nop
  0000000000001137: 90                 nop
  0000000000001138: 90                 nop
  0000000000001139: 90                 nop
  000000000000113A: 90                 nop
  000000000000113B: 90                 nop
  000000000000113C: 90                 nop
  000000000000113D: 90                 nop
  000000000000113E: 90                 nop
  000000000000113F: 90                 nop
aws_lc_0_21_2_ecp_nistz256_sqr_mont:
  0000000000001140: 48 89 7C 24 08     mov         qword ptr [rsp+8],rdi
  0000000000001145: 48 89 74 24 10     mov         qword ptr [rsp+10h],rsi
  000000000000114A: 48 89 E0           mov         rax,rsp
L$SEH_begin_ecp_nistz256_sqr_mont:
  000000000000114D: 48 89 CF           mov         rdi,rcx
  0000000000001150: 48 89 D6           mov         rsi,rdx
  0000000000001153: 48 8D 0D 00 00 00  lea         rcx,[aws_lc_0_21_2_OPENSSL_ia32cap_P]
                    00
  000000000000115A: 48 8B 49 08        mov         rcx,qword ptr [rcx+8]
  000000000000115E: 81 E1 00 01 08 00  and         ecx,80100h
  0000000000001164: 55                 push        rbp
  0000000000001165: 53                 push        rbx
  0000000000001166: 41 54              push        r12
  0000000000001168: 41 55              push        r13
  000000000000116A: 41 56              push        r14
  000000000000116C: 41 57              push        r15
L$sqr_body:
  000000000000116E: 81 F9 00 01 08 00  cmp         ecx,80100h
  0000000000001174: 0F 84 26 00 00 00  je          L$sqr_montx
  000000000000117A: 48 8B 06           mov         rax,qword ptr [rsi]
  000000000000117D: 4C 8B 76 08        mov         r14,qword ptr [rsi+8]
  0000000000001181: 4C 8B 7E 10        mov         r15,qword ptr [rsi+10h]
  0000000000001185: 4C 8B 46 18        mov         r8,qword ptr [rsi+18h]
  0000000000001189: E8 72 00 00 00     call        __ecp_nistz256_sqr_montq
  000000000000118E: E9 25 00 00 00     jmp         L$sqr_mont_done
  0000000000001193: 90                 nop
  0000000000001194: 90                 nop
  0000000000001195: 90                 nop
  0000000000001196: 90                 nop
  0000000000001197: 90                 nop
  0000000000001198: 90                 nop
  0000000000001199: 90                 nop
  000000000000119A: 90                 nop
  000000000000119B: 90                 nop
  000000000000119C: 90                 nop
  000000000000119D: 90                 nop
  000000000000119E: 90                 nop
  000000000000119F: 90                 nop
L$sqr_montx:
  00000000000011A0: 48 8B 16           mov         rdx,qword ptr [rsi]
  00000000000011A3: 4C 8B 76 08        mov         r14,qword ptr [rsi+8]
  00000000000011A7: 4C 8B 7E 10        mov         r15,qword ptr [rsi+10h]
  00000000000011AB: 4C 8B 46 18        mov         r8,qword ptr [rsi+18h]
  00000000000011AF: 48 8D 76 80        lea         rsi,[rsi-80h]
  00000000000011B3: E8 68 04 00 00     call        __ecp_nistz256_sqr_montx
L$sqr_mont_done:
  00000000000011B8: 4C 8B 3C 24        mov         r15,qword ptr [rsp]
  00000000000011BC: 4C 8B 74 24 08     mov         r14,qword ptr [rsp+8]
  00000000000011C1: 4C 8B 6C 24 10     mov         r13,qword ptr [rsp+10h]
  00000000000011C6: 4C 8B 64 24 18     mov         r12,qword ptr [rsp+18h]
  00000000000011CB: 48 8B 5C 24 20     mov         rbx,qword ptr [rsp+20h]
  00000000000011D0: 48 8B 6C 24 28     mov         rbp,qword ptr [rsp+28h]
  00000000000011D5: 48 8D 64 24 30     lea         rsp,[rsp+30h]
L$sqr_epilogue:
  00000000000011DA: 48 8B 7C 24 08     mov         rdi,qword ptr [rsp+8]
  00000000000011DF: 48 8B 74 24 10     mov         rsi,qword ptr [rsp+10h]
  00000000000011E4: F3 C3              rep ret
L$SEH_end_ecp_nistz256_sqr_mont:
  00000000000011E6: 90                 nop
  00000000000011E7: 90                 nop
  00000000000011E8: 90                 nop
  00000000000011E9: 90                 nop
  00000000000011EA: 90                 nop
  00000000000011EB: 90                 nop
  00000000000011EC: 90                 nop
  00000000000011ED: 90                 nop
  00000000000011EE: 90                 nop
  00000000000011EF: 90                 nop
  00000000000011F0: 90                 nop
  00000000000011F1: 90                 nop
  00000000000011F2: 90                 nop
  00000000000011F3: 90                 nop
  00000000000011F4: 90                 nop
  00000000000011F5: 90                 nop
  00000000000011F6: 90                 nop
  00000000000011F7: 90                 nop
  00000000000011F8: 90                 nop
  00000000000011F9: 90                 nop
  00000000000011FA: 90                 nop
  00000000000011FB: 90                 nop
  00000000000011FC: 90                 nop
  00000000000011FD: 90                 nop
  00000000000011FE: 90                 nop
  00000000000011FF: 90                 nop
__ecp_nistz256_sqr_montq:
  0000000000001200: 49 89 C5           mov         r13,rax
  0000000000001203: 49 F7 E6           mul         rax,r14
  0000000000001206: 49 89 C1           mov         r9,rax
  0000000000001209: 4C 89 F8           mov         rax,r15
  000000000000120C: 49 89 D2           mov         r10,rdx
  000000000000120F: 49 F7 E5           mul         rax,r13
  0000000000001212: 49 01 C2           add         r10,rax
  0000000000001215: 4C 89 C0           mov         rax,r8
  0000000000001218: 48 83 D2 00        adc         rdx,0
  000000000000121C: 49 89 D3           mov         r11,rdx
  000000000000121F: 49 F7 E5           mul         rax,r13
  0000000000001222: 49 01 C3           add         r11,rax
  0000000000001225: 4C 89 F8           mov         rax,r15
  0000000000001228: 48 83 D2 00        adc         rdx,0
  000000000000122C: 49 89 D4           mov         r12,rdx
  000000000000122F: 49 F7 E6           mul         rax,r14
  0000000000001232: 49 01 C3           add         r11,rax
  0000000000001235: 4C 89 C0           mov         rax,r8
  0000000000001238: 48 83 D2 00        adc         rdx,0
  000000000000123C: 48 89 D5           mov         rbp,rdx
  000000000000123F: 49 F7 E6           mul         rax,r14
  0000000000001242: 49 01 C4           add         r12,rax
  0000000000001245: 4C 89 C0           mov         rax,r8
  0000000000001248: 48 83 D2 00        adc         rdx,0
  000000000000124C: 49 01 EC           add         r12,rbp
  000000000000124F: 49 89 D5           mov         r13,rdx
  0000000000001252: 49 83 D5 00        adc         r13,0
  0000000000001256: 49 F7 E7           mul         rax,r15
  0000000000001259: 4D 31 FF           xor         r15,r15
  000000000000125C: 49 01 C5           add         r13,rax
  000000000000125F: 48 8B 06           mov         rax,qword ptr [rsi]
  0000000000001262: 49 89 D6           mov         r14,rdx
  0000000000001265: 49 83 D6 00        adc         r14,0
  0000000000001269: 4D 01 C9           add         r9,r9
  000000000000126C: 4D 11 D2           adc         r10,r10
  000000000000126F: 4D 11 DB           adc         r11,r11
  0000000000001272: 4D 11 E4           adc         r12,r12
  0000000000001275: 4D 11 ED           adc         r13,r13
  0000000000001278: 4D 11 F6           adc         r14,r14
  000000000000127B: 49 83 D7 00        adc         r15,0
  000000000000127F: 48 F7 E0           mul         rax,rax
  0000000000001282: 49 89 C0           mov         r8,rax
  0000000000001285: 48 8B 46 08        mov         rax,qword ptr [rsi+8]
  0000000000001289: 48 89 D1           mov         rcx,rdx
  000000000000128C: 48 F7 E0           mul         rax,rax
  000000000000128F: 49 01 C9           add         r9,rcx
  0000000000001292: 49 11 C2           adc         r10,rax
  0000000000001295: 48 8B 46 10        mov         rax,qword ptr [rsi+10h]
  0000000000001299: 48 83 D2 00        adc         rdx,0
  000000000000129D: 48 89 D1           mov         rcx,rdx
  00000000000012A0: 48 F7 E0           mul         rax,rax
  00000000000012A3: 49 01 CB           add         r11,rcx
  00000000000012A6: 49 11 C4           adc         r12,rax
  00000000000012A9: 48 8B 46 18        mov         rax,qword ptr [rsi+18h]
  00000000000012AD: 48 83 D2 00        adc         rdx,0
  00000000000012B1: 48 89 D1           mov         rcx,rdx
  00000000000012B4: 48 F7 E0           mul         rax,rax
  00000000000012B7: 49 01 CD           add         r13,rcx
  00000000000012BA: 49 11 C6           adc         r14,rax
  00000000000012BD: 4C 89 C0           mov         rax,r8
  00000000000012C0: 49 11 D7           adc         r15,rdx
  00000000000012C3: 48 8B 35 08 00 00  mov         rsi,qword ptr [.rdata+8]
                    00
  00000000000012CA: 48 8B 2D 18 00 00  mov         rbp,qword ptr [.rdata+18h]
                    00
  00000000000012D1: 4C 89 C1           mov         rcx,r8
  00000000000012D4: 49 C1 E0 20        shl         r8,20h
  00000000000012D8: 48 F7 E5           mul         rax,rbp
  00000000000012DB: 48 C1 E9 20        shr         rcx,20h
  00000000000012DF: 4D 01 C1           add         r9,r8
  00000000000012E2: 49 11 CA           adc         r10,rcx
  00000000000012E5: 49 11 C3           adc         r11,rax
  00000000000012E8: 4C 89 C8           mov         rax,r9
  00000000000012EB: 48 83 D2 00        adc         rdx,0
  00000000000012EF: 4C 89 C9           mov         rcx,r9
  00000000000012F2: 49 C1 E1 20        shl         r9,20h
  00000000000012F6: 49 89 D0           mov         r8,rdx
  00000000000012F9: 48 F7 E5           mul         rax,rbp
  00000000000012FC: 48 C1 E9 20        shr         rcx,20h
  0000000000001300: 4D 01 CA           add         r10,r9
  0000000000001303: 49 11 CB           adc         r11,rcx
  0000000000001306: 49 11 C0           adc         r8,rax
  0000000000001309: 4C 89 D0           mov         rax,r10
  000000000000130C: 48 83 D2 00        adc         rdx,0
  0000000000001310: 4C 89 D1           mov         rcx,r10
  0000000000001313: 49 C1 E2 20        shl         r10,20h
  0000000000001317: 49 89 D1           mov         r9,rdx
  000000000000131A: 48 F7 E5           mul         rax,rbp
  000000000000131D: 48 C1 E9 20        shr         rcx,20h
  0000000000001321: 4D 01 D3           add         r11,r10
  0000000000001324: 49 11 C8           adc         r8,rcx
  0000000000001327: 49 11 C1           adc         r9,rax
  000000000000132A: 4C 89 D8           mov         rax,r11
  000000000000132D: 48 83 D2 00        adc         rdx,0
  0000000000001331: 4C 89 D9           mov         rcx,r11
  0000000000001334: 49 C1 E3 20        shl         r11,20h
  0000000000001338: 49 89 D2           mov         r10,rdx
  000000000000133B: 48 F7 E5           mul         rax,rbp
  000000000000133E: 48 C1 E9 20        shr         rcx,20h
  0000000000001342: 4D 01 D8           add         r8,r11
  0000000000001345: 49 11 C9           adc         r9,rcx
  0000000000001348: 49 11 C2           adc         r10,rax
  000000000000134B: 48 83 D2 00        adc         rdx,0
  000000000000134F: 4D 31 DB           xor         r11,r11
  0000000000001352: 4D 01 C4           add         r12,r8
  0000000000001355: 4D 11 CD           adc         r13,r9
  0000000000001358: 4D 89 E0           mov         r8,r12
  000000000000135B: 4D 11 D6           adc         r14,r10
  000000000000135E: 49 11 D7           adc         r15,rdx
  0000000000001361: 4D 89 E9           mov         r9,r13
  0000000000001364: 49 83 D3 00        adc         r11,0
  0000000000001368: 49 83 EC FF        sub         r12,0FFFFFFFFFFFFFFFFh
  000000000000136C: 4D 89 F2           mov         r10,r14
  000000000000136F: 49 19 F5           sbb         r13,rsi
  0000000000001372: 49 83 DE 00        sbb         r14,0
  0000000000001376: 4C 89 F9           mov         rcx,r15
  0000000000001379: 49 19 EF           sbb         r15,rbp
  000000000000137C: 49 83 DB 00        sbb         r11,0
  0000000000001380: 4D 0F 42 E0        cmovb       r12,r8
  0000000000001384: 4D 0F 42 E9        cmovb       r13,r9
  0000000000001388: 4C 89 27           mov         qword ptr [rdi],r12
  000000000000138B: 4D 0F 42 F2        cmovb       r14,r10
  000000000000138F: 4C 89 6F 08        mov         qword ptr [rdi+8],r13
  0000000000001393: 4C 0F 42 F9        cmovb       r15,rcx
  0000000000001397: 4C 89 77 10        mov         qword ptr [rdi+10h],r14
  000000000000139B: 4C 89 7F 18        mov         qword ptr [rdi+18h],r15
  000000000000139F: F3 C3              rep ret
  00000000000013A1: 90                 nop
  00000000000013A2: 90                 nop
  00000000000013A3: 90                 nop
  00000000000013A4: 90                 nop
  00000000000013A5: 90                 nop
  00000000000013A6: 90                 nop
  00000000000013A7: 90                 nop
  00000000000013A8: 90                 nop
  00000000000013A9: 90                 nop
  00000000000013AA: 90                 nop
  00000000000013AB: 90                 nop
  00000000000013AC: 90                 nop
  00000000000013AD: 90                 nop
  00000000000013AE: 90                 nop
  00000000000013AF: 90                 nop
  00000000000013B0: 90                 nop
  00000000000013B1: 90                 nop
  00000000000013B2: 90                 nop
  00000000000013B3: 90                 nop
  00000000000013B4: 90                 nop
  00000000000013B5: 90                 nop
  00000000000013B6: 90                 nop
  00000000000013B7: 90                 nop
  00000000000013B8: 90                 nop
  00000000000013B9: 90                 nop
  00000000000013BA: 90                 nop
  00000000000013BB: 90                 nop
  00000000000013BC: 90                 nop
  00000000000013BD: 90                 nop
  00000000000013BE: 90                 nop
  00000000000013BF: 90                 nop
__ecp_nistz256_mul_montx:
  00000000000013C0: C4 42 BB F6 C9     mulx        r9,r8,r9
  00000000000013C5: C4 42 F3 F6 D2     mulx        r10,rcx,r10
  00000000000013CA: 41 BE 20 00 00 00  mov         r14d,20h
  00000000000013D0: 4D 31 ED           xor         r13,r13
  00000000000013D3: C4 42 D3 F6 DB     mulx        r11,rbp,r11
  00000000000013D8: 4C 8B 3D 18 00 00  mov         r15,qword ptr [.rdata+18h]
                    00
  00000000000013DF: 49 11 C9           adc         r9,rcx
  00000000000013E2: C4 42 F3 F6 E4     mulx        r12,rcx,r12
  00000000000013E7: 4C 89 C2           mov         rdx,r8
  00000000000013EA: 49 11 EA           adc         r10,rbp
  00000000000013ED: C4 C2 89 F7 E8     shlx        rbp,r8,r14
  00000000000013F2: 49 11 CB           adc         r11,rcx
  00000000000013F5: C4 C2 8B F7 C8     shrx        rcx,r8,r14
  00000000000013FA: 49 83 D4 00        adc         r12,0
  00000000000013FE: 49 01 E9           add         r9,rbp
  0000000000001401: 49 11 CA           adc         r10,rcx
  0000000000001404: C4 C2 F3 F6 EF     mulx        rbp,rcx,r15
  0000000000001409: 48 8B 53 08        mov         rdx,qword ptr [rbx+8]
  000000000000140D: 49 11 CB           adc         r11,rcx
  0000000000001410: 49 11 EC           adc         r12,rbp
  0000000000001413: 49 83 D5 00        adc         r13,0
  0000000000001417: 4D 31 C0           xor         r8,r8
  000000000000141A: C4 E2 F3 F6 AE 80  mulx        rbp,rcx,qword ptr [rsi+80h]
                    00 00 00
  0000000000001423: 66 4C 0F 38 F6 C9  adcx        r9,rcx
  0000000000001429: F3 4C 0F 38 F6 D5  adox        r10,rbp
  000000000000142F: C4 E2 F3 F6 AE 88  mulx        rbp,rcx,qword ptr [rsi+88h]
                    00 00 00
  0000000000001438: 66 4C 0F 38 F6 D1  adcx        r10,rcx
  000000000000143E: F3 4C 0F 38 F6 DD  adox        r11,rbp
  0000000000001444: C4 E2 F3 F6 AE 90  mulx        rbp,rcx,qword ptr [rsi+90h]
                    00 00 00
  000000000000144D: 66 4C 0F 38 F6 D9  adcx        r11,rcx
  0000000000001453: F3 4C 0F 38 F6 E5  adox        r12,rbp
  0000000000001459: C4 E2 F3 F6 AE 98  mulx        rbp,rcx,qword ptr [rsi+98h]
                    00 00 00
  0000000000001462: 4C 89 CA           mov         rdx,r9
  0000000000001465: 66 4C 0F 38 F6 E1  adcx        r12,rcx
  000000000000146B: C4 C2 89 F7 C9     shlx        rcx,r9,r14
  0000000000001470: F3 4C 0F 38 F6 ED  adox        r13,rbp
  0000000000001476: C4 C2 8B F7 E9     shrx        rbp,r9,r14
  000000000000147B: 66 4D 0F 38 F6 E8  adcx        r13,r8
  0000000000001481: F3 4D 0F 38 F6 C0  adox        r8,r8
  0000000000001487: 49 83 D0 00        adc         r8,0
  000000000000148B: 49 01 CA           add         r10,rcx
  000000000000148E: 49 11 EB           adc         r11,rbp
  0000000000001491: C4 C2 F3 F6 EF     mulx        rbp,rcx,r15
  0000000000001496: 48 8B 53 10        mov         rdx,qword ptr [rbx+10h]
  000000000000149A: 49 11 CC           adc         r12,rcx
  000000000000149D: 49 11 ED           adc         r13,rbp
  00000000000014A0: 49 83 D0 00        adc         r8,0
  00000000000014A4: 4D 31 C9           xor         r9,r9
  00000000000014A7: C4 E2 F3 F6 AE 80  mulx        rbp,rcx,qword ptr [rsi+80h]
                    00 00 00
  00000000000014B0: 66 4C 0F 38 F6 D1  adcx        r10,rcx
  00000000000014B6: F3 4C 0F 38 F6 DD  adox        r11,rbp
  00000000000014BC: C4 E2 F3 F6 AE 88  mulx        rbp,rcx,qword ptr [rsi+88h]
                    00 00 00
  00000000000014C5: 66 4C 0F 38 F6 D9  adcx        r11,rcx
  00000000000014CB: F3 4C 0F 38 F6 E5  adox        r12,rbp
  00000000000014D1: C4 E2 F3 F6 AE 90  mulx        rbp,rcx,qword ptr [rsi+90h]
                    00 00 00
  00000000000014DA: 66 4C 0F 38 F6 E1  adcx        r12,rcx
  00000000000014E0: F3 4C 0F 38 F6 ED  adox        r13,rbp
  00000000000014E6: C4 E2 F3 F6 AE 98  mulx        rbp,rcx,qword ptr [rsi+98h]
                    00 00 00
  00000000000014EF: 4C 89 D2           mov         rdx,r10
  00000000000014F2: 66 4C 0F 38 F6 E9  adcx        r13,rcx
  00000000000014F8: C4 C2 89 F7 CA     shlx        rcx,r10,r14
  00000000000014FD: F3 4C 0F 38 F6 C5  adox        r8,rbp
  0000000000001503: C4 C2 8B F7 EA     shrx        rbp,r10,r14
  0000000000001508: 66 4D 0F 38 F6 C1  adcx        r8,r9
  000000000000150E: F3 4D 0F 38 F6 C9  adox        r9,r9
  0000000000001514: 49 83 D1 00        adc         r9,0
  0000000000001518: 49 01 CB           add         r11,rcx
  000000000000151B: 49 11 EC           adc         r12,rbp
  000000000000151E: C4 C2 F3 F6 EF     mulx        rbp,rcx,r15
  0000000000001523: 48 8B 53 18        mov         rdx,qword ptr [rbx+18h]
  0000000000001527: 49 11 CD           adc         r13,rcx
  000000000000152A: 49 11 E8           adc         r8,rbp
  000000000000152D: 49 83 D1 00        adc         r9,0
  0000000000001531: 4D 31 D2           xor         r10,r10
  0000000000001534: C4 E2 F3 F6 AE 80  mulx        rbp,rcx,qword ptr [rsi+80h]
                    00 00 00
  000000000000153D: 66 4C 0F 38 F6 D9  adcx        r11,rcx
  0000000000001543: F3 4C 0F 38 F6 E5  adox        r12,rbp
  0000000000001549: C4 E2 F3 F6 AE 88  mulx        rbp,rcx,qword ptr [rsi+88h]
                    00 00 00
  0000000000001552: 66 4C 0F 38 F6 E1  adcx        r12,rcx
  0000000000001558: F3 4C 0F 38 F6 ED  adox        r13,rbp
  000000000000155E: C4 E2 F3 F6 AE 90  mulx        rbp,rcx,qword ptr [rsi+90h]
                    00 00 00
  0000000000001567: 66 4C 0F 38 F6 E9  adcx        r13,rcx
  000000000000156D: F3 4C 0F 38 F6 C5  adox        r8,rbp
  0000000000001573: C4 E2 F3 F6 AE 98  mulx        rbp,rcx,qword ptr [rsi+98h]
                    00 00 00
  000000000000157C: 4C 89 DA           mov         rdx,r11
  000000000000157F: 66 4C 0F 38 F6 C1  adcx        r8,rcx
  0000000000001585: C4 C2 89 F7 CB     shlx        rcx,r11,r14
  000000000000158A: F3 4C 0F 38 F6 CD  adox        r9,rbp
  0000000000001590: C4 C2 8B F7 EB     shrx        rbp,r11,r14
  0000000000001595: 66 4D 0F 38 F6 CA  adcx        r9,r10
  000000000000159B: F3 4D 0F 38 F6 D2  adox        r10,r10
  00000000000015A1: 49 83 D2 00        adc         r10,0
  00000000000015A5: 49 01 CC           add         r12,rcx
  00000000000015A8: 49 11 ED           adc         r13,rbp
  00000000000015AB: C4 C2 F3 F6 EF     mulx        rbp,rcx,r15
  00000000000015B0: 4C 89 E3           mov         rbx,r12
  00000000000015B3: 4C 8B 35 08 00 00  mov         r14,qword ptr [.rdata+8]
                    00
  00000000000015BA: 49 11 C8           adc         r8,rcx
  00000000000015BD: 4C 89 EA           mov         rdx,r13
  00000000000015C0: 49 11 E9           adc         r9,rbp
  00000000000015C3: 49 83 D2 00        adc         r10,0
  00000000000015C7: 31 C0              xor         eax,eax
  00000000000015C9: 4C 89 C1           mov         rcx,r8
  00000000000015CC: 49 83 DC FF        sbb         r12,0FFFFFFFFFFFFFFFFh
  00000000000015D0: 4D 19 F5           sbb         r13,r14
  00000000000015D3: 49 83 D8 00        sbb         r8,0
  00000000000015D7: 4C 89 CD           mov         rbp,r9
  00000000000015DA: 4D 19 F9           sbb         r9,r15
  00000000000015DD: 49 83 DA 00        sbb         r10,0
  00000000000015E1: 4C 0F 42 E3        cmovb       r12,rbx
  00000000000015E5: 4C 0F 42 EA        cmovb       r13,rdx
  00000000000015E9: 4C 89 27           mov         qword ptr [rdi],r12
  00000000000015EC: 4C 0F 42 C1        cmovb       r8,rcx
  00000000000015F0: 4C 89 6F 08        mov         qword ptr [rdi+8],r13
  00000000000015F4: 4C 0F 42 CD        cmovb       r9,rbp
  00000000000015F8: 4C 89 47 10        mov         qword ptr [rdi+10h],r8
  00000000000015FC: 4C 89 4F 18        mov         qword ptr [rdi+18h],r9
  0000000000001600: F3 C3              rep ret
  0000000000001602: 90                 nop
  0000000000001603: 90                 nop
  0000000000001604: 90                 nop
  0000000000001605: 90                 nop
  0000000000001606: 90                 nop
  0000000000001607: 90                 nop
  0000000000001608: 90                 nop
  0000000000001609: 90                 nop
  000000000000160A: 90                 nop
  000000000000160B: 90                 nop
  000000000000160C: 90                 nop
  000000000000160D: 90                 nop
  000000000000160E: 90                 nop
  000000000000160F: 90                 nop
  0000000000001610: 90                 nop
  0000000000001611: 90                 nop
  0000000000001612: 90                 nop
  0000000000001613: 90                 nop
  0000000000001614: 90                 nop
  0000000000001615: 90                 nop
  0000000000001616: 90                 nop
  0000000000001617: 90                 nop
  0000000000001618: 90                 nop
  0000000000001619: 90                 nop
  000000000000161A: 90                 nop
  000000000000161B: 90                 nop
  000000000000161C: 90                 nop
  000000000000161D: 90                 nop
  000000000000161E: 90                 nop
  000000000000161F: 90                 nop
__ecp_nistz256_sqr_montx:
  0000000000001620: C4 42 B3 F6 D6     mulx        r10,r9,r14
  0000000000001625: C4 42 F3 F6 DF     mulx        r11,rcx,r15
  000000000000162A: 31 C0              xor         eax,eax
  000000000000162C: 49 11 CA           adc         r10,rcx
  000000000000162F: C4 42 D3 F6 E0     mulx        r12,rbp,r8
  0000000000001634: 4C 89 F2           mov         rdx,r14
  0000000000001637: 49 11 EB           adc         r11,rbp
  000000000000163A: 49 83 D4 00        adc         r12,0
  000000000000163E: 4D 31 ED           xor         r13,r13
  0000000000001641: C4 C2 F3 F6 EF     mulx        rbp,rcx,r15
  0000000000001646: 66 4C 0F 38 F6 D9  adcx        r11,rcx
  000000000000164C: F3 4C 0F 38 F6 E5  adox        r12,rbp
  0000000000001652: C4 C2 F3 F6 E8     mulx        rbp,rcx,r8
  0000000000001657: 4C 89 FA           mov         rdx,r15
  000000000000165A: 66 4C 0F 38 F6 E1  adcx        r12,rcx
  0000000000001660: F3 4C 0F 38 F6 ED  adox        r13,rbp
  0000000000001666: 49 83 D5 00        adc         r13,0
  000000000000166A: C4 42 F3 F6 F0     mulx        r14,rcx,r8
  000000000000166F: 48 8B 96 80 00 00  mov         rdx,qword ptr [rsi+80h]
                    00
  0000000000001676: 4D 31 FF           xor         r15,r15
  0000000000001679: 66 4D 0F 38 F6 C9  adcx        r9,r9
  000000000000167F: F3 4C 0F 38 F6 E9  adox        r13,rcx
  0000000000001685: 66 4D 0F 38 F6 D2  adcx        r10,r10
  000000000000168B: F3 4D 0F 38 F6 F7  adox        r14,r15
  0000000000001691: C4 E2 BB F6 EA     mulx        rbp,r8,rdx
  0000000000001696: 48 8B 96 88 00 00  mov         rdx,qword ptr [rsi+88h]
                    00
  000000000000169D: 66 4D 0F 38 F6 DB  adcx        r11,r11
  00000000000016A3: F3 4C 0F 38 F6 CD  adox        r9,rbp
  00000000000016A9: 66 4D 0F 38 F6 E4  adcx        r12,r12
  00000000000016AF: C4 E2 F3 F6 C2     mulx        rax,rcx,rdx
  00000000000016B4: 48 8B 96 90 00 00  mov         rdx,qword ptr [rsi+90h]
                    00
  00000000000016BB: 66 4D 0F 38 F6 ED  adcx        r13,r13
  00000000000016C1: F3 4C 0F 38 F6 D1  adox        r10,rcx
  00000000000016C7: 66 4D 0F 38 F6 F6  adcx        r14,r14
  00000000000016CD: 67 C4 E2 F3 F6 EA  mulx        rbp,rcx,rdx
  00000000000016D3: 48 8B 96 98 00 00  mov         rdx,qword ptr [rsi+98h]
                    00
  00000000000016DA: F3 4C 0F 38 F6 D8  adox        r11,rax
  00000000000016E0: 66 4D 0F 38 F6 FF  adcx        r15,r15
  00000000000016E6: F3 4C 0F 38 F6 E1  adox        r12,rcx
  00000000000016EC: BE 20 00 00 00     mov         esi,20h
  00000000000016F1: F3 4C 0F 38 F6 ED  adox        r13,rbp
  00000000000016F7: 67 67 C4 E2 F3 F6  mulx        rax,rcx,rdx
                    C2
  00000000000016FE: 48 8B 15 18 00 00  mov         rdx,qword ptr [.rdata+18h]
                    00
  0000000000001705: F3 4C 0F 38 F6 F1  adox        r14,rcx
  000000000000170B: C4 C2 C9 F7 C8     shlx        rcx,r8,rsi
  0000000000001710: F3 4C 0F 38 F6 F8  adox        r15,rax
  0000000000001716: C4 C2 CB F7 C0     shrx        rax,r8,rsi
  000000000000171B: 48 89 D5           mov         rbp,rdx
  000000000000171E: 49 01 C9           add         r9,rcx
  0000000000001721: 49 11 C2           adc         r10,rax
  0000000000001724: C4 42 F3 F6 C0     mulx        r8,rcx,r8
  0000000000001729: 49 11 CB           adc         r11,rcx
  000000000000172C: C4 C2 C9 F7 C9     shlx        rcx,r9,rsi
  0000000000001731: 49 83 D0 00        adc         r8,0
  0000000000001735: C4 C2 CB F7 C1     shrx        rax,r9,rsi
  000000000000173A: 49 01 CA           add         r10,rcx
  000000000000173D: 49 11 C3           adc         r11,rax
  0000000000001740: C4 42 F3 F6 C9     mulx        r9,rcx,r9
  0000000000001745: 49 11 C8           adc         r8,rcx
  0000000000001748: C4 C2 C9 F7 CA     shlx        rcx,r10,rsi
  000000000000174D: 49 83 D1 00        adc         r9,0
  0000000000001751: C4 C2 CB F7 C2     shrx        rax,r10,rsi
  0000000000001756: 49 01 CB           add         r11,rcx
  0000000000001759: 49 11 C0           adc         r8,rax
  000000000000175C: C4 42 F3 F6 D2     mulx        r10,rcx,r10
  0000000000001761: 49 11 C9           adc         r9,rcx
  0000000000001764: C4 C2 C9 F7 CB     shlx        rcx,r11,rsi
  0000000000001769: 49 83 D2 00        adc         r10,0
  000000000000176D: C4 C2 CB F7 C3     shrx        rax,r11,rsi
  0000000000001772: 49 01 C8           add         r8,rcx
  0000000000001775: 49 11 C1           adc         r9,rax
  0000000000001778: C4 42 F3 F6 DB     mulx        r11,rcx,r11
  000000000000177D: 49 11 CA           adc         r10,rcx
  0000000000001780: 49 83 D3 00        adc         r11,0
  0000000000001784: 48 31 D2           xor         rdx,rdx
  0000000000001787: 4D 01 C4           add         r12,r8
  000000000000178A: 48 8B 35 08 00 00  mov         rsi,qword ptr [.rdata+8]
                    00
  0000000000001791: 4D 11 CD           adc         r13,r9
  0000000000001794: 4D 89 E0           mov         r8,r12
  0000000000001797: 4D 11 D6           adc         r14,r10
  000000000000179A: 4D 11 DF           adc         r15,r11
  000000000000179D: 4D 89 E9           mov         r9,r13
  00000000000017A0: 48 83 D2 00        adc         rdx,0
  00000000000017A4: 49 83 EC FF        sub         r12,0FFFFFFFFFFFFFFFFh
  00000000000017A8: 4D 89 F2           mov         r10,r14
  00000000000017AB: 49 19 F5           sbb         r13,rsi
  00000000000017AE: 49 83 DE 00        sbb         r14,0
  00000000000017B2: 4D 89 FB           mov         r11,r15
  00000000000017B5: 49 19 EF           sbb         r15,rbp
  00000000000017B8: 48 83 DA 00        sbb         rdx,0
  00000000000017BC: 4D 0F 42 E0        cmovb       r12,r8
  00000000000017C0: 4D 0F 42 E9        cmovb       r13,r9
  00000000000017C4: 4C 89 27           mov         qword ptr [rdi],r12
  00000000000017C7: 4D 0F 42 F2        cmovb       r14,r10
  00000000000017CB: 4C 89 6F 08        mov         qword ptr [rdi+8],r13
  00000000000017CF: 4D 0F 42 FB        cmovb       r15,r11
  00000000000017D3: 4C 89 77 10        mov         qword ptr [rdi+10h],r14
  00000000000017D7: 4C 89 7F 18        mov         qword ptr [rdi+18h],r15
  00000000000017DB: F3 C3              rep ret
  00000000000017DD: 90                 nop
  00000000000017DE: 90                 nop
  00000000000017DF: 90                 nop
aws_lc_0_21_2_ecp_nistz256_select_w5:
  00000000000017E0: 48 8D 05 00 00 00  lea         rax,[aws_lc_0_21_2_OPENSSL_ia32cap_P]
                    00
  00000000000017E7: 48 8B 40 08        mov         rax,qword ptr [rax+8]
  00000000000017EB: A9 20 00 00 00     test        eax,20h
  00000000000017F0: 0F 85 AA 02 00 00  jne         L$avx2_select_w5
  00000000000017F6: 48 8D 84 24 78 FF  lea         rax,[rsp-88h]
                    FF FF
L$SEH_begin_ecp_nistz256_select_w5:
  00000000000017FE: 48 8D 60 E0        lea         rsp,[rax-20h]
  0000000000001802: 0F 29 70 E0        movaps      xmmword ptr [rax-20h],xmm6
  0000000000001806: 0F 29 78 F0        movaps      xmmword ptr [rax-10h],xmm7
  000000000000180A: 44 0F 29 00        movaps      xmmword ptr [rax],xmm8
  000000000000180E: 44 0F 29 48 10     movaps      xmmword ptr [rax+10h],xmm9
  0000000000001813: 44 0F 29 50 20     movaps      xmmword ptr [rax+20h],xmm10
  0000000000001818: 44 0F 29 58 30     movaps      xmmword ptr [rax+30h],xmm11
  000000000000181D: 44 0F 29 60 40     movaps      xmmword ptr [rax+40h],xmm12
  0000000000001822: 44 0F 29 68 50     movaps      xmmword ptr [rax+50h],xmm13
  0000000000001827: 44 0F 29 70 60     movaps      xmmword ptr [rax+60h],xmm14
  000000000000182C: 44 0F 29 78 70     movaps      xmmword ptr [rax+70h],xmm15
  0000000000001831: 66 0F 6F 05 20 00  movdqa      xmm0,xmmword ptr [.rdata+20h]
                    00 00
  0000000000001839: 66 41 0F 6E C8     movd        xmm1,r8d
  000000000000183E: 66 0F EF D2        pxor        xmm2,xmm2
  0000000000001842: 66 0F EF DB        pxor        xmm3,xmm3
  0000000000001846: 66 0F EF E4        pxor        xmm4,xmm4
  000000000000184A: 66 0F EF ED        pxor        xmm5,xmm5
  000000000000184E: 66 0F EF F6        pxor        xmm6,xmm6
  0000000000001852: 66 0F EF FF        pxor        xmm7,xmm7
  0000000000001856: 66 44 0F 6F C0     movdqa      xmm8,xmm0
  000000000000185B: 66 0F 70 C9 00     pshufd      xmm1,xmm1,0
  0000000000001860: B8 10 00 00 00     mov         eax,10h
L$select_loop_sse_w5:
  0000000000001865: 66 45 0F 6F F8     movdqa      xmm15,xmm8
  000000000000186A: 66 44 0F FE C0     paddd       xmm8,xmm0
  000000000000186F: 66 44 0F 76 F9     pcmpeqd     xmm15,xmm1
  0000000000001874: 66 44 0F 6F 0A     movdqa      xmm9,xmmword ptr [rdx]
  0000000000001879: 66 44 0F 6F 52 10  movdqa      xmm10,xmmword ptr [rdx+10h]
  000000000000187F: 66 44 0F 6F 5A 20  movdqa      xmm11,xmmword ptr [rdx+20h]
  0000000000001885: 66 44 0F 6F 62 30  movdqa      xmm12,xmmword ptr [rdx+30h]
  000000000000188B: 66 44 0F 6F 6A 40  movdqa      xmm13,xmmword ptr [rdx+40h]
  0000000000001891: 66 44 0F 6F 72 50  movdqa      xmm14,xmmword ptr [rdx+50h]
  0000000000001897: 48 8D 52 60        lea         rdx,[rdx+60h]
  000000000000189B: 66 45 0F DB CF     pand        xmm9,xmm15
  00000000000018A0: 66 45 0F DB D7     pand        xmm10,xmm15
  00000000000018A5: 66 41 0F EB D1     por         xmm2,xmm9
  00000000000018AA: 66 45 0F DB DF     pand        xmm11,xmm15
  00000000000018AF: 66 41 0F EB DA     por         xmm3,xmm10
  00000000000018B4: 66 45 0F DB E7     pand        xmm12,xmm15
  00000000000018B9: 66 41 0F EB E3     por         xmm4,xmm11
  00000000000018BE: 66 45 0F DB EF     pand        xmm13,xmm15
  00000000000018C3: 66 41 0F EB EC     por         xmm5,xmm12
  00000000000018C8: 66 45 0F DB F7     pand        xmm14,xmm15
  00000000000018CD: 66 41 0F EB F5     por         xmm6,xmm13
  00000000000018D2: 66 41 0F EB FE     por         xmm7,xmm14
  00000000000018D7: 48 FF C8           dec         rax
  00000000000018DA: 0F 85 85 FF FF FF  jne         L$select_loop_sse_w5
  00000000000018E0: F3 0F 7F 11        movdqu      xmmword ptr [rcx],xmm2
  00000000000018E4: F3 0F 7F 59 10     movdqu      xmmword ptr [rcx+10h],xmm3
  00000000000018E9: F3 0F 7F 61 20     movdqu      xmmword ptr [rcx+20h],xmm4
  00000000000018EE: F3 0F 7F 69 30     movdqu      xmmword ptr [rcx+30h],xmm5
  00000000000018F3: F3 0F 7F 71 40     movdqu      xmmword ptr [rcx+40h],xmm6
  00000000000018F8: F3 0F 7F 79 50     movdqu      xmmword ptr [rcx+50h],xmm7
  00000000000018FD: 0F 28 34 24        movaps      xmm6,xmmword ptr [rsp]
  0000000000001901: 0F 28 7C 24 10     movaps      xmm7,xmmword ptr [rsp+10h]
  0000000000001906: 44 0F 28 44 24 20  movaps      xmm8,xmmword ptr [rsp+20h]
  000000000000190C: 44 0F 28 4C 24 30  movaps      xmm9,xmmword ptr [rsp+30h]
  0000000000001912: 44 0F 28 54 24 40  movaps      xmm10,xmmword ptr [rsp+40h]
  0000000000001918: 44 0F 28 5C 24 50  movaps      xmm11,xmmword ptr [rsp+50h]
  000000000000191E: 44 0F 28 64 24 60  movaps      xmm12,xmmword ptr [rsp+60h]
  0000000000001924: 44 0F 28 6C 24 70  movaps      xmm13,xmmword ptr [rsp+70h]
  000000000000192A: 44 0F 28 B4 24 80  movaps      xmm14,xmmword ptr [rsp+80h]
                    00 00 00
  0000000000001933: 44 0F 28 BC 24 90  movaps      xmm15,xmmword ptr [rsp+90h]
                    00 00 00
  000000000000193C: 48 8D A4 24 A8 00  lea         rsp,[rsp+0A8h]
                    00 00
  0000000000001944: F3 C3              rep ret
L$SEH_end_ecp_nistz256_select_w5:
  0000000000001946: 90                 nop
  0000000000001947: 90                 nop
  0000000000001948: 90                 nop
  0000000000001949: 90                 nop
  000000000000194A: 90                 nop
  000000000000194B: 90                 nop
  000000000000194C: 90                 nop
  000000000000194D: 90                 nop
  000000000000194E: 90                 nop
  000000000000194F: 90                 nop
  0000000000001950: 90                 nop
  0000000000001951: 90                 nop
  0000000000001952: 90                 nop
  0000000000001953: 90                 nop
  0000000000001954: 90                 nop
  0000000000001955: 90                 nop
  0000000000001956: 90                 nop
  0000000000001957: 90                 nop
  0000000000001958: 90                 nop
  0000000000001959: 90                 nop
  000000000000195A: 90                 nop
  000000000000195B: 90                 nop
  000000000000195C: 90                 nop
  000000000000195D: 90                 nop
  000000000000195E: 90                 nop
  000000000000195F: 90                 nop
aws_lc_0_21_2_ecp_nistz256_select_w7:
  0000000000001960: 48 8D 05 00 00 00  lea         rax,[aws_lc_0_21_2_OPENSSL_ia32cap_P]
                    00
  0000000000001967: 48 8B 40 08        mov         rax,qword ptr [rax+8]
  000000000000196B: A9 20 00 00 00     test        eax,20h
  0000000000001970: 0F 85 8A 02 00 00  jne         aws_lc_0_21_2_ecp_nistz256_avx2_select_w7
  0000000000001976: 48 8D 84 24 78 FF  lea         rax,[rsp-88h]
                    FF FF
L$SEH_begin_ecp_nistz256_select_w7:
  000000000000197E: 48 8D 60 E0        lea         rsp,[rax-20h]
  0000000000001982: 0F 29 70 E0        movaps      xmmword ptr [rax-20h],xmm6
  0000000000001986: 0F 29 78 F0        movaps      xmmword ptr [rax-10h],xmm7
  000000000000198A: 44 0F 29 00        movaps      xmmword ptr [rax],xmm8
  000000000000198E: 44 0F 29 48 10     movaps      xmmword ptr [rax+10h],xmm9
  0000000000001993: 44 0F 29 50 20     movaps      xmmword ptr [rax+20h],xmm10
  0000000000001998: 44 0F 29 58 30     movaps      xmmword ptr [rax+30h],xmm11
  000000000000199D: 44 0F 29 60 40     movaps      xmmword ptr [rax+40h],xmm12
  00000000000019A2: 44 0F 29 68 50     movaps      xmmword ptr [rax+50h],xmm13
  00000000000019A7: 44 0F 29 70 60     movaps      xmmword ptr [rax+60h],xmm14
  00000000000019AC: 44 0F 29 78 70     movaps      xmmword ptr [rax+70h],xmm15
  00000000000019B1: 66 44 0F 6F 05 20  movdqa      xmm8,xmmword ptr [.rdata+20h]
                    00 00 00
  00000000000019BA: 66 41 0F 6E C8     movd        xmm1,r8d
  00000000000019BF: 66 0F EF D2        pxor        xmm2,xmm2
  00000000000019C3: 66 0F EF DB        pxor        xmm3,xmm3
  00000000000019C7: 66 0F EF E4        pxor        xmm4,xmm4
  00000000000019CB: 66 0F EF ED        pxor        xmm5,xmm5
  00000000000019CF: 66 41 0F 6F C0     movdqa      xmm0,xmm8
  00000000000019D4: 66 0F 70 C9 00     pshufd      xmm1,xmm1,0
  00000000000019D9: B8 40 00 00 00     mov         eax,40h
L$select_loop_sse_w7:
  00000000000019DE: 66 45 0F 6F F8     movdqa      xmm15,xmm8
  00000000000019E3: 66 44 0F FE C0     paddd       xmm8,xmm0
  00000000000019E8: 66 44 0F 6F 0A     movdqa      xmm9,xmmword ptr [rdx]
  00000000000019ED: 66 44 0F 6F 52 10  movdqa      xmm10,xmmword ptr [rdx+10h]
  00000000000019F3: 66 44 0F 76 F9     pcmpeqd     xmm15,xmm1
  00000000000019F8: 66 44 0F 6F 5A 20  movdqa      xmm11,xmmword ptr [rdx+20h]
  00000000000019FE: 66 44 0F 6F 62 30  movdqa      xmm12,xmmword ptr [rdx+30h]
  0000000000001A04: 48 8D 52 40        lea         rdx,[rdx+40h]
  0000000000001A08: 66 45 0F DB CF     pand        xmm9,xmm15
  0000000000001A0D: 66 45 0F DB D7     pand        xmm10,xmm15
  0000000000001A12: 66 41 0F EB D1     por         xmm2,xmm9
  0000000000001A17: 66 45 0F DB DF     pand        xmm11,xmm15
  0000000000001A1C: 66 41 0F EB DA     por         xmm3,xmm10
  0000000000001A21: 66 45 0F DB E7     pand        xmm12,xmm15
  0000000000001A26: 66 41 0F EB E3     por         xmm4,xmm11
  0000000000001A2B: 0F 18 8A FF 00 00  prefetcht0  [rdx+0FFh]
                    00
  0000000000001A32: 66 41 0F EB EC     por         xmm5,xmm12
  0000000000001A37: 48 FF C8           dec         rax
  0000000000001A3A: 0F 85 9E FF FF FF  jne         L$select_loop_sse_w7
  0000000000001A40: F3 0F 7F 11        movdqu      xmmword ptr [rcx],xmm2
  0000000000001A44: F3 0F 7F 59 10     movdqu      xmmword ptr [rcx+10h],xmm3
  0000000000001A49: F3 0F 7F 61 20     movdqu      xmmword ptr [rcx+20h],xmm4
  0000000000001A4E: F3 0F 7F 69 30     movdqu      xmmword ptr [rcx+30h],xmm5
  0000000000001A53: 0F 28 34 24        movaps      xmm6,xmmword ptr [rsp]
  0000000000001A57: 0F 28 7C 24 10     movaps      xmm7,xmmword ptr [rsp+10h]
  0000000000001A5C: 44 0F 28 44 24 20  movaps      xmm8,xmmword ptr [rsp+20h]
  0000000000001A62: 44 0F 28 4C 24 30  movaps      xmm9,xmmword ptr [rsp+30h]
  0000000000001A68: 44 0F 28 54 24 40  movaps      xmm10,xmmword ptr [rsp+40h]
  0000000000001A6E: 44 0F 28 5C 24 50  movaps      xmm11,xmmword ptr [rsp+50h]
  0000000000001A74: 44 0F 28 64 24 60  movaps      xmm12,xmmword ptr [rsp+60h]
  0000000000001A7A: 44 0F 28 6C 24 70  movaps      xmm13,xmmword ptr [rsp+70h]
  0000000000001A80: 44 0F 28 B4 24 80  movaps      xmm14,xmmword ptr [rsp+80h]
                    00 00 00
  0000000000001A89: 44 0F 28 BC 24 90  movaps      xmm15,xmmword ptr [rsp+90h]
                    00 00 00
  0000000000001A92: 48 8D A4 24 A8 00  lea         rsp,[rsp+0A8h]
                    00 00
  0000000000001A9A: F3 C3              rep ret
L$SEH_end_ecp_nistz256_select_w7:
  0000000000001A9C: 90                 nop
  0000000000001A9D: 90                 nop
  0000000000001A9E: 90                 nop
  0000000000001A9F: 90                 nop
L$avx2_select_w5:
  0000000000001AA0: C5 F8 77           vzeroupper
  0000000000001AA3: 48 8D 84 24 78 FF  lea         rax,[rsp-88h]
                    FF FF
  0000000000001AAB: 49 89 E3           mov         r11,rsp
L$SEH_begin_ecp_nistz256_avx2_select_w5:
  0000000000001AAE: 48 8D 60 E0        lea         rsp,[rax-20h]
  0000000000001AB2: C5 F8 29 70 E0     vmovaps     xmmword ptr [rax-20h],xmm6
  0000000000001AB7: C5 F8 29 78 F0     vmovaps     xmmword ptr [rax-10h],xmm7
  0000000000001ABC: C5 78 29 40 00     vmovaps     xmmword ptr [rax],xmm8
  0000000000001AC1: C5 78 29 48 10     vmovaps     xmmword ptr [rax+10h],xmm9
  0000000000001AC6: C5 78 29 50 20     vmovaps     xmmword ptr [rax+20h],xmm10
  0000000000001ACB: C5 78 29 58 30     vmovaps     xmmword ptr [rax+30h],xmm11
  0000000000001AD0: C5 78 29 60 40     vmovaps     xmmword ptr [rax+40h],xmm12
  0000000000001AD5: C5 78 29 68 50     vmovaps     xmmword ptr [rax+50h],xmm13
  0000000000001ADA: C5 78 29 70 60     vmovaps     xmmword ptr [rax+60h],xmm14
  0000000000001ADF: C5 78 29 78 70     vmovaps     xmmword ptr [rax+70h],xmm15
  0000000000001AE4: C5 FD 6F 05 40 00  vmovdqa     ymm0,ymmword ptr [.rdata+40h]
                    00 00
  0000000000001AEC: C5 ED EF D2        vpxor       ymm2,ymm2,ymm2
  0000000000001AF0: C5 E5 EF DB        vpxor       ymm3,ymm3,ymm3
  0000000000001AF4: C5 DD EF E4        vpxor       ymm4,ymm4,ymm4
  0000000000001AF8: C5 FD 6F 2D 20 00  vmovdqa     ymm5,ymmword ptr [.rdata+20h]
                    00 00
  0000000000001B00: C5 7D 6F 15 40 00  vmovdqa     ymm10,ymmword ptr [.rdata+40h]
                    00 00
  0000000000001B08: C4 C1 79 6E C8     vmovd       xmm1,r8d
  0000000000001B0D: C4 E2 6D 36 C9     vpermd      ymm1,ymm2,ymm1
  0000000000001B12: B8 08 00 00 00     mov         eax,8
L$select_loop_avx2_w5:
  0000000000001B17: C5 FD 6F 32        vmovdqa     ymm6,ymmword ptr [rdx]
  0000000000001B1B: C5 FD 6F 7A 20     vmovdqa     ymm7,ymmword ptr [rdx+20h]
  0000000000001B20: C5 7D 6F 42 40     vmovdqa     ymm8,ymmword ptr [rdx+40h]
  0000000000001B25: C5 7D 6F 5A 60     vmovdqa     ymm11,ymmword ptr [rdx+60h]
  0000000000001B2A: C5 7D 6F A2 80 00  vmovdqa     ymm12,ymmword ptr [rdx+80h]
                    00 00
  0000000000001B32: C5 7D 6F AA A0 00  vmovdqa     ymm13,ymmword ptr [rdx+0A0h]
                    00 00
  0000000000001B3A: C5 55 76 C9        vpcmpeqd    ymm9,ymm5,ymm1
  0000000000001B3E: C5 2D 76 F1        vpcmpeqd    ymm14,ymm10,ymm1
  0000000000001B42: C5 D5 FE E8        vpaddd      ymm5,ymm5,ymm0
  0000000000001B46: C5 2D FE D0        vpaddd      ymm10,ymm10,ymm0
  0000000000001B4A: 48 8D 92 C0 00 00  lea         rdx,[rdx+0C0h]
                    00
  0000000000001B51: C4 C1 4D DB F1     vpand       ymm6,ymm6,ymm9
  0000000000001B56: C4 C1 45 DB F9     vpand       ymm7,ymm7,ymm9
  0000000000001B5B: C4 41 3D DB C1     vpand       ymm8,ymm8,ymm9
  0000000000001B60: C4 41 25 DB DE     vpand       ymm11,ymm11,ymm14
  0000000000001B65: C4 41 1D DB E6     vpand       ymm12,ymm12,ymm14
  0000000000001B6A: C4 41 15 DB EE     vpand       ymm13,ymm13,ymm14
  0000000000001B6F: C5 ED EF D6        vpxor       ymm2,ymm2,ymm6
  0000000000001B73: C5 E5 EF DF        vpxor       ymm3,ymm3,ymm7
  0000000000001B77: C4 C1 5D EF E0     vpxor       ymm4,ymm4,ymm8
  0000000000001B7C: C4 C1 6D EF D3     vpxor       ymm2,ymm2,ymm11
  0000000000001B81: C4 C1 65 EF DC     vpxor       ymm3,ymm3,ymm12
  0000000000001B86: C4 C1 5D EF E5     vpxor       ymm4,ymm4,ymm13
  0000000000001B8B: 48 FF C8           dec         rax
  0000000000001B8E: 0F 85 83 FF FF FF  jne         L$select_loop_avx2_w5
  0000000000001B94: C5 FE 7F 11        vmovdqu     ymmword ptr [rcx],ymm2
  0000000000001B98: C5 FE 7F 59 20     vmovdqu     ymmword ptr [rcx+20h],ymm3
  0000000000001B9D: C5 FE 7F 61 40     vmovdqu     ymmword ptr [rcx+40h],ymm4
  0000000000001BA2: C5 F8 77           vzeroupper
  0000000000001BA5: 0F 28 34 24        movaps      xmm6,xmmword ptr [rsp]
  0000000000001BA9: 0F 28 7C 24 10     movaps      xmm7,xmmword ptr [rsp+10h]
  0000000000001BAE: 44 0F 28 44 24 20  movaps      xmm8,xmmword ptr [rsp+20h]
  0000000000001BB4: 44 0F 28 4C 24 30  movaps      xmm9,xmmword ptr [rsp+30h]
  0000000000001BBA: 44 0F 28 54 24 40  movaps      xmm10,xmmword ptr [rsp+40h]
  0000000000001BC0: 44 0F 28 5C 24 50  movaps      xmm11,xmmword ptr [rsp+50h]
  0000000000001BC6: 44 0F 28 64 24 60  movaps      xmm12,xmmword ptr [rsp+60h]
  0000000000001BCC: 44 0F 28 6C 24 70  movaps      xmm13,xmmword ptr [rsp+70h]
  0000000000001BD2: 44 0F 28 B4 24 80  movaps      xmm14,xmmword ptr [rsp+80h]
                    00 00 00
  0000000000001BDB: 44 0F 28 BC 24 90  movaps      xmm15,xmmword ptr [rsp+90h]
                    00 00 00
  0000000000001BE4: 49 8D 23           lea         rsp,[r11]
  0000000000001BE7: F3 C3              rep ret
L$SEH_end_ecp_nistz256_avx2_select_w5:
  0000000000001BE9: 90                 nop
  0000000000001BEA: 90                 nop
  0000000000001BEB: 90                 nop
  0000000000001BEC: 90                 nop
  0000000000001BED: 90                 nop
  0000000000001BEE: 90                 nop
  0000000000001BEF: 90                 nop
  0000000000001BF0: 90                 nop
  0000000000001BF1: 90                 nop
  0000000000001BF2: 90                 nop
  0000000000001BF3: 90                 nop
  0000000000001BF4: 90                 nop
  0000000000001BF5: 90                 nop
  0000000000001BF6: 90                 nop
  0000000000001BF7: 90                 nop
  0000000000001BF8: 90                 nop
  0000000000001BF9: 90                 nop
  0000000000001BFA: 90                 nop
  0000000000001BFB: 90                 nop
  0000000000001BFC: 90                 nop
  0000000000001BFD: 90                 nop
  0000000000001BFE: 90                 nop
  0000000000001BFF: 90                 nop
aws_lc_0_21_2_ecp_nistz256_avx2_select_w7:
  0000000000001C00: C5 F8 77           vzeroupper
  0000000000001C03: 49 89 E3           mov         r11,rsp
  0000000000001C06: 48 8D 84 24 78 FF  lea         rax,[rsp-88h]
                    FF FF
L$SEH_begin_ecp_nistz256_avx2_select_w7:
  0000000000001C0E: 48 8D 60 E0        lea         rsp,[rax-20h]
  0000000000001C12: C5 F8 29 70 E0     vmovaps     xmmword ptr [rax-20h],xmm6
  0000000000001C17: C5 F8 29 78 F0     vmovaps     xmmword ptr [rax-10h],xmm7
  0000000000001C1C: C5 78 29 40 00     vmovaps     xmmword ptr [rax],xmm8
  0000000000001C21: C5 78 29 48 10     vmovaps     xmmword ptr [rax+10h],xmm9
  0000000000001C26: C5 78 29 50 20     vmovaps     xmmword ptr [rax+20h],xmm10
  0000000000001C2B: C5 78 29 58 30     vmovaps     xmmword ptr [rax+30h],xmm11
  0000000000001C30: C5 78 29 60 40     vmovaps     xmmword ptr [rax+40h],xmm12
  0000000000001C35: C5 78 29 68 50     vmovaps     xmmword ptr [rax+50h],xmm13
  0000000000001C3A: C5 78 29 70 60     vmovaps     xmmword ptr [rax+60h],xmm14
  0000000000001C3F: C5 78 29 78 70     vmovaps     xmmword ptr [rax+70h],xmm15
  0000000000001C44: C5 FD 6F 05 60 00  vmovdqa     ymm0,ymmword ptr [.rdata+60h]
                    00 00
  0000000000001C4C: C5 ED EF D2        vpxor       ymm2,ymm2,ymm2
  0000000000001C50: C5 E5 EF DB        vpxor       ymm3,ymm3,ymm3
  0000000000001C54: C5 FD 6F 25 20 00  vmovdqa     ymm4,ymmword ptr [.rdata+20h]
                    00 00
  0000000000001C5C: C5 7D 6F 05 40 00  vmovdqa     ymm8,ymmword ptr [.rdata+40h]
                    00 00
  0000000000001C64: C5 7D 6F 25 60 00  vmovdqa     ymm12,ymmword ptr [.rdata+60h]
                    00 00
  0000000000001C6C: C4 C1 79 6E C8     vmovd       xmm1,r8d
  0000000000001C71: C4 E2 6D 36 C9     vpermd      ymm1,ymm2,ymm1
  0000000000001C76: B8 15 00 00 00     mov         eax,15h
L$select_loop_avx2_w7:
  0000000000001C7B: C5 FD 6F 2A        vmovdqa     ymm5,ymmword ptr [rdx]
  0000000000001C7F: C5 FD 6F 72 20     vmovdqa     ymm6,ymmword ptr [rdx+20h]
  0000000000001C84: C5 7D 6F 4A 40     vmovdqa     ymm9,ymmword ptr [rdx+40h]
  0000000000001C89: C5 7D 6F 52 60     vmovdqa     ymm10,ymmword ptr [rdx+60h]
  0000000000001C8E: C5 7D 6F AA 80 00  vmovdqa     ymm13,ymmword ptr [rdx+80h]
                    00 00
  0000000000001C96: C5 7D 6F B2 A0 00  vmovdqa     ymm14,ymmword ptr [rdx+0A0h]
                    00 00
  0000000000001C9E: C5 DD 76 F9        vpcmpeqd    ymm7,ymm4,ymm1
  0000000000001CA2: C5 3D 76 D9        vpcmpeqd    ymm11,ymm8,ymm1
  0000000000001CA6: C5 1D 76 F9        vpcmpeqd    ymm15,ymm12,ymm1
  0000000000001CAA: C5 DD FE E0        vpaddd      ymm4,ymm4,ymm0
  0000000000001CAE: C5 3D FE C0        vpaddd      ymm8,ymm8,ymm0
  0000000000001CB2: C5 1D FE E0        vpaddd      ymm12,ymm12,ymm0
  0000000000001CB6: 48 8D 92 C0 00 00  lea         rdx,[rdx+0C0h]
                    00
  0000000000001CBD: C5 D5 DB EF        vpand       ymm5,ymm5,ymm7
  0000000000001CC1: C5 CD DB F7        vpand       ymm6,ymm6,ymm7
  0000000000001CC5: C4 41 35 DB CB     vpand       ymm9,ymm9,ymm11
  0000000000001CCA: C4 41 2D DB D3     vpand       ymm10,ymm10,ymm11
  0000000000001CCF: C4 41 15 DB EF     vpand       ymm13,ymm13,ymm15
  0000000000001CD4: C4 41 0D DB F7     vpand       ymm14,ymm14,ymm15
  0000000000001CD9: C5 ED EF D5        vpxor       ymm2,ymm2,ymm5
  0000000000001CDD: C5 E5 EF DE        vpxor       ymm3,ymm3,ymm6
  0000000000001CE1: C4 C1 6D EF D1     vpxor       ymm2,ymm2,ymm9
  0000000000001CE6: C4 C1 65 EF DA     vpxor       ymm3,ymm3,ymm10
  0000000000001CEB: C4 C1 6D EF D5     vpxor       ymm2,ymm2,ymm13
  0000000000001CF0: C4 C1 65 EF DE     vpxor       ymm3,ymm3,ymm14
  0000000000001CF5: 48 FF C8           dec         rax
  0000000000001CF8: 0F 85 7D FF FF FF  jne         L$select_loop_avx2_w7
  0000000000001CFE: C5 FD 6F 2A        vmovdqa     ymm5,ymmword ptr [rdx]
  0000000000001D02: C5 FD 6F 72 20     vmovdqa     ymm6,ymmword ptr [rdx+20h]
  0000000000001D07: C5 DD 76 F9        vpcmpeqd    ymm7,ymm4,ymm1
  0000000000001D0B: C5 D5 DB EF        vpand       ymm5,ymm5,ymm7
  0000000000001D0F: C5 CD DB F7        vpand       ymm6,ymm6,ymm7
  0000000000001D13: C5 ED EF D5        vpxor       ymm2,ymm2,ymm5
  0000000000001D17: C5 E5 EF DE        vpxor       ymm3,ymm3,ymm6
  0000000000001D1B: C5 FE 7F 11        vmovdqu     ymmword ptr [rcx],ymm2
  0000000000001D1F: C5 FE 7F 59 20     vmovdqu     ymmword ptr [rcx+20h],ymm3
  0000000000001D24: C5 F8 77           vzeroupper
  0000000000001D27: 0F 28 34 24        movaps      xmm6,xmmword ptr [rsp]
  0000000000001D2B: 0F 28 7C 24 10     movaps      xmm7,xmmword ptr [rsp+10h]
  0000000000001D30: 44 0F 28 44 24 20  movaps      xmm8,xmmword ptr [rsp+20h]
  0000000000001D36: 44 0F 28 4C 24 30  movaps      xmm9,xmmword ptr [rsp+30h]
  0000000000001D3C: 44 0F 28 54 24 40  movaps      xmm10,xmmword ptr [rsp+40h]
  0000000000001D42: 44 0F 28 5C 24 50  movaps      xmm11,xmmword ptr [rsp+50h]
  0000000000001D48: 44 0F 28 64 24 60  movaps      xmm12,xmmword ptr [rsp+60h]
  0000000000001D4E: 44 0F 28 6C 24 70  movaps      xmm13,xmmword ptr [rsp+70h]
  0000000000001D54: 44 0F 28 B4 24 80  movaps      xmm14,xmmword ptr [rsp+80h]
                    00 00 00
  0000000000001D5D: 44 0F 28 BC 24 90  movaps      xmm15,xmmword ptr [rsp+90h]
                    00 00 00
  0000000000001D66: 49 8D 23           lea         rsp,[r11]
  0000000000001D69: F3 C3              rep ret
L$SEH_end_ecp_nistz256_avx2_select_w7:
  0000000000001D6B: 90                 nop
  0000000000001D6C: 90                 nop
  0000000000001D6D: 90                 nop
  0000000000001D6E: 90                 nop
  0000000000001D6F: 90                 nop
  0000000000001D70: 90                 nop
  0000000000001D71: 90                 nop
  0000000000001D72: 90                 nop
  0000000000001D73: 90                 nop
  0000000000001D74: 90                 nop
  0000000000001D75: 90                 nop
  0000000000001D76: 90                 nop
  0000000000001D77: 90                 nop
  0000000000001D78: 90                 nop
  0000000000001D79: 90                 nop
  0000000000001D7A: 90                 nop
  0000000000001D7B: 90                 nop
  0000000000001D7C: 90                 nop
  0000000000001D7D: 90                 nop
  0000000000001D7E: 90                 nop
  0000000000001D7F: 90                 nop
__ecp_nistz256_add_toq:
  0000000000001D80: 4D 31 DB           xor         r11,r11
  0000000000001D83: 4C 03 23           add         r12,qword ptr [rbx]
  0000000000001D86: 4C 13 6B 08        adc         r13,qword ptr [rbx+8]
  0000000000001D8A: 4C 89 E0           mov         rax,r12
  0000000000001D8D: 4C 13 43 10        adc         r8,qword ptr [rbx+10h]
  0000000000001D91: 4C 13 4B 18        adc         r9,qword ptr [rbx+18h]
  0000000000001D95: 4C 89 ED           mov         rbp,r13
  0000000000001D98: 49 83 D3 00        adc         r11,0
  0000000000001D9C: 49 83 EC FF        sub         r12,0FFFFFFFFFFFFFFFFh
  0000000000001DA0: 4C 89 C1           mov         rcx,r8
  0000000000001DA3: 4D 19 F5           sbb         r13,r14
  0000000000001DA6: 49 83 D8 00        sbb         r8,0
  0000000000001DAA: 4D 89 CA           mov         r10,r9
  0000000000001DAD: 4D 19 F9           sbb         r9,r15
  0000000000001DB0: 49 83 DB 00        sbb         r11,0
  0000000000001DB4: 4C 0F 42 E0        cmovb       r12,rax
  0000000000001DB8: 4C 0F 42 ED        cmovb       r13,rbp
  0000000000001DBC: 4C 89 27           mov         qword ptr [rdi],r12
  0000000000001DBF: 4C 0F 42 C1        cmovb       r8,rcx
  0000000000001DC3: 4C 89 6F 08        mov         qword ptr [rdi+8],r13
  0000000000001DC7: 4D 0F 42 CA        cmovb       r9,r10
  0000000000001DCB: 4C 89 47 10        mov         qword ptr [rdi+10h],r8
  0000000000001DCF: 4C 89 4F 18        mov         qword ptr [rdi+18h],r9
  0000000000001DD3: F3 C3              rep ret
  0000000000001DD5: 90                 nop
  0000000000001DD6: 90                 nop
  0000000000001DD7: 90                 nop
  0000000000001DD8: 90                 nop
  0000000000001DD9: 90                 nop
  0000000000001DDA: 90                 nop
  0000000000001DDB: 90                 nop
  0000000000001DDC: 90                 nop
  0000000000001DDD: 90                 nop
  0000000000001DDE: 90                 nop
  0000000000001DDF: 90                 nop
__ecp_nistz256_sub_fromq:
  0000000000001DE0: 4C 2B 23           sub         r12,qword ptr [rbx]
  0000000000001DE3: 4C 1B 6B 08        sbb         r13,qword ptr [rbx+8]
  0000000000001DE7: 4C 89 E0           mov         rax,r12
  0000000000001DEA: 4C 1B 43 10        sbb         r8,qword ptr [rbx+10h]
  0000000000001DEE: 4C 1B 4B 18        sbb         r9,qword ptr [rbx+18h]
  0000000000001DF2: 4C 89 ED           mov         rbp,r13
  0000000000001DF5: 4D 19 DB           sbb         r11,r11
  0000000000001DF8: 49 83 C4 FF        add         r12,0FFFFFFFFFFFFFFFFh
  0000000000001DFC: 4C 89 C1           mov         rcx,r8
  0000000000001DFF: 4D 11 F5           adc         r13,r14
  0000000000001E02: 49 83 D0 00        adc         r8,0
  0000000000001E06: 4D 89 CA           mov         r10,r9
  0000000000001E09: 4D 11 F9           adc         r9,r15
  0000000000001E0C: 4D 85 DB           test        r11,r11
  0000000000001E0F: 4C 0F 44 E0        cmove       r12,rax
  0000000000001E13: 4C 0F 44 ED        cmove       r13,rbp
  0000000000001E17: 4C 89 27           mov         qword ptr [rdi],r12
  0000000000001E1A: 4C 0F 44 C1        cmove       r8,rcx
  0000000000001E1E: 4C 89 6F 08        mov         qword ptr [rdi+8],r13
  0000000000001E22: 4D 0F 44 CA        cmove       r9,r10
  0000000000001E26: 4C 89 47 10        mov         qword ptr [rdi+10h],r8
  0000000000001E2A: 4C 89 4F 18        mov         qword ptr [rdi+18h],r9
  0000000000001E2E: F3 C3              rep ret
  0000000000001E30: 90                 nop
  0000000000001E31: 90                 nop
  0000000000001E32: 90                 nop
  0000000000001E33: 90                 nop
  0000000000001E34: 90                 nop
  0000000000001E35: 90                 nop
  0000000000001E36: 90                 nop
  0000000000001E37: 90                 nop
  0000000000001E38: 90                 nop
  0000000000001E39: 90                 nop
  0000000000001E3A: 90                 nop
  0000000000001E3B: 90                 nop
  0000000000001E3C: 90                 nop
  0000000000001E3D: 90                 nop
  0000000000001E3E: 90                 nop
  0000000000001E3F: 90                 nop
__ecp_nistz256_subq:
  0000000000001E40: 4C 29 E0           sub         rax,r12
  0000000000001E43: 4C 19 ED           sbb         rbp,r13
  0000000000001E46: 49 89 C4           mov         r12,rax
  0000000000001E49: 4C 19 C1           sbb         rcx,r8
  0000000000001E4C: 4D 19 CA           sbb         r10,r9
  0000000000001E4F: 49 89 ED           mov         r13,rbp
  0000000000001E52: 4D 19 DB           sbb         r11,r11
  0000000000001E55: 48 83 C0 FF        add         rax,0FFFFFFFFFFFFFFFFh
  0000000000001E59: 49 89 C8           mov         r8,rcx
  0000000000001E5C: 4C 11 F5           adc         rbp,r14
  0000000000001E5F: 48 83 D1 00        adc         rcx,0
  0000000000001E63: 4D 89 D1           mov         r9,r10
  0000000000001E66: 4D 11 FA           adc         r10,r15
  0000000000001E69: 4D 85 DB           test        r11,r11
  0000000000001E6C: 4C 0F 45 E0        cmovne      r12,rax
  0000000000001E70: 4C 0F 45 ED        cmovne      r13,rbp
  0000000000001E74: 4C 0F 45 C1        cmovne      r8,rcx
  0000000000001E78: 4D 0F 45 CA        cmovne      r9,r10
  0000000000001E7C: F3 C3              rep ret
  0000000000001E7E: 90                 nop
  0000000000001E7F: 90                 nop
__ecp_nistz256_mul_by_2q:
  0000000000001E80: 4D 31 DB           xor         r11,r11
  0000000000001E83: 4D 01 E4           add         r12,r12
  0000000000001E86: 4D 11 ED           adc         r13,r13
  0000000000001E89: 4C 89 E0           mov         rax,r12
  0000000000001E8C: 4D 11 C0           adc         r8,r8
  0000000000001E8F: 4D 11 C9           adc         r9,r9
  0000000000001E92: 4C 89 ED           mov         rbp,r13
  0000000000001E95: 49 83 D3 00        adc         r11,0
  0000000000001E99: 49 83 EC FF        sub         r12,0FFFFFFFFFFFFFFFFh
  0000000000001E9D: 4C 89 C1           mov         rcx,r8
  0000000000001EA0: 4D 19 F5           sbb         r13,r14
  0000000000001EA3: 49 83 D8 00        sbb         r8,0
  0000000000001EA7: 4D 89 CA           mov         r10,r9
  0000000000001EAA: 4D 19 F9           sbb         r9,r15
  0000000000001EAD: 49 83 DB 00        sbb         r11,0
  0000000000001EB1: 4C 0F 42 E0        cmovb       r12,rax
  0000000000001EB5: 4C 0F 42 ED        cmovb       r13,rbp
  0000000000001EB9: 4C 89 27           mov         qword ptr [rdi],r12
  0000000000001EBC: 4C 0F 42 C1        cmovb       r8,rcx
  0000000000001EC0: 4C 89 6F 08        mov         qword ptr [rdi+8],r13
  0000000000001EC4: 4D 0F 42 CA        cmovb       r9,r10
  0000000000001EC8: 4C 89 47 10        mov         qword ptr [rdi+10h],r8
  0000000000001ECC: 4C 89 4F 18        mov         qword ptr [rdi+18h],r9
  0000000000001ED0: F3 C3              rep ret
  0000000000001ED2: 90                 nop
  0000000000001ED3: 90                 nop
  0000000000001ED4: 90                 nop
  0000000000001ED5: 90                 nop
  0000000000001ED6: 90                 nop
  0000000000001ED7: 90                 nop
  0000000000001ED8: 90                 nop
  0000000000001ED9: 90                 nop
  0000000000001EDA: 90                 nop
  0000000000001EDB: 90                 nop
  0000000000001EDC: 90                 nop
  0000000000001EDD: 90                 nop
  0000000000001EDE: 90                 nop
  0000000000001EDF: 90                 nop
aws_lc_0_21_2_ecp_nistz256_point_double:
  0000000000001EE0: 48 89 7C 24 08     mov         qword ptr [rsp+8],rdi
  0000000000001EE5: 48 89 74 24 10     mov         qword ptr [rsp+10h],rsi
  0000000000001EEA: 48 89 E0           mov         rax,rsp
L$SEH_begin_ecp_nistz256_point_double:
  0000000000001EED: 48 89 CF           mov         rdi,rcx
  0000000000001EF0: 48 89 D6           mov         rsi,rdx
  0000000000001EF3: 48 8D 0D 00 00 00  lea         rcx,[aws_lc_0_21_2_OPENSSL_ia32cap_P]
                    00
  0000000000001EFA: 48 8B 49 08        mov         rcx,qword ptr [rcx+8]
  0000000000001EFE: 81 E1 00 01 08 00  and         ecx,80100h
  0000000000001F04: 81 F9 00 01 08 00  cmp         ecx,80100h
  0000000000001F0A: 0F 84 E3 11 00 00  je          L$point_doublex
  0000000000001F10: 55                 push        rbp
  0000000000001F11: 53                 push        rbx
  0000000000001F12: 41 54              push        r12
  0000000000001F14: 41 55              push        r13
  0000000000001F16: 41 56              push        r14
  0000000000001F18: 41 57              push        r15
  0000000000001F1A: 48 81 EC A8 00 00  sub         rsp,0A8h
                    00
L$point_double_shortcutq:
  0000000000001F21: F3 0F 6F 06        movdqu      xmm0,xmmword ptr [rsi]
  0000000000001F25: 48 89 F3           mov         rbx,rsi
  0000000000001F28: F3 0F 6F 4E 10     movdqu      xmm1,xmmword ptr [rsi+10h]
  0000000000001F2D: 4C 8B 66 20        mov         r12,qword ptr [rsi+20h]
  0000000000001F31: 4C 8B 6E 28        mov         r13,qword ptr [rsi+28h]
  0000000000001F35: 4C 8B 46 30        mov         r8,qword ptr [rsi+30h]
  0000000000001F39: 4C 8B 4E 38        mov         r9,qword ptr [rsi+38h]
  0000000000001F3D: 4C 8B 35 08 00 00  mov         r14,qword ptr [.rdata+8]
                    00
  0000000000001F44: 4C 8B 3D 18 00 00  mov         r15,qword ptr [.rdata+18h]
                    00
  0000000000001F4B: 66 0F 7F 44 24 60  movdqa      xmmword ptr [rsp+60h],xmm0
  0000000000001F51: 66 0F 7F 4C 24 70  movdqa      xmmword ptr [rsp+70h],xmm1
  0000000000001F57: 4C 8D 57 20        lea         r10,[rdi+20h]
  0000000000001F5B: 4C 8D 5F 40        lea         r11,[rdi+40h]
  0000000000001F5F: 66 48 0F 6E C7     movq        xmm0,rdi
  0000000000001F64: 66 49 0F 6E CA     movq        xmm1,r10
  0000000000001F69: 66 49 0F 6E D3     movq        xmm2,r11
  0000000000001F6E: 48 8D 3C 24        lea         rdi,[rsp]
  0000000000001F72: E8 09 FF FF FF     call        __ecp_nistz256_mul_by_2q
  0000000000001F77: 48 8B 46 40        mov         rax,qword ptr [rsi+40h]
  0000000000001F7B: 4C 8B 76 48        mov         r14,qword ptr [rsi+48h]
  0000000000001F7F: 4C 8B 7E 50        mov         r15,qword ptr [rsi+50h]
  0000000000001F83: 4C 8B 46 58        mov         r8,qword ptr [rsi+58h]
  0000000000001F87: 48 8D 76 40        lea         rsi,[rsi+40h]
  0000000000001F8B: 48 8D 7C 24 40     lea         rdi,[rsp+40h]
  0000000000001F90: E8 6B F2 FF FF     call        __ecp_nistz256_sqr_montq
  0000000000001F95: 48 8B 04 24        mov         rax,qword ptr [rsp]
  0000000000001F99: 4C 8B 74 24 08     mov         r14,qword ptr [rsp+8]
  0000000000001F9E: 48 8D 34 24        lea         rsi,[rsp]
  0000000000001FA2: 4C 8B 7C 24 10     mov         r15,qword ptr [rsp+10h]
  0000000000001FA7: 4C 8B 44 24 18     mov         r8,qword ptr [rsp+18h]
  0000000000001FAC: 48 8D 3C 24        lea         rdi,[rsp]
  0000000000001FB0: E8 4B F2 FF FF     call        __ecp_nistz256_sqr_montq
  0000000000001FB5: 48 8B 43 20        mov         rax,qword ptr [rbx+20h]
  0000000000001FB9: 4C 8B 4B 40        mov         r9,qword ptr [rbx+40h]
  0000000000001FBD: 4C 8B 53 48        mov         r10,qword ptr [rbx+48h]
  0000000000001FC1: 4C 8B 5B 50        mov         r11,qword ptr [rbx+50h]
  0000000000001FC5: 4C 8B 63 58        mov         r12,qword ptr [rbx+58h]
  0000000000001FC9: 48 8D 73 40        lea         rsi,[rbx+40h]
  0000000000001FCD: 48 8D 5B 20        lea         rbx,[rbx+20h]
  0000000000001FD1: 66 48 0F 7E D7     movq        rdi,xmm2
  0000000000001FD6: E8 25 EF FF FF     call        __ecp_nistz256_mul_montq
  0000000000001FDB: E8 A0 FE FF FF     call        __ecp_nistz256_mul_by_2q
  0000000000001FE0: 4C 8B 64 24 60     mov         r12,qword ptr [rsp+60h]
  0000000000001FE5: 4C 8B 6C 24 68     mov         r13,qword ptr [rsp+68h]
  0000000000001FEA: 48 8D 5C 24 40     lea         rbx,[rsp+40h]
  0000000000001FEF: 4C 8B 44 24 70     mov         r8,qword ptr [rsp+70h]
  0000000000001FF4: 4C 8B 4C 24 78     mov         r9,qword ptr [rsp+78h]
  0000000000001FF9: 48 8D 7C 24 20     lea         rdi,[rsp+20h]
  0000000000001FFE: E8 7D FD FF FF     call        __ecp_nistz256_add_toq
  0000000000002003: 4C 8B 64 24 60     mov         r12,qword ptr [rsp+60h]
  0000000000002008: 4C 8B 6C 24 68     mov         r13,qword ptr [rsp+68h]
  000000000000200D: 48 8D 5C 24 40     lea         rbx,[rsp+40h]
  0000000000002012: 4C 8B 44 24 70     mov         r8,qword ptr [rsp+70h]
  0000000000002017: 4C 8B 4C 24 78     mov         r9,qword ptr [rsp+78h]
  000000000000201C: 48 8D 7C 24 40     lea         rdi,[rsp+40h]
  0000000000002021: E8 BA FD FF FF     call        __ecp_nistz256_sub_fromq
  0000000000002026: 48 8B 04 24        mov         rax,qword ptr [rsp]
  000000000000202A: 4C 8B 74 24 08     mov         r14,qword ptr [rsp+8]
  000000000000202F: 48 8D 34 24        lea         rsi,[rsp]
  0000000000002033: 4C 8B 7C 24 10     mov         r15,qword ptr [rsp+10h]
  0000000000002038: 4C 8B 44 24 18     mov         r8,qword ptr [rsp+18h]
  000000000000203D: 66 48 0F 7E CF     movq        rdi,xmm1
  0000000000002042: E8 B9 F1 FF FF     call        __ecp_nistz256_sqr_montq
  0000000000002047: 4D 31 C9           xor         r9,r9
  000000000000204A: 4C 89 E0           mov         rax,r12
  000000000000204D: 49 83 C4 FF        add         r12,0FFFFFFFFFFFFFFFFh
  0000000000002051: 4D 89 EA           mov         r10,r13
  0000000000002054: 49 11 F5           adc         r13,rsi
  0000000000002057: 4C 89 F1           mov         rcx,r14
  000000000000205A: 49 83 D6 00        adc         r14,0
  000000000000205E: 4D 89 F8           mov         r8,r15
  0000000000002061: 49 11 EF           adc         r15,rbp
  0000000000002064: 49 83 D1 00        adc         r9,0
  0000000000002068: 48 31 F6           xor         rsi,rsi
  000000000000206B: 48 A9 01 00 00 00  test        rax,1
  0000000000002071: 4C 0F 44 E0        cmove       r12,rax
  0000000000002075: 4D 0F 44 EA        cmove       r13,r10
  0000000000002079: 4C 0F 44 F1        cmove       r14,rcx
  000000000000207D: 4D 0F 44 F8        cmove       r15,r8
  0000000000002081: 4C 0F 44 CE        cmove       r9,rsi
  0000000000002085: 4C 89 E8           mov         rax,r13
  0000000000002088: 49 D1 EC           shr         r12,1
  000000000000208B: 48 C1 E0 3F        shl         rax,3Fh
  000000000000208F: 4D 89 F2           mov         r10,r14
  0000000000002092: 49 D1 ED           shr         r13,1
  0000000000002095: 49 09 C4           or          r12,rax
  0000000000002098: 49 C1 E2 3F        shl         r10,3Fh
  000000000000209C: 4C 89 F9           mov         rcx,r15
  000000000000209F: 49 D1 EE           shr         r14,1
  00000000000020A2: 4D 09 D5           or          r13,r10
  00000000000020A5: 48 C1 E1 3F        shl         rcx,3Fh
  00000000000020A9: 4C 89 27           mov         qword ptr [rdi],r12
  00000000000020AC: 49 D1 EF           shr         r15,1
  00000000000020AF: 4C 89 6F 08        mov         qword ptr [rdi+8],r13
  00000000000020B3: 49 C1 E1 3F        shl         r9,3Fh
  00000000000020B7: 49 09 CE           or          r14,rcx
  00000000000020BA: 4D 09 CF           or          r15,r9
  00000000000020BD: 4C 89 77 10        mov         qword ptr [rdi+10h],r14
  00000000000020C1: 4C 89 7F 18        mov         qword ptr [rdi+18h],r15
  00000000000020C5: 48 8B 44 24 40     mov         rax,qword ptr [rsp+40h]
  00000000000020CA: 48 8D 5C 24 40     lea         rbx,[rsp+40h]
  00000000000020CF: 4C 8B 4C 24 20     mov         r9,qword ptr [rsp+20h]
  00000000000020D4: 4C 8B 54 24 28     mov         r10,qword ptr [rsp+28h]
  00000000000020D9: 48 8D 74 24 20     lea         rsi,[rsp+20h]
  00000000000020DE: 4C 8B 5C 24 30     mov         r11,qword ptr [rsp+30h]
  00000000000020E3: 4C 8B 64 24 38     mov         r12,qword ptr [rsp+38h]
  00000000000020E8: 48 8D 7C 24 20     lea         rdi,[rsp+20h]
  00000000000020ED: E8 0E EE FF FF     call        __ecp_nistz256_mul_montq
  00000000000020F2: 48 8D BC 24 80 00  lea         rdi,[rsp+80h]
                    00 00
  00000000000020FA: E8 81 FD FF FF     call        __ecp_nistz256_mul_by_2q
  00000000000020FF: 48 8D 5C 24 20     lea         rbx,[rsp+20h]
  0000000000002104: 48 8D 7C 24 20     lea         rdi,[rsp+20h]
  0000000000002109: E8 72 FC FF FF     call        __ecp_nistz256_add_toq
  000000000000210E: 48 8B 44 24 60     mov         rax,qword ptr [rsp+60h]
  0000000000002113: 48 8D 5C 24 60     lea         rbx,[rsp+60h]
  0000000000002118: 4C 8B 0C 24        mov         r9,qword ptr [rsp]
  000000000000211C: 4C 8B 54 24 08     mov         r10,qword ptr [rsp+8]
  0000000000002121: 48 8D 34 24        lea         rsi,[rsp]
  0000000000002125: 4C 8B 5C 24 10     mov         r11,qword ptr [rsp+10h]
  000000000000212A: 4C 8B 64 24 18     mov         r12,qword ptr [rsp+18h]
  000000000000212F: 48 8D 3C 24        lea         rdi,[rsp]
  0000000000002133: E8 C8 ED FF FF     call        __ecp_nistz256_mul_montq
  0000000000002138: 48 8D BC 24 80 00  lea         rdi,[rsp+80h]
                    00 00
  0000000000002140: E8 3B FD FF FF     call        __ecp_nistz256_mul_by_2q
  0000000000002145: 48 8B 44 24 20     mov         rax,qword ptr [rsp+20h]
  000000000000214A: 4C 8B 74 24 28     mov         r14,qword ptr [rsp+28h]
  000000000000214F: 48 8D 74 24 20     lea         rsi,[rsp+20h]
  0000000000002154: 4C 8B 7C 24 30     mov         r15,qword ptr [rsp+30h]
  0000000000002159: 4C 8B 44 24 38     mov         r8,qword ptr [rsp+38h]
  000000000000215E: 66 48 0F 7E C7     movq        rdi,xmm0
  0000000000002163: E8 98 F0 FF FF     call        __ecp_nistz256_sqr_montq
  0000000000002168: 48 8D 9C 24 80 00  lea         rbx,[rsp+80h]
                    00 00
  0000000000002170: 4D 89 F0           mov         r8,r14
  0000000000002173: 4D 89 F9           mov         r9,r15
  0000000000002176: 49 89 F6           mov         r14,rsi
  0000000000002179: 49 89 EF           mov         r15,rbp
  000000000000217C: E8 5F FC FF FF     call        __ecp_nistz256_sub_fromq
  0000000000002181: 48 8B 04 24        mov         rax,qword ptr [rsp]
  0000000000002185: 48 8B 6C 24 08     mov         rbp,qword ptr [rsp+8]
  000000000000218A: 48 8B 4C 24 10     mov         rcx,qword ptr [rsp+10h]
  000000000000218F: 4C 8B 54 24 18     mov         r10,qword ptr [rsp+18h]
  0000000000002194: 48 8D 3C 24        lea         rdi,[rsp]
  0000000000002198: E8 A3 FC FF FF     call        __ecp_nistz256_subq
  000000000000219D: 48 8B 44 24 20     mov         rax,qword ptr [rsp+20h]
  00000000000021A2: 48 8D 5C 24 20     lea         rbx,[rsp+20h]
  00000000000021A7: 4D 89 E6           mov         r14,r12
  00000000000021AA: 31 C9              xor         ecx,ecx
  00000000000021AC: 4C 89 24 24        mov         qword ptr [rsp],r12
  00000000000021B0: 4D 89 EA           mov         r10,r13
  00000000000021B3: 4C 89 6C 24 08     mov         qword ptr [rsp+8],r13
  00000000000021B8: 4D 0F 44 D8        cmove       r11,r8
  00000000000021BC: 4C 89 44 24 10     mov         qword ptr [rsp+10h],r8
  00000000000021C1: 48 8D 34 24        lea         rsi,[rsp]
  00000000000021C5: 4D 0F 44 E1        cmove       r12,r9
  00000000000021C9: 4C 89 4C 24 18     mov         qword ptr [rsp+18h],r9
  00000000000021CE: 4D 89 F1           mov         r9,r14
  00000000000021D1: 48 8D 3C 24        lea         rdi,[rsp]
  00000000000021D5: E8 26 ED FF FF     call        __ecp_nistz256_mul_montq
  00000000000021DA: 66 48 0F 7E CB     movq        rbx,xmm1
  00000000000021DF: 66 48 0F 7E CF     movq        rdi,xmm1
  00000000000021E4: E8 F7 FB FF FF     call        __ecp_nistz256_sub_fromq
  00000000000021E9: 48 8D B4 24 D8 00  lea         rsi,[rsp+0D8h]
                    00 00
  00000000000021F1: 4C 8B 7E D0        mov         r15,qword ptr [rsi-30h]
  00000000000021F5: 4C 8B 76 D8        mov         r14,qword ptr [rsi-28h]
  00000000000021F9: 4C 8B 6E E0        mov         r13,qword ptr [rsi-20h]
  00000000000021FD: 4C 8B 66 E8        mov         r12,qword ptr [rsi-18h]
  0000000000002201: 48 8B 5E F0        mov         rbx,qword ptr [rsi-10h]
  0000000000002205: 48 8B 6E F8        mov         rbp,qword ptr [rsi-8]
  0000000000002209: 48 8D 26           lea         rsp,[rsi]
L$point_doubleq_epilogue:
  000000000000220C: 48 8B 7C 24 08     mov         rdi,qword ptr [rsp+8]
  0000000000002211: 48 8B 74 24 10     mov         rsi,qword ptr [rsp+10h]
  0000000000002216: F3 C3              rep ret
L$SEH_end_ecp_nistz256_point_double:
  0000000000002218: 90                 nop
  0000000000002219: 90                 nop
  000000000000221A: 90                 nop
  000000000000221B: 90                 nop
  000000000000221C: 90                 nop
  000000000000221D: 90                 nop
  000000000000221E: 90                 nop
  000000000000221F: 90                 nop
aws_lc_0_21_2_ecp_nistz256_point_add:
  0000000000002220: 48 89 7C 24 08     mov         qword ptr [rsp+8],rdi
  0000000000002225: 48 89 74 24 10     mov         qword ptr [rsp+10h],rsi
  000000000000222A: 48 89 E0           mov         rax,rsp
L$SEH_begin_ecp_nistz256_point_add:
  000000000000222D: 48 89 CF           mov         rdi,rcx
  0000000000002230: 48 89 D6           mov         rsi,rdx
  0000000000002233: 4C 89 C2           mov         rdx,r8
  0000000000002236: 48 8D 0D 00 00 00  lea         rcx,[aws_lc_0_21_2_OPENSSL_ia32cap_P]
                    00
  000000000000223D: 48 8B 49 08        mov         rcx,qword ptr [rcx+8]
  0000000000002241: 81 E1 00 01 08 00  and         ecx,80100h
  0000000000002247: 81 F9 00 01 08 00  cmp         ecx,80100h
  000000000000224D: 0F 84 C3 11 00 00  je          L$point_addx
  0000000000002253: 55                 push        rbp
  0000000000002254: 53                 push        rbx
  0000000000002255: 41 54              push        r12
  0000000000002257: 41 55              push        r13
  0000000000002259: 41 56              push        r14
  000000000000225B: 41 57              push        r15
  000000000000225D: 48 81 EC 48 02 00  sub         rsp,248h
                    00
L$point_addq_body:
  0000000000002264: F3 0F 6F 06        movdqu      xmm0,xmmword ptr [rsi]
  0000000000002268: F3 0F 6F 4E 10     movdqu      xmm1,xmmword ptr [rsi+10h]
  000000000000226D: F3 0F 6F 56 20     movdqu      xmm2,xmmword ptr [rsi+20h]
  0000000000002272: F3 0F 6F 5E 30     movdqu      xmm3,xmmword ptr [rsi+30h]
  0000000000002277: F3 0F 6F 66 40     movdqu      xmm4,xmmword ptr [rsi+40h]
  000000000000227C: F3 0F 6F 6E 50     movdqu      xmm5,xmmword ptr [rsi+50h]
  0000000000002281: 48 89 F3           mov         rbx,rsi
  0000000000002284: 48 89 D6           mov         rsi,rdx
  0000000000002287: 66 0F 7F 84 24 80  movdqa      xmmword ptr [rsp+180h],xmm0
                    01 00 00
  0000000000002290: 66 0F 7F 8C 24 90  movdqa      xmmword ptr [rsp+190h],xmm1
                    01 00 00
  0000000000002299: 66 0F 7F 94 24 A0  movdqa      xmmword ptr [rsp+1A0h],xmm2
                    01 00 00
  00000000000022A2: 66 0F 7F 9C 24 B0  movdqa      xmmword ptr [rsp+1B0h],xmm3
                    01 00 00
  00000000000022AB: 66 0F 7F A4 24 C0  movdqa      xmmword ptr [rsp+1C0h],xmm4
                    01 00 00
  00000000000022B4: 66 0F 7F AC 24 D0  movdqa      xmmword ptr [rsp+1D0h],xmm5
                    01 00 00
  00000000000022BD: 66 0F EB EC        por         xmm5,xmm4
  00000000000022C1: F3 0F 6F 06        movdqu      xmm0,xmmword ptr [rsi]
  00000000000022C5: 66 0F 70 DD B1     pshufd      xmm3,xmm5,0B1h
  00000000000022CA: F3 0F 6F 4E 10     movdqu      xmm1,xmmword ptr [rsi+10h]
  00000000000022CF: F3 0F 6F 56 20     movdqu      xmm2,xmmword ptr [rsi+20h]
  00000000000022D4: 66 0F EB EB        por         xmm5,xmm3
  00000000000022D8: F3 0F 6F 5E 30     movdqu      xmm3,xmmword ptr [rsi+30h]
  00000000000022DD: 48 8B 46 40        mov         rax,qword ptr [rsi+40h]
  00000000000022E1: 4C 8B 76 48        mov         r14,qword ptr [rsi+48h]
  00000000000022E5: 4C 8B 7E 50        mov         r15,qword ptr [rsi+50h]
  00000000000022E9: 4C 8B 46 58        mov         r8,qword ptr [rsi+58h]
  00000000000022ED: 66 0F 7F 84 24 E0  movdqa      xmmword ptr [rsp+1E0h],xmm0
                    01 00 00
  00000000000022F6: 66 0F 70 E5 1E     pshufd      xmm4,xmm5,1Eh
  00000000000022FB: 66 0F 7F 8C 24 F0  movdqa      xmmword ptr [rsp+1F0h],xmm1
                    01 00 00
  0000000000002304: F3 0F 6F 46 40     movdqu      xmm0,xmmword ptr [rsi+40h]
  0000000000002309: F3 0F 6F 4E 50     movdqu      xmm1,xmmword ptr [rsi+50h]
  000000000000230E: 66 0F 7F 94 24 00  movdqa      xmmword ptr [rsp+200h],xmm2
                    02 00 00
  0000000000002317: 66 0F 7F 9C 24 10  movdqa      xmmword ptr [rsp+210h],xmm3
                    02 00 00
  0000000000002320: 66 0F EB EC        por         xmm5,xmm4
  0000000000002324: 66 0F EF E4        pxor        xmm4,xmm4
  0000000000002328: 66 0F EB C8        por         xmm1,xmm0
  000000000000232C: 66 48 0F 6E C7     movq        xmm0,rdi
  0000000000002331: 48 8D 76 40        lea         rsi,[rsi+40h]
  0000000000002335: 48 89 84 24 20 02  mov         qword ptr [rsp+220h],rax
                    00 00
  000000000000233D: 4C 89 B4 24 28 02  mov         qword ptr [rsp+228h],r14
                    00 00
  0000000000002345: 4C 89 BC 24 30 02  mov         qword ptr [rsp+230h],r15
                    00 00
  000000000000234D: 4C 89 84 24 38 02  mov         qword ptr [rsp+238h],r8
                    00 00
  0000000000002355: 48 8D 7C 24 60     lea         rdi,[rsp+60h]
  000000000000235A: E8 A1 EE FF FF     call        __ecp_nistz256_sqr_montq
  000000000000235F: 66 0F 76 EC        pcmpeqd     xmm5,xmm4
  0000000000002363: 66 0F 70 E1 B1     pshufd      xmm4,xmm1,0B1h
  0000000000002368: 66 0F EB E1        por         xmm4,xmm1
  000000000000236C: 66 0F 70 ED 00     pshufd      xmm5,xmm5,0
  0000000000002371: 66 0F 70 DC 1E     pshufd      xmm3,xmm4,1Eh
  0000000000002376: 66 0F EB E3        por         xmm4,xmm3
  000000000000237A: 66 0F EF DB        pxor        xmm3,xmm3
  000000000000237E: 66 0F 76 E3        pcmpeqd     xmm4,xmm3
  0000000000002382: 66 0F 70 E4 00     pshufd      xmm4,xmm4,0
  0000000000002387: 48 8B 43 40        mov         rax,qword ptr [rbx+40h]
  000000000000238B: 4C 8B 73 48        mov         r14,qword ptr [rbx+48h]
  000000000000238F: 4C 8B 7B 50        mov         r15,qword ptr [rbx+50h]
  0000000000002393: 4C 8B 43 58        mov         r8,qword ptr [rbx+58h]
  0000000000002397: 66 48 0F 6E CB     movq        xmm1,rbx
  000000000000239C: 48 8D 73 40        lea         rsi,[rbx+40h]
  00000000000023A0: 48 8D 7C 24 20     lea         rdi,[rsp+20h]
  00000000000023A5: E8 56 EE FF FF     call        __ecp_nistz256_sqr_montq
  00000000000023AA: 48 8B 84 24 20 02  mov         rax,qword ptr [rsp+220h]
                    00 00
  00000000000023B2: 48 8D 9C 24 20 02  lea         rbx,[rsp+220h]
                    00 00
  00000000000023BA: 4C 8B 4C 24 60     mov         r9,qword ptr [rsp+60h]
  00000000000023BF: 4C 8B 54 24 68     mov         r10,qword ptr [rsp+68h]
  00000000000023C4: 48 8D 74 24 60     lea         rsi,[rsp+60h]
  00000000000023C9: 4C 8B 5C 24 70     mov         r11,qword ptr [rsp+70h]
  00000000000023CE: 4C 8B 64 24 78     mov         r12,qword ptr [rsp+78h]
  00000000000023D3: 48 8D BC 24 E0 00  lea         rdi,[rsp+0E0h]
                    00 00
  00000000000023DB: E8 20 EB FF FF     call        __ecp_nistz256_mul_montq
  00000000000023E0: 48 8B 84 24 C0 01  mov         rax,qword ptr [rsp+1C0h]
                    00 00
  00000000000023E8: 48 8D 9C 24 C0 01  lea         rbx,[rsp+1C0h]
                    00 00
  00000000000023F0: 4C 8B 4C 24 20     mov         r9,qword ptr [rsp+20h]
  00000000000023F5: 4C 8B 54 24 28     mov         r10,qword ptr [rsp+28h]
  00000000000023FA: 48 8D 74 24 20     lea         rsi,[rsp+20h]
  00000000000023FF: 4C 8B 5C 24 30     mov         r11,qword ptr [rsp+30h]
  0000000000002404: 4C 8B 64 24 38     mov         r12,qword ptr [rsp+38h]
  0000000000002409: 48 8D BC 24 00 01  lea         rdi,[rsp+100h]
                    00 00
  0000000000002411: E8 EA EA FF FF     call        __ecp_nistz256_mul_montq
  0000000000002416: 48 8B 84 24 A0 01  mov         rax,qword ptr [rsp+1A0h]
                    00 00
  000000000000241E: 48 8D 9C 24 A0 01  lea         rbx,[rsp+1A0h]
                    00 00
  0000000000002426: 4C 8B 8C 24 E0 00  mov         r9,qword ptr [rsp+0E0h]
                    00 00
  000000000000242E: 4C 8B 94 24 E8 00  mov         r10,qword ptr [rsp+0E8h]
                    00 00
  0000000000002436: 48 8D B4 24 E0 00  lea         rsi,[rsp+0E0h]
                    00 00
  000000000000243E: 4C 8B 9C 24 F0 00  mov         r11,qword ptr [rsp+0F0h]
                    00 00
  0000000000002446: 4C 8B A4 24 F8 00  mov         r12,qword ptr [rsp+0F8h]
                    00 00
  000000000000244E: 48 8D BC 24 E0 00  lea         rdi,[rsp+0E0h]
                    00 00
  0000000000002456: E8 A5 EA FF FF     call        __ecp_nistz256_mul_montq
  000000000000245B: 48 8B 84 24 00 02  mov         rax,qword ptr [rsp+200h]
                    00 00
  0000000000002463: 48 8D 9C 24 00 02  lea         rbx,[rsp+200h]
                    00 00
  000000000000246B: 4C 8B 8C 24 00 01  mov         r9,qword ptr [rsp+100h]
                    00 00
  0000000000002473: 4C 8B 94 24 08 01  mov         r10,qword ptr [rsp+108h]
                    00 00
  000000000000247B: 48 8D B4 24 00 01  lea         rsi,[rsp+100h]
                    00 00
  0000000000002483: 4C 8B 9C 24 10 01  mov         r11,qword ptr [rsp+110h]
                    00 00
  000000000000248B: 4C 8B A4 24 18 01  mov         r12,qword ptr [rsp+118h]
                    00 00
  0000000000002493: 48 8D BC 24 00 01  lea         rdi,[rsp+100h]
                    00 00
  000000000000249B: E8 60 EA FF FF     call        __ecp_nistz256_mul_montq
  00000000000024A0: 48 8D 9C 24 E0 00  lea         rbx,[rsp+0E0h]
                    00 00
  00000000000024A8: 48 8D 7C 24 40     lea         rdi,[rsp+40h]
  00000000000024AD: E8 2E F9 FF FF     call        __ecp_nistz256_sub_fromq
  00000000000024B2: 4D 09 EC           or          r12,r13
  00000000000024B5: 66 0F 6F D4        movdqa      xmm2,xmm4
  00000000000024B9: 4D 09 C4           or          r12,r8
  00000000000024BC: 4D 09 CC           or          r12,r9
  00000000000024BF: 66 0F EB D5        por         xmm2,xmm5
  00000000000024C3: 66 49 0F 6E DC     movq        xmm3,r12
  00000000000024C8: 48 8B 84 24 80 01  mov         rax,qword ptr [rsp+180h]
                    00 00
  00000000000024D0: 48 8D 9C 24 80 01  lea         rbx,[rsp+180h]
                    00 00
  00000000000024D8: 4C 8B 4C 24 60     mov         r9,qword ptr [rsp+60h]
  00000000000024DD: 4C 8B 54 24 68     mov         r10,qword ptr [rsp+68h]
  00000000000024E2: 48 8D 74 24 60     lea         rsi,[rsp+60h]
  00000000000024E7: 4C 8B 5C 24 70     mov         r11,qword ptr [rsp+70h]
  00000000000024EC: 4C 8B 64 24 78     mov         r12,qword ptr [rsp+78h]
  00000000000024F1: 48 8D BC 24 A0 00  lea         rdi,[rsp+0A0h]
                    00 00
  00000000000024F9: E8 02 EA FF FF     call        __ecp_nistz256_mul_montq
  00000000000024FE: 48 8B 84 24 E0 01  mov         rax,qword ptr [rsp+1E0h]
                    00 00
  0000000000002506: 48 8D 9C 24 E0 01  lea         rbx,[rsp+1E0h]
                    00 00
  000000000000250E: 4C 8B 4C 24 20     mov         r9,qword ptr [rsp+20h]
  0000000000002513: 4C 8B 54 24 28     mov         r10,qword ptr [rsp+28h]
  0000000000002518: 48 8D 74 24 20     lea         rsi,[rsp+20h]
  000000000000251D: 4C 8B 5C 24 30     mov         r11,qword ptr [rsp+30h]
  0000000000002522: 4C 8B 64 24 38     mov         r12,qword ptr [rsp+38h]
  0000000000002527: 48 8D BC 24 C0 00  lea         rdi,[rsp+0C0h]
                    00 00
  000000000000252F: E8 CC E9 FF FF     call        __ecp_nistz256_mul_montq
  0000000000002534: 48 8D 9C 24 A0 00  lea         rbx,[rsp+0A0h]
                    00 00
  000000000000253C: 48 8D 3C 24        lea         rdi,[rsp]
  0000000000002540: E8 9B F8 FF FF     call        __ecp_nistz256_sub_fromq
  0000000000002545: 4D 09 EC           or          r12,r13
  0000000000002548: 4D 09 C4           or          r12,r8
  000000000000254B: 4D 09 CC           or          r12,r9
  000000000000254E: 66 49 0F 7E D0     movq        r8,xmm2
  0000000000002553: 66 49 0F 7E D9     movq        r9,xmm3
  0000000000002558: 4D 09 C4           or          r12,r8
  000000000000255B: 3E 0F 85 5E 00 00  ht jne      L$add_proceedq
                    00
  0000000000002562: 4D 85 C9           test        r9,r9
  0000000000002565: 0F 84 35 00 00 00  je          L$add_doubleq
  000000000000256B: 66 48 0F 7E C7     movq        rdi,xmm0
  0000000000002570: 66 0F EF C0        pxor        xmm0,xmm0
  0000000000002574: F3 0F 7F 07        movdqu      xmmword ptr [rdi],xmm0
  0000000000002578: F3 0F 7F 47 10     movdqu      xmmword ptr [rdi+10h],xmm0
  000000000000257D: F3 0F 7F 47 20     movdqu      xmmword ptr [rdi+20h],xmm0
  0000000000002582: F3 0F 7F 47 30     movdqu      xmmword ptr [rdi+30h],xmm0
  0000000000002587: F3 0F 7F 47 40     movdqu      xmmword ptr [rdi+40h],xmm0
  000000000000258C: F3 0F 7F 47 50     movdqu      xmmword ptr [rdi+50h],xmm0
  0000000000002591: E9 F2 03 00 00     jmp         L$add_doneq
  0000000000002596: 90                 nop
  0000000000002597: 90                 nop
  0000000000002598: 90                 nop
  0000000000002599: 90                 nop
  000000000000259A: 90                 nop
  000000000000259B: 90                 nop
  000000000000259C: 90                 nop
  000000000000259D: 90                 nop
  000000000000259E: 90                 nop
  000000000000259F: 90                 nop
L$add_doubleq:
  00000000000025A0: 66 48 0F 7E CE     movq        rsi,xmm1
  00000000000025A5: 66 48 0F 7E C7     movq        rdi,xmm0
  00000000000025AA: 48 81 C4 A0 01 00  add         rsp,1A0h
                    00
  00000000000025B1: E9 6B F9 FF FF     jmp         L$point_double_shortcutq
  00000000000025B6: 90                 nop
  00000000000025B7: 90                 nop
  00000000000025B8: 90                 nop
  00000000000025B9: 90                 nop
  00000000000025BA: 90                 nop
  00000000000025BB: 90                 nop
  00000000000025BC: 90                 nop
  00000000000025BD: 90                 nop
  00000000000025BE: 90                 nop
  00000000000025BF: 90                 nop
L$add_proceedq:
  00000000000025C0: 48 8B 44 24 40     mov         rax,qword ptr [rsp+40h]
  00000000000025C5: 4C 8B 74 24 48     mov         r14,qword ptr [rsp+48h]
  00000000000025CA: 48 8D 74 24 40     lea         rsi,[rsp+40h]
  00000000000025CF: 4C 8B 7C 24 50     mov         r15,qword ptr [rsp+50h]
  00000000000025D4: 4C 8B 44 24 58     mov         r8,qword ptr [rsp+58h]
  00000000000025D9: 48 8D 7C 24 60     lea         rdi,[rsp+60h]
  00000000000025DE: E8 1D EC FF FF     call        __ecp_nistz256_sqr_montq
  00000000000025E3: 48 8B 84 24 C0 01  mov         rax,qword ptr [rsp+1C0h]
                    00 00
  00000000000025EB: 48 8D 9C 24 C0 01  lea         rbx,[rsp+1C0h]
                    00 00
  00000000000025F3: 4C 8B 0C 24        mov         r9,qword ptr [rsp]
  00000000000025F7: 4C 8B 54 24 08     mov         r10,qword ptr [rsp+8]
  00000000000025FC: 48 8D 34 24        lea         rsi,[rsp]
  0000000000002600: 4C 8B 5C 24 10     mov         r11,qword ptr [rsp+10h]
  0000000000002605: 4C 8B 64 24 18     mov         r12,qword ptr [rsp+18h]
  000000000000260A: 48 8D BC 24 60 01  lea         rdi,[rsp+160h]
                    00 00
  0000000000002612: E8 E9 E8 FF FF     call        __ecp_nistz256_mul_montq
  0000000000002617: 48 8B 04 24        mov         rax,qword ptr [rsp]
  000000000000261B: 4C 8B 74 24 08     mov         r14,qword ptr [rsp+8]
  0000000000002620: 48 8D 34 24        lea         rsi,[rsp]
  0000000000002624: 4C 8B 7C 24 10     mov         r15,qword ptr [rsp+10h]
  0000000000002629: 4C 8B 44 24 18     mov         r8,qword ptr [rsp+18h]
  000000000000262E: 48 8D 7C 24 20     lea         rdi,[rsp+20h]
  0000000000002633: E8 C8 EB FF FF     call        __ecp_nistz256_sqr_montq
  0000000000002638: 48 8B 84 24 20 02  mov         rax,qword ptr [rsp+220h]
                    00 00
  0000000000002640: 48 8D 9C 24 20 02  lea         rbx,[rsp+220h]
                    00 00
  0000000000002648: 4C 8B 8C 24 60 01  mov         r9,qword ptr [rsp+160h]
                    00 00
  0000000000002650: 4C 8B 94 24 68 01  mov         r10,qword ptr [rsp+168h]
                    00 00
  0000000000002658: 48 8D B4 24 60 01  lea         rsi,[rsp+160h]
                    00 00
  0000000000002660: 4C 8B 9C 24 70 01  mov         r11,qword ptr [rsp+170h]
                    00 00
  0000000000002668: 4C 8B A4 24 78 01  mov         r12,qword ptr [rsp+178h]
                    00 00
  0000000000002670: 48 8D BC 24 60 01  lea         rdi,[rsp+160h]
                    00 00
  0000000000002678: E8 83 E8 FF FF     call        __ecp_nistz256_mul_montq
  000000000000267D: 48 8B 04 24        mov         rax,qword ptr [rsp]
  0000000000002681: 48 8D 1C 24        lea         rbx,[rsp]
  0000000000002685: 4C 8B 4C 24 20     mov         r9,qword ptr [rsp+20h]
  000000000000268A: 4C 8B 54 24 28     mov         r10,qword ptr [rsp+28h]
  000000000000268F: 48 8D 74 24 20     lea         rsi,[rsp+20h]
  0000000000002694: 4C 8B 5C 24 30     mov         r11,qword ptr [rsp+30h]
  0000000000002699: 4C 8B 64 24 38     mov         r12,qword ptr [rsp+38h]
  000000000000269E: 48 8D BC 24 80 00  lea         rdi,[rsp+80h]
                    00 00
  00000000000026A6: E8 55 E8 FF FF     call        __ecp_nistz256_mul_montq
  00000000000026AB: 48 8B 84 24 A0 00  mov         rax,qword ptr [rsp+0A0h]
                    00 00
  00000000000026B3: 48 8D 9C 24 A0 00  lea         rbx,[rsp+0A0h]
                    00 00
  00000000000026BB: 4C 8B 4C 24 20     mov         r9,qword ptr [rsp+20h]
  00000000000026C0: 4C 8B 54 24 28     mov         r10,qword ptr [rsp+28h]
  00000000000026C5: 48 8D 74 24 20     lea         rsi,[rsp+20h]
  00000000000026CA: 4C 8B 5C 24 30     mov         r11,qword ptr [rsp+30h]
  00000000000026CF: 4C 8B 64 24 38     mov         r12,qword ptr [rsp+38h]
  00000000000026D4: 48 8D BC 24 C0 00  lea         rdi,[rsp+0C0h]
                    00 00
  00000000000026DC: E8 1F E8 FF FF     call        __ecp_nistz256_mul_montq
  00000000000026E1: 4D 31 DB           xor         r11,r11
  00000000000026E4: 4D 01 E4           add         r12,r12
  00000000000026E7: 48 8D 74 24 60     lea         rsi,[rsp+60h]
  00000000000026EC: 4D 11 ED           adc         r13,r13
  00000000000026EF: 4C 89 E0           mov         rax,r12
  00000000000026F2: 4D 11 C0           adc         r8,r8
  00000000000026F5: 4D 11 C9           adc         r9,r9
  00000000000026F8: 4C 89 ED           mov         rbp,r13
  00000000000026FB: 49 83 D3 00        adc         r11,0
  00000000000026FF: 49 83 EC FF        sub         r12,0FFFFFFFFFFFFFFFFh
  0000000000002703: 4C 89 C1           mov         rcx,r8
  0000000000002706: 4D 19 F5           sbb         r13,r14
  0000000000002709: 49 83 D8 00        sbb         r8,0
  000000000000270D: 4D 89 CA           mov         r10,r9
  0000000000002710: 4D 19 F9           sbb         r9,r15
  0000000000002713: 49 83 DB 00        sbb         r11,0
  0000000000002717: 4C 0F 42 E0        cmovb       r12,rax
  000000000000271B: 48 8B 06           mov         rax,qword ptr [rsi]
  000000000000271E: 4C 0F 42 ED        cmovb       r13,rbp
  0000000000002722: 48 8B 6E 08        mov         rbp,qword ptr [rsi+8]
  0000000000002726: 4C 0F 42 C1        cmovb       r8,rcx
  000000000000272A: 48 8B 4E 10        mov         rcx,qword ptr [rsi+10h]
  000000000000272E: 4D 0F 42 CA        cmovb       r9,r10
  0000000000002732: 4C 8B 56 18        mov         r10,qword ptr [rsi+18h]
  0000000000002736: E8 05 F7 FF FF     call        __ecp_nistz256_subq
  000000000000273B: 48 8D 9C 24 80 00  lea         rbx,[rsp+80h]
                    00 00
  0000000000002743: 48 8D BC 24 20 01  lea         rdi,[rsp+120h]
                    00 00
  000000000000274B: E8 90 F6 FF FF     call        __ecp_nistz256_sub_fromq
  0000000000002750: 48 8B 84 24 C0 00  mov         rax,qword ptr [rsp+0C0h]
                    00 00
  0000000000002758: 48 8B AC 24 C8 00  mov         rbp,qword ptr [rsp+0C8h]
                    00 00
  0000000000002760: 48 8B 8C 24 D0 00  mov         rcx,qword ptr [rsp+0D0h]
                    00 00
  0000000000002768: 4C 8B 94 24 D8 00  mov         r10,qword ptr [rsp+0D8h]
                    00 00
  0000000000002770: 48 8D BC 24 40 01  lea         rdi,[rsp+140h]
                    00 00
  0000000000002778: E8 C3 F6 FF FF     call        __ecp_nistz256_subq
  000000000000277D: 4C 89 27           mov         qword ptr [rdi],r12
  0000000000002780: 4C 89 6F 08        mov         qword ptr [rdi+8],r13
  0000000000002784: 4C 89 47 10        mov         qword ptr [rdi+10h],r8
  0000000000002788: 4C 89 4F 18        mov         qword ptr [rdi+18h],r9
  000000000000278C: 48 8B 84 24 80 00  mov         rax,qword ptr [rsp+80h]
                    00 00
  0000000000002794: 48 8D 9C 24 80 00  lea         rbx,[rsp+80h]
                    00 00
  000000000000279C: 4C 8B 8C 24 E0 00  mov         r9,qword ptr [rsp+0E0h]
                    00 00
  00000000000027A4: 4C 8B 94 24 E8 00  mov         r10,qword ptr [rsp+0E8h]
                    00 00
  00000000000027AC: 48 8D B4 24 E0 00  lea         rsi,[rsp+0E0h]
                    00 00
  00000000000027B4: 4C 8B 9C 24 F0 00  mov         r11,qword ptr [rsp+0F0h]
                    00 00
  00000000000027BC: 4C 8B A4 24 F8 00  mov         r12,qword ptr [rsp+0F8h]
                    00 00
  00000000000027C4: 48 8D BC 24 00 01  lea         rdi,[rsp+100h]
                    00 00
  00000000000027CC: E8 2F E7 FF FF     call        __ecp_nistz256_mul_montq
  00000000000027D1: 48 8B 84 24 40 01  mov         rax,qword ptr [rsp+140h]
                    00 00
  00000000000027D9: 48 8D 9C 24 40 01  lea         rbx,[rsp+140h]
                    00 00
  00000000000027E1: 4C 8B 4C 24 40     mov         r9,qword ptr [rsp+40h]
  00000000000027E6: 4C 8B 54 24 48     mov         r10,qword ptr [rsp+48h]
  00000000000027EB: 48 8D 74 24 40     lea         rsi,[rsp+40h]
  00000000000027F0: 4C 8B 5C 24 50     mov         r11,qword ptr [rsp+50h]
  00000000000027F5: 4C 8B 64 24 58     mov         r12,qword ptr [rsp+58h]
  00000000000027FA: 48 8D BC 24 40 01  lea         rdi,[rsp+140h]
                    00 00
  0000000000002802: E8 F9 E6 FF FF     call        __ecp_nistz256_mul_montq
  0000000000002807: 48 8D 9C 24 00 01  lea         rbx,[rsp+100h]
                    00 00
  000000000000280F: 48 8D BC 24 40 01  lea         rdi,[rsp+140h]
                    00 00
  0000000000002817: E8 C4 F5 FF FF     call        __ecp_nistz256_sub_fromq
  000000000000281C: 66 48 0F 7E C7     movq        rdi,xmm0
  0000000000002821: 66 0F 6F C5        movdqa      xmm0,xmm5
  0000000000002825: 66 0F 6F CD        movdqa      xmm1,xmm5
  0000000000002829: 66 0F DF 84 24 60  pandn       xmm0,xmmword ptr [rsp+160h]
                    01 00 00
  0000000000002832: 66 0F 6F D5        movdqa      xmm2,xmm5
  0000000000002836: 66 0F DF 8C 24 70  pandn       xmm1,xmmword ptr [rsp+170h]
                    01 00 00
  000000000000283F: 66 0F 6F DD        movdqa      xmm3,xmm5
  0000000000002843: 66 0F DB 94 24 20  pand        xmm2,xmmword ptr [rsp+220h]
                    02 00 00
  000000000000284C: 66 0F DB 9C 24 30  pand        xmm3,xmmword ptr [rsp+230h]
                    02 00 00
  0000000000002855: 66 0F EB D0        por         xmm2,xmm0
  0000000000002859: 66 0F EB D9        por         xmm3,xmm1
  000000000000285D: 66 0F 6F C4        movdqa      xmm0,xmm4
  0000000000002861: 66 0F 6F CC        movdqa      xmm1,xmm4
  0000000000002865: 66 0F DF C2        pandn       xmm0,xmm2
  0000000000002869: 66 0F 6F D4        movdqa      xmm2,xmm4
  000000000000286D: 66 0F DF CB        pandn       xmm1,xmm3
  0000000000002871: 66 0F 6F DC        movdqa      xmm3,xmm4
  0000000000002875: 66 0F DB 94 24 C0  pand        xmm2,xmmword ptr [rsp+1C0h]
                    01 00 00
  000000000000287E: 66 0F DB 9C 24 D0  pand        xmm3,xmmword ptr [rsp+1D0h]
                    01 00 00
  0000000000002887: 66 0F EB D0        por         xmm2,xmm0
  000000000000288B: 66 0F EB D9        por         xmm3,xmm1
  000000000000288F: F3 0F 7F 57 40     movdqu      xmmword ptr [rdi+40h],xmm2
  0000000000002894: F3 0F 7F 5F 50     movdqu      xmmword ptr [rdi+50h],xmm3
  0000000000002899: 66 0F 6F C5        movdqa      xmm0,xmm5
  000000000000289D: 66 0F 6F CD        movdqa      xmm1,xmm5
  00000000000028A1: 66 0F DF 84 24 20  pandn       xmm0,xmmword ptr [rsp+120h]
                    01 00 00
  00000000000028AA: 66 0F 6F D5        movdqa      xmm2,xmm5
  00000000000028AE: 66 0F DF 8C 24 30  pandn       xmm1,xmmword ptr [rsp+130h]
                    01 00 00
  00000000000028B7: 66 0F 6F DD        movdqa      xmm3,xmm5
  00000000000028BB: 66 0F DB 94 24 E0  pand        xmm2,xmmword ptr [rsp+1E0h]
                    01 00 00
  00000000000028C4: 66 0F DB 9C 24 F0  pand        xmm3,xmmword ptr [rsp+1F0h]
                    01 00 00
  00000000000028CD: 66 0F EB D0        por         xmm2,xmm0
  00000000000028D1: 66 0F EB D9        por         xmm3,xmm1
  00000000000028D5: 66 0F 6F C4        movdqa      xmm0,xmm4
  00000000000028D9: 66 0F 6F CC        movdqa      xmm1,xmm4
  00000000000028DD: 66 0F DF C2        pandn       xmm0,xmm2
  00000000000028E1: 66 0F 6F D4        movdqa      xmm2,xmm4
  00000000000028E5: 66 0F DF CB        pandn       xmm1,xmm3
  00000000000028E9: 66 0F 6F DC        movdqa      xmm3,xmm4
  00000000000028ED: 66 0F DB 94 24 80  pand        xmm2,xmmword ptr [rsp+180h]
                    01 00 00
  00000000000028F6: 66 0F DB 9C 24 90  pand        xmm3,xmmword ptr [rsp+190h]
                    01 00 00
  00000000000028FF: 66 0F EB D0        por         xmm2,xmm0
  0000000000002903: 66 0F EB D9        por         xmm3,xmm1
  0000000000002907: F3 0F 7F 17        movdqu      xmmword ptr [rdi],xmm2
  000000000000290B: F3 0F 7F 5F 10     movdqu      xmmword ptr [rdi+10h],xmm3
  0000000000002910: 66 0F 6F C5        movdqa      xmm0,xmm5
  0000000000002914: 66 0F 6F CD        movdqa      xmm1,xmm5
  0000000000002918: 66 0F DF 84 24 40  pandn       xmm0,xmmword ptr [rsp+140h]
                    01 00 00
  0000000000002921: 66 0F 6F D5        movdqa      xmm2,xmm5
  0000000000002925: 66 0F DF 8C 24 50  pandn       xmm1,xmmword ptr [rsp+150h]
                    01 00 00
  000000000000292E: 66 0F 6F DD        movdqa      xmm3,xmm5
  0000000000002932: 66 0F DB 94 24 00  pand        xmm2,xmmword ptr [rsp+200h]
                    02 00 00
  000000000000293B: 66 0F DB 9C 24 10  pand        xmm3,xmmword ptr [rsp+210h]
                    02 00 00
  0000000000002944: 66 0F EB D0        por         xmm2,xmm0
  0000000000002948: 66 0F EB D9        por         xmm3,xmm1
  000000000000294C: 66 0F 6F C4        movdqa      xmm0,xmm4
  0000000000002950: 66 0F 6F CC        movdqa      xmm1,xmm4
  0000000000002954: 66 0F DF C2        pandn       xmm0,xmm2
  0000000000002958: 66 0F 6F D4        movdqa      xmm2,xmm4
  000000000000295C: 66 0F DF CB        pandn       xmm1,xmm3
  0000000000002960: 66 0F 6F DC        movdqa      xmm3,xmm4
  0000000000002964: 66 0F DB 94 24 A0  pand        xmm2,xmmword ptr [rsp+1A0h]
                    01 00 00
  000000000000296D: 66 0F DB 9C 24 B0  pand        xmm3,xmmword ptr [rsp+1B0h]
                    01 00 00
  0000000000002976: 66 0F EB D0        por         xmm2,xmm0
  000000000000297A: 66 0F EB D9        por         xmm3,xmm1
  000000000000297E: F3 0F 7F 57 20     movdqu      xmmword ptr [rdi+20h],xmm2
  0000000000002983: F3 0F 7F 5F 30     movdqu      xmmword ptr [rdi+30h],xmm3
L$add_doneq:
  0000000000002988: 48 8D B4 24 78 02  lea         rsi,[rsp+278h]
                    00 00
  0000000000002990: 4C 8B 7E D0        mov         r15,qword ptr [rsi-30h]
  0000000000002994: 4C 8B 76 D8        mov         r14,qword ptr [rsi-28h]
  0000000000002998: 4C 8B 6E E0        mov         r13,qword ptr [rsi-20h]
  000000000000299C: 4C 8B 66 E8        mov         r12,qword ptr [rsi-18h]
  00000000000029A0: 48 8B 5E F0        mov         rbx,qword ptr [rsi-10h]
  00000000000029A4: 48 8B 6E F8        mov         rbp,qword ptr [rsi-8]
  00000000000029A8: 48 8D 26           lea         rsp,[rsi]
L$point_addq_epilogue:
  00000000000029AB: 48 8B 7C 24 08     mov         rdi,qword ptr [rsp+8]
  00000000000029B0: 48 8B 74 24 10     mov         rsi,qword ptr [rsp+10h]
  00000000000029B5: F3 C3              rep ret
L$SEH_end_ecp_nistz256_point_add:
  00000000000029B7: 90                 nop
  00000000000029B8: 90                 nop
  00000000000029B9: 90                 nop
  00000000000029BA: 90                 nop
  00000000000029BB: 90                 nop
  00000000000029BC: 90                 nop
  00000000000029BD: 90                 nop
  00000000000029BE: 90                 nop
  00000000000029BF: 90                 nop
aws_lc_0_21_2_ecp_nistz256_point_add_affine:
  00000000000029C0: 48 89 7C 24 08     mov         qword ptr [rsp+8],rdi
  00000000000029C5: 48 89 74 24 10     mov         qword ptr [rsp+10h],rsi
  00000000000029CA: 48 89 E0           mov         rax,rsp
L$SEH_begin_ecp_nistz256_point_add_affine:
  00000000000029CD: 48 89 CF           mov         rdi,rcx
  00000000000029D0: 48 89 D6           mov         rsi,rdx
  00000000000029D3: 4C 89 C2           mov         rdx,r8
  00000000000029D6: 48 8D 0D 00 00 00  lea         rcx,[aws_lc_0_21_2_OPENSSL_ia32cap_P]
                    00
  00000000000029DD: 48 8B 49 08        mov         rcx,qword ptr [rcx+8]
  00000000000029E1: 81 E1 00 01 08 00  and         ecx,80100h
  00000000000029E7: 81 F9 00 01 08 00  cmp         ecx,80100h
  00000000000029ED: 0F 84 A3 11 00 00  je          L$point_add_affinex
  00000000000029F3: 55                 push        rbp
  00000000000029F4: 53                 push        rbx
  00000000000029F5: 41 54              push        r12
  00000000000029F7: 41 55              push        r13
  00000000000029F9: 41 56              push        r14
  00000000000029FB: 41 57              push        r15
  00000000000029FD: 48 81 EC E8 01 00  sub         rsp,1E8h
                    00
L$add_affineq_body:
  0000000000002A04: F3 0F 6F 06        movdqu      xmm0,xmmword ptr [rsi]
  0000000000002A08: 48 89 D3           mov         rbx,rdx
  0000000000002A0B: F3 0F 6F 4E 10     movdqu      xmm1,xmmword ptr [rsi+10h]
  0000000000002A10: F3 0F 6F 56 20     movdqu      xmm2,xmmword ptr [rsi+20h]
  0000000000002A15: F3 0F 6F 5E 30     movdqu      xmm3,xmmword ptr [rsi+30h]
  0000000000002A1A: F3 0F 6F 66 40     movdqu      xmm4,xmmword ptr [rsi+40h]
  0000000000002A1F: F3 0F 6F 6E 50     movdqu      xmm5,xmmword ptr [rsi+50h]
  0000000000002A24: 48 8B 46 40        mov         rax,qword ptr [rsi+40h]
  0000000000002A28: 4C 8B 76 48        mov         r14,qword ptr [rsi+48h]
  0000000000002A2C: 4C 8B 7E 50        mov         r15,qword ptr [rsi+50h]
  0000000000002A30: 4C 8B 46 58        mov         r8,qword ptr [rsi+58h]
  0000000000002A34: 66 0F 7F 84 24 40  movdqa      xmmword ptr [rsp+140h],xmm0
                    01 00 00
  0000000000002A3D: 66 0F 7F 8C 24 50  movdqa      xmmword ptr [rsp+150h],xmm1
                    01 00 00
  0000000000002A46: 66 0F 7F 94 24 60  movdqa      xmmword ptr [rsp+160h],xmm2
                    01 00 00
  0000000000002A4F: 66 0F 7F 9C 24 70  movdqa      xmmword ptr [rsp+170h],xmm3
                    01 00 00
  0000000000002A58: 66 0F 7F A4 24 80  movdqa      xmmword ptr [rsp+180h],xmm4
                    01 00 00
  0000000000002A61: 66 0F 7F AC 24 90  movdqa      xmmword ptr [rsp+190h],xmm5
                    01 00 00
  0000000000002A6A: 66 0F EB EC        por         xmm5,xmm4
  0000000000002A6E: F3 0F 6F 03        movdqu      xmm0,xmmword ptr [rbx]
  0000000000002A72: 66 0F 70 DD B1     pshufd      xmm3,xmm5,0B1h
  0000000000002A77: F3 0F 6F 4B 10     movdqu      xmm1,xmmword ptr [rbx+10h]
  0000000000002A7C: F3 0F 6F 53 20     movdqu      xmm2,xmmword ptr [rbx+20h]
  0000000000002A81: 66 0F EB EB        por         xmm5,xmm3
  0000000000002A85: F3 0F 6F 5B 30     movdqu      xmm3,xmmword ptr [rbx+30h]
  0000000000002A8A: 66 0F 7F 84 24 A0  movdqa      xmmword ptr [rsp+1A0h],xmm0
                    01 00 00
  0000000000002A93: 66 0F 70 E5 1E     pshufd      xmm4,xmm5,1Eh
  0000000000002A98: 66 0F 7F 8C 24 B0  movdqa      xmmword ptr [rsp+1B0h],xmm1
                    01 00 00
  0000000000002AA1: 66 0F EB C8        por         xmm1,xmm0
  0000000000002AA5: 66 48 0F 6E C7     movq        xmm0,rdi
  0000000000002AAA: 66 0F 7F 94 24 C0  movdqa      xmmword ptr [rsp+1C0h],xmm2
                    01 00 00
  0000000000002AB3: 66 0F 7F 9C 24 D0  movdqa      xmmword ptr [rsp+1D0h],xmm3
                    01 00 00
  0000000000002ABC: 66 0F EB DA        por         xmm3,xmm2
  0000000000002AC0: 66 0F EB EC        por         xmm5,xmm4
  0000000000002AC4: 66 0F EF E4        pxor        xmm4,xmm4
  0000000000002AC8: 66 0F EB D9        por         xmm3,xmm1
  0000000000002ACC: 48 8D 76 40        lea         rsi,[rsi+40h]
  0000000000002AD0: 48 8D 7C 24 20     lea         rdi,[rsp+20h]
  0000000000002AD5: E8 26 E7 FF FF     call        __ecp_nistz256_sqr_montq
  0000000000002ADA: 66 0F 76 EC        pcmpeqd     xmm5,xmm4
  0000000000002ADE: 66 0F 70 E3 B1     pshufd      xmm4,xmm3,0B1h
  0000000000002AE3: 48 8B 03           mov         rax,qword ptr [rbx]
  0000000000002AE6: 4D 89 E1           mov         r9,r12
  0000000000002AE9: 66 0F EB E3        por         xmm4,xmm3
  0000000000002AED: 66 0F 70 ED 00     pshufd      xmm5,xmm5,0
  0000000000002AF2: 66 0F 70 DC 1E     pshufd      xmm3,xmm4,1Eh
  0000000000002AF7: 4D 89 EA           mov         r10,r13
  0000000000002AFA: 66 0F EB E3        por         xmm4,xmm3
  0000000000002AFE: 66 0F EF DB        pxor        xmm3,xmm3
  0000000000002B02: 4D 89 F3           mov         r11,r14
  0000000000002B05: 66 0F 76 E3        pcmpeqd     xmm4,xmm3
  0000000000002B09: 66 0F 70 E4 00     pshufd      xmm4,xmm4,0
  0000000000002B0E: 48 8D 74 24 20     lea         rsi,[rsp+20h]
  0000000000002B13: 4D 89 FC           mov         r12,r15
  0000000000002B16: 48 8D 3C 24        lea         rdi,[rsp]
  0000000000002B1A: E8 E1 E3 FF FF     call        __ecp_nistz256_mul_montq
  0000000000002B1F: 48 8D 9C 24 40 01  lea         rbx,[rsp+140h]
                    00 00
  0000000000002B27: 48 8D 7C 24 40     lea         rdi,[rsp+40h]
  0000000000002B2C: E8 AF F2 FF FF     call        __ecp_nistz256_sub_fromq
  0000000000002B31: 48 8B 84 24 80 01  mov         rax,qword ptr [rsp+180h]
                    00 00
  0000000000002B39: 48 8D 9C 24 80 01  lea         rbx,[rsp+180h]
                    00 00
  0000000000002B41: 4C 8B 4C 24 20     mov         r9,qword ptr [rsp+20h]
  0000000000002B46: 4C 8B 54 24 28     mov         r10,qword ptr [rsp+28h]
  0000000000002B4B: 48 8D 74 24 20     lea         rsi,[rsp+20h]
  0000000000002B50: 4C 8B 5C 24 30     mov         r11,qword ptr [rsp+30h]
  0000000000002B55: 4C 8B 64 24 38     mov         r12,qword ptr [rsp+38h]
  0000000000002B5A: 48 8D 7C 24 20     lea         rdi,[rsp+20h]
  0000000000002B5F: E8 9C E3 FF FF     call        __ecp_nistz256_mul_montq
  0000000000002B64: 48 8B 84 24 80 01  mov         rax,qword ptr [rsp+180h]
                    00 00
  0000000000002B6C: 48 8D 9C 24 80 01  lea         rbx,[rsp+180h]
                    00 00
  0000000000002B74: 4C 8B 4C 24 40     mov         r9,qword ptr [rsp+40h]
  0000000000002B79: 4C 8B 54 24 48     mov         r10,qword ptr [rsp+48h]
  0000000000002B7E: 48 8D 74 24 40     lea         rsi,[rsp+40h]
  0000000000002B83: 4C 8B 5C 24 50     mov         r11,qword ptr [rsp+50h]
  0000000000002B88: 4C 8B 64 24 58     mov         r12,qword ptr [rsp+58h]
  0000000000002B8D: 48 8D BC 24 20 01  lea         rdi,[rsp+120h]
                    00 00
  0000000000002B95: E8 66 E3 FF FF     call        __ecp_nistz256_mul_montq
  0000000000002B9A: 48 8B 84 24 C0 01  mov         rax,qword ptr [rsp+1C0h]
                    00 00
  0000000000002BA2: 48 8D 9C 24 C0 01  lea         rbx,[rsp+1C0h]
                    00 00
  0000000000002BAA: 4C 8B 4C 24 20     mov         r9,qword ptr [rsp+20h]
  0000000000002BAF: 4C 8B 54 24 28     mov         r10,qword ptr [rsp+28h]
  0000000000002BB4: 48 8D 74 24 20     lea         rsi,[rsp+20h]
  0000000000002BB9: 4C 8B 5C 24 30     mov         r11,qword ptr [rsp+30h]
  0000000000002BBE: 4C 8B 64 24 38     mov         r12,qword ptr [rsp+38h]
  0000000000002BC3: 48 8D 7C 24 20     lea         rdi,[rsp+20h]
  0000000000002BC8: E8 33 E3 FF FF     call        __ecp_nistz256_mul_montq
  0000000000002BCD: 48 8D 9C 24 60 01  lea         rbx,[rsp+160h]
                    00 00
  0000000000002BD5: 48 8D 7C 24 60     lea         rdi,[rsp+60h]
  0000000000002BDA: E8 01 F2 FF FF     call        __ecp_nistz256_sub_fromq
  0000000000002BDF: 48 8B 44 24 40     mov         rax,qword ptr [rsp+40h]
  0000000000002BE4: 4C 8B 74 24 48     mov         r14,qword ptr [rsp+48h]
  0000000000002BE9: 48 8D 74 24 40     lea         rsi,[rsp+40h]
  0000000000002BEE: 4C 8B 7C 24 50     mov         r15,qword ptr [rsp+50h]
  0000000000002BF3: 4C 8B 44 24 58     mov         r8,qword ptr [rsp+58h]
  0000000000002BF8: 48 8D BC 24 80 00  lea         rdi,[rsp+80h]
                    00 00
  0000000000002C00: E8 FB E5 FF FF     call        __ecp_nistz256_sqr_montq
  0000000000002C05: 48 8B 44 24 60     mov         rax,qword ptr [rsp+60h]
  0000000000002C0A: 4C 8B 74 24 68     mov         r14,qword ptr [rsp+68h]
  0000000000002C0F: 48 8D 74 24 60     lea         rsi,[rsp+60h]
  0000000000002C14: 4C 8B 7C 24 70     mov         r15,qword ptr [rsp+70h]
  0000000000002C19: 4C 8B 44 24 78     mov         r8,qword ptr [rsp+78h]
  0000000000002C1E: 48 8D BC 24 C0 00  lea         rdi,[rsp+0C0h]
                    00 00
  0000000000002C26: E8 D5 E5 FF FF     call        __ecp_nistz256_sqr_montq
  0000000000002C2B: 48 8B 84 24 80 00  mov         rax,qword ptr [rsp+80h]
                    00 00
  0000000000002C33: 48 8D 9C 24 80 00  lea         rbx,[rsp+80h]
                    00 00
  0000000000002C3B: 4C 8B 4C 24 40     mov         r9,qword ptr [rsp+40h]
  0000000000002C40: 4C 8B 54 24 48     mov         r10,qword ptr [rsp+48h]
  0000000000002C45: 48 8D 74 24 40     lea         rsi,[rsp+40h]
  0000000000002C4A: 4C 8B 5C 24 50     mov         r11,qword ptr [rsp+50h]
  0000000000002C4F: 4C 8B 64 24 58     mov         r12,qword ptr [rsp+58h]
  0000000000002C54: 48 8D BC 24 A0 00  lea         rdi,[rsp+0A0h]
                    00 00
  0000000000002C5C: E8 9F E2 FF FF     call        __ecp_nistz256_mul_montq
  0000000000002C61: 48 8B 84 24 40 01  mov         rax,qword ptr [rsp+140h]
                    00 00
  0000000000002C69: 48 8D 9C 24 40 01  lea         rbx,[rsp+140h]
                    00 00
  0000000000002C71: 4C 8B 8C 24 80 00  mov         r9,qword ptr [rsp+80h]
                    00 00
  0000000000002C79: 4C 8B 94 24 88 00  mov         r10,qword ptr [rsp+88h]
                    00 00
  0000000000002C81: 48 8D B4 24 80 00  lea         rsi,[rsp+80h]
                    00 00
  0000000000002C89: 4C 8B 9C 24 90 00  mov         r11,qword ptr [rsp+90h]
                    00 00
  0000000000002C91: 4C 8B A4 24 98 00  mov         r12,qword ptr [rsp+98h]
                    00 00
  0000000000002C99: 48 8D 3C 24        lea         rdi,[rsp]
  0000000000002C9D: E8 5E E2 FF FF     call        __ecp_nistz256_mul_montq
  0000000000002CA2: 4D 31 DB           xor         r11,r11
  0000000000002CA5: 4D 01 E4           add         r12,r12
  0000000000002CA8: 48 8D B4 24 C0 00  lea         rsi,[rsp+0C0h]
                    00 00
  0000000000002CB0: 4D 11 ED           adc         r13,r13
  0000000000002CB3: 4C 89 E0           mov         rax,r12
  0000000000002CB6: 4D 11 C0           adc         r8,r8
  0000000000002CB9: 4D 11 C9           adc         r9,r9
  0000000000002CBC: 4C 89 ED           mov         rbp,r13
  0000000000002CBF: 49 83 D3 00        adc         r11,0
  0000000000002CC3: 49 83 EC FF        sub         r12,0FFFFFFFFFFFFFFFFh
  0000000000002CC7: 4C 89 C1           mov         rcx,r8
  0000000000002CCA: 4D 19 F5           sbb         r13,r14
  0000000000002CCD: 49 83 D8 00        sbb         r8,0
  0000000000002CD1: 4D 89 CA           mov         r10,r9
  0000000000002CD4: 4D 19 F9           sbb         r9,r15
  0000000000002CD7: 49 83 DB 00        sbb         r11,0
  0000000000002CDB: 4C 0F 42 E0        cmovb       r12,rax
  0000000000002CDF: 48 8B 06           mov         rax,qword ptr [rsi]
  0000000000002CE2: 4C 0F 42 ED        cmovb       r13,rbp
  0000000000002CE6: 48 8B 6E 08        mov         rbp,qword ptr [rsi+8]
  0000000000002CEA: 4C 0F 42 C1        cmovb       r8,rcx
  0000000000002CEE: 48 8B 4E 10        mov         rcx,qword ptr [rsi+10h]
  0000000000002CF2: 4D 0F 42 CA        cmovb       r9,r10
  0000000000002CF6: 4C 8B 56 18        mov         r10,qword ptr [rsi+18h]
  0000000000002CFA: E8 41 F1 FF FF     call        __ecp_nistz256_subq
  0000000000002CFF: 48 8D 9C 24 A0 00  lea         rbx,[rsp+0A0h]
                    00 00
  0000000000002D07: 48 8D BC 24 E0 00  lea         rdi,[rsp+0E0h]
                    00 00
  0000000000002D0F: E8 CC F0 FF FF     call        __ecp_nistz256_sub_fromq
  0000000000002D14: 48 8B 04 24        mov         rax,qword ptr [rsp]
  0000000000002D18: 48 8B 6C 24 08     mov         rbp,qword ptr [rsp+8]
  0000000000002D1D: 48 8B 4C 24 10     mov         rcx,qword ptr [rsp+10h]
  0000000000002D22: 4C 8B 54 24 18     mov         r10,qword ptr [rsp+18h]
  0000000000002D27: 48 8D 7C 24 40     lea         rdi,[rsp+40h]
  0000000000002D2C: E8 0F F1 FF FF     call        __ecp_nistz256_subq
  0000000000002D31: 4C 89 27           mov         qword ptr [rdi],r12
  0000000000002D34: 4C 89 6F 08        mov         qword ptr [rdi+8],r13
  0000000000002D38: 4C 89 47 10        mov         qword ptr [rdi+10h],r8
  0000000000002D3C: 4C 89 4F 18        mov         qword ptr [rdi+18h],r9
  0000000000002D40: 48 8B 84 24 60 01  mov         rax,qword ptr [rsp+160h]
                    00 00
  0000000000002D48: 48 8D 9C 24 60 01  lea         rbx,[rsp+160h]
                    00 00
  0000000000002D50: 4C 8B 8C 24 A0 00  mov         r9,qword ptr [rsp+0A0h]
                    00 00
  0000000000002D58: 4C 8B 94 24 A8 00  mov         r10,qword ptr [rsp+0A8h]
                    00 00
  0000000000002D60: 48 8D B4 24 A0 00  lea         rsi,[rsp+0A0h]
                    00 00
  0000000000002D68: 4C 8B 9C 24 B0 00  mov         r11,qword ptr [rsp+0B0h]
                    00 00
  0000000000002D70: 4C 8B A4 24 B8 00  mov         r12,qword ptr [rsp+0B8h]
                    00 00
  0000000000002D78: 48 8D 7C 24 20     lea         rdi,[rsp+20h]
  0000000000002D7D: E8 7E E1 FF FF     call        __ecp_nistz256_mul_montq
  0000000000002D82: 48 8B 44 24 60     mov         rax,qword ptr [rsp+60h]
  0000000000002D87: 48 8D 5C 24 60     lea         rbx,[rsp+60h]
  0000000000002D8C: 4C 8B 4C 24 40     mov         r9,qword ptr [rsp+40h]
  0000000000002D91: 4C 8B 54 24 48     mov         r10,qword ptr [rsp+48h]
  0000000000002D96: 48 8D 74 24 40     lea         rsi,[rsp+40h]
  0000000000002D9B: 4C 8B 5C 24 50     mov         r11,qword ptr [rsp+50h]
  0000000000002DA0: 4C 8B 64 24 58     mov         r12,qword ptr [rsp+58h]
  0000000000002DA5: 48 8D 7C 24 40     lea         rdi,[rsp+40h]
  0000000000002DAA: E8 51 E1 FF FF     call        __ecp_nistz256_mul_montq
  0000000000002DAF: 48 8D 5C 24 20     lea         rbx,[rsp+20h]
  0000000000002DB4: 48 8D BC 24 00 01  lea         rdi,[rsp+100h]
                    00 00
  0000000000002DBC: E8 1F F0 FF FF     call        __ecp_nistz256_sub_fromq
  0000000000002DC1: 66 48 0F 7E C7     movq        rdi,xmm0
  0000000000002DC6: 66 0F 6F C5        movdqa      xmm0,xmm5
  0000000000002DCA: 66 0F 6F CD        movdqa      xmm1,xmm5
  0000000000002DCE: 66 0F DF 84 24 20  pandn       xmm0,xmmword ptr [rsp+120h]
                    01 00 00
  0000000000002DD7: 66 0F 6F D5        movdqa      xmm2,xmm5
  0000000000002DDB: 66 0F DF 8C 24 30  pandn       xmm1,xmmword ptr [rsp+130h]
                    01 00 00
  0000000000002DE4: 66 0F 6F DD        movdqa      xmm3,xmm5
  0000000000002DE8: 66 0F DB 15 80 00  pand        xmm2,xmmword ptr [.rdata+80h]
                    00 00
  0000000000002DF0: 66 0F DB 1D 90 00  pand        xmm3,xmmword ptr [.rdata+90h]
                    00 00
  0000000000002DF8: 66 0F EB D0        por         xmm2,xmm0
  0000000000002DFC: 66 0F EB D9        por         xmm3,xmm1
  0000000000002E00: 66 0F 6F C4        movdqa      xmm0,xmm4
  0000000000002E04: 66 0F 6F CC        movdqa      xmm1,xmm4
  0000000000002E08: 66 0F DF C2        pandn       xmm0,xmm2
  0000000000002E0C: 66 0F 6F D4        movdqa      xmm2,xmm4
  0000000000002E10: 66 0F DF CB        pandn       xmm1,xmm3
  0000000000002E14: 66 0F 6F DC        movdqa      xmm3,xmm4
  0000000000002E18: 66 0F DB 94 24 80  pand        xmm2,xmmword ptr [rsp+180h]
                    01 00 00
  0000000000002E21: 66 0F DB 9C 24 90  pand        xmm3,xmmword ptr [rsp+190h]
                    01 00 00
  0000000000002E2A: 66 0F EB D0        por         xmm2,xmm0
  0000000000002E2E: 66 0F EB D9        por         xmm3,xmm1
  0000000000002E32: F3 0F 7F 57 40     movdqu      xmmword ptr [rdi+40h],xmm2
  0000000000002E37: F3 0F 7F 5F 50     movdqu      xmmword ptr [rdi+50h],xmm3
  0000000000002E3C: 66 0F 6F C5        movdqa      xmm0,xmm5
  0000000000002E40: 66 0F 6F CD        movdqa      xmm1,xmm5
  0000000000002E44: 66 0F DF 84 24 E0  pandn       xmm0,xmmword ptr [rsp+0E0h]
                    00 00 00
  0000000000002E4D: 66 0F 6F D5        movdqa      xmm2,xmm5
  0000000000002E51: 66 0F DF 8C 24 F0  pandn       xmm1,xmmword ptr [rsp+0F0h]
                    00 00 00
  0000000000002E5A: 66 0F 6F DD        movdqa      xmm3,xmm5
  0000000000002E5E: 66 0F DB 94 24 A0  pand        xmm2,xmmword ptr [rsp+1A0h]
                    01 00 00
  0000000000002E67: 66 0F DB 9C 24 B0  pand        xmm3,xmmword ptr [rsp+1B0h]
                    01 00 00
  0000000000002E70: 66 0F EB D0        por         xmm2,xmm0
  0000000000002E74: 66 0F EB D9        por         xmm3,xmm1
  0000000000002E78: 66 0F 6F C4        movdqa      xmm0,xmm4
  0000000000002E7C: 66 0F 6F CC        movdqa      xmm1,xmm4
  0000000000002E80: 66 0F DF C2        pandn       xmm0,xmm2
  0000000000002E84: 66 0F 6F D4        movdqa      xmm2,xmm4
  0000000000002E88: 66 0F DF CB        pandn       xmm1,xmm3
  0000000000002E8C: 66 0F 6F DC        movdqa      xmm3,xmm4
  0000000000002E90: 66 0F DB 94 24 40  pand        xmm2,xmmword ptr [rsp+140h]
                    01 00 00
  0000000000002E99: 66 0F DB 9C 24 50  pand        xmm3,xmmword ptr [rsp+150h]
                    01 00 00
  0000000000002EA2: 66 0F EB D0        por         xmm2,xmm0
  0000000000002EA6: 66 0F EB D9        por         xmm3,xmm1
  0000000000002EAA: F3 0F 7F 17        movdqu      xmmword ptr [rdi],xmm2
  0000000000002EAE: F3 0F 7F 5F 10     movdqu      xmmword ptr [rdi+10h],xmm3
  0000000000002EB3: 66 0F 6F C5        movdqa      xmm0,xmm5
  0000000000002EB7: 66 0F 6F CD        movdqa      xmm1,xmm5
  0000000000002EBB: 66 0F DF 84 24 00  pandn       xmm0,xmmword ptr [rsp+100h]
                    01 00 00
  0000000000002EC4: 66 0F 6F D5        movdqa      xmm2,xmm5
  0000000000002EC8: 66 0F DF 8C 24 10  pandn       xmm1,xmmword ptr [rsp+110h]
                    01 00 00
  0000000000002ED1: 66 0F 6F DD        movdqa      xmm3,xmm5
  0000000000002ED5: 66 0F DB 94 24 C0  pand        xmm2,xmmword ptr [rsp+1C0h]
                    01 00 00
  0000000000002EDE: 66 0F DB 9C 24 D0  pand        xmm3,xmmword ptr [rsp+1D0h]
                    01 00 00
  0000000000002EE7: 66 0F EB D0        por         xmm2,xmm0
  0000000000002EEB: 66 0F EB D9        por         xmm3,xmm1
  0000000000002EEF: 66 0F 6F C4        movdqa      xmm0,xmm4
  0000000000002EF3: 66 0F 6F CC        movdqa      xmm1,xmm4
  0000000000002EF7: 66 0F DF C2        pandn       xmm0,xmm2
  0000000000002EFB: 66 0F 6F D4        movdqa      xmm2,xmm4
  0000000000002EFF: 66 0F DF CB        pandn       xmm1,xmm3
  0000000000002F03: 66 0F 6F DC        movdqa      xmm3,xmm4
  0000000000002F07: 66 0F DB 94 24 60  pand        xmm2,xmmword ptr [rsp+160h]
                    01 00 00
  0000000000002F10: 66 0F DB 9C 24 70  pand        xmm3,xmmword ptr [rsp+170h]
                    01 00 00
  0000000000002F19: 66 0F EB D0        por         xmm2,xmm0
  0000000000002F1D: 66 0F EB D9        por         xmm3,xmm1
  0000000000002F21: F3 0F 7F 57 20     movdqu      xmmword ptr [rdi+20h],xmm2
  0000000000002F26: F3 0F 7F 5F 30     movdqu      xmmword ptr [rdi+30h],xmm3
  0000000000002F2B: 48 8D B4 24 18 02  lea         rsi,[rsp+218h]
                    00 00
  0000000000002F33: 4C 8B 7E D0        mov         r15,qword ptr [rsi-30h]
  0000000000002F37: 4C 8B 76 D8        mov         r14,qword ptr [rsi-28h]
  0000000000002F3B: 4C 8B 6E E0        mov         r13,qword ptr [rsi-20h]
  0000000000002F3F: 4C 8B 66 E8        mov         r12,qword ptr [rsi-18h]
  0000000000002F43: 48 8B 5E F0        mov         rbx,qword ptr [rsi-10h]
  0000000000002F47: 48 8B 6E F8        mov         rbp,qword ptr [rsi-8]
  0000000000002F4B: 48 8D 26           lea         rsp,[rsi]
L$add_affineq_epilogue:
  0000000000002F4E: 48 8B 7C 24 08     mov         rdi,qword ptr [rsp+8]
  0000000000002F53: 48 8B 74 24 10     mov         rsi,qword ptr [rsp+10h]
  0000000000002F58: F3 C3              rep ret
L$SEH_end_ecp_nistz256_point_add_affine:
  0000000000002F5A: 90                 nop
  0000000000002F5B: 90                 nop
  0000000000002F5C: 90                 nop
  0000000000002F5D: 90                 nop
  0000000000002F5E: 90                 nop
  0000000000002F5F: 90                 nop
__ecp_nistz256_add_tox:
  0000000000002F60: 4D 31 DB           xor         r11,r11
  0000000000002F63: 4C 13 23           adc         r12,qword ptr [rbx]
  0000000000002F66: 4C 13 6B 08        adc         r13,qword ptr [rbx+8]
  0000000000002F6A: 4C 89 E0           mov         rax,r12
  0000000000002F6D: 4C 13 43 10        adc         r8,qword ptr [rbx+10h]
  0000000000002F71: 4C 13 4B 18        adc         r9,qword ptr [rbx+18h]
  0000000000002F75: 4C 89 ED           mov         rbp,r13
  0000000000002F78: 49 83 D3 00        adc         r11,0
  0000000000002F7C: 4D 31 D2           xor         r10,r10
  0000000000002F7F: 49 83 DC FF        sbb         r12,0FFFFFFFFFFFFFFFFh
  0000000000002F83: 4C 89 C1           mov         rcx,r8
  0000000000002F86: 4D 19 F5           sbb         r13,r14
  0000000000002F89: 49 83 D8 00        sbb         r8,0
  0000000000002F8D: 4D 89 CA           mov         r10,r9
  0000000000002F90: 4D 19 F9           sbb         r9,r15
  0000000000002F93: 49 83 DB 00        sbb         r11,0
  0000000000002F97: 4C 0F 42 E0        cmovb       r12,rax
  0000000000002F9B: 4C 0F 42 ED        cmovb       r13,rbp
  0000000000002F9F: 4C 89 27           mov         qword ptr [rdi],r12
  0000000000002FA2: 4C 0F 42 C1        cmovb       r8,rcx
  0000000000002FA6: 4C 89 6F 08        mov         qword ptr [rdi+8],r13
  0000000000002FAA: 4D 0F 42 CA        cmovb       r9,r10
  0000000000002FAE: 4C 89 47 10        mov         qword ptr [rdi+10h],r8
  0000000000002FB2: 4C 89 4F 18        mov         qword ptr [rdi+18h],r9
  0000000000002FB6: F3 C3              rep ret
  0000000000002FB8: 90                 nop
  0000000000002FB9: 90                 nop
  0000000000002FBA: 90                 nop
  0000000000002FBB: 90                 nop
  0000000000002FBC: 90                 nop
  0000000000002FBD: 90                 nop
  0000000000002FBE: 90                 nop
  0000000000002FBF: 90                 nop
__ecp_nistz256_sub_fromx:
  0000000000002FC0: 4D 31 DB           xor         r11,r11
  0000000000002FC3: 4C 1B 23           sbb         r12,qword ptr [rbx]
  0000000000002FC6: 4C 1B 6B 08        sbb         r13,qword ptr [rbx+8]
  0000000000002FCA: 4C 89 E0           mov         rax,r12
  0000000000002FCD: 4C 1B 43 10        sbb         r8,qword ptr [rbx+10h]
  0000000000002FD1: 4C 1B 4B 18        sbb         r9,qword ptr [rbx+18h]
  0000000000002FD5: 4C 89 ED           mov         rbp,r13
  0000000000002FD8: 49 83 DB 00        sbb         r11,0
  0000000000002FDC: 4D 31 D2           xor         r10,r10
  0000000000002FDF: 49 83 D4 FF        adc         r12,0FFFFFFFFFFFFFFFFh
  0000000000002FE3: 4C 89 C1           mov         rcx,r8
  0000000000002FE6: 4D 11 F5           adc         r13,r14
  0000000000002FE9: 49 83 D0 00        adc         r8,0
  0000000000002FED: 4D 89 CA           mov         r10,r9
  0000000000002FF0: 4D 11 F9           adc         r9,r15
  0000000000002FF3: 49 0F BA E3 00     bt          r11,0
  0000000000002FF8: 4C 0F 43 E0        cmovae      r12,rax
  0000000000002FFC: 4C 0F 43 ED        cmovae      r13,rbp
  0000000000003000: 4C 89 27           mov         qword ptr [rdi],r12
  0000000000003003: 4C 0F 43 C1        cmovae      r8,rcx
  0000000000003007: 4C 89 6F 08        mov         qword ptr [rdi+8],r13
  000000000000300B: 4D 0F 43 CA        cmovae      r9,r10
  000000000000300F: 4C 89 47 10        mov         qword ptr [rdi+10h],r8
  0000000000003013: 4C 89 4F 18        mov         qword ptr [rdi+18h],r9
  0000000000003017: F3 C3              rep ret
  0000000000003019: 90                 nop
  000000000000301A: 90                 nop
  000000000000301B: 90                 nop
  000000000000301C: 90                 nop
  000000000000301D: 90                 nop
  000000000000301E: 90                 nop
  000000000000301F: 90                 nop
__ecp_nistz256_subx:
  0000000000003020: 4D 31 DB           xor         r11,r11
  0000000000003023: 4C 19 E0           sbb         rax,r12
  0000000000003026: 4C 19 ED           sbb         rbp,r13
  0000000000003029: 49 89 C4           mov         r12,rax
  000000000000302C: 4C 19 C1           sbb         rcx,r8
  000000000000302F: 4D 19 CA           sbb         r10,r9
  0000000000003032: 49 89 ED           mov         r13,rbp
  0000000000003035: 49 83 DB 00        sbb         r11,0
  0000000000003039: 4D 31 C9           xor         r9,r9
  000000000000303C: 48 83 D0 FF        adc         rax,0FFFFFFFFFFFFFFFFh
  0000000000003040: 49 89 C8           mov         r8,rcx
  0000000000003043: 4C 11 F5           adc         rbp,r14
  0000000000003046: 48 83 D1 00        adc         rcx,0
  000000000000304A: 4D 89 D1           mov         r9,r10
  000000000000304D: 4D 11 FA           adc         r10,r15
  0000000000003050: 49 0F BA E3 00     bt          r11,0
  0000000000003055: 4C 0F 42 E0        cmovb       r12,rax
  0000000000003059: 4C 0F 42 ED        cmovb       r13,rbp
  000000000000305D: 4C 0F 42 C1        cmovb       r8,rcx
  0000000000003061: 4D 0F 42 CA        cmovb       r9,r10
  0000000000003065: F3 C3              rep ret
  0000000000003067: 90                 nop
  0000000000003068: 90                 nop
  0000000000003069: 90                 nop
  000000000000306A: 90                 nop
  000000000000306B: 90                 nop
  000000000000306C: 90                 nop
  000000000000306D: 90                 nop
  000000000000306E: 90                 nop
  000000000000306F: 90                 nop
  0000000000003070: 90                 nop
  0000000000003071: 90                 nop
  0000000000003072: 90                 nop
  0000000000003073: 90                 nop
  0000000000003074: 90                 nop
  0000000000003075: 90                 nop
  0000000000003076: 90                 nop
  0000000000003077: 90                 nop
  0000000000003078: 90                 nop
  0000000000003079: 90                 nop
  000000000000307A: 90                 nop
  000000000000307B: 90                 nop
  000000000000307C: 90                 nop
  000000000000307D: 90                 nop
  000000000000307E: 90                 nop
  000000000000307F: 90                 nop
__ecp_nistz256_mul_by_2x:
  0000000000003080: 4D 31 DB           xor         r11,r11
  0000000000003083: 4D 11 E4           adc         r12,r12
  0000000000003086: 4D 11 ED           adc         r13,r13
  0000000000003089: 4C 89 E0           mov         rax,r12
  000000000000308C: 4D 11 C0           adc         r8,r8
  000000000000308F: 4D 11 C9           adc         r9,r9
  0000000000003092: 4C 89 ED           mov         rbp,r13
  0000000000003095: 49 83 D3 00        adc         r11,0
  0000000000003099: 4D 31 D2           xor         r10,r10
  000000000000309C: 49 83 DC FF        sbb         r12,0FFFFFFFFFFFFFFFFh
  00000000000030A0: 4C 89 C1           mov         rcx,r8
  00000000000030A3: 4D 19 F5           sbb         r13,r14
  00000000000030A6: 49 83 D8 00        sbb         r8,0
  00000000000030AA: 4D 89 CA           mov         r10,r9
  00000000000030AD: 4D 19 F9           sbb         r9,r15
  00000000000030B0: 49 83 DB 00        sbb         r11,0
  00000000000030B4: 4C 0F 42 E0        cmovb       r12,rax
  00000000000030B8: 4C 0F 42 ED        cmovb       r13,rbp
  00000000000030BC: 4C 89 27           mov         qword ptr [rdi],r12
  00000000000030BF: 4C 0F 42 C1        cmovb       r8,rcx
  00000000000030C3: 4C 89 6F 08        mov         qword ptr [rdi+8],r13
  00000000000030C7: 4D 0F 42 CA        cmovb       r9,r10
  00000000000030CB: 4C 89 47 10        mov         qword ptr [rdi+10h],r8
  00000000000030CF: 4C 89 4F 18        mov         qword ptr [rdi+18h],r9
  00000000000030D3: F3 C3              rep ret
  00000000000030D5: 90                 nop
  00000000000030D6: 90                 nop
  00000000000030D7: 90                 nop
  00000000000030D8: 90                 nop
  00000000000030D9: 90                 nop
  00000000000030DA: 90                 nop
  00000000000030DB: 90                 nop
  00000000000030DC: 90                 nop
  00000000000030DD: 90                 nop
  00000000000030DE: 90                 nop
  00000000000030DF: 90                 nop
ecp_nistz256_point_doublex:
  00000000000030E0: 48 89 7C 24 08     mov         qword ptr [rsp+8],rdi
  00000000000030E5: 48 89 74 24 10     mov         qword ptr [rsp+10h],rsi
  00000000000030EA: 48 89 E0           mov         rax,rsp
L$SEH_begin_ecp_nistz256_point_doublex:
  00000000000030ED: 48 89 CF           mov         rdi,rcx
  00000000000030F0: 48 89 D6           mov         rsi,rdx
L$point_doublex:
  00000000000030F3: 55                 push        rbp
  00000000000030F4: 53                 push        rbx
  00000000000030F5: 41 54              push        r12
  00000000000030F7: 41 55              push        r13
  00000000000030F9: 41 56              push        r14
  00000000000030FB: 41 57              push        r15
  00000000000030FD: 48 81 EC A8 00 00  sub         rsp,0A8h
                    00
L$point_doublex_body:
  0000000000003104: F3 0F 6F 06        movdqu      xmm0,xmmword ptr [rsi]
  0000000000003108: 48 89 F3           mov         rbx,rsi
  000000000000310B: F3 0F 6F 4E 10     movdqu      xmm1,xmmword ptr [rsi+10h]
  0000000000003110: 4C 8B 66 20        mov         r12,qword ptr [rsi+20h]
  0000000000003114: 4C 8B 6E 28        mov         r13,qword ptr [rsi+28h]
  0000000000003118: 4C 8B 46 30        mov         r8,qword ptr [rsi+30h]
  000000000000311C: 4C 8B 4E 38        mov         r9,qword ptr [rsi+38h]
  0000000000003120: 4C 8B 35 08 00 00  mov         r14,qword ptr [.rdata+8]
                    00
  0000000000003127: 4C 8B 3D 18 00 00  mov         r15,qword ptr [.rdata+18h]
                    00
  000000000000312E: 66 0F 7F 44 24 60  movdqa      xmmword ptr [rsp+60h],xmm0
  0000000000003134: 66 0F 7F 4C 24 70  movdqa      xmmword ptr [rsp+70h],xmm1
  000000000000313A: 4C 8D 57 20        lea         r10,[rdi+20h]
  000000000000313E: 4C 8D 5F 40        lea         r11,[rdi+40h]
  0000000000003142: 66 48 0F 6E C7     movq        xmm0,rdi
  0000000000003147: 66 49 0F 6E CA     movq        xmm1,r10
  000000000000314C: 66 49 0F 6E D3     movq        xmm2,r11
  0000000000003151: 48 8D 3C 24        lea         rdi,[rsp]
  0000000000003155: E8 26 FF FF FF     call        __ecp_nistz256_mul_by_2x
  000000000000315A: 48 8B 56 40        mov         rdx,qword ptr [rsi+40h]
  000000000000315E: 4C 8B 76 48        mov         r14,qword ptr [rsi+48h]
  0000000000003162: 4C 8B 7E 50        mov         r15,qword ptr [rsi+50h]
  0000000000003166: 4C 8B 46 58        mov         r8,qword ptr [rsi+58h]
  000000000000316A: 48 8D 76 C0        lea         rsi,[rsi-40h]
  000000000000316E: 48 8D 7C 24 40     lea         rdi,[rsp+40h]
  0000000000003173: E8 A8 E4 FF FF     call        __ecp_nistz256_sqr_montx
  0000000000003178: 48 8B 14 24        mov         rdx,qword ptr [rsp]
  000000000000317C: 4C 8B 74 24 08     mov         r14,qword ptr [rsp+8]
  0000000000003181: 48 8D 74 24 80     lea         rsi,[rsp-80h]
  0000000000003186: 4C 8B 7C 24 10     mov         r15,qword ptr [rsp+10h]
  000000000000318B: 4C 8B 44 24 18     mov         r8,qword ptr [rsp+18h]
  0000000000003190: 48 8D 3C 24        lea         rdi,[rsp]
  0000000000003194: E8 87 E4 FF FF     call        __ecp_nistz256_sqr_montx
  0000000000003199: 48 8B 53 20        mov         rdx,qword ptr [rbx+20h]
  000000000000319D: 4C 8B 4B 40        mov         r9,qword ptr [rbx+40h]
  00000000000031A1: 4C 8B 53 48        mov         r10,qword ptr [rbx+48h]
  00000000000031A5: 4C 8B 5B 50        mov         r11,qword ptr [rbx+50h]
  00000000000031A9: 4C 8B 63 58        mov         r12,qword ptr [rbx+58h]
  00000000000031AD: 48 8D 73 C0        lea         rsi,[rbx-40h]
  00000000000031B1: 48 8D 5B 20        lea         rbx,[rbx+20h]
  00000000000031B5: 66 48 0F 7E D7     movq        rdi,xmm2
  00000000000031BA: E8 01 E2 FF FF     call        __ecp_nistz256_mul_montx
  00000000000031BF: E8 BC FE FF FF     call        __ecp_nistz256_mul_by_2x
  00000000000031C4: 4C 8B 64 24 60     mov         r12,qword ptr [rsp+60h]
  00000000000031C9: 4C 8B 6C 24 68     mov         r13,qword ptr [rsp+68h]
  00000000000031CE: 48 8D 5C 24 40     lea         rbx,[rsp+40h]
  00000000000031D3: 4C 8B 44 24 70     mov         r8,qword ptr [rsp+70h]
  00000000000031D8: 4C 8B 4C 24 78     mov         r9,qword ptr [rsp+78h]
  00000000000031DD: 48 8D 7C 24 20     lea         rdi,[rsp+20h]
  00000000000031E2: E8 79 FD FF FF     call        __ecp_nistz256_add_tox
  00000000000031E7: 4C 8B 64 24 60     mov         r12,qword ptr [rsp+60h]
  00000000000031EC: 4C 8B 6C 24 68     mov         r13,qword ptr [rsp+68h]
  00000000000031F1: 48 8D 5C 24 40     lea         rbx,[rsp+40h]
  00000000000031F6: 4C 8B 44 24 70     mov         r8,qword ptr [rsp+70h]
  00000000000031FB: 4C 8B 4C 24 78     mov         r9,qword ptr [rsp+78h]
  0000000000003200: 48 8D 7C 24 40     lea         rdi,[rsp+40h]
  0000000000003205: E8 B6 FD FF FF     call        __ecp_nistz256_sub_fromx
  000000000000320A: 48 8B 14 24        mov         rdx,qword ptr [rsp]
  000000000000320E: 4C 8B 74 24 08     mov         r14,qword ptr [rsp+8]
  0000000000003213: 48 8D 74 24 80     lea         rsi,[rsp-80h]
  0000000000003218: 4C 8B 7C 24 10     mov         r15,qword ptr [rsp+10h]
  000000000000321D: 4C 8B 44 24 18     mov         r8,qword ptr [rsp+18h]
  0000000000003222: 66 48 0F 7E CF     movq        rdi,xmm1
  0000000000003227: E8 F4 E3 FF FF     call        __ecp_nistz256_sqr_montx
  000000000000322C: 4D 31 C9           xor         r9,r9
  000000000000322F: 4C 89 E0           mov         rax,r12
  0000000000003232: 49 83 C4 FF        add         r12,0FFFFFFFFFFFFFFFFh
  0000000000003236: 4D 89 EA           mov         r10,r13
  0000000000003239: 49 11 F5           adc         r13,rsi
  000000000000323C: 4C 89 F1           mov         rcx,r14
  000000000000323F: 49 83 D6 00        adc         r14,0
  0000000000003243: 4D 89 F8           mov         r8,r15
  0000000000003246: 49 11 EF           adc         r15,rbp
  0000000000003249: 49 83 D1 00        adc         r9,0
  000000000000324D: 48 31 F6           xor         rsi,rsi
  0000000000003250: 48 A9 01 00 00 00  test        rax,1
  0000000000003256: 4C 0F 44 E0        cmove       r12,rax
  000000000000325A: 4D 0F 44 EA        cmove       r13,r10
  000000000000325E: 4C 0F 44 F1        cmove       r14,rcx
  0000000000003262: 4D 0F 44 F8        cmove       r15,r8
  0000000000003266: 4C 0F 44 CE        cmove       r9,rsi
  000000000000326A: 4C 89 E8           mov         rax,r13
  000000000000326D: 49 D1 EC           shr         r12,1
  0000000000003270: 48 C1 E0 3F        shl         rax,3Fh
  0000000000003274: 4D 89 F2           mov         r10,r14
  0000000000003277: 49 D1 ED           shr         r13,1
  000000000000327A: 49 09 C4           or          r12,rax
  000000000000327D: 49 C1 E2 3F        shl         r10,3Fh
  0000000000003281: 4C 89 F9           mov         rcx,r15
  0000000000003284: 49 D1 EE           shr         r14,1
  0000000000003287: 4D 09 D5           or          r13,r10
  000000000000328A: 48 C1 E1 3F        shl         rcx,3Fh
  000000000000328E: 4C 89 27           mov         qword ptr [rdi],r12
  0000000000003291: 49 D1 EF           shr         r15,1
  0000000000003294: 4C 89 6F 08        mov         qword ptr [rdi+8],r13
  0000000000003298: 49 C1 E1 3F        shl         r9,3Fh
  000000000000329C: 49 09 CE           or          r14,rcx
  000000000000329F: 4D 09 CF           or          r15,r9
  00000000000032A2: 4C 89 77 10        mov         qword ptr [rdi+10h],r14
  00000000000032A6: 4C 89 7F 18        mov         qword ptr [rdi+18h],r15
  00000000000032AA: 48 8B 54 24 40     mov         rdx,qword ptr [rsp+40h]
  00000000000032AF: 48 8D 5C 24 40     lea         rbx,[rsp+40h]
  00000000000032B4: 4C 8B 4C 24 20     mov         r9,qword ptr [rsp+20h]
  00000000000032B9: 4C 8B 54 24 28     mov         r10,qword ptr [rsp+28h]
  00000000000032BE: 48 8D 74 24 A0     lea         rsi,[rsp-60h]
  00000000000032C3: 4C 8B 5C 24 30     mov         r11,qword ptr [rsp+30h]
  00000000000032C8: 4C 8B 64 24 38     mov         r12,qword ptr [rsp+38h]
  00000000000032CD: 48 8D 7C 24 20     lea         rdi,[rsp+20h]
  00000000000032D2: E8 E9 E0 FF FF     call        __ecp_nistz256_mul_montx
  00000000000032D7: 48 8D BC 24 80 00  lea         rdi,[rsp+80h]
                    00 00
  00000000000032DF: E8 9C FD FF FF     call        __ecp_nistz256_mul_by_2x
  00000000000032E4: 48 8D 5C 24 20     lea         rbx,[rsp+20h]
  00000000000032E9: 48 8D 7C 24 20     lea         rdi,[rsp+20h]
  00000000000032EE: E8 6D FC FF FF     call        __ecp_nistz256_add_tox
  00000000000032F3: 48 8B 54 24 60     mov         rdx,qword ptr [rsp+60h]
  00000000000032F8: 48 8D 5C 24 60     lea         rbx,[rsp+60h]
  00000000000032FD: 4C 8B 0C 24        mov         r9,qword ptr [rsp]
  0000000000003301: 4C 8B 54 24 08     mov         r10,qword ptr [rsp+8]
  0000000000003306: 48 8D 74 24 80     lea         rsi,[rsp-80h]
  000000000000330B: 4C 8B 5C 24 10     mov         r11,qword ptr [rsp+10h]
  0000000000003310: 4C 8B 64 24 18     mov         r12,qword ptr [rsp+18h]
  0000000000003315: 48 8D 3C 24        lea         rdi,[rsp]
  0000000000003319: E8 A2 E0 FF FF     call        __ecp_nistz256_mul_montx
  000000000000331E: 48 8D BC 24 80 00  lea         rdi,[rsp+80h]
                    00 00
  0000000000003326: E8 55 FD FF FF     call        __ecp_nistz256_mul_by_2x
  000000000000332B: 48 8B 54 24 20     mov         rdx,qword ptr [rsp+20h]
  0000000000003330: 4C 8B 74 24 28     mov         r14,qword ptr [rsp+28h]
  0000000000003335: 48 8D 74 24 A0     lea         rsi,[rsp-60h]
  000000000000333A: 4C 8B 7C 24 30     mov         r15,qword ptr [rsp+30h]
  000000000000333F: 4C 8B 44 24 38     mov         r8,qword ptr [rsp+38h]
  0000000000003344: 66 48 0F 7E C7     movq        rdi,xmm0
  0000000000003349: E8 D2 E2 FF FF     call        __ecp_nistz256_sqr_montx
  000000000000334E: 48 8D 9C 24 80 00  lea         rbx,[rsp+80h]
                    00 00
  0000000000003356: 4D 89 F0           mov         r8,r14
  0000000000003359: 4D 89 F9           mov         r9,r15
  000000000000335C: 49 89 F6           mov         r14,rsi
  000000000000335F: 49 89 EF           mov         r15,rbp
  0000000000003362: E8 59 FC FF FF     call        __ecp_nistz256_sub_fromx
  0000000000003367: 48 8B 04 24        mov         rax,qword ptr [rsp]
  000000000000336B: 48 8B 6C 24 08     mov         rbp,qword ptr [rsp+8]
  0000000000003370: 48 8B 4C 24 10     mov         rcx,qword ptr [rsp+10h]
  0000000000003375: 4C 8B 54 24 18     mov         r10,qword ptr [rsp+18h]
  000000000000337A: 48 8D 3C 24        lea         rdi,[rsp]
  000000000000337E: E8 9D FC FF FF     call        __ecp_nistz256_subx
  0000000000003383: 48 8B 54 24 20     mov         rdx,qword ptr [rsp+20h]
  0000000000003388: 48 8D 5C 24 20     lea         rbx,[rsp+20h]
  000000000000338D: 4D 89 E6           mov         r14,r12
  0000000000003390: 31 C9              xor         ecx,ecx
  0000000000003392: 4C 89 24 24        mov         qword ptr [rsp],r12
  0000000000003396: 4D 89 EA           mov         r10,r13
  0000000000003399: 4C 89 6C 24 08     mov         qword ptr [rsp+8],r13
  000000000000339E: 4D 0F 44 D8        cmove       r11,r8
  00000000000033A2: 4C 89 44 24 10     mov         qword ptr [rsp+10h],r8
  00000000000033A7: 48 8D 74 24 80     lea         rsi,[rsp-80h]
  00000000000033AC: 4D 0F 44 E1        cmove       r12,r9
  00000000000033B0: 4C 89 4C 24 18     mov         qword ptr [rsp+18h],r9
  00000000000033B5: 4D 89 F1           mov         r9,r14
  00000000000033B8: 48 8D 3C 24        lea         rdi,[rsp]
  00000000000033BC: E8 FF DF FF FF     call        __ecp_nistz256_mul_montx
  00000000000033C1: 66 48 0F 7E CB     movq        rbx,xmm1
  00000000000033C6: 66 48 0F 7E CF     movq        rdi,xmm1
  00000000000033CB: E8 F0 FB FF FF     call        __ecp_nistz256_sub_fromx
  00000000000033D0: 48 8D B4 24 D8 00  lea         rsi,[rsp+0D8h]
                    00 00
  00000000000033D8: 4C 8B 7E D0        mov         r15,qword ptr [rsi-30h]
  00000000000033DC: 4C 8B 76 D8        mov         r14,qword ptr [rsi-28h]
  00000000000033E0: 4C 8B 6E E0        mov         r13,qword ptr [rsi-20h]
  00000000000033E4: 4C 8B 66 E8        mov         r12,qword ptr [rsi-18h]
  00000000000033E8: 48 8B 5E F0        mov         rbx,qword ptr [rsi-10h]
  00000000000033EC: 48 8B 6E F8        mov         rbp,qword ptr [rsi-8]
  00000000000033F0: 48 8D 26           lea         rsp,[rsi]
L$point_doublex_epilogue:
  00000000000033F3: 48 8B 7C 24 08     mov         rdi,qword ptr [rsp+8]
  00000000000033F8: 48 8B 74 24 10     mov         rsi,qword ptr [rsp+10h]
  00000000000033FD: F3 C3              rep ret
L$SEH_end_ecp_nistz256_point_doublex:
  00000000000033FF: 90                 nop
ecp_nistz256_point_addx:
  0000000000003400: 48 89 7C 24 08     mov         qword ptr [rsp+8],rdi
  0000000000003405: 48 89 74 24 10     mov         qword ptr [rsp+10h],rsi
  000000000000340A: 48 89 E0           mov         rax,rsp
L$SEH_begin_ecp_nistz256_point_addx:
  000000000000340D: 48 89 CF           mov         rdi,rcx
  0000000000003410: 48 89 D6           mov         rsi,rdx
  0000000000003413: 4C 89 C2           mov         rdx,r8
L$point_addx:
  0000000000003416: 55                 push        rbp
  0000000000003417: 53                 push        rbx
  0000000000003418: 41 54              push        r12
  000000000000341A: 41 55              push        r13
  000000000000341C: 41 56              push        r14
  000000000000341E: 41 57              push        r15
  0000000000003420: 48 81 EC 48 02 00  sub         rsp,248h
                    00
L$point_addx_body:
  0000000000003427: F3 0F 6F 06        movdqu      xmm0,xmmword ptr [rsi]
  000000000000342B: F3 0F 6F 4E 10     movdqu      xmm1,xmmword ptr [rsi+10h]
  0000000000003430: F3 0F 6F 56 20     movdqu      xmm2,xmmword ptr [rsi+20h]
  0000000000003435: F3 0F 6F 5E 30     movdqu      xmm3,xmmword ptr [rsi+30h]
  000000000000343A: F3 0F 6F 66 40     movdqu      xmm4,xmmword ptr [rsi+40h]
  000000000000343F: F3 0F 6F 6E 50     movdqu      xmm5,xmmword ptr [rsi+50h]
  0000000000003444: 48 89 F3           mov         rbx,rsi
  0000000000003447: 48 89 D6           mov         rsi,rdx
  000000000000344A: 66 0F 7F 84 24 80  movdqa      xmmword ptr [rsp+180h],xmm0
                    01 00 00
  0000000000003453: 66 0F 7F 8C 24 90  movdqa      xmmword ptr [rsp+190h],xmm1
                    01 00 00
  000000000000345C: 66 0F 7F 94 24 A0  movdqa      xmmword ptr [rsp+1A0h],xmm2
                    01 00 00
  0000000000003465: 66 0F 7F 9C 24 B0  movdqa      xmmword ptr [rsp+1B0h],xmm3
                    01 00 00
  000000000000346E: 66 0F 7F A4 24 C0  movdqa      xmmword ptr [rsp+1C0h],xmm4
                    01 00 00
  0000000000003477: 66 0F 7F AC 24 D0  movdqa      xmmword ptr [rsp+1D0h],xmm5
                    01 00 00
  0000000000003480: 66 0F EB EC        por         xmm5,xmm4
  0000000000003484: F3 0F 6F 06        movdqu      xmm0,xmmword ptr [rsi]
  0000000000003488: 66 0F 70 DD B1     pshufd      xmm3,xmm5,0B1h
  000000000000348D: F3 0F 6F 4E 10     movdqu      xmm1,xmmword ptr [rsi+10h]
  0000000000003492: F3 0F 6F 56 20     movdqu      xmm2,xmmword ptr [rsi+20h]
  0000000000003497: 66 0F EB EB        por         xmm5,xmm3
  000000000000349B: F3 0F 6F 5E 30     movdqu      xmm3,xmmword ptr [rsi+30h]
  00000000000034A0: 48 8B 56 40        mov         rdx,qword ptr [rsi+40h]
  00000000000034A4: 4C 8B 76 48        mov         r14,qword ptr [rsi+48h]
  00000000000034A8: 4C 8B 7E 50        mov         r15,qword ptr [rsi+50h]
  00000000000034AC: 4C 8B 46 58        mov         r8,qword ptr [rsi+58h]
  00000000000034B0: 66 0F 7F 84 24 E0  movdqa      xmmword ptr [rsp+1E0h],xmm0
                    01 00 00
  00000000000034B9: 66 0F 70 E5 1E     pshufd      xmm4,xmm5,1Eh
  00000000000034BE: 66 0F 7F 8C 24 F0  movdqa      xmmword ptr [rsp+1F0h],xmm1
                    01 00 00
  00000000000034C7: F3 0F 6F 46 40     movdqu      xmm0,xmmword ptr [rsi+40h]
  00000000000034CC: F3 0F 6F 4E 50     movdqu      xmm1,xmmword ptr [rsi+50h]
  00000000000034D1: 66 0F 7F 94 24 00  movdqa      xmmword ptr [rsp+200h],xmm2
                    02 00 00
  00000000000034DA: 66 0F 7F 9C 24 10  movdqa      xmmword ptr [rsp+210h],xmm3
                    02 00 00
  00000000000034E3: 66 0F EB EC        por         xmm5,xmm4
  00000000000034E7: 66 0F EF E4        pxor        xmm4,xmm4
  00000000000034EB: 66 0F EB C8        por         xmm1,xmm0
  00000000000034EF: 66 48 0F 6E C7     movq        xmm0,rdi
  00000000000034F4: 48 8D 76 C0        lea         rsi,[rsi-40h]
  00000000000034F8: 48 89 94 24 20 02  mov         qword ptr [rsp+220h],rdx
                    00 00
  0000000000003500: 4C 89 B4 24 28 02  mov         qword ptr [rsp+228h],r14
                    00 00
  0000000000003508: 4C 89 BC 24 30 02  mov         qword ptr [rsp+230h],r15
                    00 00
  0000000000003510: 4C 89 84 24 38 02  mov         qword ptr [rsp+238h],r8
                    00 00
  0000000000003518: 48 8D 7C 24 60     lea         rdi,[rsp+60h]
  000000000000351D: E8 FE E0 FF FF     call        __ecp_nistz256_sqr_montx
  0000000000003522: 66 0F 76 EC        pcmpeqd     xmm5,xmm4
  0000000000003526: 66 0F 70 E1 B1     pshufd      xmm4,xmm1,0B1h
  000000000000352B: 66 0F EB E1        por         xmm4,xmm1
  000000000000352F: 66 0F 70 ED 00     pshufd      xmm5,xmm5,0
  0000000000003534: 66 0F 70 DC 1E     pshufd      xmm3,xmm4,1Eh
  0000000000003539: 66 0F EB E3        por         xmm4,xmm3
  000000000000353D: 66 0F EF DB        pxor        xmm3,xmm3
  0000000000003541: 66 0F 76 E3        pcmpeqd     xmm4,xmm3
  0000000000003545: 66 0F 70 E4 00     pshufd      xmm4,xmm4,0
  000000000000354A: 48 8B 53 40        mov         rdx,qword ptr [rbx+40h]
  000000000000354E: 4C 8B 73 48        mov         r14,qword ptr [rbx+48h]
  0000000000003552: 4C 8B 7B 50        mov         r15,qword ptr [rbx+50h]
  0000000000003556: 4C 8B 43 58        mov         r8,qword ptr [rbx+58h]
  000000000000355A: 66 48 0F 6E CB     movq        xmm1,rbx
  000000000000355F: 48 8D 73 C0        lea         rsi,[rbx-40h]
  0000000000003563: 48 8D 7C 24 20     lea         rdi,[rsp+20h]
  0000000000003568: E8 B3 E0 FF FF     call        __ecp_nistz256_sqr_montx
  000000000000356D: 48 8B 94 24 20 02  mov         rdx,qword ptr [rsp+220h]
                    00 00
  0000000000003575: 48 8D 9C 24 20 02  lea         rbx,[rsp+220h]
                    00 00
  000000000000357D: 4C 8B 4C 24 60     mov         r9,qword ptr [rsp+60h]
  0000000000003582: 4C 8B 54 24 68     mov         r10,qword ptr [rsp+68h]
  0000000000003587: 48 8D 74 24 E0     lea         rsi,[rsp-20h]
  000000000000358C: 4C 8B 5C 24 70     mov         r11,qword ptr [rsp+70h]
  0000000000003591: 4C 8B 64 24 78     mov         r12,qword ptr [rsp+78h]
  0000000000003596: 48 8D BC 24 E0 00  lea         rdi,[rsp+0E0h]
                    00 00
  000000000000359E: E8 1D DE FF FF     call        __ecp_nistz256_mul_montx
  00000000000035A3: 48 8B 94 24 C0 01  mov         rdx,qword ptr [rsp+1C0h]
                    00 00
  00000000000035AB: 48 8D 9C 24 C0 01  lea         rbx,[rsp+1C0h]
                    00 00
  00000000000035B3: 4C 8B 4C 24 20     mov         r9,qword ptr [rsp+20h]
  00000000000035B8: 4C 8B 54 24 28     mov         r10,qword ptr [rsp+28h]
  00000000000035BD: 48 8D 74 24 A0     lea         rsi,[rsp-60h]
  00000000000035C2: 4C 8B 5C 24 30     mov         r11,qword ptr [rsp+30h]
  00000000000035C7: 4C 8B 64 24 38     mov         r12,qword ptr [rsp+38h]
  00000000000035CC: 48 8D BC 24 00 01  lea         rdi,[rsp+100h]
                    00 00
  00000000000035D4: E8 E7 DD FF FF     call        __ecp_nistz256_mul_montx
  00000000000035D9: 48 8B 94 24 A0 01  mov         rdx,qword ptr [rsp+1A0h]
                    00 00
  00000000000035E1: 48 8D 9C 24 A0 01  lea         rbx,[rsp+1A0h]
                    00 00
  00000000000035E9: 4C 8B 8C 24 E0 00  mov         r9,qword ptr [rsp+0E0h]
                    00 00
  00000000000035F1: 4C 8B 94 24 E8 00  mov         r10,qword ptr [rsp+0E8h]
                    00 00
  00000000000035F9: 48 8D 74 24 60     lea         rsi,[rsp+60h]
  00000000000035FE: 4C 8B 9C 24 F0 00  mov         r11,qword ptr [rsp+0F0h]
                    00 00
  0000000000003606: 4C 8B A4 24 F8 00  mov         r12,qword ptr [rsp+0F8h]
                    00 00
  000000000000360E: 48 8D BC 24 E0 00  lea         rdi,[rsp+0E0h]
                    00 00
  0000000000003616: E8 A5 DD FF FF     call        __ecp_nistz256_mul_montx
  000000000000361B: 48 8B 94 24 00 02  mov         rdx,qword ptr [rsp+200h]
                    00 00
  0000000000003623: 48 8D 9C 24 00 02  lea         rbx,[rsp+200h]
                    00 00
  000000000000362B: 4C 8B 8C 24 00 01  mov         r9,qword ptr [rsp+100h]
                    00 00
  0000000000003633: 4C 8B 94 24 08 01  mov         r10,qword ptr [rsp+108h]
                    00 00
  000000000000363B: 48 8D B4 24 80 00  lea         rsi,[rsp+80h]
                    00 00
  0000000000003643: 4C 8B 9C 24 10 01  mov         r11,qword ptr [rsp+110h]
                    00 00
  000000000000364B: 4C 8B A4 24 18 01  mov         r12,qword ptr [rsp+118h]
                    00 00
  0000000000003653: 48 8D BC 24 00 01  lea         rdi,[rsp+100h]
                    00 00
  000000000000365B: E8 60 DD FF FF     call        __ecp_nistz256_mul_montx
  0000000000003660: 48 8D 9C 24 E0 00  lea         rbx,[rsp+0E0h]
                    00 00
  0000000000003668: 48 8D 7C 24 40     lea         rdi,[rsp+40h]
  000000000000366D: E8 4E F9 FF FF     call        __ecp_nistz256_sub_fromx
  0000000000003672: 4D 09 EC           or          r12,r13
  0000000000003675: 66 0F 6F D4        movdqa      xmm2,xmm4
  0000000000003679: 4D 09 C4           or          r12,r8
  000000000000367C: 4D 09 CC           or          r12,r9
  000000000000367F: 66 0F EB D5        por         xmm2,xmm5
  0000000000003683: 66 49 0F 6E DC     movq        xmm3,r12
  0000000000003688: 48 8B 94 24 80 01  mov         rdx,qword ptr [rsp+180h]
                    00 00
  0000000000003690: 48 8D 9C 24 80 01  lea         rbx,[rsp+180h]
                    00 00
  0000000000003698: 4C 8B 4C 24 60     mov         r9,qword ptr [rsp+60h]
  000000000000369D: 4C 8B 54 24 68     mov         r10,qword ptr [rsp+68h]
  00000000000036A2: 48 8D 74 24 E0     lea         rsi,[rsp-20h]
  00000000000036A7: 4C 8B 5C 24 70     mov         r11,qword ptr [rsp+70h]
  00000000000036AC: 4C 8B 64 24 78     mov         r12,qword ptr [rsp+78h]
  00000000000036B1: 48 8D BC 24 A0 00  lea         rdi,[rsp+0A0h]
                    00 00
  00000000000036B9: E8 02 DD FF FF     call        __ecp_nistz256_mul_montx
  00000000000036BE: 48 8B 94 24 E0 01  mov         rdx,qword ptr [rsp+1E0h]
                    00 00
  00000000000036C6: 48 8D 9C 24 E0 01  lea         rbx,[rsp+1E0h]
                    00 00
  00000000000036CE: 4C 8B 4C 24 20     mov         r9,qword ptr [rsp+20h]
  00000000000036D3: 4C 8B 54 24 28     mov         r10,qword ptr [rsp+28h]
  00000000000036D8: 48 8D 74 24 A0     lea         rsi,[rsp-60h]
  00000000000036DD: 4C 8B 5C 24 30     mov         r11,qword ptr [rsp+30h]
  00000000000036E2: 4C 8B 64 24 38     mov         r12,qword ptr [rsp+38h]
  00000000000036E7: 48 8D BC 24 C0 00  lea         rdi,[rsp+0C0h]
                    00 00
  00000000000036EF: E8 CC DC FF FF     call        __ecp_nistz256_mul_montx
  00000000000036F4: 48 8D 9C 24 A0 00  lea         rbx,[rsp+0A0h]
                    00 00
  00000000000036FC: 48 8D 3C 24        lea         rdi,[rsp]
  0000000000003700: E8 BB F8 FF FF     call        __ecp_nistz256_sub_fromx
  0000000000003705: 4D 09 EC           or          r12,r13
  0000000000003708: 4D 09 C4           or          r12,r8
  000000000000370B: 4D 09 CC           or          r12,r9
  000000000000370E: 66 49 0F 7E D0     movq        r8,xmm2
  0000000000003713: 66 49 0F 7E D9     movq        r9,xmm3
  0000000000003718: 4D 09 C4           or          r12,r8
  000000000000371B: 3E 0F 85 5E 00 00  ht jne      L$add_proceedx
                    00
  0000000000003722: 4D 85 C9           test        r9,r9
  0000000000003725: 0F 84 35 00 00 00  je          L$add_doublex
  000000000000372B: 66 48 0F 7E C7     movq        rdi,xmm0
  0000000000003730: 66 0F EF C0        pxor        xmm0,xmm0
  0000000000003734: F3 0F 7F 07        movdqu      xmmword ptr [rdi],xmm0
  0000000000003738: F3 0F 7F 47 10     movdqu      xmmword ptr [rdi+10h],xmm0
  000000000000373D: F3 0F 7F 47 20     movdqu      xmmword ptr [rdi+20h],xmm0
  0000000000003742: F3 0F 7F 47 30     movdqu      xmmword ptr [rdi+30h],xmm0
  0000000000003747: F3 0F 7F 47 40     movdqu      xmmword ptr [rdi+40h],xmm0
  000000000000374C: F3 0F 7F 47 50     movdqu      xmmword ptr [rdi+50h],xmm0
  0000000000003751: E9 F1 03 00 00     jmp         L$add_donex
  0000000000003756: 90                 nop
  0000000000003757: 90                 nop
  0000000000003758: 90                 nop
  0000000000003759: 90                 nop
  000000000000375A: 90                 nop
  000000000000375B: 90                 nop
  000000000000375C: 90                 nop
  000000000000375D: 90                 nop
  000000000000375E: 90                 nop
  000000000000375F: 90                 nop
L$add_doublex:
  0000000000003760: 66 48 0F 7E CE     movq        rsi,xmm1
  0000000000003765: 66 48 0F 7E C7     movq        rdi,xmm0
  000000000000376A: 48 81 C4 A0 01 00  add         rsp,1A0h
                    00
  0000000000003771: E9 8E F9 FF FF     jmp         L$point_doublex_body
  0000000000003776: 90                 nop
  0000000000003777: 90                 nop
  0000000000003778: 90                 nop
  0000000000003779: 90                 nop
  000000000000377A: 90                 nop
  000000000000377B: 90                 nop
  000000000000377C: 90                 nop
  000000000000377D: 90                 nop
  000000000000377E: 90                 nop
  000000000000377F: 90                 nop
L$add_proceedx:
  0000000000003780: 48 8B 54 24 40     mov         rdx,qword ptr [rsp+40h]
  0000000000003785: 4C 8B 74 24 48     mov         r14,qword ptr [rsp+48h]
  000000000000378A: 48 8D 74 24 C0     lea         rsi,[rsp-40h]
  000000000000378F: 4C 8B 7C 24 50     mov         r15,qword ptr [rsp+50h]
  0000000000003794: 4C 8B 44 24 58     mov         r8,qword ptr [rsp+58h]
  0000000000003799: 48 8D 7C 24 60     lea         rdi,[rsp+60h]
  000000000000379E: E8 7D DE FF FF     call        __ecp_nistz256_sqr_montx
  00000000000037A3: 48 8B 94 24 C0 01  mov         rdx,qword ptr [rsp+1C0h]
                    00 00
  00000000000037AB: 48 8D 9C 24 C0 01  lea         rbx,[rsp+1C0h]
                    00 00
  00000000000037B3: 4C 8B 0C 24        mov         r9,qword ptr [rsp]
  00000000000037B7: 4C 8B 54 24 08     mov         r10,qword ptr [rsp+8]
  00000000000037BC: 48 8D 74 24 80     lea         rsi,[rsp-80h]
  00000000000037C1: 4C 8B 5C 24 10     mov         r11,qword ptr [rsp+10h]
  00000000000037C6: 4C 8B 64 24 18     mov         r12,qword ptr [rsp+18h]
  00000000000037CB: 48 8D BC 24 60 01  lea         rdi,[rsp+160h]
                    00 00
  00000000000037D3: E8 E8 DB FF FF     call        __ecp_nistz256_mul_montx
  00000000000037D8: 48 8B 14 24        mov         rdx,qword ptr [rsp]
  00000000000037DC: 4C 8B 74 24 08     mov         r14,qword ptr [rsp+8]
  00000000000037E1: 48 8D 74 24 80     lea         rsi,[rsp-80h]
  00000000000037E6: 4C 8B 7C 24 10     mov         r15,qword ptr [rsp+10h]
  00000000000037EB: 4C 8B 44 24 18     mov         r8,qword ptr [rsp+18h]
  00000000000037F0: 48 8D 7C 24 20     lea         rdi,[rsp+20h]
  00000000000037F5: E8 26 DE FF FF     call        __ecp_nistz256_sqr_montx
  00000000000037FA: 48 8B 94 24 20 02  mov         rdx,qword ptr [rsp+220h]
                    00 00
  0000000000003802: 48 8D 9C 24 20 02  lea         rbx,[rsp+220h]
                    00 00
  000000000000380A: 4C 8B 8C 24 60 01  mov         r9,qword ptr [rsp+160h]
                    00 00
  0000000000003812: 4C 8B 94 24 68 01  mov         r10,qword ptr [rsp+168h]
                    00 00
  000000000000381A: 48 8D B4 24 E0 00  lea         rsi,[rsp+0E0h]
                    00 00
  0000000000003822: 4C 8B 9C 24 70 01  mov         r11,qword ptr [rsp+170h]
                    00 00
  000000000000382A: 4C 8B A4 24 78 01  mov         r12,qword ptr [rsp+178h]
                    00 00
  0000000000003832: 48 8D BC 24 60 01  lea         rdi,[rsp+160h]
                    00 00
  000000000000383A: E8 81 DB FF FF     call        __ecp_nistz256_mul_montx
  000000000000383F: 48 8B 14 24        mov         rdx,qword ptr [rsp]
  0000000000003843: 48 8D 1C 24        lea         rbx,[rsp]
  0000000000003847: 4C 8B 4C 24 20     mov         r9,qword ptr [rsp+20h]
  000000000000384C: 4C 8B 54 24 28     mov         r10,qword ptr [rsp+28h]
  0000000000003851: 48 8D 74 24 A0     lea         rsi,[rsp-60h]
  0000000000003856: 4C 8B 5C 24 30     mov         r11,qword ptr [rsp+30h]
  000000000000385B: 4C 8B 64 24 38     mov         r12,qword ptr [rsp+38h]
  0000000000003860: 48 8D BC 24 80 00  lea         rdi,[rsp+80h]
                    00 00
  0000000000003868: E8 53 DB FF FF     call        __ecp_nistz256_mul_montx
  000000000000386D: 48 8B 94 24 A0 00  mov         rdx,qword ptr [rsp+0A0h]
                    00 00
  0000000000003875: 48 8D 9C 24 A0 00  lea         rbx,[rsp+0A0h]
                    00 00
  000000000000387D: 4C 8B 4C 24 20     mov         r9,qword ptr [rsp+20h]
  0000000000003882: 4C 8B 54 24 28     mov         r10,qword ptr [rsp+28h]
  0000000000003887: 48 8D 74 24 A0     lea         rsi,[rsp-60h]
  000000000000388C: 4C 8B 5C 24 30     mov         r11,qword ptr [rsp+30h]
  0000000000003891: 4C 8B 64 24 38     mov         r12,qword ptr [rsp+38h]
  0000000000003896: 48 8D BC 24 C0 00  lea         rdi,[rsp+0C0h]
                    00 00
  000000000000389E: E8 1D DB FF FF     call        __ecp_nistz256_mul_montx
  00000000000038A3: 4D 31 DB           xor         r11,r11
  00000000000038A6: 4D 01 E4           add         r12,r12
  00000000000038A9: 48 8D 74 24 60     lea         rsi,[rsp+60h]
  00000000000038AE: 4D 11 ED           adc         r13,r13
  00000000000038B1: 4C 89 E0           mov         rax,r12
  00000000000038B4: 4D 11 C0           adc         r8,r8
  00000000000038B7: 4D 11 C9           adc         r9,r9
  00000000000038BA: 4C 89 ED           mov         rbp,r13
  00000000000038BD: 49 83 D3 00        adc         r11,0
  00000000000038C1: 49 83 EC FF        sub         r12,0FFFFFFFFFFFFFFFFh
  00000000000038C5: 4C 89 C1           mov         rcx,r8
  00000000000038C8: 4D 19 F5           sbb         r13,r14
  00000000000038CB: 49 83 D8 00        sbb         r8,0
  00000000000038CF: 4D 89 CA           mov         r10,r9
  00000000000038D2: 4D 19 F9           sbb         r9,r15
  00000000000038D5: 49 83 DB 00        sbb         r11,0
  00000000000038D9: 4C 0F 42 E0        cmovb       r12,rax
  00000000000038DD: 48 8B 06           mov         rax,qword ptr [rsi]
  00000000000038E0: 4C 0F 42 ED        cmovb       r13,rbp
  00000000000038E4: 48 8B 6E 08        mov         rbp,qword ptr [rsi+8]
  00000000000038E8: 4C 0F 42 C1        cmovb       r8,rcx
  00000000000038EC: 48 8B 4E 10        mov         rcx,qword ptr [rsi+10h]
  00000000000038F0: 4D 0F 42 CA        cmovb       r9,r10
  00000000000038F4: 4C 8B 56 18        mov         r10,qword ptr [rsi+18h]
  00000000000038F8: E8 23 F7 FF FF     call        __ecp_nistz256_subx
  00000000000038FD: 48 8D 9C 24 80 00  lea         rbx,[rsp+80h]
                    00 00
  0000000000003905: 48 8D BC 24 20 01  lea         rdi,[rsp+120h]
                    00 00
  000000000000390D: E8 AE F6 FF FF     call        __ecp_nistz256_sub_fromx
  0000000000003912: 48 8B 84 24 C0 00  mov         rax,qword ptr [rsp+0C0h]
                    00 00
  000000000000391A: 48 8B AC 24 C8 00  mov         rbp,qword ptr [rsp+0C8h]
                    00 00
  0000000000003922: 48 8B 8C 24 D0 00  mov         rcx,qword ptr [rsp+0D0h]
                    00 00
  000000000000392A: 4C 8B 94 24 D8 00  mov         r10,qword ptr [rsp+0D8h]
                    00 00
  0000000000003932: 48 8D BC 24 40 01  lea         rdi,[rsp+140h]
                    00 00
  000000000000393A: E8 E1 F6 FF FF     call        __ecp_nistz256_subx
  000000000000393F: 4C 89 27           mov         qword ptr [rdi],r12
  0000000000003942: 4C 89 6F 08        mov         qword ptr [rdi+8],r13
  0000000000003946: 4C 89 47 10        mov         qword ptr [rdi+10h],r8
  000000000000394A: 4C 89 4F 18        mov         qword ptr [rdi+18h],r9
  000000000000394E: 48 8B 94 24 80 00  mov         rdx,qword ptr [rsp+80h]
                    00 00
  0000000000003956: 48 8D 9C 24 80 00  lea         rbx,[rsp+80h]
                    00 00
  000000000000395E: 4C 8B 8C 24 E0 00  mov         r9,qword ptr [rsp+0E0h]
                    00 00
  0000000000003966: 4C 8B 94 24 E8 00  mov         r10,qword ptr [rsp+0E8h]
                    00 00
  000000000000396E: 48 8D 74 24 60     lea         rsi,[rsp+60h]
  0000000000003973: 4C 8B 9C 24 F0 00  mov         r11,qword ptr [rsp+0F0h]
                    00 00
  000000000000397B: 4C 8B A4 24 F8 00  mov         r12,qword ptr [rsp+0F8h]
                    00 00
  0000000000003983: 48 8D BC 24 00 01  lea         rdi,[rsp+100h]
                    00 00
  000000000000398B: E8 30 DA FF FF     call        __ecp_nistz256_mul_montx
  0000000000003990: 48 8B 94 24 40 01  mov         rdx,qword ptr [rsp+140h]
                    00 00
  0000000000003998: 48 8D 9C 24 40 01  lea         rbx,[rsp+140h]
                    00 00
  00000000000039A0: 4C 8B 4C 24 40     mov         r9,qword ptr [rsp+40h]
  00000000000039A5: 4C 8B 54 24 48     mov         r10,qword ptr [rsp+48h]
  00000000000039AA: 48 8D 74 24 C0     lea         rsi,[rsp-40h]
  00000000000039AF: 4C 8B 5C 24 50     mov         r11,qword ptr [rsp+50h]
  00000000000039B4: 4C 8B 64 24 58     mov         r12,qword ptr [rsp+58h]
  00000000000039B9: 48 8D BC 24 40 01  lea         rdi,[rsp+140h]
                    00 00
  00000000000039C1: E8 FA D9 FF FF     call        __ecp_nistz256_mul_montx
  00000000000039C6: 48 8D 9C 24 00 01  lea         rbx,[rsp+100h]
                    00 00
  00000000000039CE: 48 8D BC 24 40 01  lea         rdi,[rsp+140h]
                    00 00
  00000000000039D6: E8 E5 F5 FF FF     call        __ecp_nistz256_sub_fromx
  00000000000039DB: 66 48 0F 7E C7     movq        rdi,xmm0
  00000000000039E0: 66 0F 6F C5        movdqa      xmm0,xmm5
  00000000000039E4: 66 0F 6F CD        movdqa      xmm1,xmm5
  00000000000039E8: 66 0F DF 84 24 60  pandn       xmm0,xmmword ptr [rsp+160h]
                    01 00 00
  00000000000039F1: 66 0F 6F D5        movdqa      xmm2,xmm5
  00000000000039F5: 66 0F DF 8C 24 70  pandn       xmm1,xmmword ptr [rsp+170h]
                    01 00 00
  00000000000039FE: 66 0F 6F DD        movdqa      xmm3,xmm5
  0000000000003A02: 66 0F DB 94 24 20  pand        xmm2,xmmword ptr [rsp+220h]
                    02 00 00
  0000000000003A0B: 66 0F DB 9C 24 30  pand        xmm3,xmmword ptr [rsp+230h]
                    02 00 00
  0000000000003A14: 66 0F EB D0        por         xmm2,xmm0
  0000000000003A18: 66 0F EB D9        por         xmm3,xmm1
  0000000000003A1C: 66 0F 6F C4        movdqa      xmm0,xmm4
  0000000000003A20: 66 0F 6F CC        movdqa      xmm1,xmm4
  0000000000003A24: 66 0F DF C2        pandn       xmm0,xmm2
  0000000000003A28: 66 0F 6F D4        movdqa      xmm2,xmm4
  0000000000003A2C: 66 0F DF CB        pandn       xmm1,xmm3
  0000000000003A30: 66 0F 6F DC        movdqa      xmm3,xmm4
  0000000000003A34: 66 0F DB 94 24 C0  pand        xmm2,xmmword ptr [rsp+1C0h]
                    01 00 00
  0000000000003A3D: 66 0F DB 9C 24 D0  pand        xmm3,xmmword ptr [rsp+1D0h]
                    01 00 00
  0000000000003A46: 66 0F EB D0        por         xmm2,xmm0
  0000000000003A4A: 66 0F EB D9        por         xmm3,xmm1
  0000000000003A4E: F3 0F 7F 57 40     movdqu      xmmword ptr [rdi+40h],xmm2
  0000000000003A53: F3 0F 7F 5F 50     movdqu      xmmword ptr [rdi+50h],xmm3
  0000000000003A58: 66 0F 6F C5        movdqa      xmm0,xmm5
  0000000000003A5C: 66 0F 6F CD        movdqa      xmm1,xmm5
  0000000000003A60: 66 0F DF 84 24 20  pandn       xmm0,xmmword ptr [rsp+120h]
                    01 00 00
  0000000000003A69: 66 0F 6F D5        movdqa      xmm2,xmm5
  0000000000003A6D: 66 0F DF 8C 24 30  pandn       xmm1,xmmword ptr [rsp+130h]
                    01 00 00
  0000000000003A76: 66 0F 6F DD        movdqa      xmm3,xmm5
  0000000000003A7A: 66 0F DB 94 24 E0  pand        xmm2,xmmword ptr [rsp+1E0h]
                    01 00 00
  0000000000003A83: 66 0F DB 9C 24 F0  pand        xmm3,xmmword ptr [rsp+1F0h]
                    01 00 00
  0000000000003A8C: 66 0F EB D0        por         xmm2,xmm0
  0000000000003A90: 66 0F EB D9        por         xmm3,xmm1
  0000000000003A94: 66 0F 6F C4        movdqa      xmm0,xmm4
  0000000000003A98: 66 0F 6F CC        movdqa      xmm1,xmm4
  0000000000003A9C: 66 0F DF C2        pandn       xmm0,xmm2
  0000000000003AA0: 66 0F 6F D4        movdqa      xmm2,xmm4
  0000000000003AA4: 66 0F DF CB        pandn       xmm1,xmm3
  0000000000003AA8: 66 0F 6F DC        movdqa      xmm3,xmm4
  0000000000003AAC: 66 0F DB 94 24 80  pand        xmm2,xmmword ptr [rsp+180h]
                    01 00 00
  0000000000003AB5: 66 0F DB 9C 24 90  pand        xmm3,xmmword ptr [rsp+190h]
                    01 00 00
  0000000000003ABE: 66 0F EB D0        por         xmm2,xmm0
  0000000000003AC2: 66 0F EB D9        por         xmm3,xmm1
  0000000000003AC6: F3 0F 7F 17        movdqu      xmmword ptr [rdi],xmm2
  0000000000003ACA: F3 0F 7F 5F 10     movdqu      xmmword ptr [rdi+10h],xmm3
  0000000000003ACF: 66 0F 6F C5        movdqa      xmm0,xmm5
  0000000000003AD3: 66 0F 6F CD        movdqa      xmm1,xmm5
  0000000000003AD7: 66 0F DF 84 24 40  pandn       xmm0,xmmword ptr [rsp+140h]
                    01 00 00
  0000000000003AE0: 66 0F 6F D5        movdqa      xmm2,xmm5
  0000000000003AE4: 66 0F DF 8C 24 50  pandn       xmm1,xmmword ptr [rsp+150h]
                    01 00 00
  0000000000003AED: 66 0F 6F DD        movdqa      xmm3,xmm5
  0000000000003AF1: 66 0F DB 94 24 00  pand        xmm2,xmmword ptr [rsp+200h]
                    02 00 00
  0000000000003AFA: 66 0F DB 9C 24 10  pand        xmm3,xmmword ptr [rsp+210h]
                    02 00 00
  0000000000003B03: 66 0F EB D0        por         xmm2,xmm0
  0000000000003B07: 66 0F EB D9        por         xmm3,xmm1
  0000000000003B0B: 66 0F 6F C4        movdqa      xmm0,xmm4
  0000000000003B0F: 66 0F 6F CC        movdqa      xmm1,xmm4
  0000000000003B13: 66 0F DF C2        pandn       xmm0,xmm2
  0000000000003B17: 66 0F 6F D4        movdqa      xmm2,xmm4
  0000000000003B1B: 66 0F DF CB        pandn       xmm1,xmm3
  0000000000003B1F: 66 0F 6F DC        movdqa      xmm3,xmm4
  0000000000003B23: 66 0F DB 94 24 A0  pand        xmm2,xmmword ptr [rsp+1A0h]
                    01 00 00
  0000000000003B2C: 66 0F DB 9C 24 B0  pand        xmm3,xmmword ptr [rsp+1B0h]
                    01 00 00
  0000000000003B35: 66 0F EB D0        por         xmm2,xmm0
  0000000000003B39: 66 0F EB D9        por         xmm3,xmm1
  0000000000003B3D: F3 0F 7F 57 20     movdqu      xmmword ptr [rdi+20h],xmm2
  0000000000003B42: F3 0F 7F 5F 30     movdqu      xmmword ptr [rdi+30h],xmm3
L$add_donex:
  0000000000003B47: 48 8D B4 24 78 02  lea         rsi,[rsp+278h]
                    00 00
  0000000000003B4F: 4C 8B 7E D0        mov         r15,qword ptr [rsi-30h]
  0000000000003B53: 4C 8B 76 D8        mov         r14,qword ptr [rsi-28h]
  0000000000003B57: 4C 8B 6E E0        mov         r13,qword ptr [rsi-20h]
  0000000000003B5B: 4C 8B 66 E8        mov         r12,qword ptr [rsi-18h]
  0000000000003B5F: 48 8B 5E F0        mov         rbx,qword ptr [rsi-10h]
  0000000000003B63: 48 8B 6E F8        mov         rbp,qword ptr [rsi-8]
  0000000000003B67: 48 8D 26           lea         rsp,[rsi]
L$point_addx_epilogue:
  0000000000003B6A: 48 8B 7C 24 08     mov         rdi,qword ptr [rsp+8]
  0000000000003B6F: 48 8B 74 24 10     mov         rsi,qword ptr [rsp+10h]
  0000000000003B74: F3 C3              rep ret
L$SEH_end_ecp_nistz256_point_addx:
  0000000000003B76: 90                 nop
  0000000000003B77: 90                 nop
  0000000000003B78: 90                 nop
  0000000000003B79: 90                 nop
  0000000000003B7A: 90                 nop
  0000000000003B7B: 90                 nop
  0000000000003B7C: 90                 nop
  0000000000003B7D: 90                 nop
  0000000000003B7E: 90                 nop
  0000000000003B7F: 90                 nop
ecp_nistz256_point_add_affinex:
  0000000000003B80: 48 89 7C 24 08     mov         qword ptr [rsp+8],rdi
  0000000000003B85: 48 89 74 24 10     mov         qword ptr [rsp+10h],rsi
  0000000000003B8A: 48 89 E0           mov         rax,rsp
L$SEH_begin_ecp_nistz256_point_add_affinex:
  0000000000003B8D: 48 89 CF           mov         rdi,rcx
  0000000000003B90: 48 89 D6           mov         rsi,rdx
  0000000000003B93: 4C 89 C2           mov         rdx,r8
L$point_add_affinex:
  0000000000003B96: 55                 push        rbp
  0000000000003B97: 53                 push        rbx
  0000000000003B98: 41 54              push        r12
  0000000000003B9A: 41 55              push        r13
  0000000000003B9C: 41 56              push        r14
  0000000000003B9E: 41 57              push        r15
  0000000000003BA0: 48 81 EC E8 01 00  sub         rsp,1E8h
                    00
L$add_affinex_body:
  0000000000003BA7: F3 0F 6F 06        movdqu      xmm0,xmmword ptr [rsi]
  0000000000003BAB: 48 89 D3           mov         rbx,rdx
  0000000000003BAE: F3 0F 6F 4E 10     movdqu      xmm1,xmmword ptr [rsi+10h]
  0000000000003BB3: F3 0F 6F 56 20     movdqu      xmm2,xmmword ptr [rsi+20h]
  0000000000003BB8: F3 0F 6F 5E 30     movdqu      xmm3,xmmword ptr [rsi+30h]
  0000000000003BBD: F3 0F 6F 66 40     movdqu      xmm4,xmmword ptr [rsi+40h]
  0000000000003BC2: F3 0F 6F 6E 50     movdqu      xmm5,xmmword ptr [rsi+50h]
  0000000000003BC7: 48 8B 56 40        mov         rdx,qword ptr [rsi+40h]
  0000000000003BCB: 4C 8B 76 48        mov         r14,qword ptr [rsi+48h]
  0000000000003BCF: 4C 8B 7E 50        mov         r15,qword ptr [rsi+50h]
  0000000000003BD3: 4C 8B 46 58        mov         r8,qword ptr [rsi+58h]
  0000000000003BD7: 66 0F 7F 84 24 40  movdqa      xmmword ptr [rsp+140h],xmm0
                    01 00 00
  0000000000003BE0: 66 0F 7F 8C 24 50  movdqa      xmmword ptr [rsp+150h],xmm1
                    01 00 00
  0000000000003BE9: 66 0F 7F 94 24 60  movdqa      xmmword ptr [rsp+160h],xmm2
                    01 00 00
  0000000000003BF2: 66 0F 7F 9C 24 70  movdqa      xmmword ptr [rsp+170h],xmm3
                    01 00 00
  0000000000003BFB: 66 0F 7F A4 24 80  movdqa      xmmword ptr [rsp+180h],xmm4
                    01 00 00
  0000000000003C04: 66 0F 7F AC 24 90  movdqa      xmmword ptr [rsp+190h],xmm5
                    01 00 00
  0000000000003C0D: 66 0F EB EC        por         xmm5,xmm4
  0000000000003C11: F3 0F 6F 03        movdqu      xmm0,xmmword ptr [rbx]
  0000000000003C15: 66 0F 70 DD B1     pshufd      xmm3,xmm5,0B1h
  0000000000003C1A: F3 0F 6F 4B 10     movdqu      xmm1,xmmword ptr [rbx+10h]
  0000000000003C1F: F3 0F 6F 53 20     movdqu      xmm2,xmmword ptr [rbx+20h]
  0000000000003C24: 66 0F EB EB        por         xmm5,xmm3
  0000000000003C28: F3 0F 6F 5B 30     movdqu      xmm3,xmmword ptr [rbx+30h]
  0000000000003C2D: 66 0F 7F 84 24 A0  movdqa      xmmword ptr [rsp+1A0h],xmm0
                    01 00 00
  0000000000003C36: 66 0F 70 E5 1E     pshufd      xmm4,xmm5,1Eh
  0000000000003C3B: 66 0F 7F 8C 24 B0  movdqa      xmmword ptr [rsp+1B0h],xmm1
                    01 00 00
  0000000000003C44: 66 0F EB C8        por         xmm1,xmm0
  0000000000003C48: 66 48 0F 6E C7     movq        xmm0,rdi
  0000000000003C4D: 66 0F 7F 94 24 C0  movdqa      xmmword ptr [rsp+1C0h],xmm2
                    01 00 00
  0000000000003C56: 66 0F 7F 9C 24 D0  movdqa      xmmword ptr [rsp+1D0h],xmm3
                    01 00 00
  0000000000003C5F: 66 0F EB DA        por         xmm3,xmm2
  0000000000003C63: 66 0F EB EC        por         xmm5,xmm4
  0000000000003C67: 66 0F EF E4        pxor        xmm4,xmm4
  0000000000003C6B: 66 0F EB D9        por         xmm3,xmm1
  0000000000003C6F: 48 8D 76 C0        lea         rsi,[rsi-40h]
  0000000000003C73: 48 8D 7C 24 20     lea         rdi,[rsp+20h]
  0000000000003C78: E8 A3 D9 FF FF     call        __ecp_nistz256_sqr_montx
  0000000000003C7D: 66 0F 76 EC        pcmpeqd     xmm5,xmm4
  0000000000003C81: 66 0F 70 E3 B1     pshufd      xmm4,xmm3,0B1h
  0000000000003C86: 48 8B 13           mov         rdx,qword ptr [rbx]
  0000000000003C89: 4D 89 E1           mov         r9,r12
  0000000000003C8C: 66 0F EB E3        por         xmm4,xmm3
  0000000000003C90: 66 0F 70 ED 00     pshufd      xmm5,xmm5,0
  0000000000003C95: 66 0F 70 DC 1E     pshufd      xmm3,xmm4,1Eh
  0000000000003C9A: 4D 89 EA           mov         r10,r13
  0000000000003C9D: 66 0F EB E3        por         xmm4,xmm3
  0000000000003CA1: 66 0F EF DB        pxor        xmm3,xmm3
  0000000000003CA5: 4D 89 F3           mov         r11,r14
  0000000000003CA8: 66 0F 76 E3        pcmpeqd     xmm4,xmm3
  0000000000003CAC: 66 0F 70 E4 00     pshufd      xmm4,xmm4,0
  0000000000003CB1: 48 8D 74 24 A0     lea         rsi,[rsp-60h]
  0000000000003CB6: 4D 89 FC           mov         r12,r15
  0000000000003CB9: 48 8D 3C 24        lea         rdi,[rsp]
  0000000000003CBD: E8 FE D6 FF FF     call        __ecp_nistz256_mul_montx
  0000000000003CC2: 48 8D 9C 24 40 01  lea         rbx,[rsp+140h]
                    00 00
  0000000000003CCA: 48 8D 7C 24 40     lea         rdi,[rsp+40h]
  0000000000003CCF: E8 EC F2 FF FF     call        __ecp_nistz256_sub_fromx
  0000000000003CD4: 48 8B 94 24 80 01  mov         rdx,qword ptr [rsp+180h]
                    00 00
  0000000000003CDC: 48 8D 9C 24 80 01  lea         rbx,[rsp+180h]
                    00 00
  0000000000003CE4: 4C 8B 4C 24 20     mov         r9,qword ptr [rsp+20h]
  0000000000003CE9: 4C 8B 54 24 28     mov         r10,qword ptr [rsp+28h]
  0000000000003CEE: 48 8D 74 24 A0     lea         rsi,[rsp-60h]
  0000000000003CF3: 4C 8B 5C 24 30     mov         r11,qword ptr [rsp+30h]
  0000000000003CF8: 4C 8B 64 24 38     mov         r12,qword ptr [rsp+38h]
  0000000000003CFD: 48 8D 7C 24 20     lea         rdi,[rsp+20h]
  0000000000003D02: E8 B9 D6 FF FF     call        __ecp_nistz256_mul_montx
  0000000000003D07: 48 8B 94 24 80 01  mov         rdx,qword ptr [rsp+180h]
                    00 00
  0000000000003D0F: 48 8D 9C 24 80 01  lea         rbx,[rsp+180h]
                    00 00
  0000000000003D17: 4C 8B 4C 24 40     mov         r9,qword ptr [rsp+40h]
  0000000000003D1C: 4C 8B 54 24 48     mov         r10,qword ptr [rsp+48h]
  0000000000003D21: 48 8D 74 24 C0     lea         rsi,[rsp-40h]
  0000000000003D26: 4C 8B 5C 24 50     mov         r11,qword ptr [rsp+50h]
  0000000000003D2B: 4C 8B 64 24 58     mov         r12,qword ptr [rsp+58h]
  0000000000003D30: 48 8D BC 24 20 01  lea         rdi,[rsp+120h]
                    00 00
  0000000000003D38: E8 83 D6 FF FF     call        __ecp_nistz256_mul_montx
  0000000000003D3D: 48 8B 94 24 C0 01  mov         rdx,qword ptr [rsp+1C0h]
                    00 00
  0000000000003D45: 48 8D 9C 24 C0 01  lea         rbx,[rsp+1C0h]
                    00 00
  0000000000003D4D: 4C 8B 4C 24 20     mov         r9,qword ptr [rsp+20h]
  0000000000003D52: 4C 8B 54 24 28     mov         r10,qword ptr [rsp+28h]
  0000000000003D57: 48 8D 74 24 A0     lea         rsi,[rsp-60h]
  0000000000003D5C: 4C 8B 5C 24 30     mov         r11,qword ptr [rsp+30h]
  0000000000003D61: 4C 8B 64 24 38     mov         r12,qword ptr [rsp+38h]
  0000000000003D66: 48 8D 7C 24 20     lea         rdi,[rsp+20h]
  0000000000003D6B: E8 50 D6 FF FF     call        __ecp_nistz256_mul_montx
  0000000000003D70: 48 8D 9C 24 60 01  lea         rbx,[rsp+160h]
                    00 00
  0000000000003D78: 48 8D 7C 24 60     lea         rdi,[rsp+60h]
  0000000000003D7D: E8 3E F2 FF FF     call        __ecp_nistz256_sub_fromx
  0000000000003D82: 48 8B 54 24 40     mov         rdx,qword ptr [rsp+40h]
  0000000000003D87: 4C 8B 74 24 48     mov         r14,qword ptr [rsp+48h]
  0000000000003D8C: 48 8D 74 24 C0     lea         rsi,[rsp-40h]
  0000000000003D91: 4C 8B 7C 24 50     mov         r15,qword ptr [rsp+50h]
  0000000000003D96: 4C 8B 44 24 58     mov         r8,qword ptr [rsp+58h]
  0000000000003D9B: 48 8D BC 24 80 00  lea         rdi,[rsp+80h]
                    00 00
  0000000000003DA3: E8 78 D8 FF FF     call        __ecp_nistz256_sqr_montx
  0000000000003DA8: 48 8B 54 24 60     mov         rdx,qword ptr [rsp+60h]
  0000000000003DAD: 4C 8B 74 24 68     mov         r14,qword ptr [rsp+68h]
  0000000000003DB2: 48 8D 74 24 E0     lea         rsi,[rsp-20h]
  0000000000003DB7: 4C 8B 7C 24 70     mov         r15,qword ptr [rsp+70h]
  0000000000003DBC: 4C 8B 44 24 78     mov         r8,qword ptr [rsp+78h]
  0000000000003DC1: 48 8D BC 24 C0 00  lea         rdi,[rsp+0C0h]
                    00 00
  0000000000003DC9: E8 52 D8 FF FF     call        __ecp_nistz256_sqr_montx
  0000000000003DCE: 48 8B 94 24 80 00  mov         rdx,qword ptr [rsp+80h]
                    00 00
  0000000000003DD6: 48 8D 9C 24 80 00  lea         rbx,[rsp+80h]
                    00 00
  0000000000003DDE: 4C 8B 4C 24 40     mov         r9,qword ptr [rsp+40h]
  0000000000003DE3: 4C 8B 54 24 48     mov         r10,qword ptr [rsp+48h]
  0000000000003DE8: 48 8D 74 24 C0     lea         rsi,[rsp-40h]
  0000000000003DED: 4C 8B 5C 24 50     mov         r11,qword ptr [rsp+50h]
  0000000000003DF2: 4C 8B 64 24 58     mov         r12,qword ptr [rsp+58h]
  0000000000003DF7: 48 8D BC 24 A0 00  lea         rdi,[rsp+0A0h]
                    00 00
  0000000000003DFF: E8 BC D5 FF FF     call        __ecp_nistz256_mul_montx
  0000000000003E04: 48 8B 94 24 40 01  mov         rdx,qword ptr [rsp+140h]
                    00 00
  0000000000003E0C: 48 8D 9C 24 40 01  lea         rbx,[rsp+140h]
                    00 00
  0000000000003E14: 4C 8B 8C 24 80 00  mov         r9,qword ptr [rsp+80h]
                    00 00
  0000000000003E1C: 4C 8B 94 24 88 00  mov         r10,qword ptr [rsp+88h]
                    00 00
  0000000000003E24: 48 8D 34 24        lea         rsi,[rsp]
  0000000000003E28: 4C 8B 9C 24 90 00  mov         r11,qword ptr [rsp+90h]
                    00 00
  0000000000003E30: 4C 8B A4 24 98 00  mov         r12,qword ptr [rsp+98h]
                    00 00
  0000000000003E38: 48 8D 3C 24        lea         rdi,[rsp]
  0000000000003E3C: E8 7F D5 FF FF     call        __ecp_nistz256_mul_montx
  0000000000003E41: 4D 31 DB           xor         r11,r11
  0000000000003E44: 4D 01 E4           add         r12,r12
  0000000000003E47: 48 8D B4 24 C0 00  lea         rsi,[rsp+0C0h]
                    00 00
  0000000000003E4F: 4D 11 ED           adc         r13,r13
  0000000000003E52: 4C 89 E0           mov         rax,r12
  0000000000003E55: 4D 11 C0           adc         r8,r8
  0000000000003E58: 4D 11 C9           adc         r9,r9
  0000000000003E5B: 4C 89 ED           mov         rbp,r13
  0000000000003E5E: 49 83 D3 00        adc         r11,0
  0000000000003E62: 49 83 EC FF        sub         r12,0FFFFFFFFFFFFFFFFh
  0000000000003E66: 4C 89 C1           mov         rcx,r8
  0000000000003E69: 4D 19 F5           sbb         r13,r14
  0000000000003E6C: 49 83 D8 00        sbb         r8,0
  0000000000003E70: 4D 89 CA           mov         r10,r9
  0000000000003E73: 4D 19 F9           sbb         r9,r15
  0000000000003E76: 49 83 DB 00        sbb         r11,0
  0000000000003E7A: 4C 0F 42 E0        cmovb       r12,rax
  0000000000003E7E: 48 8B 06           mov         rax,qword ptr [rsi]
  0000000000003E81: 4C 0F 42 ED        cmovb       r13,rbp
  0000000000003E85: 48 8B 6E 08        mov         rbp,qword ptr [rsi+8]
  0000000000003E89: 4C 0F 42 C1        cmovb       r8,rcx
  0000000000003E8D: 48 8B 4E 10        mov         rcx,qword ptr [rsi+10h]
  0000000000003E91: 4D 0F 42 CA        cmovb       r9,r10
  0000000000003E95: 4C 8B 56 18        mov         r10,qword ptr [rsi+18h]
  0000000000003E99: E8 82 F1 FF FF     call        __ecp_nistz256_subx
  0000000000003E9E: 48 8D 9C 24 A0 00  lea         rbx,[rsp+0A0h]
                    00 00
  0000000000003EA6: 48 8D BC 24 E0 00  lea         rdi,[rsp+0E0h]
                    00 00
  0000000000003EAE: E8 0D F1 FF FF     call        __ecp_nistz256_sub_fromx
  0000000000003EB3: 48 8B 04 24        mov         rax,qword ptr [rsp]
  0000000000003EB7: 48 8B 6C 24 08     mov         rbp,qword ptr [rsp+8]
  0000000000003EBC: 48 8B 4C 24 10     mov         rcx,qword ptr [rsp+10h]
  0000000000003EC1: 4C 8B 54 24 18     mov         r10,qword ptr [rsp+18h]
  0000000000003EC6: 48 8D 7C 24 40     lea         rdi,[rsp+40h]
  0000000000003ECB: E8 50 F1 FF FF     call        __ecp_nistz256_subx
  0000000000003ED0: 4C 89 27           mov         qword ptr [rdi],r12
  0000000000003ED3: 4C 89 6F 08        mov         qword ptr [rdi+8],r13
  0000000000003ED7: 4C 89 47 10        mov         qword ptr [rdi+10h],r8
  0000000000003EDB: 4C 89 4F 18        mov         qword ptr [rdi+18h],r9
  0000000000003EDF: 48 8B 94 24 60 01  mov         rdx,qword ptr [rsp+160h]
                    00 00
  0000000000003EE7: 48 8D 9C 24 60 01  lea         rbx,[rsp+160h]
                    00 00
  0000000000003EEF: 4C 8B 8C 24 A0 00  mov         r9,qword ptr [rsp+0A0h]
                    00 00
  0000000000003EF7: 4C 8B 94 24 A8 00  mov         r10,qword ptr [rsp+0A8h]
                    00 00
  0000000000003EFF: 48 8D 74 24 20     lea         rsi,[rsp+20h]
  0000000000003F04: 4C 8B 9C 24 B0 00  mov         r11,qword ptr [rsp+0B0h]
                    00 00
  0000000000003F0C: 4C 8B A4 24 B8 00  mov         r12,qword ptr [rsp+0B8h]
                    00 00
  0000000000003F14: 48 8D 7C 24 20     lea         rdi,[rsp+20h]
  0000000000003F19: E8 A2 D4 FF FF     call        __ecp_nistz256_mul_montx
  0000000000003F1E: 48 8B 54 24 60     mov         rdx,qword ptr [rsp+60h]
  0000000000003F23: 48 8D 5C 24 60     lea         rbx,[rsp+60h]
  0000000000003F28: 4C 8B 4C 24 40     mov         r9,qword ptr [rsp+40h]
  0000000000003F2D: 4C 8B 54 24 48     mov         r10,qword ptr [rsp+48h]
  0000000000003F32: 48 8D 74 24 C0     lea         rsi,[rsp-40h]
  0000000000003F37: 4C 8B 5C 24 50     mov         r11,qword ptr [rsp+50h]
  0000000000003F3C: 4C 8B 64 24 58     mov         r12,qword ptr [rsp+58h]
  0000000000003F41: 48 8D 7C 24 40     lea         rdi,[rsp+40h]
  0000000000003F46: E8 75 D4 FF FF     call        __ecp_nistz256_mul_montx
  0000000000003F4B: 48 8D 5C 24 20     lea         rbx,[rsp+20h]
  0000000000003F50: 48 8D BC 24 00 01  lea         rdi,[rsp+100h]
                    00 00
  0000000000003F58: E8 63 F0 FF FF     call        __ecp_nistz256_sub_fromx
  0000000000003F5D: 66 48 0F 7E C7     movq        rdi,xmm0
  0000000000003F62: 66 0F 6F C5        movdqa      xmm0,xmm5
  0000000000003F66: 66 0F 6F CD        movdqa      xmm1,xmm5
  0000000000003F6A: 66 0F DF 84 24 20  pandn       xmm0,xmmword ptr [rsp+120h]
                    01 00 00
  0000000000003F73: 66 0F 6F D5        movdqa      xmm2,xmm5
  0000000000003F77: 66 0F DF 8C 24 30  pandn       xmm1,xmmword ptr [rsp+130h]
                    01 00 00
  0000000000003F80: 66 0F 6F DD        movdqa      xmm3,xmm5
  0000000000003F84: 66 0F DB 15 80 00  pand        xmm2,xmmword ptr [.rdata+80h]
                    00 00
  0000000000003F8C: 66 0F DB 1D 90 00  pand        xmm3,xmmword ptr [.rdata+90h]
                    00 00
  0000000000003F94: 66 0F EB D0        por         xmm2,xmm0
  0000000000003F98: 66 0F EB D9        por         xmm3,xmm1
  0000000000003F9C: 66 0F 6F C4        movdqa      xmm0,xmm4
  0000000000003FA0: 66 0F 6F CC        movdqa      xmm1,xmm4
  0000000000003FA4: 66 0F DF C2        pandn       xmm0,xmm2
  0000000000003FA8: 66 0F 6F D4        movdqa      xmm2,xmm4
  0000000000003FAC: 66 0F DF CB        pandn       xmm1,xmm3
  0000000000003FB0: 66 0F 6F DC        movdqa      xmm3,xmm4
  0000000000003FB4: 66 0F DB 94 24 80  pand        xmm2,xmmword ptr [rsp+180h]
                    01 00 00
  0000000000003FBD: 66 0F DB 9C 24 90  pand        xmm3,xmmword ptr [rsp+190h]
                    01 00 00
  0000000000003FC6: 66 0F EB D0        por         xmm2,xmm0
  0000000000003FCA: 66 0F EB D9        por         xmm3,xmm1
  0000000000003FCE: F3 0F 7F 57 40     movdqu      xmmword ptr [rdi+40h],xmm2
  0000000000003FD3: F3 0F 7F 5F 50     movdqu      xmmword ptr [rdi+50h],xmm3
  0000000000003FD8: 66 0F 6F C5        movdqa      xmm0,xmm5
  0000000000003FDC: 66 0F 6F CD        movdqa      xmm1,xmm5
  0000000000003FE0: 66 0F DF 84 24 E0  pandn       xmm0,xmmword ptr [rsp+0E0h]
                    00 00 00
  0000000000003FE9: 66 0F 6F D5        movdqa      xmm2,xmm5
  0000000000003FED: 66 0F DF 8C 24 F0  pandn       xmm1,xmmword ptr [rsp+0F0h]
                    00 00 00
  0000000000003FF6: 66 0F 6F DD        movdqa      xmm3,xmm5
  0000000000003FFA: 66 0F DB 94 24 A0  pand        xmm2,xmmword ptr [rsp+1A0h]
                    01 00 00
  0000000000004003: 66 0F DB 9C 24 B0  pand        xmm3,xmmword ptr [rsp+1B0h]
                    01 00 00
  000000000000400C: 66 0F EB D0        por         xmm2,xmm0
  0000000000004010: 66 0F EB D9        por         xmm3,xmm1
  0000000000004014: 66 0F 6F C4        movdqa      xmm0,xmm4
  0000000000004018: 66 0F 6F CC        movdqa      xmm1,xmm4
  000000000000401C: 66 0F DF C2        pandn       xmm0,xmm2
  0000000000004020: 66 0F 6F D4        movdqa      xmm2,xmm4
  0000000000004024: 66 0F DF CB        pandn       xmm1,xmm3
  0000000000004028: 66 0F 6F DC        movdqa      xmm3,xmm4
  000000000000402C: 66 0F DB 94 24 40  pand        xmm2,xmmword ptr [rsp+140h]
                    01 00 00
  0000000000004035: 66 0F DB 9C 24 50  pand        xmm3,xmmword ptr [rsp+150h]
                    01 00 00
  000000000000403E: 66 0F EB D0        por         xmm2,xmm0
  0000000000004042: 66 0F EB D9        por         xmm3,xmm1
  0000000000004046: F3 0F 7F 17        movdqu      xmmword ptr [rdi],xmm2
  000000000000404A: F3 0F 7F 5F 10     movdqu      xmmword ptr [rdi+10h],xmm3
  000000000000404F: 66 0F 6F C5        movdqa      xmm0,xmm5
  0000000000004053: 66 0F 6F CD        movdqa      xmm1,xmm5
  0000000000004057: 66 0F DF 84 24 00  pandn       xmm0,xmmword ptr [rsp+100h]
                    01 00 00
  0000000000004060: 66 0F 6F D5        movdqa      xmm2,xmm5
  0000000000004064: 66 0F DF 8C 24 10  pandn       xmm1,xmmword ptr [rsp+110h]
                    01 00 00
  000000000000406D: 66 0F 6F DD        movdqa      xmm3,xmm5
  0000000000004071: 66 0F DB 94 24 C0  pand        xmm2,xmmword ptr [rsp+1C0h]
                    01 00 00
  000000000000407A: 66 0F DB 9C 24 D0  pand        xmm3,xmmword ptr [rsp+1D0h]
                    01 00 00
  0000000000004083: 66 0F EB D0        por         xmm2,xmm0
  0000000000004087: 66 0F EB D9        por         xmm3,xmm1
  000000000000408B: 66 0F 6F C4        movdqa      xmm0,xmm4
  000000000000408F: 66 0F 6F CC        movdqa      xmm1,xmm4
  0000000000004093: 66 0F DF C2        pandn       xmm0,xmm2
  0000000000004097: 66 0F 6F D4        movdqa      xmm2,xmm4
  000000000000409B: 66 0F DF CB        pandn       xmm1,xmm3
  000000000000409F: 66 0F 6F DC        movdqa      xmm3,xmm4
  00000000000040A3: 66 0F DB 94 24 60  pand        xmm2,xmmword ptr [rsp+160h]
                    01 00 00
  00000000000040AC: 66 0F DB 9C 24 70  pand        xmm3,xmmword ptr [rsp+170h]
                    01 00 00
  00000000000040B5: 66 0F EB D0        por         xmm2,xmm0
  00000000000040B9: 66 0F EB D9        por         xmm3,xmm1
  00000000000040BD: F3 0F 7F 57 20     movdqu      xmmword ptr [rdi+20h],xmm2
  00000000000040C2: F3 0F 7F 5F 30     movdqu      xmmword ptr [rdi+30h],xmm3
  00000000000040C7: 48 8D B4 24 18 02  lea         rsi,[rsp+218h]
                    00 00
  00000000000040CF: 4C 8B 7E D0        mov         r15,qword ptr [rsi-30h]
  00000000000040D3: 4C 8B 76 D8        mov         r14,qword ptr [rsi-28h]
  00000000000040D7: 4C 8B 6E E0        mov         r13,qword ptr [rsi-20h]
  00000000000040DB: 4C 8B 66 E8        mov         r12,qword ptr [rsi-18h]
  00000000000040DF: 48 8B 5E F0        mov         rbx,qword ptr [rsi-10h]
  00000000000040E3: 48 8B 6E F8        mov         rbp,qword ptr [rsi-8]
  00000000000040E7: 48 8D 26           lea         rsp,[rsi]
L$add_affinex_epilogue:
  00000000000040EA: 48 8B 7C 24 08     mov         rdi,qword ptr [rsp+8]
  00000000000040EF: 48 8B 74 24 10     mov         rsi,qword ptr [rsp+10h]
  00000000000040F4: F3 C3              rep ret
L$SEH_end_ecp_nistz256_point_add_affinex:
  00000000000040F6: 90                 nop
  00000000000040F7: 90                 nop
  00000000000040F8: 90                 nop
  00000000000040F9: 90                 nop
  00000000000040FA: 90                 nop
  00000000000040FB: 90                 nop
  00000000000040FC: 90                 nop
  00000000000040FD: 90                 nop
  00000000000040FE: 90                 nop
  00000000000040FF: 90                 nop
short_handler:
  0000000000004100: 56                 push        rsi
  0000000000004101: 57                 push        rdi
  0000000000004102: 53                 push        rbx
  0000000000004103: 55                 push        rbp
  0000000000004104: 41 54              push        r12
  0000000000004106: 41 55              push        r13
  0000000000004108: 41 56              push        r14
  000000000000410A: 41 57              push        r15
  000000000000410C: 9C                 pushfq
  000000000000410D: 48 83 EC 40        sub         rsp,40h
  0000000000004111: 49 8B 40 78        mov         rax,qword ptr [r8+78h]
  0000000000004115: 49 8B 98 F8 00 00  mov         rbx,qword ptr [r8+0F8h]
                    00
  000000000000411C: 49 8B 71 08        mov         rsi,qword ptr [r9+8]
  0000000000004120: 4D 8B 59 38        mov         r11,qword ptr [r9+38h]
  0000000000004124: 45 8B 13           mov         r10d,dword ptr [r11]
  0000000000004127: 4E 8D 14 16        lea         r10,[rsi+r10]
  000000000000412B: 4C 39 D3           cmp         rbx,r10
  000000000000412E: 0F 82 D2 00 00 00  jb          L$common_seh_tail
  0000000000004134: 49 8B 80 98 00 00  mov         rax,qword ptr [r8+98h]
                    00
  000000000000413B: 45 8B 53 04        mov         r10d,dword ptr [r11+4]
  000000000000413F: 4E 8D 14 16        lea         r10,[rsi+r10]
  0000000000004143: 4C 39 D3           cmp         rbx,r10
  0000000000004146: 0F 83 BA 00 00 00  jae         L$common_seh_tail
  000000000000414C: 48 8D 40 10        lea         rax,[rax+10h]
  0000000000004150: 4C 8B 60 F8        mov         r12,qword ptr [rax-8]
  0000000000004154: 4C 8B 68 F0        mov         r13,qword ptr [rax-10h]
  0000000000004158: 4D 89 A0 D8 00 00  mov         qword ptr [r8+0D8h],r12
                    00
  000000000000415F: 4D 89 A8 E0 00 00  mov         qword ptr [r8+0E0h],r13
                    00
  0000000000004166: E9 9B 00 00 00     jmp         L$common_seh_tail
  000000000000416B: 90                 nop
  000000000000416C: 90                 nop
  000000000000416D: 90                 nop
  000000000000416E: 90                 nop
  000000000000416F: 90                 nop
full_handler:
  0000000000004170: 56                 push        rsi
  0000000000004171: 57                 push        rdi
  0000000000004172: 53                 push        rbx
  0000000000004173: 55                 push        rbp
  0000000000004174: 41 54              push        r12
  0000000000004176: 41 55              push        r13
  0000000000004178: 41 56              push        r14
  000000000000417A: 41 57              push        r15
  000000000000417C: 9C                 pushfq
  000000000000417D: 48 83 EC 40        sub         rsp,40h
  0000000000004181: 49 8B 40 78        mov         rax,qword ptr [r8+78h]
  0000000000004185: 49 8B 98 F8 00 00  mov         rbx,qword ptr [r8+0F8h]
                    00
  000000000000418C: 49 8B 71 08        mov         rsi,qword ptr [r9+8]
  0000000000004190: 4D 8B 59 38        mov         r11,qword ptr [r9+38h]
  0000000000004194: 45 8B 13           mov         r10d,dword ptr [r11]
  0000000000004197: 4E 8D 14 16        lea         r10,[rsi+r10]
  000000000000419B: 4C 39 D3           cmp         rbx,r10
  000000000000419E: 0F 82 62 00 00 00  jb          L$common_seh_tail
  00000000000041A4: 49 8B 80 98 00 00  mov         rax,qword ptr [r8+98h]
                    00
  00000000000041AB: 45 8B 53 04        mov         r10d,dword ptr [r11+4]
  00000000000041AF: 4E 8D 14 16        lea         r10,[rsi+r10]
  00000000000041B3: 4C 39 D3           cmp         rbx,r10
  00000000000041B6: 0F 83 4A 00 00 00  jae         L$common_seh_tail
  00000000000041BC: 45 8B 53 08        mov         r10d,dword ptr [r11+8]
  00000000000041C0: 4A 8D 04 10        lea         rax,[rax+r10]
  00000000000041C4: 48 8B 68 F8        mov         rbp,qword ptr [rax-8]
  00000000000041C8: 48 8B 58 F0        mov         rbx,qword ptr [rax-10h]
  00000000000041CC: 4C 8B 60 E8        mov         r12,qword ptr [rax-18h]
  00000000000041D0: 4C 8B 68 E0        mov         r13,qword ptr [rax-20h]
  00000000000041D4: 4C 8B 70 D8        mov         r14,qword ptr [rax-28h]
  00000000000041D8: 4C 8B 78 D0        mov         r15,qword ptr [rax-30h]
  00000000000041DC: 49 89 98 90 00 00  mov         qword ptr [r8+90h],rbx
                    00
  00000000000041E3: 49 89 A8 A0 00 00  mov         qword ptr [r8+0A0h],rbp
                    00
  00000000000041EA: 4D 89 A0 D8 00 00  mov         qword ptr [r8+0D8h],r12
                    00
  00000000000041F1: 4D 89 A8 E0 00 00  mov         qword ptr [r8+0E0h],r13
                    00
  00000000000041F8: 4D 89 B0 E8 00 00  mov         qword ptr [r8+0E8h],r14
                    00
  00000000000041FF: 4D 89 B8 F0 00 00  mov         qword ptr [r8+0F0h],r15
                    00
L$common_seh_tail:
  0000000000004206: 48 8B 78 08        mov         rdi,qword ptr [rax+8]
  000000000000420A: 48 8B 70 10        mov         rsi,qword ptr [rax+10h]
  000000000000420E: 49 89 80 98 00 00  mov         qword ptr [r8+98h],rax
                    00
  0000000000004215: 49 89 B0 A8 00 00  mov         qword ptr [r8+0A8h],rsi
                    00
  000000000000421C: 49 89 B8 B0 00 00  mov         qword ptr [r8+0B0h],rdi
                    00
  0000000000004223: 49 8B 79 28        mov         rdi,qword ptr [r9+28h]
  0000000000004227: 4C 89 C6           mov         rsi,r8
  000000000000422A: B9 9A 00 00 00     mov         ecx,9Ah
  000000000000422F: FC                 cld
  0000000000004230: F3 48 A5           rep movs    qword ptr [rdi],qword ptr [rsi]
  0000000000004233: 4C 89 CE           mov         rsi,r9
  0000000000004236: 48 31 C9           xor         rcx,rcx
  0000000000004239: 48 8B 56 08        mov         rdx,qword ptr [rsi+8]
  000000000000423D: 4C 8B 06           mov         r8,qword ptr [rsi]
  0000000000004240: 4C 8B 4E 10        mov         r9,qword ptr [rsi+10h]
  0000000000004244: 4C 8B 56 28        mov         r10,qword ptr [rsi+28h]
  0000000000004248: 4C 8D 5E 38        lea         r11,[rsi+38h]
  000000000000424C: 4C 8D 66 18        lea         r12,[rsi+18h]
  0000000000004250: 4C 89 54 24 20     mov         qword ptr [rsp+20h],r10
  0000000000004255: 4C 89 5C 24 28     mov         qword ptr [rsp+28h],r11
  000000000000425A: 4C 89 64 24 30     mov         qword ptr [rsp+30h],r12
  000000000000425F: 48 89 4C 24 38     mov         qword ptr [rsp+38h],rcx
  0000000000004264: FF 15 00 00 00 00  call        qword ptr [__imp_RtlVirtualUnwind]
  000000000000426A: B8 01 00 00 00     mov         eax,1
  000000000000426F: 48 83 C4 40        add         rsp,40h
  0000000000004273: 9D                 popfq
  0000000000004274: 41 5F              pop         r15
  0000000000004276: 41 5E              pop         r14
  0000000000004278: 41 5D              pop         r13
  000000000000427A: 41 5C              pop         r12
  000000000000427C: 5D                 pop         rbp
  000000000000427D: 5B                 pop         rbx
  000000000000427E: 5F                 pop         rdi
  000000000000427F: 5E                 pop         rsi
  0000000000004280: F3 C3              rep ret

  Summary

          1C .debug$T
          CC .pdata
          C8 .rdata
        4282 .text
         198 .xdata
