Copyright (C) Microsoft Corporation.  All rights reserved.


Dump of file sha1-x86_64.obj

File Type: COFF OBJECT

aws_lc_0_21_1_sha1_block_data_order_nohw:
  0000000000000000: 48 89 7C 24 08     mov         qword ptr [rsp+8],rdi
  0000000000000005: 48 89 74 24 10     mov         qword ptr [rsp+10h],rsi
  000000000000000A: 48 89 E0           mov         rax,rsp
L$SEH_begin_sha1_block_data_order_nohw:
  000000000000000D: 48 89 CF           mov         rdi,rcx
  0000000000000010: 48 89 D6           mov         rsi,rdx
  0000000000000013: 4C 89 C2           mov         rdx,r8
  0000000000000016: 48 89 E0           mov         rax,rsp
  0000000000000019: 53                 push        rbx
  000000000000001A: 55                 push        rbp
  000000000000001B: 41 54              push        r12
  000000000000001D: 41 55              push        r13
  000000000000001F: 41 56              push        r14
  0000000000000021: 49 89 F8           mov         r8,rdi
  0000000000000024: 48 83 EC 48        sub         rsp,48h
  0000000000000028: 49 89 F1           mov         r9,rsi
  000000000000002B: 48 83 E4 C0        and         rsp,0FFFFFFFFFFFFFFC0h
  000000000000002F: 49 89 D2           mov         r10,rdx
  0000000000000032: 48 89 44 24 40     mov         qword ptr [rsp+40h],rax
L$prologue:
  0000000000000037: 41 8B 30           mov         esi,dword ptr [r8]
  000000000000003A: 41 8B 78 04        mov         edi,dword ptr [r8+4]
  000000000000003E: 45 8B 58 08        mov         r11d,dword ptr [r8+8]
  0000000000000042: 45 8B 60 0C        mov         r12d,dword ptr [r8+0Ch]
  0000000000000046: 45 8B 68 10        mov         r13d,dword ptr [r8+10h]
  000000000000004A: E9 01 00 00 00     jmp         L$loop
  000000000000004F: 90                 nop
L$loop:
  0000000000000050: 41 8B 11           mov         edx,dword ptr [r9]
  0000000000000053: 0F CA              bswap       edx
  0000000000000055: 41 8B 69 04        mov         ebp,dword ptr [r9+4]
  0000000000000059: 44 89 E0           mov         eax,r12d
  000000000000005C: 89 14 24           mov         dword ptr [rsp],edx
  000000000000005F: 89 F1              mov         ecx,esi
  0000000000000061: 0F CD              bswap       ebp
  0000000000000063: 44 31 D8           xor         eax,r11d
  0000000000000066: C1 C1 05           rol         ecx,5
  0000000000000069: 21 F8              and         eax,edi
  000000000000006B: 46 8D AC 2A 99 79  lea         r13d,[rdx+r13+5A827999h]
                    82 5A
  0000000000000073: 41 01 CD           add         r13d,ecx
  0000000000000076: 44 31 E0           xor         eax,r12d
  0000000000000079: C1 C7 1E           rol         edi,1Eh
  000000000000007C: 41 01 C5           add         r13d,eax
  000000000000007F: 45 8B 71 08        mov         r14d,dword ptr [r9+8]
  0000000000000083: 44 89 D8           mov         eax,r11d
  0000000000000086: 89 6C 24 04        mov         dword ptr [rsp+4],ebp
  000000000000008A: 44 89 E9           mov         ecx,r13d
  000000000000008D: 41 0F CE           bswap       r14d
  0000000000000090: 31 F8              xor         eax,edi
  0000000000000092: C1 C1 05           rol         ecx,5
  0000000000000095: 21 F0              and         eax,esi
  0000000000000097: 46 8D A4 25 99 79  lea         r12d,[rbp+r12+5A827999h]
                    82 5A
  000000000000009F: 41 01 CC           add         r12d,ecx
  00000000000000A2: 44 31 D8           xor         eax,r11d
  00000000000000A5: C1 C6 1E           rol         esi,1Eh
  00000000000000A8: 41 01 C4           add         r12d,eax
  00000000000000AB: 41 8B 51 0C        mov         edx,dword ptr [r9+0Ch]
  00000000000000AF: 89 F8              mov         eax,edi
  00000000000000B1: 44 89 74 24 08     mov         dword ptr [rsp+8],r14d
  00000000000000B6: 44 89 E1           mov         ecx,r12d
  00000000000000B9: 0F CA              bswap       edx
  00000000000000BB: 31 F0              xor         eax,esi
  00000000000000BD: C1 C1 05           rol         ecx,5
  00000000000000C0: 44 21 E8           and         eax,r13d
  00000000000000C3: 47 8D 9C 1E 99 79  lea         r11d,[r14+r11+5A827999h]
                    82 5A
  00000000000000CB: 41 01 CB           add         r11d,ecx
  00000000000000CE: 31 F8              xor         eax,edi
  00000000000000D0: 41 C1 C5 1E        rol         r13d,1Eh
  00000000000000D4: 41 01 C3           add         r11d,eax
  00000000000000D7: 41 8B 69 10        mov         ebp,dword ptr [r9+10h]
  00000000000000DB: 89 F0              mov         eax,esi
  00000000000000DD: 89 54 24 0C        mov         dword ptr [rsp+0Ch],edx
  00000000000000E1: 44 89 D9           mov         ecx,r11d
  00000000000000E4: 0F CD              bswap       ebp
  00000000000000E6: 44 31 E8           xor         eax,r13d
  00000000000000E9: C1 C1 05           rol         ecx,5
  00000000000000EC: 44 21 E0           and         eax,r12d
  00000000000000EF: 8D BC 3A 99 79 82  lea         edi,[rdx+rdi+5A827999h]
                    5A
  00000000000000F6: 01 CF              add         edi,ecx
  00000000000000F8: 31 F0              xor         eax,esi
  00000000000000FA: 41 C1 C4 1E        rol         r12d,1Eh
  00000000000000FE: 01 C7              add         edi,eax
  0000000000000100: 45 8B 71 14        mov         r14d,dword ptr [r9+14h]
  0000000000000104: 44 89 E8           mov         eax,r13d
  0000000000000107: 89 6C 24 10        mov         dword ptr [rsp+10h],ebp
  000000000000010B: 89 F9              mov         ecx,edi
  000000000000010D: 41 0F CE           bswap       r14d
  0000000000000110: 44 31 E0           xor         eax,r12d
  0000000000000113: C1 C1 05           rol         ecx,5
  0000000000000116: 44 21 D8           and         eax,r11d
  0000000000000119: 8D B4 35 99 79 82  lea         esi,[rbp+rsi+5A827999h]
                    5A
  0000000000000120: 01 CE              add         esi,ecx
  0000000000000122: 44 31 E8           xor         eax,r13d
  0000000000000125: 41 C1 C3 1E        rol         r11d,1Eh
  0000000000000129: 01 C6              add         esi,eax
  000000000000012B: 41 8B 51 18        mov         edx,dword ptr [r9+18h]
  000000000000012F: 44 89 E0           mov         eax,r12d
  0000000000000132: 44 89 74 24 14     mov         dword ptr [rsp+14h],r14d
  0000000000000137: 89 F1              mov         ecx,esi
  0000000000000139: 0F CA              bswap       edx
  000000000000013B: 44 31 D8           xor         eax,r11d
  000000000000013E: C1 C1 05           rol         ecx,5
  0000000000000141: 21 F8              and         eax,edi
  0000000000000143: 47 8D AC 2E 99 79  lea         r13d,[r14+r13+5A827999h]
                    82 5A
  000000000000014B: 41 01 CD           add         r13d,ecx
  000000000000014E: 44 31 E0           xor         eax,r12d
  0000000000000151: C1 C7 1E           rol         edi,1Eh
  0000000000000154: 41 01 C5           add         r13d,eax
  0000000000000157: 41 8B 69 1C        mov         ebp,dword ptr [r9+1Ch]
  000000000000015B: 44 89 D8           mov         eax,r11d
  000000000000015E: 89 54 24 18        mov         dword ptr [rsp+18h],edx
  0000000000000162: 44 89 E9           mov         ecx,r13d
  0000000000000165: 0F CD              bswap       ebp
  0000000000000167: 31 F8              xor         eax,edi
  0000000000000169: C1 C1 05           rol         ecx,5
  000000000000016C: 21 F0              and         eax,esi
  000000000000016E: 46 8D A4 22 99 79  lea         r12d,[rdx+r12+5A827999h]
                    82 5A
  0000000000000176: 41 01 CC           add         r12d,ecx
  0000000000000179: 44 31 D8           xor         eax,r11d
  000000000000017C: C1 C6 1E           rol         esi,1Eh
  000000000000017F: 41 01 C4           add         r12d,eax
  0000000000000182: 45 8B 71 20        mov         r14d,dword ptr [r9+20h]
  0000000000000186: 89 F8              mov         eax,edi
  0000000000000188: 89 6C 24 1C        mov         dword ptr [rsp+1Ch],ebp
  000000000000018C: 44 89 E1           mov         ecx,r12d
  000000000000018F: 41 0F CE           bswap       r14d
  0000000000000192: 31 F0              xor         eax,esi
  0000000000000194: C1 C1 05           rol         ecx,5
  0000000000000197: 44 21 E8           and         eax,r13d
  000000000000019A: 46 8D 9C 1D 99 79  lea         r11d,[rbp+r11+5A827999h]
                    82 5A
  00000000000001A2: 41 01 CB           add         r11d,ecx
  00000000000001A5: 31 F8              xor         eax,edi
  00000000000001A7: 41 C1 C5 1E        rol         r13d,1Eh
  00000000000001AB: 41 01 C3           add         r11d,eax
  00000000000001AE: 41 8B 51 24        mov         edx,dword ptr [r9+24h]
  00000000000001B2: 89 F0              mov         eax,esi
  00000000000001B4: 44 89 74 24 20     mov         dword ptr [rsp+20h],r14d
  00000000000001B9: 44 89 D9           mov         ecx,r11d
  00000000000001BC: 0F CA              bswap       edx
  00000000000001BE: 44 31 E8           xor         eax,r13d
  00000000000001C1: C1 C1 05           rol         ecx,5
  00000000000001C4: 44 21 E0           and         eax,r12d
  00000000000001C7: 41 8D BC 3E 99 79  lea         edi,[r14+rdi+5A827999h]
                    82 5A
  00000000000001CF: 01 CF              add         edi,ecx
  00000000000001D1: 31 F0              xor         eax,esi
  00000000000001D3: 41 C1 C4 1E        rol         r12d,1Eh
  00000000000001D7: 01 C7              add         edi,eax
  00000000000001D9: 41 8B 69 28        mov         ebp,dword ptr [r9+28h]
  00000000000001DD: 44 89 E8           mov         eax,r13d
  00000000000001E0: 89 54 24 24        mov         dword ptr [rsp+24h],edx
  00000000000001E4: 89 F9              mov         ecx,edi
  00000000000001E6: 0F CD              bswap       ebp
  00000000000001E8: 44 31 E0           xor         eax,r12d
  00000000000001EB: C1 C1 05           rol         ecx,5
  00000000000001EE: 44 21 D8           and         eax,r11d
  00000000000001F1: 8D B4 32 99 79 82  lea         esi,[rdx+rsi+5A827999h]
                    5A
  00000000000001F8: 01 CE              add         esi,ecx
  00000000000001FA: 44 31 E8           xor         eax,r13d
  00000000000001FD: 41 C1 C3 1E        rol         r11d,1Eh
  0000000000000201: 01 C6              add         esi,eax
  0000000000000203: 45 8B 71 2C        mov         r14d,dword ptr [r9+2Ch]
  0000000000000207: 44 89 E0           mov         eax,r12d
  000000000000020A: 89 6C 24 28        mov         dword ptr [rsp+28h],ebp
  000000000000020E: 89 F1              mov         ecx,esi
  0000000000000210: 41 0F CE           bswap       r14d
  0000000000000213: 44 31 D8           xor         eax,r11d
  0000000000000216: C1 C1 05           rol         ecx,5
  0000000000000219: 21 F8              and         eax,edi
  000000000000021B: 46 8D AC 2D 99 79  lea         r13d,[rbp+r13+5A827999h]
                    82 5A
  0000000000000223: 41 01 CD           add         r13d,ecx
  0000000000000226: 44 31 E0           xor         eax,r12d
  0000000000000229: C1 C7 1E           rol         edi,1Eh
  000000000000022C: 41 01 C5           add         r13d,eax
  000000000000022F: 41 8B 51 30        mov         edx,dword ptr [r9+30h]
  0000000000000233: 44 89 D8           mov         eax,r11d
  0000000000000236: 44 89 74 24 2C     mov         dword ptr [rsp+2Ch],r14d
  000000000000023B: 44 89 E9           mov         ecx,r13d
  000000000000023E: 0F CA              bswap       edx
  0000000000000240: 31 F8              xor         eax,edi
  0000000000000242: C1 C1 05           rol         ecx,5
  0000000000000245: 21 F0              and         eax,esi
  0000000000000247: 47 8D A4 26 99 79  lea         r12d,[r14+r12+5A827999h]
                    82 5A
  000000000000024F: 41 01 CC           add         r12d,ecx
  0000000000000252: 44 31 D8           xor         eax,r11d
  0000000000000255: C1 C6 1E           rol         esi,1Eh
  0000000000000258: 41 01 C4           add         r12d,eax
  000000000000025B: 41 8B 69 34        mov         ebp,dword ptr [r9+34h]
  000000000000025F: 89 F8              mov         eax,edi
  0000000000000261: 89 54 24 30        mov         dword ptr [rsp+30h],edx
  0000000000000265: 44 89 E1           mov         ecx,r12d
  0000000000000268: 0F CD              bswap       ebp
  000000000000026A: 31 F0              xor         eax,esi
  000000000000026C: C1 C1 05           rol         ecx,5
  000000000000026F: 44 21 E8           and         eax,r13d
  0000000000000272: 46 8D 9C 1A 99 79  lea         r11d,[rdx+r11+5A827999h]
                    82 5A
  000000000000027A: 41 01 CB           add         r11d,ecx
  000000000000027D: 31 F8              xor         eax,edi
  000000000000027F: 41 C1 C5 1E        rol         r13d,1Eh
  0000000000000283: 41 01 C3           add         r11d,eax
  0000000000000286: 45 8B 71 38        mov         r14d,dword ptr [r9+38h]
  000000000000028A: 89 F0              mov         eax,esi
  000000000000028C: 89 6C 24 34        mov         dword ptr [rsp+34h],ebp
  0000000000000290: 44 89 D9           mov         ecx,r11d
  0000000000000293: 41 0F CE           bswap       r14d
  0000000000000296: 44 31 E8           xor         eax,r13d
  0000000000000299: C1 C1 05           rol         ecx,5
  000000000000029C: 44 21 E0           and         eax,r12d
  000000000000029F: 8D BC 3D 99 79 82  lea         edi,[rbp+rdi+5A827999h]
                    5A
  00000000000002A6: 01 CF              add         edi,ecx
  00000000000002A8: 31 F0              xor         eax,esi
  00000000000002AA: 41 C1 C4 1E        rol         r12d,1Eh
  00000000000002AE: 01 C7              add         edi,eax
  00000000000002B0: 41 8B 51 3C        mov         edx,dword ptr [r9+3Ch]
  00000000000002B4: 44 89 E8           mov         eax,r13d
  00000000000002B7: 44 89 74 24 38     mov         dword ptr [rsp+38h],r14d
  00000000000002BC: 89 F9              mov         ecx,edi
  00000000000002BE: 0F CA              bswap       edx
  00000000000002C0: 44 31 E0           xor         eax,r12d
  00000000000002C3: C1 C1 05           rol         ecx,5
  00000000000002C6: 44 21 D8           and         eax,r11d
  00000000000002C9: 41 8D B4 36 99 79  lea         esi,[r14+rsi+5A827999h]
                    82 5A
  00000000000002D1: 01 CE              add         esi,ecx
  00000000000002D3: 44 31 E8           xor         eax,r13d
  00000000000002D6: 41 C1 C3 1E        rol         r11d,1Eh
  00000000000002DA: 01 C6              add         esi,eax
  00000000000002DC: 33 2C 24           xor         ebp,dword ptr [rsp]
  00000000000002DF: 44 89 E0           mov         eax,r12d
  00000000000002E2: 89 54 24 3C        mov         dword ptr [rsp+3Ch],edx
  00000000000002E6: 89 F1              mov         ecx,esi
  00000000000002E8: 33 6C 24 08        xor         ebp,dword ptr [rsp+8]
  00000000000002EC: 44 31 D8           xor         eax,r11d
  00000000000002EF: C1 C1 05           rol         ecx,5
  00000000000002F2: 33 6C 24 20        xor         ebp,dword ptr [rsp+20h]
  00000000000002F6: 21 F8              and         eax,edi
  00000000000002F8: 46 8D AC 2A 99 79  lea         r13d,[rdx+r13+5A827999h]
                    82 5A
  0000000000000300: C1 C7 1E           rol         edi,1Eh
  0000000000000303: 44 31 E0           xor         eax,r12d
  0000000000000306: 41 01 CD           add         r13d,ecx
  0000000000000309: D1 C5              rol         ebp,1
  000000000000030B: 41 01 C5           add         r13d,eax
  000000000000030E: 44 33 74 24 04     xor         r14d,dword ptr [rsp+4]
  0000000000000313: 44 89 D8           mov         eax,r11d
  0000000000000316: 89 2C 24           mov         dword ptr [rsp],ebp
  0000000000000319: 44 89 E9           mov         ecx,r13d
  000000000000031C: 44 33 74 24 0C     xor         r14d,dword ptr [rsp+0Ch]
  0000000000000321: 31 F8              xor         eax,edi
  0000000000000323: C1 C1 05           rol         ecx,5
  0000000000000326: 44 33 74 24 24     xor         r14d,dword ptr [rsp+24h]
  000000000000032B: 21 F0              and         eax,esi
  000000000000032D: 46 8D A4 25 99 79  lea         r12d,[rbp+r12+5A827999h]
                    82 5A
  0000000000000335: C1 C6 1E           rol         esi,1Eh
  0000000000000338: 44 31 D8           xor         eax,r11d
  000000000000033B: 41 01 CC           add         r12d,ecx
  000000000000033E: 41 D1 C6           rol         r14d,1
  0000000000000341: 41 01 C4           add         r12d,eax
  0000000000000344: 33 54 24 08        xor         edx,dword ptr [rsp+8]
  0000000000000348: 89 F8              mov         eax,edi
  000000000000034A: 44 89 74 24 04     mov         dword ptr [rsp+4],r14d
  000000000000034F: 44 89 E1           mov         ecx,r12d
  0000000000000352: 33 54 24 10        xor         edx,dword ptr [rsp+10h]
  0000000000000356: 31 F0              xor         eax,esi
  0000000000000358: C1 C1 05           rol         ecx,5
  000000000000035B: 33 54 24 28        xor         edx,dword ptr [rsp+28h]
  000000000000035F: 44 21 E8           and         eax,r13d
  0000000000000362: 47 8D 9C 1E 99 79  lea         r11d,[r14+r11+5A827999h]
                    82 5A
  000000000000036A: 41 C1 C5 1E        rol         r13d,1Eh
  000000000000036E: 31 F8              xor         eax,edi
  0000000000000370: 41 01 CB           add         r11d,ecx
  0000000000000373: D1 C2              rol         edx,1
  0000000000000375: 41 01 C3           add         r11d,eax
  0000000000000378: 33 6C 24 0C        xor         ebp,dword ptr [rsp+0Ch]
  000000000000037C: 89 F0              mov         eax,esi
  000000000000037E: 89 54 24 08        mov         dword ptr [rsp+8],edx
  0000000000000382: 44 89 D9           mov         ecx,r11d
  0000000000000385: 33 6C 24 14        xor         ebp,dword ptr [rsp+14h]
  0000000000000389: 44 31 E8           xor         eax,r13d
  000000000000038C: C1 C1 05           rol         ecx,5
  000000000000038F: 33 6C 24 2C        xor         ebp,dword ptr [rsp+2Ch]
  0000000000000393: 44 21 E0           and         eax,r12d
  0000000000000396: 8D BC 3A 99 79 82  lea         edi,[rdx+rdi+5A827999h]
                    5A
  000000000000039D: 41 C1 C4 1E        rol         r12d,1Eh
  00000000000003A1: 31 F0              xor         eax,esi
  00000000000003A3: 01 CF              add         edi,ecx
  00000000000003A5: D1 C5              rol         ebp,1
  00000000000003A7: 01 C7              add         edi,eax
  00000000000003A9: 44 33 74 24 10     xor         r14d,dword ptr [rsp+10h]
  00000000000003AE: 44 89 E8           mov         eax,r13d
  00000000000003B1: 89 6C 24 0C        mov         dword ptr [rsp+0Ch],ebp
  00000000000003B5: 89 F9              mov         ecx,edi
  00000000000003B7: 44 33 74 24 18     xor         r14d,dword ptr [rsp+18h]
  00000000000003BC: 44 31 E0           xor         eax,r12d
  00000000000003BF: C1 C1 05           rol         ecx,5
  00000000000003C2: 44 33 74 24 30     xor         r14d,dword ptr [rsp+30h]
  00000000000003C7: 44 21 D8           and         eax,r11d
  00000000000003CA: 8D B4 35 99 79 82  lea         esi,[rbp+rsi+5A827999h]
                    5A
  00000000000003D1: 41 C1 C3 1E        rol         r11d,1Eh
  00000000000003D5: 44 31 E8           xor         eax,r13d
  00000000000003D8: 01 CE              add         esi,ecx
  00000000000003DA: 41 D1 C6           rol         r14d,1
  00000000000003DD: 01 C6              add         esi,eax
  00000000000003DF: 33 54 24 14        xor         edx,dword ptr [rsp+14h]
  00000000000003E3: 89 F8              mov         eax,edi
  00000000000003E5: 44 89 74 24 10     mov         dword ptr [rsp+10h],r14d
  00000000000003EA: 89 F1              mov         ecx,esi
  00000000000003EC: 33 54 24 1C        xor         edx,dword ptr [rsp+1Ch]
  00000000000003F0: 44 31 E0           xor         eax,r12d
  00000000000003F3: C1 C1 05           rol         ecx,5
  00000000000003F6: 33 54 24 34        xor         edx,dword ptr [rsp+34h]
  00000000000003FA: 47 8D AC 2E A1 EB  lea         r13d,[r14+r13+6ED9EBA1h]
                    D9 6E
  0000000000000402: 44 31 D8           xor         eax,r11d
  0000000000000405: 41 01 CD           add         r13d,ecx
  0000000000000408: C1 C7 1E           rol         edi,1Eh
  000000000000040B: 41 01 C5           add         r13d,eax
  000000000000040E: D1 C2              rol         edx,1
  0000000000000410: 33 6C 24 18        xor         ebp,dword ptr [rsp+18h]
  0000000000000414: 89 F0              mov         eax,esi
  0000000000000416: 89 54 24 14        mov         dword ptr [rsp+14h],edx
  000000000000041A: 44 89 E9           mov         ecx,r13d
  000000000000041D: 33 6C 24 20        xor         ebp,dword ptr [rsp+20h]
  0000000000000421: 44 31 D8           xor         eax,r11d
  0000000000000424: C1 C1 05           rol         ecx,5
  0000000000000427: 33 6C 24 38        xor         ebp,dword ptr [rsp+38h]
  000000000000042B: 46 8D A4 22 A1 EB  lea         r12d,[rdx+r12+6ED9EBA1h]
                    D9 6E
  0000000000000433: 31 F8              xor         eax,edi
  0000000000000435: 41 01 CC           add         r12d,ecx
  0000000000000438: C1 C6 1E           rol         esi,1Eh
  000000000000043B: 41 01 C4           add         r12d,eax
  000000000000043E: D1 C5              rol         ebp,1
  0000000000000440: 44 33 74 24 1C     xor         r14d,dword ptr [rsp+1Ch]
  0000000000000445: 44 89 E8           mov         eax,r13d
  0000000000000448: 89 6C 24 18        mov         dword ptr [rsp+18h],ebp
  000000000000044C: 44 89 E1           mov         ecx,r12d
  000000000000044F: 44 33 74 24 24     xor         r14d,dword ptr [rsp+24h]
  0000000000000454: 31 F8              xor         eax,edi
  0000000000000456: C1 C1 05           rol         ecx,5
  0000000000000459: 44 33 74 24 3C     xor         r14d,dword ptr [rsp+3Ch]
  000000000000045E: 46 8D 9C 1D A1 EB  lea         r11d,[rbp+r11+6ED9EBA1h]
                    D9 6E
  0000000000000466: 31 F0              xor         eax,esi
  0000000000000468: 41 01 CB           add         r11d,ecx
  000000000000046B: 41 C1 C5 1E        rol         r13d,1Eh
  000000000000046F: 41 01 C3           add         r11d,eax
  0000000000000472: 41 D1 C6           rol         r14d,1
  0000000000000475: 33 54 24 20        xor         edx,dword ptr [rsp+20h]
  0000000000000479: 44 89 E0           mov         eax,r12d
  000000000000047C: 44 89 74 24 1C     mov         dword ptr [rsp+1Ch],r14d
  0000000000000481: 44 89 D9           mov         ecx,r11d
  0000000000000484: 33 54 24 28        xor         edx,dword ptr [rsp+28h]
  0000000000000488: 31 F0              xor         eax,esi
  000000000000048A: C1 C1 05           rol         ecx,5
  000000000000048D: 33 14 24           xor         edx,dword ptr [rsp]
  0000000000000490: 41 8D BC 3E A1 EB  lea         edi,[r14+rdi+6ED9EBA1h]
                    D9 6E
  0000000000000498: 44 31 E8           xor         eax,r13d
  000000000000049B: 01 CF              add         edi,ecx
  000000000000049D: 41 C1 C4 1E        rol         r12d,1Eh
  00000000000004A1: 01 C7              add         edi,eax
  00000000000004A3: D1 C2              rol         edx,1
  00000000000004A5: 33 6C 24 24        xor         ebp,dword ptr [rsp+24h]
  00000000000004A9: 44 89 D8           mov         eax,r11d
  00000000000004AC: 89 54 24 20        mov         dword ptr [rsp+20h],edx
  00000000000004B0: 89 F9              mov         ecx,edi
  00000000000004B2: 33 6C 24 2C        xor         ebp,dword ptr [rsp+2Ch]
  00000000000004B6: 44 31 E8           xor         eax,r13d
  00000000000004B9: C1 C1 05           rol         ecx,5
  00000000000004BC: 33 6C 24 04        xor         ebp,dword ptr [rsp+4]
  00000000000004C0: 8D B4 32 A1 EB D9  lea         esi,[rdx+rsi+6ED9EBA1h]
                    6E
  00000000000004C7: 44 31 E0           xor         eax,r12d
  00000000000004CA: 01 CE              add         esi,ecx
  00000000000004CC: 41 C1 C3 1E        rol         r11d,1Eh
  00000000000004D0: 01 C6              add         esi,eax
  00000000000004D2: D1 C5              rol         ebp,1
  00000000000004D4: 44 33 74 24 28     xor         r14d,dword ptr [rsp+28h]
  00000000000004D9: 89 F8              mov         eax,edi
  00000000000004DB: 89 6C 24 24        mov         dword ptr [rsp+24h],ebp
  00000000000004DF: 89 F1              mov         ecx,esi
  00000000000004E1: 44 33 74 24 30     xor         r14d,dword ptr [rsp+30h]
  00000000000004E6: 44 31 E0           xor         eax,r12d
  00000000000004E9: C1 C1 05           rol         ecx,5
  00000000000004EC: 44 33 74 24 08     xor         r14d,dword ptr [rsp+8]
  00000000000004F1: 46 8D AC 2D A1 EB  lea         r13d,[rbp+r13+6ED9EBA1h]
                    D9 6E
  00000000000004F9: 44 31 D8           xor         eax,r11d
  00000000000004FC: 41 01 CD           add         r13d,ecx
  00000000000004FF: C1 C7 1E           rol         edi,1Eh
  0000000000000502: 41 01 C5           add         r13d,eax
  0000000000000505: 41 D1 C6           rol         r14d,1
  0000000000000508: 33 54 24 2C        xor         edx,dword ptr [rsp+2Ch]
  000000000000050C: 89 F0              mov         eax,esi
  000000000000050E: 44 89 74 24 28     mov         dword ptr [rsp+28h],r14d
  0000000000000513: 44 89 E9           mov         ecx,r13d
  0000000000000516: 33 54 24 34        xor         edx,dword ptr [rsp+34h]
  000000000000051A: 44 31 D8           xor         eax,r11d
  000000000000051D: C1 C1 05           rol         ecx,5
  0000000000000520: 33 54 24 0C        xor         edx,dword ptr [rsp+0Ch]
  0000000000000524: 47 8D A4 26 A1 EB  lea         r12d,[r14+r12+6ED9EBA1h]
                    D9 6E
  000000000000052C: 31 F8              xor         eax,edi
  000000000000052E: 41 01 CC           add         r12d,ecx
  0000000000000531: C1 C6 1E           rol         esi,1Eh
  0000000000000534: 41 01 C4           add         r12d,eax
  0000000000000537: D1 C2              rol         edx,1
  0000000000000539: 33 6C 24 30        xor         ebp,dword ptr [rsp+30h]
  000000000000053D: 44 89 E8           mov         eax,r13d
  0000000000000540: 89 54 24 2C        mov         dword ptr [rsp+2Ch],edx
  0000000000000544: 44 89 E1           mov         ecx,r12d
  0000000000000547: 33 6C 24 38        xor         ebp,dword ptr [rsp+38h]
  000000000000054B: 31 F8              xor         eax,edi
  000000000000054D: C1 C1 05           rol         ecx,5
  0000000000000550: 33 6C 24 10        xor         ebp,dword ptr [rsp+10h]
  0000000000000554: 46 8D 9C 1A A1 EB  lea         r11d,[rdx+r11+6ED9EBA1h]
                    D9 6E
  000000000000055C: 31 F0              xor         eax,esi
  000000000000055E: 41 01 CB           add         r11d,ecx
  0000000000000561: 41 C1 C5 1E        rol         r13d,1Eh
  0000000000000565: 41 01 C3           add         r11d,eax
  0000000000000568: D1 C5              rol         ebp,1
  000000000000056A: 44 33 74 24 34     xor         r14d,dword ptr [rsp+34h]
  000000000000056F: 44 89 E0           mov         eax,r12d
  0000000000000572: 89 6C 24 30        mov         dword ptr [rsp+30h],ebp
  0000000000000576: 44 89 D9           mov         ecx,r11d
  0000000000000579: 44 33 74 24 3C     xor         r14d,dword ptr [rsp+3Ch]
  000000000000057E: 31 F0              xor         eax,esi
  0000000000000580: C1 C1 05           rol         ecx,5
  0000000000000583: 44 33 74 24 14     xor         r14d,dword ptr [rsp+14h]
  0000000000000588: 8D BC 3D A1 EB D9  lea         edi,[rbp+rdi+6ED9EBA1h]
                    6E
  000000000000058F: 44 31 E8           xor         eax,r13d
  0000000000000592: 01 CF              add         edi,ecx
  0000000000000594: 41 C1 C4 1E        rol         r12d,1Eh
  0000000000000598: 01 C7              add         edi,eax
  000000000000059A: 41 D1 C6           rol         r14d,1
  000000000000059D: 33 54 24 38        xor         edx,dword ptr [rsp+38h]
  00000000000005A1: 44 89 D8           mov         eax,r11d
  00000000000005A4: 44 89 74 24 34     mov         dword ptr [rsp+34h],r14d
  00000000000005A9: 89 F9              mov         ecx,edi
  00000000000005AB: 33 14 24           xor         edx,dword ptr [rsp]
  00000000000005AE: 44 31 E8           xor         eax,r13d
  00000000000005B1: C1 C1 05           rol         ecx,5
  00000000000005B4: 33 54 24 18        xor         edx,dword ptr [rsp+18h]
  00000000000005B8: 41 8D B4 36 A1 EB  lea         esi,[r14+rsi+6ED9EBA1h]
                    D9 6E
  00000000000005C0: 44 31 E0           xor         eax,r12d
  00000000000005C3: 01 CE              add         esi,ecx
  00000000000005C5: 41 C1 C3 1E        rol         r11d,1Eh
  00000000000005C9: 01 C6              add         esi,eax
  00000000000005CB: D1 C2              rol         edx,1
  00000000000005CD: 33 6C 24 3C        xor         ebp,dword ptr [rsp+3Ch]
  00000000000005D1: 89 F8              mov         eax,edi
  00000000000005D3: 89 54 24 38        mov         dword ptr [rsp+38h],edx
  00000000000005D7: 89 F1              mov         ecx,esi
  00000000000005D9: 33 6C 24 04        xor         ebp,dword ptr [rsp+4]
  00000000000005DD: 44 31 E0           xor         eax,r12d
  00000000000005E0: C1 C1 05           rol         ecx,5
  00000000000005E3: 33 6C 24 1C        xor         ebp,dword ptr [rsp+1Ch]
  00000000000005E7: 46 8D AC 2A A1 EB  lea         r13d,[rdx+r13+6ED9EBA1h]
                    D9 6E
  00000000000005EF: 44 31 D8           xor         eax,r11d
  00000000000005F2: 41 01 CD           add         r13d,ecx
  00000000000005F5: C1 C7 1E           rol         edi,1Eh
  00000000000005F8: 41 01 C5           add         r13d,eax
  00000000000005FB: D1 C5              rol         ebp,1
  00000000000005FD: 44 33 34 24        xor         r14d,dword ptr [rsp]
  0000000000000601: 89 F0              mov         eax,esi
  0000000000000603: 89 6C 24 3C        mov         dword ptr [rsp+3Ch],ebp
  0000000000000607: 44 89 E9           mov         ecx,r13d
  000000000000060A: 44 33 74 24 08     xor         r14d,dword ptr [rsp+8]
  000000000000060F: 44 31 D8           xor         eax,r11d
  0000000000000612: C1 C1 05           rol         ecx,5
  0000000000000615: 44 33 74 24 20     xor         r14d,dword ptr [rsp+20h]
  000000000000061A: 46 8D A4 25 A1 EB  lea         r12d,[rbp+r12+6ED9EBA1h]
                    D9 6E
  0000000000000622: 31 F8              xor         eax,edi
  0000000000000624: 41 01 CC           add         r12d,ecx
  0000000000000627: C1 C6 1E           rol         esi,1Eh
  000000000000062A: 41 01 C4           add         r12d,eax
  000000000000062D: 41 D1 C6           rol         r14d,1
  0000000000000630: 33 54 24 04        xor         edx,dword ptr [rsp+4]
  0000000000000634: 44 89 E8           mov         eax,r13d
  0000000000000637: 44 89 34 24        mov         dword ptr [rsp],r14d
  000000000000063B: 44 89 E1           mov         ecx,r12d
  000000000000063E: 33 54 24 0C        xor         edx,dword ptr [rsp+0Ch]
  0000000000000642: 31 F8              xor         eax,edi
  0000000000000644: C1 C1 05           rol         ecx,5
  0000000000000647: 33 54 24 24        xor         edx,dword ptr [rsp+24h]
  000000000000064B: 47 8D 9C 1E A1 EB  lea         r11d,[r14+r11+6ED9EBA1h]
                    D9 6E
  0000000000000653: 31 F0              xor         eax,esi
  0000000000000655: 41 01 CB           add         r11d,ecx
  0000000000000658: 41 C1 C5 1E        rol         r13d,1Eh
  000000000000065C: 41 01 C3           add         r11d,eax
  000000000000065F: D1 C2              rol         edx,1
  0000000000000661: 33 6C 24 08        xor         ebp,dword ptr [rsp+8]
  0000000000000665: 44 89 E0           mov         eax,r12d
  0000000000000668: 89 54 24 04        mov         dword ptr [rsp+4],edx
  000000000000066C: 44 89 D9           mov         ecx,r11d
  000000000000066F: 33 6C 24 10        xor         ebp,dword ptr [rsp+10h]
  0000000000000673: 31 F0              xor         eax,esi
  0000000000000675: C1 C1 05           rol         ecx,5
  0000000000000678: 33 6C 24 28        xor         ebp,dword ptr [rsp+28h]
  000000000000067C: 8D BC 3A A1 EB D9  lea         edi,[rdx+rdi+6ED9EBA1h]
                    6E
  0000000000000683: 44 31 E8           xor         eax,r13d
  0000000000000686: 01 CF              add         edi,ecx
  0000000000000688: 41 C1 C4 1E        rol         r12d,1Eh
  000000000000068C: 01 C7              add         edi,eax
  000000000000068E: D1 C5              rol         ebp,1
  0000000000000690: 44 33 74 24 0C     xor         r14d,dword ptr [rsp+0Ch]
  0000000000000695: 44 89 D8           mov         eax,r11d
  0000000000000698: 89 6C 24 08        mov         dword ptr [rsp+8],ebp
  000000000000069C: 89 F9              mov         ecx,edi
  000000000000069E: 44 33 74 24 14     xor         r14d,dword ptr [rsp+14h]
  00000000000006A3: 44 31 E8           xor         eax,r13d
  00000000000006A6: C1 C1 05           rol         ecx,5
  00000000000006A9: 44 33 74 24 2C     xor         r14d,dword ptr [rsp+2Ch]
  00000000000006AE: 8D B4 35 A1 EB D9  lea         esi,[rbp+rsi+6ED9EBA1h]
                    6E
  00000000000006B5: 44 31 E0           xor         eax,r12d
  00000000000006B8: 01 CE              add         esi,ecx
  00000000000006BA: 41 C1 C3 1E        rol         r11d,1Eh
  00000000000006BE: 01 C6              add         esi,eax
  00000000000006C0: 41 D1 C6           rol         r14d,1
  00000000000006C3: 33 54 24 10        xor         edx,dword ptr [rsp+10h]
  00000000000006C7: 89 F8              mov         eax,edi
  00000000000006C9: 44 89 74 24 0C     mov         dword ptr [rsp+0Ch],r14d
  00000000000006CE: 89 F1              mov         ecx,esi
  00000000000006D0: 33 54 24 18        xor         edx,dword ptr [rsp+18h]
  00000000000006D4: 44 31 E0           xor         eax,r12d
  00000000000006D7: C1 C1 05           rol         ecx,5
  00000000000006DA: 33 54 24 30        xor         edx,dword ptr [rsp+30h]
  00000000000006DE: 47 8D AC 2E A1 EB  lea         r13d,[r14+r13+6ED9EBA1h]
                    D9 6E
  00000000000006E6: 44 31 D8           xor         eax,r11d
  00000000000006E9: 41 01 CD           add         r13d,ecx
  00000000000006EC: C1 C7 1E           rol         edi,1Eh
  00000000000006EF: 41 01 C5           add         r13d,eax
  00000000000006F2: D1 C2              rol         edx,1
  00000000000006F4: 33 6C 24 14        xor         ebp,dword ptr [rsp+14h]
  00000000000006F8: 89 F0              mov         eax,esi
  00000000000006FA: 89 54 24 10        mov         dword ptr [rsp+10h],edx
  00000000000006FE: 44 89 E9           mov         ecx,r13d
  0000000000000701: 33 6C 24 1C        xor         ebp,dword ptr [rsp+1Ch]
  0000000000000705: 44 31 D8           xor         eax,r11d
  0000000000000708: C1 C1 05           rol         ecx,5
  000000000000070B: 33 6C 24 34        xor         ebp,dword ptr [rsp+34h]
  000000000000070F: 46 8D A4 22 A1 EB  lea         r12d,[rdx+r12+6ED9EBA1h]
                    D9 6E
  0000000000000717: 31 F8              xor         eax,edi
  0000000000000719: 41 01 CC           add         r12d,ecx
  000000000000071C: C1 C6 1E           rol         esi,1Eh
  000000000000071F: 41 01 C4           add         r12d,eax
  0000000000000722: D1 C5              rol         ebp,1
  0000000000000724: 44 33 74 24 18     xor         r14d,dword ptr [rsp+18h]
  0000000000000729: 44 89 E8           mov         eax,r13d
  000000000000072C: 89 6C 24 14        mov         dword ptr [rsp+14h],ebp
  0000000000000730: 44 89 E1           mov         ecx,r12d
  0000000000000733: 44 33 74 24 20     xor         r14d,dword ptr [rsp+20h]
  0000000000000738: 31 F8              xor         eax,edi
  000000000000073A: C1 C1 05           rol         ecx,5
  000000000000073D: 44 33 74 24 38     xor         r14d,dword ptr [rsp+38h]
  0000000000000742: 46 8D 9C 1D A1 EB  lea         r11d,[rbp+r11+6ED9EBA1h]
                    D9 6E
  000000000000074A: 31 F0              xor         eax,esi
  000000000000074C: 41 01 CB           add         r11d,ecx
  000000000000074F: 41 C1 C5 1E        rol         r13d,1Eh
  0000000000000753: 41 01 C3           add         r11d,eax
  0000000000000756: 41 D1 C6           rol         r14d,1
  0000000000000759: 33 54 24 1C        xor         edx,dword ptr [rsp+1Ch]
  000000000000075D: 44 89 E0           mov         eax,r12d
  0000000000000760: 44 89 74 24 18     mov         dword ptr [rsp+18h],r14d
  0000000000000765: 44 89 D9           mov         ecx,r11d
  0000000000000768: 33 54 24 24        xor         edx,dword ptr [rsp+24h]
  000000000000076C: 31 F0              xor         eax,esi
  000000000000076E: C1 C1 05           rol         ecx,5
  0000000000000771: 33 54 24 3C        xor         edx,dword ptr [rsp+3Ch]
  0000000000000775: 41 8D BC 3E A1 EB  lea         edi,[r14+rdi+6ED9EBA1h]
                    D9 6E
  000000000000077D: 44 31 E8           xor         eax,r13d
  0000000000000780: 01 CF              add         edi,ecx
  0000000000000782: 41 C1 C4 1E        rol         r12d,1Eh
  0000000000000786: 01 C7              add         edi,eax
  0000000000000788: D1 C2              rol         edx,1
  000000000000078A: 33 6C 24 20        xor         ebp,dword ptr [rsp+20h]
  000000000000078E: 44 89 D8           mov         eax,r11d
  0000000000000791: 89 54 24 1C        mov         dword ptr [rsp+1Ch],edx
  0000000000000795: 89 F9              mov         ecx,edi
  0000000000000797: 33 6C 24 28        xor         ebp,dword ptr [rsp+28h]
  000000000000079B: 44 31 E8           xor         eax,r13d
  000000000000079E: C1 C1 05           rol         ecx,5
  00000000000007A1: 33 2C 24           xor         ebp,dword ptr [rsp]
  00000000000007A4: 8D B4 32 A1 EB D9  lea         esi,[rdx+rsi+6ED9EBA1h]
                    6E
  00000000000007AB: 44 31 E0           xor         eax,r12d
  00000000000007AE: 01 CE              add         esi,ecx
  00000000000007B0: 41 C1 C3 1E        rol         r11d,1Eh
  00000000000007B4: 01 C6              add         esi,eax
  00000000000007B6: D1 C5              rol         ebp,1
  00000000000007B8: 44 33 74 24 24     xor         r14d,dword ptr [rsp+24h]
  00000000000007BD: 44 89 E0           mov         eax,r12d
  00000000000007C0: 89 6C 24 20        mov         dword ptr [rsp+20h],ebp
  00000000000007C4: 44 89 E3           mov         ebx,r12d
  00000000000007C7: 44 33 74 24 2C     xor         r14d,dword ptr [rsp+2Ch]
  00000000000007CC: 44 21 D8           and         eax,r11d
  00000000000007CF: 89 F1              mov         ecx,esi
  00000000000007D1: 44 33 74 24 04     xor         r14d,dword ptr [rsp+4]
  00000000000007D6: 46 8D AC 2D DC BC  lea         r13d,[rbp+r13-70E44324h]
                    1B 8F
  00000000000007DE: 44 31 DB           xor         ebx,r11d
  00000000000007E1: C1 C1 05           rol         ecx,5
  00000000000007E4: 41 01 C5           add         r13d,eax
  00000000000007E7: 41 D1 C6           rol         r14d,1
  00000000000007EA: 21 FB              and         ebx,edi
  00000000000007EC: 41 01 CD           add         r13d,ecx
  00000000000007EF: C1 C7 1E           rol         edi,1Eh
  00000000000007F2: 41 01 DD           add         r13d,ebx
  00000000000007F5: 33 54 24 28        xor         edx,dword ptr [rsp+28h]
  00000000000007F9: 44 89 D8           mov         eax,r11d
  00000000000007FC: 44 89 74 24 24     mov         dword ptr [rsp+24h],r14d
  0000000000000801: 44 89 DB           mov         ebx,r11d
  0000000000000804: 33 54 24 30        xor         edx,dword ptr [rsp+30h]
  0000000000000808: 21 F8              and         eax,edi
  000000000000080A: 44 89 E9           mov         ecx,r13d
  000000000000080D: 33 54 24 08        xor         edx,dword ptr [rsp+8]
  0000000000000811: 47 8D A4 26 DC BC  lea         r12d,[r14+r12-70E44324h]
                    1B 8F
  0000000000000819: 31 FB              xor         ebx,edi
  000000000000081B: C1 C1 05           rol         ecx,5
  000000000000081E: 41 01 C4           add         r12d,eax
  0000000000000821: D1 C2              rol         edx,1
  0000000000000823: 21 F3              and         ebx,esi
  0000000000000825: 41 01 CC           add         r12d,ecx
  0000000000000828: C1 C6 1E           rol         esi,1Eh
  000000000000082B: 41 01 DC           add         r12d,ebx
  000000000000082E: 33 6C 24 2C        xor         ebp,dword ptr [rsp+2Ch]
  0000000000000832: 89 F8              mov         eax,edi
  0000000000000834: 89 54 24 28        mov         dword ptr [rsp+28h],edx
  0000000000000838: 89 FB              mov         ebx,edi
  000000000000083A: 33 6C 24 34        xor         ebp,dword ptr [rsp+34h]
  000000000000083E: 21 F0              and         eax,esi
  0000000000000840: 44 89 E1           mov         ecx,r12d
  0000000000000843: 33 6C 24 0C        xor         ebp,dword ptr [rsp+0Ch]
  0000000000000847: 46 8D 9C 1A DC BC  lea         r11d,[rdx+r11-70E44324h]
                    1B 8F
  000000000000084F: 31 F3              xor         ebx,esi
  0000000000000851: C1 C1 05           rol         ecx,5
  0000000000000854: 41 01 C3           add         r11d,eax
  0000000000000857: D1 C5              rol         ebp,1
  0000000000000859: 44 21 EB           and         ebx,r13d
  000000000000085C: 41 01 CB           add         r11d,ecx
  000000000000085F: 41 C1 C5 1E        rol         r13d,1Eh
  0000000000000863: 41 01 DB           add         r11d,ebx
  0000000000000866: 44 33 74 24 30     xor         r14d,dword ptr [rsp+30h]
  000000000000086B: 89 F0              mov         eax,esi
  000000000000086D: 89 6C 24 2C        mov         dword ptr [rsp+2Ch],ebp
  0000000000000871: 89 F3              mov         ebx,esi
  0000000000000873: 44 33 74 24 38     xor         r14d,dword ptr [rsp+38h]
  0000000000000878: 44 21 E8           and         eax,r13d
  000000000000087B: 44 89 D9           mov         ecx,r11d
  000000000000087E: 44 33 74 24 10     xor         r14d,dword ptr [rsp+10h]
  0000000000000883: 8D BC 3D DC BC 1B  lea         edi,[rbp+rdi-70E44324h]
                    8F
  000000000000088A: 44 31 EB           xor         ebx,r13d
  000000000000088D: C1 C1 05           rol         ecx,5
  0000000000000890: 01 C7              add         edi,eax
  0000000000000892: 41 D1 C6           rol         r14d,1
  0000000000000895: 44 21 E3           and         ebx,r12d
  0000000000000898: 01 CF              add         edi,ecx
  000000000000089A: 41 C1 C4 1E        rol         r12d,1Eh
  000000000000089E: 01 DF              add         edi,ebx
  00000000000008A0: 33 54 24 34        xor         edx,dword ptr [rsp+34h]
  00000000000008A4: 44 89 E8           mov         eax,r13d
  00000000000008A7: 44 89 74 24 30     mov         dword ptr [rsp+30h],r14d
  00000000000008AC: 44 89 EB           mov         ebx,r13d
  00000000000008AF: 33 54 24 3C        xor         edx,dword ptr [rsp+3Ch]
  00000000000008B3: 44 21 E0           and         eax,r12d
  00000000000008B6: 89 F9              mov         ecx,edi
  00000000000008B8: 33 54 24 14        xor         edx,dword ptr [rsp+14h]
  00000000000008BC: 41 8D B4 36 DC BC  lea         esi,[r14+rsi-70E44324h]
                    1B 8F
  00000000000008C4: 44 31 E3           xor         ebx,r12d
  00000000000008C7: C1 C1 05           rol         ecx,5
  00000000000008CA: 01 C6              add         esi,eax
  00000000000008CC: D1 C2              rol         edx,1
  00000000000008CE: 44 21 DB           and         ebx,r11d
  00000000000008D1: 01 CE              add         esi,ecx
  00000000000008D3: 41 C1 C3 1E        rol         r11d,1Eh
  00000000000008D7: 01 DE              add         esi,ebx
  00000000000008D9: 33 6C 24 38        xor         ebp,dword ptr [rsp+38h]
  00000000000008DD: 44 89 E0           mov         eax,r12d
  00000000000008E0: 89 54 24 34        mov         dword ptr [rsp+34h],edx
  00000000000008E4: 44 89 E3           mov         ebx,r12d
  00000000000008E7: 33 2C 24           xor         ebp,dword ptr [rsp]
  00000000000008EA: 44 21 D8           and         eax,r11d
  00000000000008ED: 89 F1              mov         ecx,esi
  00000000000008EF: 33 6C 24 18        xor         ebp,dword ptr [rsp+18h]
  00000000000008F3: 46 8D AC 2A DC BC  lea         r13d,[rdx+r13-70E44324h]
                    1B 8F
  00000000000008FB: 44 31 DB           xor         ebx,r11d
  00000000000008FE: C1 C1 05           rol         ecx,5
  0000000000000901: 41 01 C5           add         r13d,eax
  0000000000000904: D1 C5              rol         ebp,1
  0000000000000906: 21 FB              and         ebx,edi
  0000000000000908: 41 01 CD           add         r13d,ecx
  000000000000090B: C1 C7 1E           rol         edi,1Eh
  000000000000090E: 41 01 DD           add         r13d,ebx
  0000000000000911: 44 33 74 24 3C     xor         r14d,dword ptr [rsp+3Ch]
  0000000000000916: 44 89 D8           mov         eax,r11d
  0000000000000919: 89 6C 24 38        mov         dword ptr [rsp+38h],ebp
  000000000000091D: 44 89 DB           mov         ebx,r11d
  0000000000000920: 44 33 74 24 04     xor         r14d,dword ptr [rsp+4]
  0000000000000925: 21 F8              and         eax,edi
  0000000000000927: 44 89 E9           mov         ecx,r13d
  000000000000092A: 44 33 74 24 1C     xor         r14d,dword ptr [rsp+1Ch]
  000000000000092F: 46 8D A4 25 DC BC  lea         r12d,[rbp+r12-70E44324h]
                    1B 8F
  0000000000000937: 31 FB              xor         ebx,edi
  0000000000000939: C1 C1 05           rol         ecx,5
  000000000000093C: 41 01 C4           add         r12d,eax
  000000000000093F: 41 D1 C6           rol         r14d,1
  0000000000000942: 21 F3              and         ebx,esi
  0000000000000944: 41 01 CC           add         r12d,ecx
  0000000000000947: C1 C6 1E           rol         esi,1Eh
  000000000000094A: 41 01 DC           add         r12d,ebx
  000000000000094D: 33 14 24           xor         edx,dword ptr [rsp]
  0000000000000950: 89 F8              mov         eax,edi
  0000000000000952: 44 89 74 24 3C     mov         dword ptr [rsp+3Ch],r14d
  0000000000000957: 89 FB              mov         ebx,edi
  0000000000000959: 33 54 24 08        xor         edx,dword ptr [rsp+8]
  000000000000095D: 21 F0              and         eax,esi
  000000000000095F: 44 89 E1           mov         ecx,r12d
  0000000000000962: 33 54 24 20        xor         edx,dword ptr [rsp+20h]
  0000000000000966: 47 8D 9C 1E DC BC  lea         r11d,[r14+r11-70E44324h]
                    1B 8F
  000000000000096E: 31 F3              xor         ebx,esi
  0000000000000970: C1 C1 05           rol         ecx,5
  0000000000000973: 41 01 C3           add         r11d,eax
  0000000000000976: D1 C2              rol         edx,1
  0000000000000978: 44 21 EB           and         ebx,r13d
  000000000000097B: 41 01 CB           add         r11d,ecx
  000000000000097E: 41 C1 C5 1E        rol         r13d,1Eh
  0000000000000982: 41 01 DB           add         r11d,ebx
  0000000000000985: 33 6C 24 04        xor         ebp,dword ptr [rsp+4]
  0000000000000989: 89 F0              mov         eax,esi
  000000000000098B: 89 14 24           mov         dword ptr [rsp],edx
  000000000000098E: 89 F3              mov         ebx,esi
  0000000000000990: 33 6C 24 0C        xor         ebp,dword ptr [rsp+0Ch]
  0000000000000994: 44 21 E8           and         eax,r13d
  0000000000000997: 44 89 D9           mov         ecx,r11d
  000000000000099A: 33 6C 24 24        xor         ebp,dword ptr [rsp+24h]
  000000000000099E: 8D BC 3A DC BC 1B  lea         edi,[rdx+rdi-70E44324h]
                    8F
  00000000000009A5: 44 31 EB           xor         ebx,r13d
  00000000000009A8: C1 C1 05           rol         ecx,5
  00000000000009AB: 01 C7              add         edi,eax
  00000000000009AD: D1 C5              rol         ebp,1
  00000000000009AF: 44 21 E3           and         ebx,r12d
  00000000000009B2: 01 CF              add         edi,ecx
  00000000000009B4: 41 C1 C4 1E        rol         r12d,1Eh
  00000000000009B8: 01 DF              add         edi,ebx
  00000000000009BA: 44 33 74 24 08     xor         r14d,dword ptr [rsp+8]
  00000000000009BF: 44 89 E8           mov         eax,r13d
  00000000000009C2: 89 6C 24 04        mov         dword ptr [rsp+4],ebp
  00000000000009C6: 44 89 EB           mov         ebx,r13d
  00000000000009C9: 44 33 74 24 10     xor         r14d,dword ptr [rsp+10h]
  00000000000009CE: 44 21 E0           and         eax,r12d
  00000000000009D1: 89 F9              mov         ecx,edi
  00000000000009D3: 44 33 74 24 28     xor         r14d,dword ptr [rsp+28h]
  00000000000009D8: 8D B4 35 DC BC 1B  lea         esi,[rbp+rsi-70E44324h]
                    8F
  00000000000009DF: 44 31 E3           xor         ebx,r12d
  00000000000009E2: C1 C1 05           rol         ecx,5
  00000000000009E5: 01 C6              add         esi,eax
  00000000000009E7: 41 D1 C6           rol         r14d,1
  00000000000009EA: 44 21 DB           and         ebx,r11d
  00000000000009ED: 01 CE              add         esi,ecx
  00000000000009EF: 41 C1 C3 1E        rol         r11d,1Eh
  00000000000009F3: 01 DE              add         esi,ebx
  00000000000009F5: 33 54 24 0C        xor         edx,dword ptr [rsp+0Ch]
  00000000000009F9: 44 89 E0           mov         eax,r12d
  00000000000009FC: 44 89 74 24 08     mov         dword ptr [rsp+8],r14d
  0000000000000A01: 44 89 E3           mov         ebx,r12d
  0000000000000A04: 33 54 24 14        xor         edx,dword ptr [rsp+14h]
  0000000000000A08: 44 21 D8           and         eax,r11d
  0000000000000A0B: 89 F1              mov         ecx,esi
  0000000000000A0D: 33 54 24 2C        xor         edx,dword ptr [rsp+2Ch]
  0000000000000A11: 47 8D AC 2E DC BC  lea         r13d,[r14+r13-70E44324h]
                    1B 8F
  0000000000000A19: 44 31 DB           xor         ebx,r11d
  0000000000000A1C: C1 C1 05           rol         ecx,5
  0000000000000A1F: 41 01 C5           add         r13d,eax
  0000000000000A22: D1 C2              rol         edx,1
  0000000000000A24: 21 FB              and         ebx,edi
  0000000000000A26: 41 01 CD           add         r13d,ecx
  0000000000000A29: C1 C7 1E           rol         edi,1Eh
  0000000000000A2C: 41 01 DD           add         r13d,ebx
  0000000000000A2F: 33 6C 24 10        xor         ebp,dword ptr [rsp+10h]
  0000000000000A33: 44 89 D8           mov         eax,r11d
  0000000000000A36: 89 54 24 0C        mov         dword ptr [rsp+0Ch],edx
  0000000000000A3A: 44 89 DB           mov         ebx,r11d
  0000000000000A3D: 33 6C 24 18        xor         ebp,dword ptr [rsp+18h]
  0000000000000A41: 21 F8              and         eax,edi
  0000000000000A43: 44 89 E9           mov         ecx,r13d
  0000000000000A46: 33 6C 24 30        xor         ebp,dword ptr [rsp+30h]
  0000000000000A4A: 46 8D A4 22 DC BC  lea         r12d,[rdx+r12-70E44324h]
                    1B 8F
  0000000000000A52: 31 FB              xor         ebx,edi
  0000000000000A54: C1 C1 05           rol         ecx,5
  0000000000000A57: 41 01 C4           add         r12d,eax
  0000000000000A5A: D1 C5              rol         ebp,1
  0000000000000A5C: 21 F3              and         ebx,esi
  0000000000000A5E: 41 01 CC           add         r12d,ecx
  0000000000000A61: C1 C6 1E           rol         esi,1Eh
  0000000000000A64: 41 01 DC           add         r12d,ebx
  0000000000000A67: 44 33 74 24 14     xor         r14d,dword ptr [rsp+14h]
  0000000000000A6C: 89 F8              mov         eax,edi
  0000000000000A6E: 89 6C 24 10        mov         dword ptr [rsp+10h],ebp
  0000000000000A72: 89 FB              mov         ebx,edi
  0000000000000A74: 44 33 74 24 1C     xor         r14d,dword ptr [rsp+1Ch]
  0000000000000A79: 21 F0              and         eax,esi
  0000000000000A7B: 44 89 E1           mov         ecx,r12d
  0000000000000A7E: 44 33 74 24 34     xor         r14d,dword ptr [rsp+34h]
  0000000000000A83: 46 8D 9C 1D DC BC  lea         r11d,[rbp+r11-70E44324h]
                    1B 8F
  0000000000000A8B: 31 F3              xor         ebx,esi
  0000000000000A8D: C1 C1 05           rol         ecx,5
  0000000000000A90: 41 01 C3           add         r11d,eax
  0000000000000A93: 41 D1 C6           rol         r14d,1
  0000000000000A96: 44 21 EB           and         ebx,r13d
  0000000000000A99: 41 01 CB           add         r11d,ecx
  0000000000000A9C: 41 C1 C5 1E        rol         r13d,1Eh
  0000000000000AA0: 41 01 DB           add         r11d,ebx
  0000000000000AA3: 33 54 24 18        xor         edx,dword ptr [rsp+18h]
  0000000000000AA7: 89 F0              mov         eax,esi
  0000000000000AA9: 44 89 74 24 14     mov         dword ptr [rsp+14h],r14d
  0000000000000AAE: 89 F3              mov         ebx,esi
  0000000000000AB0: 33 54 24 20        xor         edx,dword ptr [rsp+20h]
  0000000000000AB4: 44 21 E8           and         eax,r13d
  0000000000000AB7: 44 89 D9           mov         ecx,r11d
  0000000000000ABA: 33 54 24 38        xor         edx,dword ptr [rsp+38h]
  0000000000000ABE: 41 8D BC 3E DC BC  lea         edi,[r14+rdi-70E44324h]
                    1B 8F
  0000000000000AC6: 44 31 EB           xor         ebx,r13d
  0000000000000AC9: C1 C1 05           rol         ecx,5
  0000000000000ACC: 01 C7              add         edi,eax
  0000000000000ACE: D1 C2              rol         edx,1
  0000000000000AD0: 44 21 E3           and         ebx,r12d
  0000000000000AD3: 01 CF              add         edi,ecx
  0000000000000AD5: 41 C1 C4 1E        rol         r12d,1Eh
  0000000000000AD9: 01 DF              add         edi,ebx
  0000000000000ADB: 33 6C 24 1C        xor         ebp,dword ptr [rsp+1Ch]
  0000000000000ADF: 44 89 E8           mov         eax,r13d
  0000000000000AE2: 89 54 24 18        mov         dword ptr [rsp+18h],edx
  0000000000000AE6: 44 89 EB           mov         ebx,r13d
  0000000000000AE9: 33 6C 24 24        xor         ebp,dword ptr [rsp+24h]
  0000000000000AED: 44 21 E0           and         eax,r12d
  0000000000000AF0: 89 F9              mov         ecx,edi
  0000000000000AF2: 33 6C 24 3C        xor         ebp,dword ptr [rsp+3Ch]
  0000000000000AF6: 8D B4 32 DC BC 1B  lea         esi,[rdx+rsi-70E44324h]
                    8F
  0000000000000AFD: 44 31 E3           xor         ebx,r12d
  0000000000000B00: C1 C1 05           rol         ecx,5
  0000000000000B03: 01 C6              add         esi,eax
  0000000000000B05: D1 C5              rol         ebp,1
  0000000000000B07: 44 21 DB           and         ebx,r11d
  0000000000000B0A: 01 CE              add         esi,ecx
  0000000000000B0C: 41 C1 C3 1E        rol         r11d,1Eh
  0000000000000B10: 01 DE              add         esi,ebx
  0000000000000B12: 44 33 74 24 20     xor         r14d,dword ptr [rsp+20h]
  0000000000000B17: 44 89 E0           mov         eax,r12d
  0000000000000B1A: 89 6C 24 1C        mov         dword ptr [rsp+1Ch],ebp
  0000000000000B1E: 44 89 E3           mov         ebx,r12d
  0000000000000B21: 44 33 74 24 28     xor         r14d,dword ptr [rsp+28h]
  0000000000000B26: 44 21 D8           and         eax,r11d
  0000000000000B29: 89 F1              mov         ecx,esi
  0000000000000B2B: 44 33 34 24        xor         r14d,dword ptr [rsp]
  0000000000000B2F: 46 8D AC 2D DC BC  lea         r13d,[rbp+r13-70E44324h]
                    1B 8F
  0000000000000B37: 44 31 DB           xor         ebx,r11d
  0000000000000B3A: C1 C1 05           rol         ecx,5
  0000000000000B3D: 41 01 C5           add         r13d,eax
  0000000000000B40: 41 D1 C6           rol         r14d,1
  0000000000000B43: 21 FB              and         ebx,edi
  0000000000000B45: 41 01 CD           add         r13d,ecx
  0000000000000B48: C1 C7 1E           rol         edi,1Eh
  0000000000000B4B: 41 01 DD           add         r13d,ebx
  0000000000000B4E: 33 54 24 24        xor         edx,dword ptr [rsp+24h]
  0000000000000B52: 44 89 D8           mov         eax,r11d
  0000000000000B55: 44 89 74 24 20     mov         dword ptr [rsp+20h],r14d
  0000000000000B5A: 44 89 DB           mov         ebx,r11d
  0000000000000B5D: 33 54 24 2C        xor         edx,dword ptr [rsp+2Ch]
  0000000000000B61: 21 F8              and         eax,edi
  0000000000000B63: 44 89 E9           mov         ecx,r13d
  0000000000000B66: 33 54 24 04        xor         edx,dword ptr [rsp+4]
  0000000000000B6A: 47 8D A4 26 DC BC  lea         r12d,[r14+r12-70E44324h]
                    1B 8F
  0000000000000B72: 31 FB              xor         ebx,edi
  0000000000000B74: C1 C1 05           rol         ecx,5
  0000000000000B77: 41 01 C4           add         r12d,eax
  0000000000000B7A: D1 C2              rol         edx,1
  0000000000000B7C: 21 F3              and         ebx,esi
  0000000000000B7E: 41 01 CC           add         r12d,ecx
  0000000000000B81: C1 C6 1E           rol         esi,1Eh
  0000000000000B84: 41 01 DC           add         r12d,ebx
  0000000000000B87: 33 6C 24 28        xor         ebp,dword ptr [rsp+28h]
  0000000000000B8B: 89 F8              mov         eax,edi
  0000000000000B8D: 89 54 24 24        mov         dword ptr [rsp+24h],edx
  0000000000000B91: 89 FB              mov         ebx,edi
  0000000000000B93: 33 6C 24 30        xor         ebp,dword ptr [rsp+30h]
  0000000000000B97: 21 F0              and         eax,esi
  0000000000000B99: 44 89 E1           mov         ecx,r12d
  0000000000000B9C: 33 6C 24 08        xor         ebp,dword ptr [rsp+8]
  0000000000000BA0: 46 8D 9C 1A DC BC  lea         r11d,[rdx+r11-70E44324h]
                    1B 8F
  0000000000000BA8: 31 F3              xor         ebx,esi
  0000000000000BAA: C1 C1 05           rol         ecx,5
  0000000000000BAD: 41 01 C3           add         r11d,eax
  0000000000000BB0: D1 C5              rol         ebp,1
  0000000000000BB2: 44 21 EB           and         ebx,r13d
  0000000000000BB5: 41 01 CB           add         r11d,ecx
  0000000000000BB8: 41 C1 C5 1E        rol         r13d,1Eh
  0000000000000BBC: 41 01 DB           add         r11d,ebx
  0000000000000BBF: 44 33 74 24 2C     xor         r14d,dword ptr [rsp+2Ch]
  0000000000000BC4: 89 F0              mov         eax,esi
  0000000000000BC6: 89 6C 24 28        mov         dword ptr [rsp+28h],ebp
  0000000000000BCA: 89 F3              mov         ebx,esi
  0000000000000BCC: 44 33 74 24 34     xor         r14d,dword ptr [rsp+34h]
  0000000000000BD1: 44 21 E8           and         eax,r13d
  0000000000000BD4: 44 89 D9           mov         ecx,r11d
  0000000000000BD7: 44 33 74 24 0C     xor         r14d,dword ptr [rsp+0Ch]
  0000000000000BDC: 8D BC 3D DC BC 1B  lea         edi,[rbp+rdi-70E44324h]
                    8F
  0000000000000BE3: 44 31 EB           xor         ebx,r13d
  0000000000000BE6: C1 C1 05           rol         ecx,5
  0000000000000BE9: 01 C7              add         edi,eax
  0000000000000BEB: 41 D1 C6           rol         r14d,1
  0000000000000BEE: 44 21 E3           and         ebx,r12d
  0000000000000BF1: 01 CF              add         edi,ecx
  0000000000000BF3: 41 C1 C4 1E        rol         r12d,1Eh
  0000000000000BF7: 01 DF              add         edi,ebx
  0000000000000BF9: 33 54 24 30        xor         edx,dword ptr [rsp+30h]
  0000000000000BFD: 44 89 E8           mov         eax,r13d
  0000000000000C00: 44 89 74 24 2C     mov         dword ptr [rsp+2Ch],r14d
  0000000000000C05: 44 89 EB           mov         ebx,r13d
  0000000000000C08: 33 54 24 38        xor         edx,dword ptr [rsp+38h]
  0000000000000C0C: 44 21 E0           and         eax,r12d
  0000000000000C0F: 89 F9              mov         ecx,edi
  0000000000000C11: 33 54 24 10        xor         edx,dword ptr [rsp+10h]
  0000000000000C15: 41 8D B4 36 DC BC  lea         esi,[r14+rsi-70E44324h]
                    1B 8F
  0000000000000C1D: 44 31 E3           xor         ebx,r12d
  0000000000000C20: C1 C1 05           rol         ecx,5
  0000000000000C23: 01 C6              add         esi,eax
  0000000000000C25: D1 C2              rol         edx,1
  0000000000000C27: 44 21 DB           and         ebx,r11d
  0000000000000C2A: 01 CE              add         esi,ecx
  0000000000000C2C: 41 C1 C3 1E        rol         r11d,1Eh
  0000000000000C30: 01 DE              add         esi,ebx
  0000000000000C32: 33 6C 24 34        xor         ebp,dword ptr [rsp+34h]
  0000000000000C36: 89 F8              mov         eax,edi
  0000000000000C38: 89 54 24 30        mov         dword ptr [rsp+30h],edx
  0000000000000C3C: 89 F1              mov         ecx,esi
  0000000000000C3E: 33 6C 24 3C        xor         ebp,dword ptr [rsp+3Ch]
  0000000000000C42: 44 31 E0           xor         eax,r12d
  0000000000000C45: C1 C1 05           rol         ecx,5
  0000000000000C48: 33 6C 24 14        xor         ebp,dword ptr [rsp+14h]
  0000000000000C4C: 46 8D AC 2A D6 C1  lea         r13d,[rdx+r13-359D3E2Ah]
                    62 CA
  0000000000000C54: 44 31 D8           xor         eax,r11d
  0000000000000C57: 41 01 CD           add         r13d,ecx
  0000000000000C5A: C1 C7 1E           rol         edi,1Eh
  0000000000000C5D: 41 01 C5           add         r13d,eax
  0000000000000C60: D1 C5              rol         ebp,1
  0000000000000C62: 44 33 74 24 38     xor         r14d,dword ptr [rsp+38h]
  0000000000000C67: 89 F0              mov         eax,esi
  0000000000000C69: 89 6C 24 34        mov         dword ptr [rsp+34h],ebp
  0000000000000C6D: 44 89 E9           mov         ecx,r13d
  0000000000000C70: 44 33 34 24        xor         r14d,dword ptr [rsp]
  0000000000000C74: 44 31 D8           xor         eax,r11d
  0000000000000C77: C1 C1 05           rol         ecx,5
  0000000000000C7A: 44 33 74 24 18     xor         r14d,dword ptr [rsp+18h]
  0000000000000C7F: 46 8D A4 25 D6 C1  lea         r12d,[rbp+r12-359D3E2Ah]
                    62 CA
  0000000000000C87: 31 F8              xor         eax,edi
  0000000000000C89: 41 01 CC           add         r12d,ecx
  0000000000000C8C: C1 C6 1E           rol         esi,1Eh
  0000000000000C8F: 41 01 C4           add         r12d,eax
  0000000000000C92: 41 D1 C6           rol         r14d,1
  0000000000000C95: 33 54 24 3C        xor         edx,dword ptr [rsp+3Ch]
  0000000000000C99: 44 89 E8           mov         eax,r13d
  0000000000000C9C: 44 89 74 24 38     mov         dword ptr [rsp+38h],r14d
  0000000000000CA1: 44 89 E1           mov         ecx,r12d
  0000000000000CA4: 33 54 24 04        xor         edx,dword ptr [rsp+4]
  0000000000000CA8: 31 F8              xor         eax,edi
  0000000000000CAA: C1 C1 05           rol         ecx,5
  0000000000000CAD: 33 54 24 1C        xor         edx,dword ptr [rsp+1Ch]
  0000000000000CB1: 47 8D 9C 1E D6 C1  lea         r11d,[r14+r11-359D3E2Ah]
                    62 CA
  0000000000000CB9: 31 F0              xor         eax,esi
  0000000000000CBB: 41 01 CB           add         r11d,ecx
  0000000000000CBE: 41 C1 C5 1E        rol         r13d,1Eh
  0000000000000CC2: 41 01 C3           add         r11d,eax
  0000000000000CC5: D1 C2              rol         edx,1
  0000000000000CC7: 33 2C 24           xor         ebp,dword ptr [rsp]
  0000000000000CCA: 44 89 E0           mov         eax,r12d
  0000000000000CCD: 89 54 24 3C        mov         dword ptr [rsp+3Ch],edx
  0000000000000CD1: 44 89 D9           mov         ecx,r11d
  0000000000000CD4: 33 6C 24 08        xor         ebp,dword ptr [rsp+8]
  0000000000000CD8: 31 F0              xor         eax,esi
  0000000000000CDA: C1 C1 05           rol         ecx,5
  0000000000000CDD: 33 6C 24 20        xor         ebp,dword ptr [rsp+20h]
  0000000000000CE1: 8D BC 3A D6 C1 62  lea         edi,[rdx+rdi-359D3E2Ah]
                    CA
  0000000000000CE8: 44 31 E8           xor         eax,r13d
  0000000000000CEB: 01 CF              add         edi,ecx
  0000000000000CED: 41 C1 C4 1E        rol         r12d,1Eh
  0000000000000CF1: 01 C7              add         edi,eax
  0000000000000CF3: D1 C5              rol         ebp,1
  0000000000000CF5: 44 33 74 24 04     xor         r14d,dword ptr [rsp+4]
  0000000000000CFA: 44 89 D8           mov         eax,r11d
  0000000000000CFD: 89 2C 24           mov         dword ptr [rsp],ebp
  0000000000000D00: 89 F9              mov         ecx,edi
  0000000000000D02: 44 33 74 24 0C     xor         r14d,dword ptr [rsp+0Ch]
  0000000000000D07: 44 31 E8           xor         eax,r13d
  0000000000000D0A: C1 C1 05           rol         ecx,5
  0000000000000D0D: 44 33 74 24 24     xor         r14d,dword ptr [rsp+24h]
  0000000000000D12: 8D B4 35 D6 C1 62  lea         esi,[rbp+rsi-359D3E2Ah]
                    CA
  0000000000000D19: 44 31 E0           xor         eax,r12d
  0000000000000D1C: 01 CE              add         esi,ecx
  0000000000000D1E: 41 C1 C3 1E        rol         r11d,1Eh
  0000000000000D22: 01 C6              add         esi,eax
  0000000000000D24: 41 D1 C6           rol         r14d,1
  0000000000000D27: 33 54 24 08        xor         edx,dword ptr [rsp+8]
  0000000000000D2B: 89 F8              mov         eax,edi
  0000000000000D2D: 44 89 74 24 04     mov         dword ptr [rsp+4],r14d
  0000000000000D32: 89 F1              mov         ecx,esi
  0000000000000D34: 33 54 24 10        xor         edx,dword ptr [rsp+10h]
  0000000000000D38: 44 31 E0           xor         eax,r12d
  0000000000000D3B: C1 C1 05           rol         ecx,5
  0000000000000D3E: 33 54 24 28        xor         edx,dword ptr [rsp+28h]
  0000000000000D42: 47 8D AC 2E D6 C1  lea         r13d,[r14+r13-359D3E2Ah]
                    62 CA
  0000000000000D4A: 44 31 D8           xor         eax,r11d
  0000000000000D4D: 41 01 CD           add         r13d,ecx
  0000000000000D50: C1 C7 1E           rol         edi,1Eh
  0000000000000D53: 41 01 C5           add         r13d,eax
  0000000000000D56: D1 C2              rol         edx,1
  0000000000000D58: 33 6C 24 0C        xor         ebp,dword ptr [rsp+0Ch]
  0000000000000D5C: 89 F0              mov         eax,esi
  0000000000000D5E: 89 54 24 08        mov         dword ptr [rsp+8],edx
  0000000000000D62: 44 89 E9           mov         ecx,r13d
  0000000000000D65: 33 6C 24 14        xor         ebp,dword ptr [rsp+14h]
  0000000000000D69: 44 31 D8           xor         eax,r11d
  0000000000000D6C: C1 C1 05           rol         ecx,5
  0000000000000D6F: 33 6C 24 2C        xor         ebp,dword ptr [rsp+2Ch]
  0000000000000D73: 46 8D A4 22 D6 C1  lea         r12d,[rdx+r12-359D3E2Ah]
                    62 CA
  0000000000000D7B: 31 F8              xor         eax,edi
  0000000000000D7D: 41 01 CC           add         r12d,ecx
  0000000000000D80: C1 C6 1E           rol         esi,1Eh
  0000000000000D83: 41 01 C4           add         r12d,eax
  0000000000000D86: D1 C5              rol         ebp,1
  0000000000000D88: 44 33 74 24 10     xor         r14d,dword ptr [rsp+10h]
  0000000000000D8D: 44 89 E8           mov         eax,r13d
  0000000000000D90: 89 6C 24 0C        mov         dword ptr [rsp+0Ch],ebp
  0000000000000D94: 44 89 E1           mov         ecx,r12d
  0000000000000D97: 44 33 74 24 18     xor         r14d,dword ptr [rsp+18h]
  0000000000000D9C: 31 F8              xor         eax,edi
  0000000000000D9E: C1 C1 05           rol         ecx,5
  0000000000000DA1: 44 33 74 24 30     xor         r14d,dword ptr [rsp+30h]
  0000000000000DA6: 46 8D 9C 1D D6 C1  lea         r11d,[rbp+r11-359D3E2Ah]
                    62 CA
  0000000000000DAE: 31 F0              xor         eax,esi
  0000000000000DB0: 41 01 CB           add         r11d,ecx
  0000000000000DB3: 41 C1 C5 1E        rol         r13d,1Eh
  0000000000000DB7: 41 01 C3           add         r11d,eax
  0000000000000DBA: 41 D1 C6           rol         r14d,1
  0000000000000DBD: 33 54 24 14        xor         edx,dword ptr [rsp+14h]
  0000000000000DC1: 44 89 E0           mov         eax,r12d
  0000000000000DC4: 44 89 74 24 10     mov         dword ptr [rsp+10h],r14d
  0000000000000DC9: 44 89 D9           mov         ecx,r11d
  0000000000000DCC: 33 54 24 1C        xor         edx,dword ptr [rsp+1Ch]
  0000000000000DD0: 31 F0              xor         eax,esi
  0000000000000DD2: C1 C1 05           rol         ecx,5
  0000000000000DD5: 33 54 24 34        xor         edx,dword ptr [rsp+34h]
  0000000000000DD9: 41 8D BC 3E D6 C1  lea         edi,[r14+rdi-359D3E2Ah]
                    62 CA
  0000000000000DE1: 44 31 E8           xor         eax,r13d
  0000000000000DE4: 01 CF              add         edi,ecx
  0000000000000DE6: 41 C1 C4 1E        rol         r12d,1Eh
  0000000000000DEA: 01 C7              add         edi,eax
  0000000000000DEC: D1 C2              rol         edx,1
  0000000000000DEE: 33 6C 24 18        xor         ebp,dword ptr [rsp+18h]
  0000000000000DF2: 44 89 D8           mov         eax,r11d
  0000000000000DF5: 89 54 24 14        mov         dword ptr [rsp+14h],edx
  0000000000000DF9: 89 F9              mov         ecx,edi
  0000000000000DFB: 33 6C 24 20        xor         ebp,dword ptr [rsp+20h]
  0000000000000DFF: 44 31 E8           xor         eax,r13d
  0000000000000E02: C1 C1 05           rol         ecx,5
  0000000000000E05: 33 6C 24 38        xor         ebp,dword ptr [rsp+38h]
  0000000000000E09: 8D B4 32 D6 C1 62  lea         esi,[rdx+rsi-359D3E2Ah]
                    CA
  0000000000000E10: 44 31 E0           xor         eax,r12d
  0000000000000E13: 01 CE              add         esi,ecx
  0000000000000E15: 41 C1 C3 1E        rol         r11d,1Eh
  0000000000000E19: 01 C6              add         esi,eax
  0000000000000E1B: D1 C5              rol         ebp,1
  0000000000000E1D: 44 33 74 24 1C     xor         r14d,dword ptr [rsp+1Ch]
  0000000000000E22: 89 F8              mov         eax,edi
  0000000000000E24: 89 6C 24 18        mov         dword ptr [rsp+18h],ebp
  0000000000000E28: 89 F1              mov         ecx,esi
  0000000000000E2A: 44 33 74 24 24     xor         r14d,dword ptr [rsp+24h]
  0000000000000E2F: 44 31 E0           xor         eax,r12d
  0000000000000E32: C1 C1 05           rol         ecx,5
  0000000000000E35: 44 33 74 24 3C     xor         r14d,dword ptr [rsp+3Ch]
  0000000000000E3A: 46 8D AC 2D D6 C1  lea         r13d,[rbp+r13-359D3E2Ah]
                    62 CA
  0000000000000E42: 44 31 D8           xor         eax,r11d
  0000000000000E45: 41 01 CD           add         r13d,ecx
  0000000000000E48: C1 C7 1E           rol         edi,1Eh
  0000000000000E4B: 41 01 C5           add         r13d,eax
  0000000000000E4E: 41 D1 C6           rol         r14d,1
  0000000000000E51: 33 54 24 20        xor         edx,dword ptr [rsp+20h]
  0000000000000E55: 89 F0              mov         eax,esi
  0000000000000E57: 44 89 74 24 1C     mov         dword ptr [rsp+1Ch],r14d
  0000000000000E5C: 44 89 E9           mov         ecx,r13d
  0000000000000E5F: 33 54 24 28        xor         edx,dword ptr [rsp+28h]
  0000000000000E63: 44 31 D8           xor         eax,r11d
  0000000000000E66: C1 C1 05           rol         ecx,5
  0000000000000E69: 33 14 24           xor         edx,dword ptr [rsp]
  0000000000000E6C: 47 8D A4 26 D6 C1  lea         r12d,[r14+r12-359D3E2Ah]
                    62 CA
  0000000000000E74: 31 F8              xor         eax,edi
  0000000000000E76: 41 01 CC           add         r12d,ecx
  0000000000000E79: C1 C6 1E           rol         esi,1Eh
  0000000000000E7C: 41 01 C4           add         r12d,eax
  0000000000000E7F: D1 C2              rol         edx,1
  0000000000000E81: 33 6C 24 24        xor         ebp,dword ptr [rsp+24h]
  0000000000000E85: 44 89 E8           mov         eax,r13d
  0000000000000E88: 44 89 E1           mov         ecx,r12d
  0000000000000E8B: 33 6C 24 2C        xor         ebp,dword ptr [rsp+2Ch]
  0000000000000E8F: 31 F8              xor         eax,edi
  0000000000000E91: C1 C1 05           rol         ecx,5
  0000000000000E94: 33 6C 24 04        xor         ebp,dword ptr [rsp+4]
  0000000000000E98: 46 8D 9C 1A D6 C1  lea         r11d,[rdx+r11-359D3E2Ah]
                    62 CA
  0000000000000EA0: 31 F0              xor         eax,esi
  0000000000000EA2: 41 01 CB           add         r11d,ecx
  0000000000000EA5: 41 C1 C5 1E        rol         r13d,1Eh
  0000000000000EA9: 41 01 C3           add         r11d,eax
  0000000000000EAC: D1 C5              rol         ebp,1
  0000000000000EAE: 44 33 74 24 28     xor         r14d,dword ptr [rsp+28h]
  0000000000000EB3: 44 89 E0           mov         eax,r12d
  0000000000000EB6: 44 89 D9           mov         ecx,r11d
  0000000000000EB9: 44 33 74 24 30     xor         r14d,dword ptr [rsp+30h]
  0000000000000EBE: 31 F0              xor         eax,esi
  0000000000000EC0: C1 C1 05           rol         ecx,5
  0000000000000EC3: 44 33 74 24 08     xor         r14d,dword ptr [rsp+8]
  0000000000000EC8: 8D BC 3D D6 C1 62  lea         edi,[rbp+rdi-359D3E2Ah]
                    CA
  0000000000000ECF: 44 31 E8           xor         eax,r13d
  0000000000000ED2: 01 CF              add         edi,ecx
  0000000000000ED4: 41 C1 C4 1E        rol         r12d,1Eh
  0000000000000ED8: 01 C7              add         edi,eax
  0000000000000EDA: 41 D1 C6           rol         r14d,1
  0000000000000EDD: 33 54 24 2C        xor         edx,dword ptr [rsp+2Ch]
  0000000000000EE1: 44 89 D8           mov         eax,r11d
  0000000000000EE4: 89 F9              mov         ecx,edi
  0000000000000EE6: 33 54 24 34        xor         edx,dword ptr [rsp+34h]
  0000000000000EEA: 44 31 E8           xor         eax,r13d
  0000000000000EED: C1 C1 05           rol         ecx,5
  0000000000000EF0: 33 54 24 0C        xor         edx,dword ptr [rsp+0Ch]
  0000000000000EF4: 41 8D B4 36 D6 C1  lea         esi,[r14+rsi-359D3E2Ah]
                    62 CA
  0000000000000EFC: 44 31 E0           xor         eax,r12d
  0000000000000EFF: 01 CE              add         esi,ecx
  0000000000000F01: 41 C1 C3 1E        rol         r11d,1Eh
  0000000000000F05: 01 C6              add         esi,eax
  0000000000000F07: D1 C2              rol         edx,1
  0000000000000F09: 33 6C 24 30        xor         ebp,dword ptr [rsp+30h]
  0000000000000F0D: 89 F8              mov         eax,edi
  0000000000000F0F: 89 F1              mov         ecx,esi
  0000000000000F11: 33 6C 24 38        xor         ebp,dword ptr [rsp+38h]
  0000000000000F15: 44 31 E0           xor         eax,r12d
  0000000000000F18: C1 C1 05           rol         ecx,5
  0000000000000F1B: 33 6C 24 10        xor         ebp,dword ptr [rsp+10h]
  0000000000000F1F: 46 8D AC 2A D6 C1  lea         r13d,[rdx+r13-359D3E2Ah]
                    62 CA
  0000000000000F27: 44 31 D8           xor         eax,r11d
  0000000000000F2A: 41 01 CD           add         r13d,ecx
  0000000000000F2D: C1 C7 1E           rol         edi,1Eh
  0000000000000F30: 41 01 C5           add         r13d,eax
  0000000000000F33: D1 C5              rol         ebp,1
  0000000000000F35: 44 33 74 24 34     xor         r14d,dword ptr [rsp+34h]
  0000000000000F3A: 89 F0              mov         eax,esi
  0000000000000F3C: 44 89 E9           mov         ecx,r13d
  0000000000000F3F: 44 33 74 24 3C     xor         r14d,dword ptr [rsp+3Ch]
  0000000000000F44: 44 31 D8           xor         eax,r11d
  0000000000000F47: C1 C1 05           rol         ecx,5
  0000000000000F4A: 44 33 74 24 14     xor         r14d,dword ptr [rsp+14h]
  0000000000000F4F: 46 8D A4 25 D6 C1  lea         r12d,[rbp+r12-359D3E2Ah]
                    62 CA
  0000000000000F57: 31 F8              xor         eax,edi
  0000000000000F59: 41 01 CC           add         r12d,ecx
  0000000000000F5C: C1 C6 1E           rol         esi,1Eh
  0000000000000F5F: 41 01 C4           add         r12d,eax
  0000000000000F62: 41 D1 C6           rol         r14d,1
  0000000000000F65: 33 54 24 38        xor         edx,dword ptr [rsp+38h]
  0000000000000F69: 44 89 E8           mov         eax,r13d
  0000000000000F6C: 44 89 E1           mov         ecx,r12d
  0000000000000F6F: 33 14 24           xor         edx,dword ptr [rsp]
  0000000000000F72: 31 F8              xor         eax,edi
  0000000000000F74: C1 C1 05           rol         ecx,5
  0000000000000F77: 33 54 24 18        xor         edx,dword ptr [rsp+18h]
  0000000000000F7B: 47 8D 9C 1E D6 C1  lea         r11d,[r14+r11-359D3E2Ah]
                    62 CA
  0000000000000F83: 31 F0              xor         eax,esi
  0000000000000F85: 41 01 CB           add         r11d,ecx
  0000000000000F88: 41 C1 C5 1E        rol         r13d,1Eh
  0000000000000F8C: 41 01 C3           add         r11d,eax
  0000000000000F8F: D1 C2              rol         edx,1
  0000000000000F91: 33 6C 24 3C        xor         ebp,dword ptr [rsp+3Ch]
  0000000000000F95: 44 89 E0           mov         eax,r12d
  0000000000000F98: 44 89 D9           mov         ecx,r11d
  0000000000000F9B: 33 6C 24 04        xor         ebp,dword ptr [rsp+4]
  0000000000000F9F: 31 F0              xor         eax,esi
  0000000000000FA1: C1 C1 05           rol         ecx,5
  0000000000000FA4: 33 6C 24 1C        xor         ebp,dword ptr [rsp+1Ch]
  0000000000000FA8: 8D BC 3A D6 C1 62  lea         edi,[rdx+rdi-359D3E2Ah]
                    CA
  0000000000000FAF: 44 31 E8           xor         eax,r13d
  0000000000000FB2: 01 CF              add         edi,ecx
  0000000000000FB4: 41 C1 C4 1E        rol         r12d,1Eh
  0000000000000FB8: 01 C7              add         edi,eax
  0000000000000FBA: D1 C5              rol         ebp,1
  0000000000000FBC: 44 89 D8           mov         eax,r11d
  0000000000000FBF: 89 F9              mov         ecx,edi
  0000000000000FC1: 44 31 E8           xor         eax,r13d
  0000000000000FC4: 8D B4 35 D6 C1 62  lea         esi,[rbp+rsi-359D3E2Ah]
                    CA
  0000000000000FCB: C1 C1 05           rol         ecx,5
  0000000000000FCE: 44 31 E0           xor         eax,r12d
  0000000000000FD1: 01 CE              add         esi,ecx
  0000000000000FD3: 41 C1 C3 1E        rol         r11d,1Eh
  0000000000000FD7: 01 C6              add         esi,eax
  0000000000000FD9: 41 03 30           add         esi,dword ptr [r8]
  0000000000000FDC: 41 03 78 04        add         edi,dword ptr [r8+4]
  0000000000000FE0: 45 03 58 08        add         r11d,dword ptr [r8+8]
  0000000000000FE4: 45 03 60 0C        add         r12d,dword ptr [r8+0Ch]
  0000000000000FE8: 45 03 68 10        add         r13d,dword ptr [r8+10h]
  0000000000000FEC: 41 89 30           mov         dword ptr [r8],esi
  0000000000000FEF: 41 89 78 04        mov         dword ptr [r8+4],edi
  0000000000000FF3: 45 89 58 08        mov         dword ptr [r8+8],r11d
  0000000000000FF7: 45 89 60 0C        mov         dword ptr [r8+0Ch],r12d
  0000000000000FFB: 45 89 68 10        mov         dword ptr [r8+10h],r13d
  0000000000000FFF: 49 83 EA 01        sub         r10,1
  0000000000001003: 4D 8D 49 40        lea         r9,[r9+40h]
  0000000000001007: 0F 85 43 F0 FF FF  jne         L$loop
  000000000000100D: 48 8B 74 24 40     mov         rsi,qword ptr [rsp+40h]
  0000000000001012: 4C 8B 76 D8        mov         r14,qword ptr [rsi-28h]
  0000000000001016: 4C 8B 6E E0        mov         r13,qword ptr [rsi-20h]
  000000000000101A: 4C 8B 66 E8        mov         r12,qword ptr [rsi-18h]
  000000000000101E: 48 8B 6E F0        mov         rbp,qword ptr [rsi-10h]
  0000000000001022: 48 8B 5E F8        mov         rbx,qword ptr [rsi-8]
  0000000000001026: 48 8D 26           lea         rsp,[rsi]
L$epilogue:
  0000000000001029: 48 8B 7C 24 08     mov         rdi,qword ptr [rsp+8]
  000000000000102E: 48 8B 74 24 10     mov         rsi,qword ptr [rsp+10h]
  0000000000001033: F3 C3              rep ret
L$SEH_end_sha1_block_data_order_nohw:
  0000000000001035: 90                 nop
  0000000000001036: 90                 nop
  0000000000001037: 90                 nop
  0000000000001038: 90                 nop
  0000000000001039: 90                 nop
  000000000000103A: 90                 nop
  000000000000103B: 90                 nop
  000000000000103C: 90                 nop
  000000000000103D: 90                 nop
  000000000000103E: 90                 nop
  000000000000103F: 90                 nop
aws_lc_0_21_1_sha1_block_data_order_hw:
  0000000000001040: 48 89 7C 24 08     mov         qword ptr [rsp+8],rdi
  0000000000001045: 48 89 74 24 10     mov         qword ptr [rsp+10h],rsi
  000000000000104A: 48 89 E0           mov         rax,rsp
L$SEH_begin_sha1_block_data_order_hw:
  000000000000104D: 48 89 CF           mov         rdi,rcx
  0000000000001050: 48 89 D6           mov         rsi,rdx
  0000000000001053: 4C 89 C2           mov         rdx,r8
  0000000000001056: 48 8D 64 24 B8     lea         rsp,[rsp-48h]
  000000000000105B: 0F 29 70 B8        movaps      xmmword ptr [rax-48h],xmm6
  000000000000105F: 0F 29 78 C8        movaps      xmmword ptr [rax-38h],xmm7
  0000000000001063: 44 0F 29 40 D8     movaps      xmmword ptr [rax-28h],xmm8
  0000000000001068: 44 0F 29 48 E8     movaps      xmmword ptr [rax-18h],xmm9
L$prologue_shaext:
  000000000000106D: F3 0F 6F 07        movdqu      xmm0,xmmword ptr [rdi]
  0000000000001071: 66 0F 6E 4F 10     movd        xmm1,dword ptr [rdi+10h]
  0000000000001076: 66 0F 6F 1D A0 00  movdqa      xmm3,xmmword ptr [.rdata+0A0h]
                    00 00
  000000000000107E: F3 0F 6F 26        movdqu      xmm4,xmmword ptr [rsi]
  0000000000001082: 66 0F 70 C0 1B     pshufd      xmm0,xmm0,1Bh
  0000000000001087: F3 0F 6F 6E 10     movdqu      xmm5,xmmword ptr [rsi+10h]
  000000000000108C: 66 0F 70 C9 1B     pshufd      xmm1,xmm1,1Bh
  0000000000001091: F3 0F 6F 76 20     movdqu      xmm6,xmmword ptr [rsi+20h]
  0000000000001096: 66 0F 38 00 E3     pshufb      xmm4,xmm3
  000000000000109B: F3 0F 6F 7E 30     movdqu      xmm7,xmmword ptr [rsi+30h]
  00000000000010A0: 66 0F 38 00 EB     pshufb      xmm5,xmm3
  00000000000010A5: 66 0F 38 00 F3     pshufb      xmm6,xmm3
  00000000000010AA: 66 44 0F 6F C9     movdqa      xmm9,xmm1
  00000000000010AF: 66 0F 38 00 FB     pshufb      xmm7,xmm3
  00000000000010B4: E9 07 00 00 00     jmp         L$oop_shaext
  00000000000010B9: 90                 nop
  00000000000010BA: 90                 nop
  00000000000010BB: 90                 nop
  00000000000010BC: 90                 nop
  00000000000010BD: 90                 nop
  00000000000010BE: 90                 nop
  00000000000010BF: 90                 nop
L$oop_shaext:
  00000000000010C0: 48 FF CA           dec         rdx
  00000000000010C3: 4C 8D 46 40        lea         r8,[rsi+40h]
  00000000000010C7: 66 0F FE CC        paddd       xmm1,xmm4
  00000000000010CB: 49 0F 45 F0        cmovne      rsi,r8
  00000000000010CF: 0F 18 8E 00 02 00  prefetcht0  [rsi+200h]
                    00
  00000000000010D6: 66 44 0F 6F C0     movdqa      xmm8,xmm0
  00000000000010DB: 0F 38 C9 E5        sha1msg1    xmm4,xmm5
  00000000000010DF: 66 0F 6F D0        movdqa      xmm2,xmm0
  00000000000010E3: 0F 3A CC C1 00     sha1rnds4   xmm0,xmm1,0
  00000000000010E8: 0F 38 C8 D5        sha1nexte   xmm2,xmm5
  00000000000010EC: 66 0F EF E6        pxor        xmm4,xmm6
  00000000000010F0: 0F 38 C9 EE        sha1msg1    xmm5,xmm6
  00000000000010F4: 0F 38 CA E7        sha1msg2    xmm4,xmm7
  00000000000010F8: 66 0F 6F C8        movdqa      xmm1,xmm0
  00000000000010FC: 0F 3A CC C2 00     sha1rnds4   xmm0,xmm2,0
  0000000000001101: 0F 38 C8 CE        sha1nexte   xmm1,xmm6
  0000000000001105: 66 0F EF EF        pxor        xmm5,xmm7
  0000000000001109: 0F 38 CA EC        sha1msg2    xmm5,xmm4
  000000000000110D: 0F 38 C9 F7        sha1msg1    xmm6,xmm7
  0000000000001111: 66 0F 6F D0        movdqa      xmm2,xmm0
  0000000000001115: 0F 3A CC C1 00     sha1rnds4   xmm0,xmm1,0
  000000000000111A: 0F 38 C8 D7        sha1nexte   xmm2,xmm7
  000000000000111E: 66 0F EF F4        pxor        xmm6,xmm4
  0000000000001122: 0F 38 C9 FC        sha1msg1    xmm7,xmm4
  0000000000001126: 0F 38 CA F5        sha1msg2    xmm6,xmm5
  000000000000112A: 66 0F 6F C8        movdqa      xmm1,xmm0
  000000000000112E: 0F 3A CC C2 00     sha1rnds4   xmm0,xmm2,0
  0000000000001133: 0F 38 C8 CC        sha1nexte   xmm1,xmm4
  0000000000001137: 66 0F EF FD        pxor        xmm7,xmm5
  000000000000113B: 0F 38 CA FE        sha1msg2    xmm7,xmm6
  000000000000113F: 0F 38 C9 E5        sha1msg1    xmm4,xmm5
  0000000000001143: 66 0F 6F D0        movdqa      xmm2,xmm0
  0000000000001147: 0F 3A CC C1 00     sha1rnds4   xmm0,xmm1,0
  000000000000114C: 0F 38 C8 D5        sha1nexte   xmm2,xmm5
  0000000000001150: 66 0F EF E6        pxor        xmm4,xmm6
  0000000000001154: 0F 38 C9 EE        sha1msg1    xmm5,xmm6
  0000000000001158: 0F 38 CA E7        sha1msg2    xmm4,xmm7
  000000000000115C: 66 0F 6F C8        movdqa      xmm1,xmm0
  0000000000001160: 0F 3A CC C2 01     sha1rnds4   xmm0,xmm2,1
  0000000000001165: 0F 38 C8 CE        sha1nexte   xmm1,xmm6
  0000000000001169: 66 0F EF EF        pxor        xmm5,xmm7
  000000000000116D: 0F 38 CA EC        sha1msg2    xmm5,xmm4
  0000000000001171: 0F 38 C9 F7        sha1msg1    xmm6,xmm7
  0000000000001175: 66 0F 6F D0        movdqa      xmm2,xmm0
  0000000000001179: 0F 3A CC C1 01     sha1rnds4   xmm0,xmm1,1
  000000000000117E: 0F 38 C8 D7        sha1nexte   xmm2,xmm7
  0000000000001182: 66 0F EF F4        pxor        xmm6,xmm4
  0000000000001186: 0F 38 C9 FC        sha1msg1    xmm7,xmm4
  000000000000118A: 0F 38 CA F5        sha1msg2    xmm6,xmm5
  000000000000118E: 66 0F 6F C8        movdqa      xmm1,xmm0
  0000000000001192: 0F 3A CC C2 01     sha1rnds4   xmm0,xmm2,1
  0000000000001197: 0F 38 C8 CC        sha1nexte   xmm1,xmm4
  000000000000119B: 66 0F EF FD        pxor        xmm7,xmm5
  000000000000119F: 0F 38 CA FE        sha1msg2    xmm7,xmm6
  00000000000011A3: 0F 38 C9 E5        sha1msg1    xmm4,xmm5
  00000000000011A7: 66 0F 6F D0        movdqa      xmm2,xmm0
  00000000000011AB: 0F 3A CC C1 01     sha1rnds4   xmm0,xmm1,1
  00000000000011B0: 0F 38 C8 D5        sha1nexte   xmm2,xmm5
  00000000000011B4: 66 0F EF E6        pxor        xmm4,xmm6
  00000000000011B8: 0F 38 C9 EE        sha1msg1    xmm5,xmm6
  00000000000011BC: 0F 38 CA E7        sha1msg2    xmm4,xmm7
  00000000000011C0: 66 0F 6F C8        movdqa      xmm1,xmm0
  00000000000011C4: 0F 3A CC C2 01     sha1rnds4   xmm0,xmm2,1
  00000000000011C9: 0F 38 C8 CE        sha1nexte   xmm1,xmm6
  00000000000011CD: 66 0F EF EF        pxor        xmm5,xmm7
  00000000000011D1: 0F 38 CA EC        sha1msg2    xmm5,xmm4
  00000000000011D5: 0F 38 C9 F7        sha1msg1    xmm6,xmm7
  00000000000011D9: 66 0F 6F D0        movdqa      xmm2,xmm0
  00000000000011DD: 0F 3A CC C1 02     sha1rnds4   xmm0,xmm1,2
  00000000000011E2: 0F 38 C8 D7        sha1nexte   xmm2,xmm7
  00000000000011E6: 66 0F EF F4        pxor        xmm6,xmm4
  00000000000011EA: 0F 38 C9 FC        sha1msg1    xmm7,xmm4
  00000000000011EE: 0F 38 CA F5        sha1msg2    xmm6,xmm5
  00000000000011F2: 66 0F 6F C8        movdqa      xmm1,xmm0
  00000000000011F6: 0F 3A CC C2 02     sha1rnds4   xmm0,xmm2,2
  00000000000011FB: 0F 38 C8 CC        sha1nexte   xmm1,xmm4
  00000000000011FF: 66 0F EF FD        pxor        xmm7,xmm5
  0000000000001203: 0F 38 CA FE        sha1msg2    xmm7,xmm6
  0000000000001207: 0F 38 C9 E5        sha1msg1    xmm4,xmm5
  000000000000120B: 66 0F 6F D0        movdqa      xmm2,xmm0
  000000000000120F: 0F 3A CC C1 02     sha1rnds4   xmm0,xmm1,2
  0000000000001214: 0F 38 C8 D5        sha1nexte   xmm2,xmm5
  0000000000001218: 66 0F EF E6        pxor        xmm4,xmm6
  000000000000121C: 0F 38 C9 EE        sha1msg1    xmm5,xmm6
  0000000000001220: 0F 38 CA E7        sha1msg2    xmm4,xmm7
  0000000000001224: 66 0F 6F C8        movdqa      xmm1,xmm0
  0000000000001228: 0F 3A CC C2 02     sha1rnds4   xmm0,xmm2,2
  000000000000122D: 0F 38 C8 CE        sha1nexte   xmm1,xmm6
  0000000000001231: 66 0F EF EF        pxor        xmm5,xmm7
  0000000000001235: 0F 38 CA EC        sha1msg2    xmm5,xmm4
  0000000000001239: 0F 38 C9 F7        sha1msg1    xmm6,xmm7
  000000000000123D: 66 0F 6F D0        movdqa      xmm2,xmm0
  0000000000001241: 0F 3A CC C1 02     sha1rnds4   xmm0,xmm1,2
  0000000000001246: 0F 38 C8 D7        sha1nexte   xmm2,xmm7
  000000000000124A: 66 0F EF F4        pxor        xmm6,xmm4
  000000000000124E: 0F 38 C9 FC        sha1msg1    xmm7,xmm4
  0000000000001252: 0F 38 CA F5        sha1msg2    xmm6,xmm5
  0000000000001256: 66 0F 6F C8        movdqa      xmm1,xmm0
  000000000000125A: 0F 3A CC C2 03     sha1rnds4   xmm0,xmm2,3
  000000000000125F: 0F 38 C8 CC        sha1nexte   xmm1,xmm4
  0000000000001263: 66 0F EF FD        pxor        xmm7,xmm5
  0000000000001267: 0F 38 CA FE        sha1msg2    xmm7,xmm6
  000000000000126B: F3 0F 6F 26        movdqu      xmm4,xmmword ptr [rsi]
  000000000000126F: 66 0F 6F D0        movdqa      xmm2,xmm0
  0000000000001273: 0F 3A CC C1 03     sha1rnds4   xmm0,xmm1,3
  0000000000001278: 0F 38 C8 D5        sha1nexte   xmm2,xmm5
  000000000000127C: F3 0F 6F 6E 10     movdqu      xmm5,xmmword ptr [rsi+10h]
  0000000000001281: 66 0F 38 00 E3     pshufb      xmm4,xmm3
  0000000000001286: 66 0F 6F C8        movdqa      xmm1,xmm0
  000000000000128A: 0F 3A CC C2 03     sha1rnds4   xmm0,xmm2,3
  000000000000128F: 0F 38 C8 CE        sha1nexte   xmm1,xmm6
  0000000000001293: F3 0F 6F 76 20     movdqu      xmm6,xmmword ptr [rsi+20h]
  0000000000001298: 66 0F 38 00 EB     pshufb      xmm5,xmm3
  000000000000129D: 66 0F 6F D0        movdqa      xmm2,xmm0
  00000000000012A1: 0F 3A CC C1 03     sha1rnds4   xmm0,xmm1,3
  00000000000012A6: 0F 38 C8 D7        sha1nexte   xmm2,xmm7
  00000000000012AA: F3 0F 6F 7E 30     movdqu      xmm7,xmmword ptr [rsi+30h]
  00000000000012AF: 66 0F 38 00 F3     pshufb      xmm6,xmm3
  00000000000012B4: 66 0F 6F C8        movdqa      xmm1,xmm0
  00000000000012B8: 0F 3A CC C2 03     sha1rnds4   xmm0,xmm2,3
  00000000000012BD: 41 0F 38 C8 C9     sha1nexte   xmm1,xmm9
  00000000000012C2: 66 0F 38 00 FB     pshufb      xmm7,xmm3
  00000000000012C7: 66 41 0F FE C0     paddd       xmm0,xmm8
  00000000000012CC: 66 44 0F 6F C9     movdqa      xmm9,xmm1
  00000000000012D1: 0F 85 E9 FD FF FF  jne         L$oop_shaext
  00000000000012D7: 66 0F 70 C0 1B     pshufd      xmm0,xmm0,1Bh
  00000000000012DC: 66 0F 70 C9 1B     pshufd      xmm1,xmm1,1Bh
  00000000000012E1: F3 0F 7F 07        movdqu      xmmword ptr [rdi],xmm0
  00000000000012E5: 66 0F 7E 4F 10     movd        dword ptr [rdi+10h],xmm1
  00000000000012EA: 0F 28 70 B8        movaps      xmm6,xmmword ptr [rax-48h]
  00000000000012EE: 0F 28 78 C8        movaps      xmm7,xmmword ptr [rax-38h]
  00000000000012F2: 44 0F 28 40 D8     movaps      xmm8,xmmword ptr [rax-28h]
  00000000000012F7: 44 0F 28 48 E8     movaps      xmm9,xmmword ptr [rax-18h]
  00000000000012FC: 48 89 C4           mov         rsp,rax
L$epilogue_shaext:
  00000000000012FF: 48 8B 7C 24 08     mov         rdi,qword ptr [rsp+8]
  0000000000001304: 48 8B 74 24 10     mov         rsi,qword ptr [rsp+10h]
  0000000000001309: F3 C3              rep ret
L$SEH_end_sha1_block_data_order_hw:
  000000000000130B: 90                 nop
  000000000000130C: 90                 nop
  000000000000130D: 90                 nop
  000000000000130E: 90                 nop
  000000000000130F: 90                 nop
aws_lc_0_21_1_sha1_block_data_order_ssse3:
  0000000000001310: 48 89 7C 24 08     mov         qword ptr [rsp+8],rdi
  0000000000001315: 48 89 74 24 10     mov         qword ptr [rsp+10h],rsi
  000000000000131A: 48 89 E0           mov         rax,rsp
L$SEH_begin_sha1_block_data_order_ssse3:
  000000000000131D: 48 89 CF           mov         rdi,rcx
  0000000000001320: 48 89 D6           mov         rsi,rdx
  0000000000001323: 4C 89 C2           mov         rdx,r8
  0000000000001326: 49 89 E3           mov         r11,rsp
  0000000000001329: 53                 push        rbx
  000000000000132A: 55                 push        rbp
  000000000000132B: 41 54              push        r12
  000000000000132D: 41 55              push        r13
  000000000000132F: 41 56              push        r14
  0000000000001331: 48 8D A4 24 60 FF  lea         rsp,[rsp-0A0h]
                    FF FF
  0000000000001339: 41 0F 29 B3 78 FF  movaps      xmmword ptr [r11-88h],xmm6
                    FF FF
  0000000000001341: 41 0F 29 7B 88     movaps      xmmword ptr [r11-78h],xmm7
  0000000000001346: 45 0F 29 43 98     movaps      xmmword ptr [r11-68h],xmm8
  000000000000134B: 45 0F 29 4B A8     movaps      xmmword ptr [r11-58h],xmm9
  0000000000001350: 45 0F 29 53 B8     movaps      xmmword ptr [r11-48h],xmm10
  0000000000001355: 45 0F 29 5B C8     movaps      xmmword ptr [r11-38h],xmm11
L$prologue_ssse3:
  000000000000135A: 48 83 E4 C0        and         rsp,0FFFFFFFFFFFFFFC0h
  000000000000135E: 49 89 F8           mov         r8,rdi
  0000000000001361: 49 89 F1           mov         r9,rsi
  0000000000001364: 49 89 D2           mov         r10,rdx
  0000000000001367: 49 C1 E2 06        shl         r10,6
  000000000000136B: 4D 01 CA           add         r10,r9
  000000000000136E: 4C 8D 35 40 00 00  lea         r14,[.rdata+40h]
                    00
  0000000000001375: 41 8B 00           mov         eax,dword ptr [r8]
  0000000000001378: 41 8B 58 04        mov         ebx,dword ptr [r8+4]
  000000000000137C: 41 8B 48 08        mov         ecx,dword ptr [r8+8]
  0000000000001380: 41 8B 50 0C        mov         edx,dword ptr [r8+0Ch]
  0000000000001384: 89 DE              mov         esi,ebx
  0000000000001386: 41 8B 68 10        mov         ebp,dword ptr [r8+10h]
  000000000000138A: 89 CF              mov         edi,ecx
  000000000000138C: 31 D7              xor         edi,edx
  000000000000138E: 21 FE              and         esi,edi
  0000000000001390: 66 41 0F 6F 76 40  movdqa      xmm6,xmmword ptr [r14+40h]
  0000000000001396: 66 45 0F 6F 4E C0  movdqa      xmm9,xmmword ptr [r14-40h]
  000000000000139C: F3 41 0F 6F 01     movdqu      xmm0,xmmword ptr [r9]
  00000000000013A1: F3 41 0F 6F 49 10  movdqu      xmm1,xmmword ptr [r9+10h]
  00000000000013A7: F3 41 0F 6F 51 20  movdqu      xmm2,xmmword ptr [r9+20h]
  00000000000013AD: F3 41 0F 6F 59 30  movdqu      xmm3,xmmword ptr [r9+30h]
  00000000000013B3: 66 0F 38 00 C6     pshufb      xmm0,xmm6
  00000000000013B8: 66 0F 38 00 CE     pshufb      xmm1,xmm6
  00000000000013BD: 66 0F 38 00 D6     pshufb      xmm2,xmm6
  00000000000013C2: 49 83 C1 40        add         r9,40h
  00000000000013C6: 66 41 0F FE C1     paddd       xmm0,xmm9
  00000000000013CB: 66 0F 38 00 DE     pshufb      xmm3,xmm6
  00000000000013D0: 66 41 0F FE C9     paddd       xmm1,xmm9
  00000000000013D5: 66 41 0F FE D1     paddd       xmm2,xmm9
  00000000000013DA: 66 0F 7F 04 24     movdqa      xmmword ptr [rsp],xmm0
  00000000000013DF: 66 41 0F FA C1     psubd       xmm0,xmm9
  00000000000013E4: 66 0F 7F 4C 24 10  movdqa      xmmword ptr [rsp+10h],xmm1
  00000000000013EA: 66 41 0F FA C9     psubd       xmm1,xmm9
  00000000000013EF: 66 0F 7F 54 24 20  movdqa      xmmword ptr [rsp+20h],xmm2
  00000000000013F5: 66 41 0F FA D1     psubd       xmm2,xmm9
  00000000000013FA: E9 01 00 00 00     jmp         L$oop_ssse3
  00000000000013FF: 90                 nop
L$oop_ssse3:
  0000000000001400: C1 CB 02           ror         ebx,2
  0000000000001403: 66 0F 70 E0 EE     pshufd      xmm4,xmm0,0EEh
  0000000000001408: 31 D6              xor         esi,edx
  000000000000140A: 66 44 0F 6F C3     movdqa      xmm8,xmm3
  000000000000140F: 66 44 0F FE CB     paddd       xmm9,xmm3
  0000000000001414: 89 C7              mov         edi,eax
  0000000000001416: 03 2C 24           add         ebp,dword ptr [rsp]
  0000000000001419: 66 0F 6C E1        punpcklqdq  xmm4,xmm1
  000000000000141D: 31 CB              xor         ebx,ecx
  000000000000141F: C1 C0 05           rol         eax,5
  0000000000001422: 01 F5              add         ebp,esi
  0000000000001424: 66 41 0F 73 D8 04  psrldq      xmm8,4
  000000000000142A: 21 DF              and         edi,ebx
  000000000000142C: 31 CB              xor         ebx,ecx
  000000000000142E: 66 0F EF E0        pxor        xmm4,xmm0
  0000000000001432: 01 C5              add         ebp,eax
  0000000000001434: C1 C8 07           ror         eax,7
  0000000000001437: 66 44 0F EF C2     pxor        xmm8,xmm2
  000000000000143C: 31 CF              xor         edi,ecx
  000000000000143E: 89 EE              mov         esi,ebp
  0000000000001440: 03 54 24 04        add         edx,dword ptr [rsp+4]
  0000000000001444: 66 41 0F EF E0     pxor        xmm4,xmm8
  0000000000001449: 31 D8              xor         eax,ebx
  000000000000144B: C1 C5 05           rol         ebp,5
  000000000000144E: 66 44 0F 7F 4C 24  movdqa      xmmword ptr [rsp+30h],xmm9
                    30
  0000000000001455: 01 FA              add         edx,edi
  0000000000001457: 21 C6              and         esi,eax
  0000000000001459: 66 44 0F 6F D4     movdqa      xmm10,xmm4
  000000000000145E: 31 D8              xor         eax,ebx
  0000000000001460: 01 EA              add         edx,ebp
  0000000000001462: C1 CD 07           ror         ebp,7
  0000000000001465: 66 44 0F 6F C4     movdqa      xmm8,xmm4
  000000000000146A: 31 DE              xor         esi,ebx
  000000000000146C: 66 41 0F 73 FA 0C  pslldq      xmm10,0Ch
  0000000000001472: 66 0F FE E4        paddd       xmm4,xmm4
  0000000000001476: 89 D7              mov         edi,edx
  0000000000001478: 03 4C 24 08        add         ecx,dword ptr [rsp+8]
  000000000000147C: 66 41 0F 72 D0 1F  psrld       xmm8,1Fh
  0000000000001482: 31 C5              xor         ebp,eax
  0000000000001484: C1 C2 05           rol         edx,5
  0000000000001487: 01 F1              add         ecx,esi
  0000000000001489: 66 45 0F 6F CA     movdqa      xmm9,xmm10
  000000000000148E: 21 EF              and         edi,ebp
  0000000000001490: 31 C5              xor         ebp,eax
  0000000000001492: 66 41 0F 72 D2 1E  psrld       xmm10,1Eh
  0000000000001498: 01 D1              add         ecx,edx
  000000000000149A: C1 CA 07           ror         edx,7
  000000000000149D: 66 41 0F EB E0     por         xmm4,xmm8
  00000000000014A2: 31 C7              xor         edi,eax
  00000000000014A4: 89 CE              mov         esi,ecx
  00000000000014A6: 03 5C 24 0C        add         ebx,dword ptr [rsp+0Ch]
  00000000000014AA: 66 41 0F 72 F1 02  pslld       xmm9,2
  00000000000014B0: 66 41 0F EF E2     pxor        xmm4,xmm10
  00000000000014B5: 31 EA              xor         edx,ebp
  00000000000014B7: 66 45 0F 6F 56 C0  movdqa      xmm10,xmmword ptr [r14-40h]
  00000000000014BD: C1 C1 05           rol         ecx,5
  00000000000014C0: 01 FB              add         ebx,edi
  00000000000014C2: 21 D6              and         esi,edx
  00000000000014C4: 66 41 0F EF E1     pxor        xmm4,xmm9
  00000000000014C9: 31 EA              xor         edx,ebp
  00000000000014CB: 01 CB              add         ebx,ecx
  00000000000014CD: C1 C9 07           ror         ecx,7
  00000000000014D0: 66 0F 70 E9 EE     pshufd      xmm5,xmm1,0EEh
  00000000000014D5: 31 EE              xor         esi,ebp
  00000000000014D7: 66 44 0F 6F CC     movdqa      xmm9,xmm4
  00000000000014DC: 66 44 0F FE D4     paddd       xmm10,xmm4
  00000000000014E1: 89 DF              mov         edi,ebx
  00000000000014E3: 03 44 24 10        add         eax,dword ptr [rsp+10h]
  00000000000014E7: 66 0F 6C EA        punpcklqdq  xmm5,xmm2
  00000000000014EB: 31 D1              xor         ecx,edx
  00000000000014ED: C1 C3 05           rol         ebx,5
  00000000000014F0: 01 F0              add         eax,esi
  00000000000014F2: 66 41 0F 73 D9 04  psrldq      xmm9,4
  00000000000014F8: 21 CF              and         edi,ecx
  00000000000014FA: 31 D1              xor         ecx,edx
  00000000000014FC: 66 0F EF E9        pxor        xmm5,xmm1
  0000000000001500: 01 D8              add         eax,ebx
  0000000000001502: C1 CB 07           ror         ebx,7
  0000000000001505: 66 44 0F EF CB     pxor        xmm9,xmm3
  000000000000150A: 31 D7              xor         edi,edx
  000000000000150C: 89 C6              mov         esi,eax
  000000000000150E: 03 6C 24 14        add         ebp,dword ptr [rsp+14h]
  0000000000001512: 66 41 0F EF E9     pxor        xmm5,xmm9
  0000000000001517: 31 CB              xor         ebx,ecx
  0000000000001519: C1 C0 05           rol         eax,5
  000000000000151C: 66 44 0F 7F 14 24  movdqa      xmmword ptr [rsp],xmm10
  0000000000001522: 01 FD              add         ebp,edi
  0000000000001524: 21 DE              and         esi,ebx
  0000000000001526: 66 44 0F 6F C5     movdqa      xmm8,xmm5
  000000000000152B: 31 CB              xor         ebx,ecx
  000000000000152D: 01 C5              add         ebp,eax
  000000000000152F: C1 C8 07           ror         eax,7
  0000000000001532: 66 44 0F 6F CD     movdqa      xmm9,xmm5
  0000000000001537: 31 CE              xor         esi,ecx
  0000000000001539: 66 41 0F 73 F8 0C  pslldq      xmm8,0Ch
  000000000000153F: 66 0F FE ED        paddd       xmm5,xmm5
  0000000000001543: 89 EF              mov         edi,ebp
  0000000000001545: 03 54 24 18        add         edx,dword ptr [rsp+18h]
  0000000000001549: 66 41 0F 72 D1 1F  psrld       xmm9,1Fh
  000000000000154F: 31 D8              xor         eax,ebx
  0000000000001551: C1 C5 05           rol         ebp,5
  0000000000001554: 01 F2              add         edx,esi
  0000000000001556: 66 45 0F 6F D0     movdqa      xmm10,xmm8
  000000000000155B: 21 C7              and         edi,eax
  000000000000155D: 31 D8              xor         eax,ebx
  000000000000155F: 66 41 0F 72 D0 1E  psrld       xmm8,1Eh
  0000000000001565: 01 EA              add         edx,ebp
  0000000000001567: C1 CD 07           ror         ebp,7
  000000000000156A: 66 41 0F EB E9     por         xmm5,xmm9
  000000000000156F: 31 DF              xor         edi,ebx
  0000000000001571: 89 D6              mov         esi,edx
  0000000000001573: 03 4C 24 1C        add         ecx,dword ptr [rsp+1Ch]
  0000000000001577: 66 41 0F 72 F2 02  pslld       xmm10,2
  000000000000157D: 66 41 0F EF E8     pxor        xmm5,xmm8
  0000000000001582: 31 C5              xor         ebp,eax
  0000000000001584: 66 45 0F 6F 46 E0  movdqa      xmm8,xmmword ptr [r14-20h]
  000000000000158A: C1 C2 05           rol         edx,5
  000000000000158D: 01 F9              add         ecx,edi
  000000000000158F: 21 EE              and         esi,ebp
  0000000000001591: 66 41 0F EF EA     pxor        xmm5,xmm10
  0000000000001596: 31 C5              xor         ebp,eax
  0000000000001598: 01 D1              add         ecx,edx
  000000000000159A: C1 CA 07           ror         edx,7
  000000000000159D: 66 0F 70 F2 EE     pshufd      xmm6,xmm2,0EEh
  00000000000015A2: 31 C6              xor         esi,eax
  00000000000015A4: 66 44 0F 6F D5     movdqa      xmm10,xmm5
  00000000000015A9: 66 44 0F FE C5     paddd       xmm8,xmm5
  00000000000015AE: 89 CF              mov         edi,ecx
  00000000000015B0: 03 5C 24 20        add         ebx,dword ptr [rsp+20h]
  00000000000015B4: 66 0F 6C F3        punpcklqdq  xmm6,xmm3
  00000000000015B8: 31 EA              xor         edx,ebp
  00000000000015BA: C1 C1 05           rol         ecx,5
  00000000000015BD: 01 F3              add         ebx,esi
  00000000000015BF: 66 41 0F 73 DA 04  psrldq      xmm10,4
  00000000000015C5: 21 D7              and         edi,edx
  00000000000015C7: 31 EA              xor         edx,ebp
  00000000000015C9: 66 0F EF F2        pxor        xmm6,xmm2
  00000000000015CD: 01 CB              add         ebx,ecx
  00000000000015CF: C1 C9 07           ror         ecx,7
  00000000000015D2: 66 44 0F EF D4     pxor        xmm10,xmm4
  00000000000015D7: 31 EF              xor         edi,ebp
  00000000000015D9: 89 DE              mov         esi,ebx
  00000000000015DB: 03 44 24 24        add         eax,dword ptr [rsp+24h]
  00000000000015DF: 66 41 0F EF F2     pxor        xmm6,xmm10
  00000000000015E4: 31 D1              xor         ecx,edx
  00000000000015E6: C1 C3 05           rol         ebx,5
  00000000000015E9: 66 44 0F 7F 44 24  movdqa      xmmword ptr [rsp+10h],xmm8
                    10
  00000000000015F0: 01 F8              add         eax,edi
  00000000000015F2: 21 CE              and         esi,ecx
  00000000000015F4: 66 44 0F 6F CE     movdqa      xmm9,xmm6
  00000000000015F9: 31 D1              xor         ecx,edx
  00000000000015FB: 01 D8              add         eax,ebx
  00000000000015FD: C1 CB 07           ror         ebx,7
  0000000000001600: 66 44 0F 6F D6     movdqa      xmm10,xmm6
  0000000000001605: 31 D6              xor         esi,edx
  0000000000001607: 66 41 0F 73 F9 0C  pslldq      xmm9,0Ch
  000000000000160D: 66 0F FE F6        paddd       xmm6,xmm6
  0000000000001611: 89 C7              mov         edi,eax
  0000000000001613: 03 6C 24 28        add         ebp,dword ptr [rsp+28h]
  0000000000001617: 66 41 0F 72 D2 1F  psrld       xmm10,1Fh
  000000000000161D: 31 CB              xor         ebx,ecx
  000000000000161F: C1 C0 05           rol         eax,5
  0000000000001622: 01 F5              add         ebp,esi
  0000000000001624: 66 45 0F 6F C1     movdqa      xmm8,xmm9
  0000000000001629: 21 DF              and         edi,ebx
  000000000000162B: 31 CB              xor         ebx,ecx
  000000000000162D: 66 41 0F 72 D1 1E  psrld       xmm9,1Eh
  0000000000001633: 01 C5              add         ebp,eax
  0000000000001635: C1 C8 07           ror         eax,7
  0000000000001638: 66 41 0F EB F2     por         xmm6,xmm10
  000000000000163D: 31 CF              xor         edi,ecx
  000000000000163F: 89 EE              mov         esi,ebp
  0000000000001641: 03 54 24 2C        add         edx,dword ptr [rsp+2Ch]
  0000000000001645: 66 41 0F 72 F0 02  pslld       xmm8,2
  000000000000164B: 66 41 0F EF F1     pxor        xmm6,xmm9
  0000000000001650: 31 D8              xor         eax,ebx
  0000000000001652: 66 45 0F 6F 4E E0  movdqa      xmm9,xmmword ptr [r14-20h]
  0000000000001658: C1 C5 05           rol         ebp,5
  000000000000165B: 01 FA              add         edx,edi
  000000000000165D: 21 C6              and         esi,eax
  000000000000165F: 66 41 0F EF F0     pxor        xmm6,xmm8
  0000000000001664: 31 D8              xor         eax,ebx
  0000000000001666: 01 EA              add         edx,ebp
  0000000000001668: C1 CD 07           ror         ebp,7
  000000000000166B: 66 0F 70 FB EE     pshufd      xmm7,xmm3,0EEh
  0000000000001670: 31 DE              xor         esi,ebx
  0000000000001672: 66 44 0F 6F C6     movdqa      xmm8,xmm6
  0000000000001677: 66 44 0F FE CE     paddd       xmm9,xmm6
  000000000000167C: 89 D7              mov         edi,edx
  000000000000167E: 03 4C 24 30        add         ecx,dword ptr [rsp+30h]
  0000000000001682: 66 0F 6C FC        punpcklqdq  xmm7,xmm4
  0000000000001686: 31 C5              xor         ebp,eax
  0000000000001688: C1 C2 05           rol         edx,5
  000000000000168B: 01 F1              add         ecx,esi
  000000000000168D: 66 41 0F 73 D8 04  psrldq      xmm8,4
  0000000000001693: 21 EF              and         edi,ebp
  0000000000001695: 31 C5              xor         ebp,eax
  0000000000001697: 66 0F EF FB        pxor        xmm7,xmm3
  000000000000169B: 01 D1              add         ecx,edx
  000000000000169D: C1 CA 07           ror         edx,7
  00000000000016A0: 66 44 0F EF C5     pxor        xmm8,xmm5
  00000000000016A5: 31 C7              xor         edi,eax
  00000000000016A7: 89 CE              mov         esi,ecx
  00000000000016A9: 03 5C 24 34        add         ebx,dword ptr [rsp+34h]
  00000000000016AD: 66 41 0F EF F8     pxor        xmm7,xmm8
  00000000000016B2: 31 EA              xor         edx,ebp
  00000000000016B4: C1 C1 05           rol         ecx,5
  00000000000016B7: 66 44 0F 7F 4C 24  movdqa      xmmword ptr [rsp+20h],xmm9
                    20
  00000000000016BE: 01 FB              add         ebx,edi
  00000000000016C0: 21 D6              and         esi,edx
  00000000000016C2: 66 44 0F 6F D7     movdqa      xmm10,xmm7
  00000000000016C7: 31 EA              xor         edx,ebp
  00000000000016C9: 01 CB              add         ebx,ecx
  00000000000016CB: C1 C9 07           ror         ecx,7
  00000000000016CE: 66 44 0F 6F C7     movdqa      xmm8,xmm7
  00000000000016D3: 31 EE              xor         esi,ebp
  00000000000016D5: 66 41 0F 73 FA 0C  pslldq      xmm10,0Ch
  00000000000016DB: 66 0F FE FF        paddd       xmm7,xmm7
  00000000000016DF: 89 DF              mov         edi,ebx
  00000000000016E1: 03 44 24 38        add         eax,dword ptr [rsp+38h]
  00000000000016E5: 66 41 0F 72 D0 1F  psrld       xmm8,1Fh
  00000000000016EB: 31 D1              xor         ecx,edx
  00000000000016ED: C1 C3 05           rol         ebx,5
  00000000000016F0: 01 F0              add         eax,esi
  00000000000016F2: 66 45 0F 6F CA     movdqa      xmm9,xmm10
  00000000000016F7: 21 CF              and         edi,ecx
  00000000000016F9: 31 D1              xor         ecx,edx
  00000000000016FB: 66 41 0F 72 D2 1E  psrld       xmm10,1Eh
  0000000000001701: 01 D8              add         eax,ebx
  0000000000001703: C1 CB 07           ror         ebx,7
  0000000000001706: 66 41 0F EB F8     por         xmm7,xmm8
  000000000000170B: 31 D7              xor         edi,edx
  000000000000170D: 89 C6              mov         esi,eax
  000000000000170F: 03 6C 24 3C        add         ebp,dword ptr [rsp+3Ch]
  0000000000001713: 66 41 0F 72 F1 02  pslld       xmm9,2
  0000000000001719: 66 41 0F EF FA     pxor        xmm7,xmm10
  000000000000171E: 31 CB              xor         ebx,ecx
  0000000000001720: 66 45 0F 6F 56 E0  movdqa      xmm10,xmmword ptr [r14-20h]
  0000000000001726: C1 C0 05           rol         eax,5
  0000000000001729: 01 FD              add         ebp,edi
  000000000000172B: 21 DE              and         esi,ebx
  000000000000172D: 66 41 0F EF F9     pxor        xmm7,xmm9
  0000000000001732: 66 44 0F 70 CE EE  pshufd      xmm9,xmm6,0EEh
  0000000000001738: 31 CB              xor         ebx,ecx
  000000000000173A: 01 C5              add         ebp,eax
  000000000000173C: C1 C8 07           ror         eax,7
  000000000000173F: 66 0F EF C4        pxor        xmm0,xmm4
  0000000000001743: 31 CE              xor         esi,ecx
  0000000000001745: 89 EF              mov         edi,ebp
  0000000000001747: 03 14 24           add         edx,dword ptr [rsp]
  000000000000174A: 66 44 0F 6C CF     punpcklqdq  xmm9,xmm7
  000000000000174F: 31 D8              xor         eax,ebx
  0000000000001751: C1 C5 05           rol         ebp,5
  0000000000001754: 66 0F EF C1        pxor        xmm0,xmm1
  0000000000001758: 01 F2              add         edx,esi
  000000000000175A: 21 C7              and         edi,eax
  000000000000175C: 66 45 0F 6F C2     movdqa      xmm8,xmm10
  0000000000001761: 31 D8              xor         eax,ebx
  0000000000001763: 66 44 0F FE D7     paddd       xmm10,xmm7
  0000000000001768: 01 EA              add         edx,ebp
  000000000000176A: 66 41 0F EF C1     pxor        xmm0,xmm9
  000000000000176F: C1 CD 07           ror         ebp,7
  0000000000001772: 31 DF              xor         edi,ebx
  0000000000001774: 89 D6              mov         esi,edx
  0000000000001776: 03 4C 24 04        add         ecx,dword ptr [rsp+4]
  000000000000177A: 66 44 0F 6F C8     movdqa      xmm9,xmm0
  000000000000177F: 31 C5              xor         ebp,eax
  0000000000001781: C1 C2 05           rol         edx,5
  0000000000001784: 66 44 0F 7F 54 24  movdqa      xmmword ptr [rsp+30h],xmm10
                    30
  000000000000178B: 01 F9              add         ecx,edi
  000000000000178D: 21 EE              and         esi,ebp
  000000000000178F: 31 C5              xor         ebp,eax
  0000000000001791: 66 0F 72 F0 02     pslld       xmm0,2
  0000000000001796: 01 D1              add         ecx,edx
  0000000000001798: C1 CA 07           ror         edx,7
  000000000000179B: 66 41 0F 72 D1 1E  psrld       xmm9,1Eh
  00000000000017A1: 31 C6              xor         esi,eax
  00000000000017A3: 89 CF              mov         edi,ecx
  00000000000017A5: 03 5C 24 08        add         ebx,dword ptr [rsp+8]
  00000000000017A9: 66 41 0F EB C1     por         xmm0,xmm9
  00000000000017AE: 31 EA              xor         edx,ebp
  00000000000017B0: C1 C1 05           rol         ecx,5
  00000000000017B3: 66 44 0F 70 D7 EE  pshufd      xmm10,xmm7,0EEh
  00000000000017B9: 01 F3              add         ebx,esi
  00000000000017BB: 21 D7              and         edi,edx
  00000000000017BD: 31 EA              xor         edx,ebp
  00000000000017BF: 01 CB              add         ebx,ecx
  00000000000017C1: 03 44 24 0C        add         eax,dword ptr [rsp+0Ch]
  00000000000017C5: 31 EF              xor         edi,ebp
  00000000000017C7: 89 DE              mov         esi,ebx
  00000000000017C9: C1 C3 05           rol         ebx,5
  00000000000017CC: 01 F8              add         eax,edi
  00000000000017CE: 31 D6              xor         esi,edx
  00000000000017D0: C1 C9 07           ror         ecx,7
  00000000000017D3: 01 D8              add         eax,ebx
  00000000000017D5: 66 0F EF CD        pxor        xmm1,xmm5
  00000000000017D9: 03 6C 24 10        add         ebp,dword ptr [rsp+10h]
  00000000000017DD: 31 CE              xor         esi,ecx
  00000000000017DF: 66 44 0F 6C D0     punpcklqdq  xmm10,xmm0
  00000000000017E4: 89 C7              mov         edi,eax
  00000000000017E6: C1 C0 05           rol         eax,5
  00000000000017E9: 66 0F EF CA        pxor        xmm1,xmm2
  00000000000017ED: 01 F5              add         ebp,esi
  00000000000017EF: 31 CF              xor         edi,ecx
  00000000000017F1: 66 45 0F 6F C8     movdqa      xmm9,xmm8
  00000000000017F6: C1 CB 07           ror         ebx,7
  00000000000017F9: 66 44 0F FE C0     paddd       xmm8,xmm0
  00000000000017FE: 01 C5              add         ebp,eax
  0000000000001800: 66 41 0F EF CA     pxor        xmm1,xmm10
  0000000000001805: 03 54 24 14        add         edx,dword ptr [rsp+14h]
  0000000000001809: 31 DF              xor         edi,ebx
  000000000000180B: 89 EE              mov         esi,ebp
  000000000000180D: C1 C5 05           rol         ebp,5
  0000000000001810: 66 44 0F 6F D1     movdqa      xmm10,xmm1
  0000000000001815: 01 FA              add         edx,edi
  0000000000001817: 31 DE              xor         esi,ebx
  0000000000001819: 66 44 0F 7F 04 24  movdqa      xmmword ptr [rsp],xmm8
  000000000000181F: C1 C8 07           ror         eax,7
  0000000000001822: 01 EA              add         edx,ebp
  0000000000001824: 03 4C 24 18        add         ecx,dword ptr [rsp+18h]
  0000000000001828: 66 0F 72 F1 02     pslld       xmm1,2
  000000000000182D: 31 C6              xor         esi,eax
  000000000000182F: 89 D7              mov         edi,edx
  0000000000001831: 66 41 0F 72 D2 1E  psrld       xmm10,1Eh
  0000000000001837: C1 C2 05           rol         edx,5
  000000000000183A: 01 F1              add         ecx,esi
  000000000000183C: 31 C7              xor         edi,eax
  000000000000183E: C1 CD 07           ror         ebp,7
  0000000000001841: 66 41 0F EB CA     por         xmm1,xmm10
  0000000000001846: 01 D1              add         ecx,edx
  0000000000001848: 03 5C 24 1C        add         ebx,dword ptr [rsp+1Ch]
  000000000000184C: 66 44 0F 70 C0 EE  pshufd      xmm8,xmm0,0EEh
  0000000000001852: 31 EF              xor         edi,ebp
  0000000000001854: 89 CE              mov         esi,ecx
  0000000000001856: C1 C1 05           rol         ecx,5
  0000000000001859: 01 FB              add         ebx,edi
  000000000000185B: 31 EE              xor         esi,ebp
  000000000000185D: C1 CA 07           ror         edx,7
  0000000000001860: 01 CB              add         ebx,ecx
  0000000000001862: 66 0F EF D6        pxor        xmm2,xmm6
  0000000000001866: 03 44 24 20        add         eax,dword ptr [rsp+20h]
  000000000000186A: 31 D6              xor         esi,edx
  000000000000186C: 66 44 0F 6C C1     punpcklqdq  xmm8,xmm1
  0000000000001871: 89 DF              mov         edi,ebx
  0000000000001873: C1 C3 05           rol         ebx,5
  0000000000001876: 66 0F EF D3        pxor        xmm2,xmm3
  000000000000187A: 01 F0              add         eax,esi
  000000000000187C: 31 D7              xor         edi,edx
  000000000000187E: 66 45 0F 6F 16     movdqa      xmm10,xmmword ptr [r14]
  0000000000001883: C1 C9 07           ror         ecx,7
  0000000000001886: 66 44 0F FE C9     paddd       xmm9,xmm1
  000000000000188B: 01 D8              add         eax,ebx
  000000000000188D: 66 41 0F EF D0     pxor        xmm2,xmm8
  0000000000001892: 03 6C 24 24        add         ebp,dword ptr [rsp+24h]
  0000000000001896: 31 CF              xor         edi,ecx
  0000000000001898: 89 C6              mov         esi,eax
  000000000000189A: C1 C0 05           rol         eax,5
  000000000000189D: 66 44 0F 6F C2     movdqa      xmm8,xmm2
  00000000000018A2: 01 FD              add         ebp,edi
  00000000000018A4: 31 CE              xor         esi,ecx
  00000000000018A6: 66 44 0F 7F 4C 24  movdqa      xmmword ptr [rsp+10h],xmm9
                    10
  00000000000018AD: C1 CB 07           ror         ebx,7
  00000000000018B0: 01 C5              add         ebp,eax
  00000000000018B2: 03 54 24 28        add         edx,dword ptr [rsp+28h]
  00000000000018B6: 66 0F 72 F2 02     pslld       xmm2,2
  00000000000018BB: 31 DE              xor         esi,ebx
  00000000000018BD: 89 EF              mov         edi,ebp
  00000000000018BF: 66 41 0F 72 D0 1E  psrld       xmm8,1Eh
  00000000000018C5: C1 C5 05           rol         ebp,5
  00000000000018C8: 01 F2              add         edx,esi
  00000000000018CA: 31 DF              xor         edi,ebx
  00000000000018CC: C1 C8 07           ror         eax,7
  00000000000018CF: 66 41 0F EB D0     por         xmm2,xmm8
  00000000000018D4: 01 EA              add         edx,ebp
  00000000000018D6: 03 4C 24 2C        add         ecx,dword ptr [rsp+2Ch]
  00000000000018DA: 66 44 0F 70 C9 EE  pshufd      xmm9,xmm1,0EEh
  00000000000018E0: 31 C7              xor         edi,eax
  00000000000018E2: 89 D6              mov         esi,edx
  00000000000018E4: C1 C2 05           rol         edx,5
  00000000000018E7: 01 F9              add         ecx,edi
  00000000000018E9: 31 C6              xor         esi,eax
  00000000000018EB: C1 CD 07           ror         ebp,7
  00000000000018EE: 01 D1              add         ecx,edx
  00000000000018F0: 66 0F EF DF        pxor        xmm3,xmm7
  00000000000018F4: 03 5C 24 30        add         ebx,dword ptr [rsp+30h]
  00000000000018F8: 31 EE              xor         esi,ebp
  00000000000018FA: 66 44 0F 6C CA     punpcklqdq  xmm9,xmm2
  00000000000018FF: 89 CF              mov         edi,ecx
  0000000000001901: C1 C1 05           rol         ecx,5
  0000000000001904: 66 0F EF DC        pxor        xmm3,xmm4
  0000000000001908: 01 F3              add         ebx,esi
  000000000000190A: 31 EF              xor         edi,ebp
  000000000000190C: 66 45 0F 6F C2     movdqa      xmm8,xmm10
  0000000000001911: C1 CA 07           ror         edx,7
  0000000000001914: 66 44 0F FE D2     paddd       xmm10,xmm2
  0000000000001919: 01 CB              add         ebx,ecx
  000000000000191B: 66 41 0F EF D9     pxor        xmm3,xmm9
  0000000000001920: 03 44 24 34        add         eax,dword ptr [rsp+34h]
  0000000000001924: 31 D7              xor         edi,edx
  0000000000001926: 89 DE              mov         esi,ebx
  0000000000001928: C1 C3 05           rol         ebx,5
  000000000000192B: 66 44 0F 6F CB     movdqa      xmm9,xmm3
  0000000000001930: 01 F8              add         eax,edi
  0000000000001932: 31 D6              xor         esi,edx
  0000000000001934: 66 44 0F 7F 54 24  movdqa      xmmword ptr [rsp+20h],xmm10
                    20
  000000000000193B: C1 C9 07           ror         ecx,7
  000000000000193E: 01 D8              add         eax,ebx
  0000000000001940: 03 6C 24 38        add         ebp,dword ptr [rsp+38h]
  0000000000001944: 66 0F 72 F3 02     pslld       xmm3,2
  0000000000001949: 31 CE              xor         esi,ecx
  000000000000194B: 89 C7              mov         edi,eax
  000000000000194D: 66 41 0F 72 D1 1E  psrld       xmm9,1Eh
  0000000000001953: C1 C0 05           rol         eax,5
  0000000000001956: 01 F5              add         ebp,esi
  0000000000001958: 31 CF              xor         edi,ecx
  000000000000195A: C1 CB 07           ror         ebx,7
  000000000000195D: 66 41 0F EB D9     por         xmm3,xmm9
  0000000000001962: 01 C5              add         ebp,eax
  0000000000001964: 03 54 24 3C        add         edx,dword ptr [rsp+3Ch]
  0000000000001968: 66 44 0F 70 D2 EE  pshufd      xmm10,xmm2,0EEh
  000000000000196E: 31 DF              xor         edi,ebx
  0000000000001970: 89 EE              mov         esi,ebp
  0000000000001972: C1 C5 05           rol         ebp,5
  0000000000001975: 01 FA              add         edx,edi
  0000000000001977: 31 DE              xor         esi,ebx
  0000000000001979: C1 C8 07           ror         eax,7
  000000000000197C: 01 EA              add         edx,ebp
  000000000000197E: 66 0F EF E0        pxor        xmm4,xmm0
  0000000000001982: 03 0C 24           add         ecx,dword ptr [rsp]
  0000000000001985: 31 C6              xor         esi,eax
  0000000000001987: 66 44 0F 6C D3     punpcklqdq  xmm10,xmm3
  000000000000198C: 89 D7              mov         edi,edx
  000000000000198E: C1 C2 05           rol         edx,5
  0000000000001991: 66 0F EF E5        pxor        xmm4,xmm5
  0000000000001995: 01 F1              add         ecx,esi
  0000000000001997: 31 C7              xor         edi,eax
  0000000000001999: 66 45 0F 6F C8     movdqa      xmm9,xmm8
  000000000000199E: C1 CD 07           ror         ebp,7
  00000000000019A1: 66 44 0F FE C3     paddd       xmm8,xmm3
  00000000000019A6: 01 D1              add         ecx,edx
  00000000000019A8: 66 41 0F EF E2     pxor        xmm4,xmm10
  00000000000019AD: 03 5C 24 04        add         ebx,dword ptr [rsp+4]
  00000000000019B1: 31 EF              xor         edi,ebp
  00000000000019B3: 89 CE              mov         esi,ecx
  00000000000019B5: C1 C1 05           rol         ecx,5
  00000000000019B8: 66 44 0F 6F D4     movdqa      xmm10,xmm4
  00000000000019BD: 01 FB              add         ebx,edi
  00000000000019BF: 31 EE              xor         esi,ebp
  00000000000019C1: 66 44 0F 7F 44 24  movdqa      xmmword ptr [rsp+30h],xmm8
                    30
  00000000000019C8: C1 CA 07           ror         edx,7
  00000000000019CB: 01 CB              add         ebx,ecx
  00000000000019CD: 03 44 24 08        add         eax,dword ptr [rsp+8]
  00000000000019D1: 66 0F 72 F4 02     pslld       xmm4,2
  00000000000019D6: 31 D6              xor         esi,edx
  00000000000019D8: 89 DF              mov         edi,ebx
  00000000000019DA: 66 41 0F 72 D2 1E  psrld       xmm10,1Eh
  00000000000019E0: C1 C3 05           rol         ebx,5
  00000000000019E3: 01 F0              add         eax,esi
  00000000000019E5: 31 D7              xor         edi,edx
  00000000000019E7: C1 C9 07           ror         ecx,7
  00000000000019EA: 66 41 0F EB E2     por         xmm4,xmm10
  00000000000019EF: 01 D8              add         eax,ebx
  00000000000019F1: 03 6C 24 0C        add         ebp,dword ptr [rsp+0Ch]
  00000000000019F5: 66 44 0F 70 C3 EE  pshufd      xmm8,xmm3,0EEh
  00000000000019FB: 31 CF              xor         edi,ecx
  00000000000019FD: 89 C6              mov         esi,eax
  00000000000019FF: C1 C0 05           rol         eax,5
  0000000000001A02: 01 FD              add         ebp,edi
  0000000000001A04: 31 CE              xor         esi,ecx
  0000000000001A06: C1 CB 07           ror         ebx,7
  0000000000001A09: 01 C5              add         ebp,eax
  0000000000001A0B: 66 0F EF E9        pxor        xmm5,xmm1
  0000000000001A0F: 03 54 24 10        add         edx,dword ptr [rsp+10h]
  0000000000001A13: 31 DE              xor         esi,ebx
  0000000000001A15: 66 44 0F 6C C4     punpcklqdq  xmm8,xmm4
  0000000000001A1A: 89 EF              mov         edi,ebp
  0000000000001A1C: C1 C5 05           rol         ebp,5
  0000000000001A1F: 66 0F EF EE        pxor        xmm5,xmm6
  0000000000001A23: 01 F2              add         edx,esi
  0000000000001A25: 31 DF              xor         edi,ebx
  0000000000001A27: 66 45 0F 6F D1     movdqa      xmm10,xmm9
  0000000000001A2C: C1 C8 07           ror         eax,7
  0000000000001A2F: 66 44 0F FE CC     paddd       xmm9,xmm4
  0000000000001A34: 01 EA              add         edx,ebp
  0000000000001A36: 66 41 0F EF E8     pxor        xmm5,xmm8
  0000000000001A3B: 03 4C 24 14        add         ecx,dword ptr [rsp+14h]
  0000000000001A3F: 31 C7              xor         edi,eax
  0000000000001A41: 89 D6              mov         esi,edx
  0000000000001A43: C1 C2 05           rol         edx,5
  0000000000001A46: 66 44 0F 6F C5     movdqa      xmm8,xmm5
  0000000000001A4B: 01 F9              add         ecx,edi
  0000000000001A4D: 31 C6              xor         esi,eax
  0000000000001A4F: 66 44 0F 7F 0C 24  movdqa      xmmword ptr [rsp],xmm9
  0000000000001A55: C1 CD 07           ror         ebp,7
  0000000000001A58: 01 D1              add         ecx,edx
  0000000000001A5A: 03 5C 24 18        add         ebx,dword ptr [rsp+18h]
  0000000000001A5E: 66 0F 72 F5 02     pslld       xmm5,2
  0000000000001A63: 31 EE              xor         esi,ebp
  0000000000001A65: 89 CF              mov         edi,ecx
  0000000000001A67: 66 41 0F 72 D0 1E  psrld       xmm8,1Eh
  0000000000001A6D: C1 C1 05           rol         ecx,5
  0000000000001A70: 01 F3              add         ebx,esi
  0000000000001A72: 31 EF              xor         edi,ebp
  0000000000001A74: C1 CA 07           ror         edx,7
  0000000000001A77: 66 41 0F EB E8     por         xmm5,xmm8
  0000000000001A7C: 01 CB              add         ebx,ecx
  0000000000001A7E: 03 44 24 1C        add         eax,dword ptr [rsp+1Ch]
  0000000000001A82: 66 44 0F 70 CC EE  pshufd      xmm9,xmm4,0EEh
  0000000000001A88: C1 C9 07           ror         ecx,7
  0000000000001A8B: 89 DE              mov         esi,ebx
  0000000000001A8D: 31 D7              xor         edi,edx
  0000000000001A8F: C1 C3 05           rol         ebx,5
  0000000000001A92: 01 F8              add         eax,edi
  0000000000001A94: 31 CE              xor         esi,ecx
  0000000000001A96: 31 D1              xor         ecx,edx
  0000000000001A98: 01 D8              add         eax,ebx
  0000000000001A9A: 66 0F EF F2        pxor        xmm6,xmm2
  0000000000001A9E: 03 6C 24 20        add         ebp,dword ptr [rsp+20h]
  0000000000001AA2: 21 CE              and         esi,ecx
  0000000000001AA4: 31 D1              xor         ecx,edx
  0000000000001AA6: C1 CB 07           ror         ebx,7
  0000000000001AA9: 66 44 0F 6C CD     punpcklqdq  xmm9,xmm5
  0000000000001AAE: 89 C7              mov         edi,eax
  0000000000001AB0: 31 CE              xor         esi,ecx
  0000000000001AB2: 66 0F EF F7        pxor        xmm6,xmm7
  0000000000001AB6: C1 C0 05           rol         eax,5
  0000000000001AB9: 01 F5              add         ebp,esi
  0000000000001ABB: 66 45 0F 6F C2     movdqa      xmm8,xmm10
  0000000000001AC0: 31 DF              xor         edi,ebx
  0000000000001AC2: 66 44 0F FE D5     paddd       xmm10,xmm5
  0000000000001AC7: 31 CB              xor         ebx,ecx
  0000000000001AC9: 66 41 0F EF F1     pxor        xmm6,xmm9
  0000000000001ACE: 01 C5              add         ebp,eax
  0000000000001AD0: 03 54 24 24        add         edx,dword ptr [rsp+24h]
  0000000000001AD4: 21 DF              and         edi,ebx
  0000000000001AD6: 31 CB              xor         ebx,ecx
  0000000000001AD8: C1 C8 07           ror         eax,7
  0000000000001ADB: 66 44 0F 6F CE     movdqa      xmm9,xmm6
  0000000000001AE0: 89 EE              mov         esi,ebp
  0000000000001AE2: 31 DF              xor         edi,ebx
  0000000000001AE4: 66 44 0F 7F 54 24  movdqa      xmmword ptr [rsp+10h],xmm10
                    10
  0000000000001AEB: C1 C5 05           rol         ebp,5
  0000000000001AEE: 01 FA              add         edx,edi
  0000000000001AF0: 31 C6              xor         esi,eax
  0000000000001AF2: 66 0F 72 F6 02     pslld       xmm6,2
  0000000000001AF7: 31 D8              xor         eax,ebx
  0000000000001AF9: 01 EA              add         edx,ebp
  0000000000001AFB: 66 41 0F 72 D1 1E  psrld       xmm9,1Eh
  0000000000001B01: 03 4C 24 28        add         ecx,dword ptr [rsp+28h]
  0000000000001B05: 21 C6              and         esi,eax
  0000000000001B07: 31 D8              xor         eax,ebx
  0000000000001B09: 66 41 0F EB F1     por         xmm6,xmm9
  0000000000001B0E: C1 CD 07           ror         ebp,7
  0000000000001B11: 89 D7              mov         edi,edx
  0000000000001B13: 31 C6              xor         esi,eax
  0000000000001B15: C1 C2 05           rol         edx,5
  0000000000001B18: 66 44 0F 70 D5 EE  pshufd      xmm10,xmm5,0EEh
  0000000000001B1E: 01 F1              add         ecx,esi
  0000000000001B20: 31 EF              xor         edi,ebp
  0000000000001B22: 31 C5              xor         ebp,eax
  0000000000001B24: 01 D1              add         ecx,edx
  0000000000001B26: 03 5C 24 2C        add         ebx,dword ptr [rsp+2Ch]
  0000000000001B2A: 21 EF              and         edi,ebp
  0000000000001B2C: 31 C5              xor         ebp,eax
  0000000000001B2E: C1 CA 07           ror         edx,7
  0000000000001B31: 89 CE              mov         esi,ecx
  0000000000001B33: 31 EF              xor         edi,ebp
  0000000000001B35: C1 C1 05           rol         ecx,5
  0000000000001B38: 01 FB              add         ebx,edi
  0000000000001B3A: 31 D6              xor         esi,edx
  0000000000001B3C: 31 EA              xor         edx,ebp
  0000000000001B3E: 01 CB              add         ebx,ecx
  0000000000001B40: 66 0F EF FB        pxor        xmm7,xmm3
  0000000000001B44: 03 44 24 30        add         eax,dword ptr [rsp+30h]
  0000000000001B48: 21 D6              and         esi,edx
  0000000000001B4A: 31 EA              xor         edx,ebp
  0000000000001B4C: C1 C9 07           ror         ecx,7
  0000000000001B4F: 66 44 0F 6C D6     punpcklqdq  xmm10,xmm6
  0000000000001B54: 89 DF              mov         edi,ebx
  0000000000001B56: 31 D6              xor         esi,edx
  0000000000001B58: 66 0F EF F8        pxor        xmm7,xmm0
  0000000000001B5C: C1 C3 05           rol         ebx,5
  0000000000001B5F: 01 F0              add         eax,esi
  0000000000001B61: 66 45 0F 6F 4E 20  movdqa      xmm9,xmmword ptr [r14+20h]
  0000000000001B67: 31 CF              xor         edi,ecx
  0000000000001B69: 66 44 0F FE C6     paddd       xmm8,xmm6
  0000000000001B6E: 31 D1              xor         ecx,edx
  0000000000001B70: 66 41 0F EF FA     pxor        xmm7,xmm10
  0000000000001B75: 01 D8              add         eax,ebx
  0000000000001B77: 03 6C 24 34        add         ebp,dword ptr [rsp+34h]
  0000000000001B7B: 21 CF              and         edi,ecx
  0000000000001B7D: 31 D1              xor         ecx,edx
  0000000000001B7F: C1 CB 07           ror         ebx,7
  0000000000001B82: 66 44 0F 6F D7     movdqa      xmm10,xmm7
  0000000000001B87: 89 C6              mov         esi,eax
  0000000000001B89: 31 CF              xor         edi,ecx
  0000000000001B8B: 66 44 0F 7F 44 24  movdqa      xmmword ptr [rsp+20h],xmm8
                    20
  0000000000001B92: C1 C0 05           rol         eax,5
  0000000000001B95: 01 FD              add         ebp,edi
  0000000000001B97: 31 DE              xor         esi,ebx
  0000000000001B99: 66 0F 72 F7 02     pslld       xmm7,2
  0000000000001B9E: 31 CB              xor         ebx,ecx
  0000000000001BA0: 01 C5              add         ebp,eax
  0000000000001BA2: 66 41 0F 72 D2 1E  psrld       xmm10,1Eh
  0000000000001BA8: 03 54 24 38        add         edx,dword ptr [rsp+38h]
  0000000000001BAC: 21 DE              and         esi,ebx
  0000000000001BAE: 31 CB              xor         ebx,ecx
  0000000000001BB0: 66 41 0F EB FA     por         xmm7,xmm10
  0000000000001BB5: C1 C8 07           ror         eax,7
  0000000000001BB8: 89 EF              mov         edi,ebp
  0000000000001BBA: 31 DE              xor         esi,ebx
  0000000000001BBC: C1 C5 05           rol         ebp,5
  0000000000001BBF: 66 44 0F 70 C6 EE  pshufd      xmm8,xmm6,0EEh
  0000000000001BC5: 01 F2              add         edx,esi
  0000000000001BC7: 31 C7              xor         edi,eax
  0000000000001BC9: 31 D8              xor         eax,ebx
  0000000000001BCB: 01 EA              add         edx,ebp
  0000000000001BCD: 03 4C 24 3C        add         ecx,dword ptr [rsp+3Ch]
  0000000000001BD1: 21 C7              and         edi,eax
  0000000000001BD3: 31 D8              xor         eax,ebx
  0000000000001BD5: C1 CD 07           ror         ebp,7
  0000000000001BD8: 89 D6              mov         esi,edx
  0000000000001BDA: 31 C7              xor         edi,eax
  0000000000001BDC: C1 C2 05           rol         edx,5
  0000000000001BDF: 01 F9              add         ecx,edi
  0000000000001BE1: 31 EE              xor         esi,ebp
  0000000000001BE3: 31 C5              xor         ebp,eax
  0000000000001BE5: 01 D1              add         ecx,edx
  0000000000001BE7: 66 0F EF C4        pxor        xmm0,xmm4
  0000000000001BEB: 03 1C 24           add         ebx,dword ptr [rsp]
  0000000000001BEE: 21 EE              and         esi,ebp
  0000000000001BF0: 31 C5              xor         ebp,eax
  0000000000001BF2: C1 CA 07           ror         edx,7
  0000000000001BF5: 66 44 0F 6C C7     punpcklqdq  xmm8,xmm7
  0000000000001BFA: 89 CF              mov         edi,ecx
  0000000000001BFC: 31 EE              xor         esi,ebp
  0000000000001BFE: 66 0F EF C1        pxor        xmm0,xmm1
  0000000000001C02: C1 C1 05           rol         ecx,5
  0000000000001C05: 01 F3              add         ebx,esi
  0000000000001C07: 66 45 0F 6F D1     movdqa      xmm10,xmm9
  0000000000001C0C: 31 D7              xor         edi,edx
  0000000000001C0E: 66 44 0F FE CF     paddd       xmm9,xmm7
  0000000000001C13: 31 EA              xor         edx,ebp
  0000000000001C15: 66 41 0F EF C0     pxor        xmm0,xmm8
  0000000000001C1A: 01 CB              add         ebx,ecx
  0000000000001C1C: 03 44 24 04        add         eax,dword ptr [rsp+4]
  0000000000001C20: 21 D7              and         edi,edx
  0000000000001C22: 31 EA              xor         edx,ebp
  0000000000001C24: C1 C9 07           ror         ecx,7
  0000000000001C27: 66 44 0F 6F C0     movdqa      xmm8,xmm0
  0000000000001C2C: 89 DE              mov         esi,ebx
  0000000000001C2E: 31 D7              xor         edi,edx
  0000000000001C30: 66 44 0F 7F 4C 24  movdqa      xmmword ptr [rsp+30h],xmm9
                    30
  0000000000001C37: C1 C3 05           rol         ebx,5
  0000000000001C3A: 01 F8              add         eax,edi
  0000000000001C3C: 31 CE              xor         esi,ecx
  0000000000001C3E: 66 0F 72 F0 02     pslld       xmm0,2
  0000000000001C43: 31 D1              xor         ecx,edx
  0000000000001C45: 01 D8              add         eax,ebx
  0000000000001C47: 66 41 0F 72 D0 1E  psrld       xmm8,1Eh
  0000000000001C4D: 03 6C 24 08        add         ebp,dword ptr [rsp+8]
  0000000000001C51: 21 CE              and         esi,ecx
  0000000000001C53: 31 D1              xor         ecx,edx
  0000000000001C55: 66 41 0F EB C0     por         xmm0,xmm8
  0000000000001C5A: C1 CB 07           ror         ebx,7
  0000000000001C5D: 89 C7              mov         edi,eax
  0000000000001C5F: 31 CE              xor         esi,ecx
  0000000000001C61: C1 C0 05           rol         eax,5
  0000000000001C64: 66 44 0F 70 CF EE  pshufd      xmm9,xmm7,0EEh
  0000000000001C6A: 01 F5              add         ebp,esi
  0000000000001C6C: 31 DF              xor         edi,ebx
  0000000000001C6E: 31 CB              xor         ebx,ecx
  0000000000001C70: 01 C5              add         ebp,eax
  0000000000001C72: 03 54 24 0C        add         edx,dword ptr [rsp+0Ch]
  0000000000001C76: 21 DF              and         edi,ebx
  0000000000001C78: 31 CB              xor         ebx,ecx
  0000000000001C7A: C1 C8 07           ror         eax,7
  0000000000001C7D: 89 EE              mov         esi,ebp
  0000000000001C7F: 31 DF              xor         edi,ebx
  0000000000001C81: C1 C5 05           rol         ebp,5
  0000000000001C84: 01 FA              add         edx,edi
  0000000000001C86: 31 C6              xor         esi,eax
  0000000000001C88: 31 D8              xor         eax,ebx
  0000000000001C8A: 01 EA              add         edx,ebp
  0000000000001C8C: 66 0F EF CD        pxor        xmm1,xmm5
  0000000000001C90: 03 4C 24 10        add         ecx,dword ptr [rsp+10h]
  0000000000001C94: 21 C6              and         esi,eax
  0000000000001C96: 31 D8              xor         eax,ebx
  0000000000001C98: C1 CD 07           ror         ebp,7
  0000000000001C9B: 66 44 0F 6C C8     punpcklqdq  xmm9,xmm0
  0000000000001CA0: 89 D7              mov         edi,edx
  0000000000001CA2: 31 C6              xor         esi,eax
  0000000000001CA4: 66 0F EF CA        pxor        xmm1,xmm2
  0000000000001CA8: C1 C2 05           rol         edx,5
  0000000000001CAB: 01 F1              add         ecx,esi
  0000000000001CAD: 66 45 0F 6F C2     movdqa      xmm8,xmm10
  0000000000001CB2: 31 EF              xor         edi,ebp
  0000000000001CB4: 66 44 0F FE D0     paddd       xmm10,xmm0
  0000000000001CB9: 31 C5              xor         ebp,eax
  0000000000001CBB: 66 41 0F EF C9     pxor        xmm1,xmm9
  0000000000001CC0: 01 D1              add         ecx,edx
  0000000000001CC2: 03 5C 24 14        add         ebx,dword ptr [rsp+14h]
  0000000000001CC6: 21 EF              and         edi,ebp
  0000000000001CC8: 31 C5              xor         ebp,eax
  0000000000001CCA: C1 CA 07           ror         edx,7
  0000000000001CCD: 66 44 0F 6F C9     movdqa      xmm9,xmm1
  0000000000001CD2: 89 CE              mov         esi,ecx
  0000000000001CD4: 31 EF              xor         edi,ebp
  0000000000001CD6: 66 44 0F 7F 14 24  movdqa      xmmword ptr [rsp],xmm10
  0000000000001CDC: C1 C1 05           rol         ecx,5
  0000000000001CDF: 01 FB              add         ebx,edi
  0000000000001CE1: 31 D6              xor         esi,edx
  0000000000001CE3: 66 0F 72 F1 02     pslld       xmm1,2
  0000000000001CE8: 31 EA              xor         edx,ebp
  0000000000001CEA: 01 CB              add         ebx,ecx
  0000000000001CEC: 66 41 0F 72 D1 1E  psrld       xmm9,1Eh
  0000000000001CF2: 03 44 24 18        add         eax,dword ptr [rsp+18h]
  0000000000001CF6: 21 D6              and         esi,edx
  0000000000001CF8: 31 EA              xor         edx,ebp
  0000000000001CFA: 66 41 0F EB C9     por         xmm1,xmm9
  0000000000001CFF: C1 C9 07           ror         ecx,7
  0000000000001D02: 89 DF              mov         edi,ebx
  0000000000001D04: 31 D6              xor         esi,edx
  0000000000001D06: C1 C3 05           rol         ebx,5
  0000000000001D09: 66 44 0F 70 D0 EE  pshufd      xmm10,xmm0,0EEh
  0000000000001D0F: 01 F0              add         eax,esi
  0000000000001D11: 31 CF              xor         edi,ecx
  0000000000001D13: 31 D1              xor         ecx,edx
  0000000000001D15: 01 D8              add         eax,ebx
  0000000000001D17: 03 6C 24 1C        add         ebp,dword ptr [rsp+1Ch]
  0000000000001D1B: 21 CF              and         edi,ecx
  0000000000001D1D: 31 D1              xor         ecx,edx
  0000000000001D1F: C1 CB 07           ror         ebx,7
  0000000000001D22: 89 C6              mov         esi,eax
  0000000000001D24: 31 CF              xor         edi,ecx
  0000000000001D26: C1 C0 05           rol         eax,5
  0000000000001D29: 01 FD              add         ebp,edi
  0000000000001D2B: 31 DE              xor         esi,ebx
  0000000000001D2D: 31 CB              xor         ebx,ecx
  0000000000001D2F: 01 C5              add         ebp,eax
  0000000000001D31: 66 0F EF D6        pxor        xmm2,xmm6
  0000000000001D35: 03 54 24 20        add         edx,dword ptr [rsp+20h]
  0000000000001D39: 21 DE              and         esi,ebx
  0000000000001D3B: 31 CB              xor         ebx,ecx
  0000000000001D3D: C1 C8 07           ror         eax,7
  0000000000001D40: 66 44 0F 6C D1     punpcklqdq  xmm10,xmm1
  0000000000001D45: 89 EF              mov         edi,ebp
  0000000000001D47: 31 DE              xor         esi,ebx
  0000000000001D49: 66 0F EF D3        pxor        xmm2,xmm3
  0000000000001D4D: C1 C5 05           rol         ebp,5
  0000000000001D50: 01 F2              add         edx,esi
  0000000000001D52: 66 45 0F 6F C8     movdqa      xmm9,xmm8
  0000000000001D57: 31 C7              xor         edi,eax
  0000000000001D59: 66 44 0F FE C1     paddd       xmm8,xmm1
  0000000000001D5E: 31 D8              xor         eax,ebx
  0000000000001D60: 66 41 0F EF D2     pxor        xmm2,xmm10
  0000000000001D65: 01 EA              add         edx,ebp
  0000000000001D67: 03 4C 24 24        add         ecx,dword ptr [rsp+24h]
  0000000000001D6B: 21 C7              and         edi,eax
  0000000000001D6D: 31 D8              xor         eax,ebx
  0000000000001D6F: C1 CD 07           ror         ebp,7
  0000000000001D72: 66 44 0F 6F D2     movdqa      xmm10,xmm2
  0000000000001D77: 89 D6              mov         esi,edx
  0000000000001D79: 31 C7              xor         edi,eax
  0000000000001D7B: 66 44 0F 7F 44 24  movdqa      xmmword ptr [rsp+10h],xmm8
                    10
  0000000000001D82: C1 C2 05           rol         edx,5
  0000000000001D85: 01 F9              add         ecx,edi
  0000000000001D87: 31 EE              xor         esi,ebp
  0000000000001D89: 66 0F 72 F2 02     pslld       xmm2,2
  0000000000001D8E: 31 C5              xor         ebp,eax
  0000000000001D90: 01 D1              add         ecx,edx
  0000000000001D92: 66 41 0F 72 D2 1E  psrld       xmm10,1Eh
  0000000000001D98: 03 5C 24 28        add         ebx,dword ptr [rsp+28h]
  0000000000001D9C: 21 EE              and         esi,ebp
  0000000000001D9E: 31 C5              xor         ebp,eax
  0000000000001DA0: 66 41 0F EB D2     por         xmm2,xmm10
  0000000000001DA5: C1 CA 07           ror         edx,7
  0000000000001DA8: 89 CF              mov         edi,ecx
  0000000000001DAA: 31 EE              xor         esi,ebp
  0000000000001DAC: C1 C1 05           rol         ecx,5
  0000000000001DAF: 66 44 0F 70 C1 EE  pshufd      xmm8,xmm1,0EEh
  0000000000001DB5: 01 F3              add         ebx,esi
  0000000000001DB7: 31 D7              xor         edi,edx
  0000000000001DB9: 31 EA              xor         edx,ebp
  0000000000001DBB: 01 CB              add         ebx,ecx
  0000000000001DBD: 03 44 24 2C        add         eax,dword ptr [rsp+2Ch]
  0000000000001DC1: 21 D7              and         edi,edx
  0000000000001DC3: 31 EA              xor         edx,ebp
  0000000000001DC5: C1 C9 07           ror         ecx,7
  0000000000001DC8: 89 DE              mov         esi,ebx
  0000000000001DCA: 31 D7              xor         edi,edx
  0000000000001DCC: C1 C3 05           rol         ebx,5
  0000000000001DCF: 01 F8              add         eax,edi
  0000000000001DD1: 31 D6              xor         esi,edx
  0000000000001DD3: 01 D8              add         eax,ebx
  0000000000001DD5: 66 0F EF DF        pxor        xmm3,xmm7
  0000000000001DD9: 03 6C 24 30        add         ebp,dword ptr [rsp+30h]
  0000000000001DDD: 31 CE              xor         esi,ecx
  0000000000001DDF: 66 44 0F 6C C2     punpcklqdq  xmm8,xmm2
  0000000000001DE4: 89 C7              mov         edi,eax
  0000000000001DE6: C1 C0 05           rol         eax,5
  0000000000001DE9: 66 0F EF DC        pxor        xmm3,xmm4
  0000000000001DED: 01 F5              add         ebp,esi
  0000000000001DEF: 31 CF              xor         edi,ecx
  0000000000001DF1: 66 45 0F 6F D1     movdqa      xmm10,xmm9
  0000000000001DF6: C1 CB 07           ror         ebx,7
  0000000000001DF9: 66 44 0F FE CA     paddd       xmm9,xmm2
  0000000000001DFE: 01 C5              add         ebp,eax
  0000000000001E00: 66 41 0F EF D8     pxor        xmm3,xmm8
  0000000000001E05: 03 54 24 34        add         edx,dword ptr [rsp+34h]
  0000000000001E09: 31 DF              xor         edi,ebx
  0000000000001E0B: 89 EE              mov         esi,ebp
  0000000000001E0D: C1 C5 05           rol         ebp,5
  0000000000001E10: 66 44 0F 6F C3     movdqa      xmm8,xmm3
  0000000000001E15: 01 FA              add         edx,edi
  0000000000001E17: 31 DE              xor         esi,ebx
  0000000000001E19: 66 44 0F 7F 4C 24  movdqa      xmmword ptr [rsp+20h],xmm9
                    20
  0000000000001E20: C1 C8 07           ror         eax,7
  0000000000001E23: 01 EA              add         edx,ebp
  0000000000001E25: 03 4C 24 38        add         ecx,dword ptr [rsp+38h]
  0000000000001E29: 66 0F 72 F3 02     pslld       xmm3,2
  0000000000001E2E: 31 C6              xor         esi,eax
  0000000000001E30: 89 D7              mov         edi,edx
  0000000000001E32: 66 41 0F 72 D0 1E  psrld       xmm8,1Eh
  0000000000001E38: C1 C2 05           rol         edx,5
  0000000000001E3B: 01 F1              add         ecx,esi
  0000000000001E3D: 31 C7              xor         edi,eax
  0000000000001E3F: C1 CD 07           ror         ebp,7
  0000000000001E42: 66 41 0F EB D8     por         xmm3,xmm8
  0000000000001E47: 01 D1              add         ecx,edx
  0000000000001E49: 03 5C 24 3C        add         ebx,dword ptr [rsp+3Ch]
  0000000000001E4D: 31 EF              xor         edi,ebp
  0000000000001E4F: 89 CE              mov         esi,ecx
  0000000000001E51: C1 C1 05           rol         ecx,5
  0000000000001E54: 01 FB              add         ebx,edi
  0000000000001E56: 31 EE              xor         esi,ebp
  0000000000001E58: C1 CA 07           ror         edx,7
  0000000000001E5B: 01 CB              add         ebx,ecx
  0000000000001E5D: 03 04 24           add         eax,dword ptr [rsp]
  0000000000001E60: 31 D6              xor         esi,edx
  0000000000001E62: 89 DF              mov         edi,ebx
  0000000000001E64: C1 C3 05           rol         ebx,5
  0000000000001E67: 66 44 0F FE D3     paddd       xmm10,xmm3
  0000000000001E6C: 01 F0              add         eax,esi
  0000000000001E6E: 31 D7              xor         edi,edx
  0000000000001E70: 66 44 0F 7F 54 24  movdqa      xmmword ptr [rsp+30h],xmm10
                    30
  0000000000001E77: C1 C9 07           ror         ecx,7
  0000000000001E7A: 01 D8              add         eax,ebx
  0000000000001E7C: 03 6C 24 04        add         ebp,dword ptr [rsp+4]
  0000000000001E80: 31 CF              xor         edi,ecx
  0000000000001E82: 89 C6              mov         esi,eax
  0000000000001E84: C1 C0 05           rol         eax,5
  0000000000001E87: 01 FD              add         ebp,edi
  0000000000001E89: 31 CE              xor         esi,ecx
  0000000000001E8B: C1 CB 07           ror         ebx,7
  0000000000001E8E: 01 C5              add         ebp,eax
  0000000000001E90: 03 54 24 08        add         edx,dword ptr [rsp+8]
  0000000000001E94: 31 DE              xor         esi,ebx
  0000000000001E96: 89 EF              mov         edi,ebp
  0000000000001E98: C1 C5 05           rol         ebp,5
  0000000000001E9B: 01 F2              add         edx,esi
  0000000000001E9D: 31 DF              xor         edi,ebx
  0000000000001E9F: C1 C8 07           ror         eax,7
  0000000000001EA2: 01 EA              add         edx,ebp
  0000000000001EA4: 03 4C 24 0C        add         ecx,dword ptr [rsp+0Ch]
  0000000000001EA8: 31 C7              xor         edi,eax
  0000000000001EAA: 89 D6              mov         esi,edx
  0000000000001EAC: C1 C2 05           rol         edx,5
  0000000000001EAF: 01 F9              add         ecx,edi
  0000000000001EB1: 31 C6              xor         esi,eax
  0000000000001EB3: C1 CD 07           ror         ebp,7
  0000000000001EB6: 01 D1              add         ecx,edx
  0000000000001EB8: 4D 39 D1           cmp         r9,r10
  0000000000001EBB: 0F 84 8F 01 00 00  je          L$done_ssse3
  0000000000001EC1: 66 41 0F 6F 76 40  movdqa      xmm6,xmmword ptr [r14+40h]
  0000000000001EC7: 66 45 0F 6F 4E C0  movdqa      xmm9,xmmword ptr [r14-40h]
  0000000000001ECD: F3 41 0F 6F 01     movdqu      xmm0,xmmword ptr [r9]
  0000000000001ED2: F3 41 0F 6F 49 10  movdqu      xmm1,xmmword ptr [r9+10h]
  0000000000001ED8: F3 41 0F 6F 51 20  movdqu      xmm2,xmmword ptr [r9+20h]
  0000000000001EDE: F3 41 0F 6F 59 30  movdqu      xmm3,xmmword ptr [r9+30h]
  0000000000001EE4: 66 0F 38 00 C6     pshufb      xmm0,xmm6
  0000000000001EE9: 49 83 C1 40        add         r9,40h
  0000000000001EED: 03 5C 24 10        add         ebx,dword ptr [rsp+10h]
  0000000000001EF1: 31 EE              xor         esi,ebp
  0000000000001EF3: 89 CF              mov         edi,ecx
  0000000000001EF5: 66 0F 38 00 CE     pshufb      xmm1,xmm6
  0000000000001EFA: C1 C1 05           rol         ecx,5
  0000000000001EFD: 01 F3              add         ebx,esi
  0000000000001EFF: 31 EF              xor         edi,ebp
  0000000000001F01: C1 CA 07           ror         edx,7
  0000000000001F04: 66 41 0F FE C1     paddd       xmm0,xmm9
  0000000000001F09: 01 CB              add         ebx,ecx
  0000000000001F0B: 03 44 24 14        add         eax,dword ptr [rsp+14h]
  0000000000001F0F: 31 D7              xor         edi,edx
  0000000000001F11: 89 DE              mov         esi,ebx
  0000000000001F13: 66 0F 7F 04 24     movdqa      xmmword ptr [rsp],xmm0
  0000000000001F18: C1 C3 05           rol         ebx,5
  0000000000001F1B: 01 F8              add         eax,edi
  0000000000001F1D: 31 D6              xor         esi,edx
  0000000000001F1F: C1 C9 07           ror         ecx,7
  0000000000001F22: 66 41 0F FA C1     psubd       xmm0,xmm9
  0000000000001F27: 01 D8              add         eax,ebx
  0000000000001F29: 03 6C 24 18        add         ebp,dword ptr [rsp+18h]
  0000000000001F2D: 31 CE              xor         esi,ecx
  0000000000001F2F: 89 C7              mov         edi,eax
  0000000000001F31: C1 C0 05           rol         eax,5
  0000000000001F34: 01 F5              add         ebp,esi
  0000000000001F36: 31 CF              xor         edi,ecx
  0000000000001F38: C1 CB 07           ror         ebx,7
  0000000000001F3B: 01 C5              add         ebp,eax
  0000000000001F3D: 03 54 24 1C        add         edx,dword ptr [rsp+1Ch]
  0000000000001F41: 31 DF              xor         edi,ebx
  0000000000001F43: 89 EE              mov         esi,ebp
  0000000000001F45: C1 C5 05           rol         ebp,5
  0000000000001F48: 01 FA              add         edx,edi
  0000000000001F4A: 31 DE              xor         esi,ebx
  0000000000001F4C: C1 C8 07           ror         eax,7
  0000000000001F4F: 01 EA              add         edx,ebp
  0000000000001F51: 03 4C 24 20        add         ecx,dword ptr [rsp+20h]
  0000000000001F55: 31 C6              xor         esi,eax
  0000000000001F57: 89 D7              mov         edi,edx
  0000000000001F59: 66 0F 38 00 D6     pshufb      xmm2,xmm6
  0000000000001F5E: C1 C2 05           rol         edx,5
  0000000000001F61: 01 F1              add         ecx,esi
  0000000000001F63: 31 C7              xor         edi,eax
  0000000000001F65: C1 CD 07           ror         ebp,7
  0000000000001F68: 66 41 0F FE C9     paddd       xmm1,xmm9
  0000000000001F6D: 01 D1              add         ecx,edx
  0000000000001F6F: 03 5C 24 24        add         ebx,dword ptr [rsp+24h]
  0000000000001F73: 31 EF              xor         edi,ebp
  0000000000001F75: 89 CE              mov         esi,ecx
  0000000000001F77: 66 0F 7F 4C 24 10  movdqa      xmmword ptr [rsp+10h],xmm1
  0000000000001F7D: C1 C1 05           rol         ecx,5
  0000000000001F80: 01 FB              add         ebx,edi
  0000000000001F82: 31 EE              xor         esi,ebp
  0000000000001F84: C1 CA 07           ror         edx,7
  0000000000001F87: 66 41 0F FA C9     psubd       xmm1,xmm9
  0000000000001F8C: 01 CB              add         ebx,ecx
  0000000000001F8E: 03 44 24 28        add         eax,dword ptr [rsp+28h]
  0000000000001F92: 31 D6              xor         esi,edx
  0000000000001F94: 89 DF              mov         edi,ebx
  0000000000001F96: C1 C3 05           rol         ebx,5
  0000000000001F99: 01 F0              add         eax,esi
  0000000000001F9B: 31 D7              xor         edi,edx
  0000000000001F9D: C1 C9 07           ror         ecx,7
  0000000000001FA0: 01 D8              add         eax,ebx
  0000000000001FA2: 03 6C 24 2C        add         ebp,dword ptr [rsp+2Ch]
  0000000000001FA6: 31 CF              xor         edi,ecx
  0000000000001FA8: 89 C6              mov         esi,eax
  0000000000001FAA: C1 C0 05           rol         eax,5
  0000000000001FAD: 01 FD              add         ebp,edi
  0000000000001FAF: 31 CE              xor         esi,ecx
  0000000000001FB1: C1 CB 07           ror         ebx,7
  0000000000001FB4: 01 C5              add         ebp,eax
  0000000000001FB6: 03 54 24 30        add         edx,dword ptr [rsp+30h]
  0000000000001FBA: 31 DE              xor         esi,ebx
  0000000000001FBC: 89 EF              mov         edi,ebp
  0000000000001FBE: 66 0F 38 00 DE     pshufb      xmm3,xmm6
  0000000000001FC3: C1 C5 05           rol         ebp,5
  0000000000001FC6: 01 F2              add         edx,esi
  0000000000001FC8: 31 DF              xor         edi,ebx
  0000000000001FCA: C1 C8 07           ror         eax,7
  0000000000001FCD: 66 41 0F FE D1     paddd       xmm2,xmm9
  0000000000001FD2: 01 EA              add         edx,ebp
  0000000000001FD4: 03 4C 24 34        add         ecx,dword ptr [rsp+34h]
  0000000000001FD8: 31 C7              xor         edi,eax
  0000000000001FDA: 89 D6              mov         esi,edx
  0000000000001FDC: 66 0F 7F 54 24 20  movdqa      xmmword ptr [rsp+20h],xmm2
  0000000000001FE2: C1 C2 05           rol         edx,5
  0000000000001FE5: 01 F9              add         ecx,edi
  0000000000001FE7: 31 C6              xor         esi,eax
  0000000000001FE9: C1 CD 07           ror         ebp,7
  0000000000001FEC: 66 41 0F FA D1     psubd       xmm2,xmm9
  0000000000001FF1: 01 D1              add         ecx,edx
  0000000000001FF3: 03 5C 24 38        add         ebx,dword ptr [rsp+38h]
  0000000000001FF7: 31 EE              xor         esi,ebp
  0000000000001FF9: 89 CF              mov         edi,ecx
  0000000000001FFB: C1 C1 05           rol         ecx,5
  0000000000001FFE: 01 F3              add         ebx,esi
  0000000000002000: 31 EF              xor         edi,ebp
  0000000000002002: C1 CA 07           ror         edx,7
  0000000000002005: 01 CB              add         ebx,ecx
  0000000000002007: 03 44 24 3C        add         eax,dword ptr [rsp+3Ch]
  000000000000200B: 31 D7              xor         edi,edx
  000000000000200D: 89 DE              mov         esi,ebx
  000000000000200F: C1 C3 05           rol         ebx,5
  0000000000002012: 01 F8              add         eax,edi
  0000000000002014: C1 C9 07           ror         ecx,7
  0000000000002017: 01 D8              add         eax,ebx
  0000000000002019: 41 03 00           add         eax,dword ptr [r8]
  000000000000201C: 41 03 70 04        add         esi,dword ptr [r8+4]
  0000000000002020: 41 03 48 08        add         ecx,dword ptr [r8+8]
  0000000000002024: 41 03 50 0C        add         edx,dword ptr [r8+0Ch]
  0000000000002028: 41 89 00           mov         dword ptr [r8],eax
  000000000000202B: 41 03 68 10        add         ebp,dword ptr [r8+10h]
  000000000000202F: 41 89 70 04        mov         dword ptr [r8+4],esi
  0000000000002033: 89 F3              mov         ebx,esi
  0000000000002035: 41 89 48 08        mov         dword ptr [r8+8],ecx
  0000000000002039: 89 CF              mov         edi,ecx
  000000000000203B: 41 89 50 0C        mov         dword ptr [r8+0Ch],edx
  000000000000203F: 31 D7              xor         edi,edx
  0000000000002041: 41 89 68 10        mov         dword ptr [r8+10h],ebp
  0000000000002045: 21 FE              and         esi,edi
  0000000000002047: E9 B4 F3 FF FF     jmp         L$oop_ssse3
  000000000000204C: 90                 nop
  000000000000204D: 90                 nop
  000000000000204E: 90                 nop
  000000000000204F: 90                 nop
L$done_ssse3:
  0000000000002050: 03 5C 24 10        add         ebx,dword ptr [rsp+10h]
  0000000000002054: 31 EE              xor         esi,ebp
  0000000000002056: 89 CF              mov         edi,ecx
  0000000000002058: C1 C1 05           rol         ecx,5
  000000000000205B: 01 F3              add         ebx,esi
  000000000000205D: 31 EF              xor         edi,ebp
  000000000000205F: C1 CA 07           ror         edx,7
  0000000000002062: 01 CB              add         ebx,ecx
  0000000000002064: 03 44 24 14        add         eax,dword ptr [rsp+14h]
  0000000000002068: 31 D7              xor         edi,edx
  000000000000206A: 89 DE              mov         esi,ebx
  000000000000206C: C1 C3 05           rol         ebx,5
  000000000000206F: 01 F8              add         eax,edi
  0000000000002071: 31 D6              xor         esi,edx
  0000000000002073: C1 C9 07           ror         ecx,7
  0000000000002076: 01 D8              add         eax,ebx
  0000000000002078: 03 6C 24 18        add         ebp,dword ptr [rsp+18h]
  000000000000207C: 31 CE              xor         esi,ecx
  000000000000207E: 89 C7              mov         edi,eax
  0000000000002080: C1 C0 05           rol         eax,5
  0000000000002083: 01 F5              add         ebp,esi
  0000000000002085: 31 CF              xor         edi,ecx
  0000000000002087: C1 CB 07           ror         ebx,7
  000000000000208A: 01 C5              add         ebp,eax
  000000000000208C: 03 54 24 1C        add         edx,dword ptr [rsp+1Ch]
  0000000000002090: 31 DF              xor         edi,ebx
  0000000000002092: 89 EE              mov         esi,ebp
  0000000000002094: C1 C5 05           rol         ebp,5
  0000000000002097: 01 FA              add         edx,edi
  0000000000002099: 31 DE              xor         esi,ebx
  000000000000209B: C1 C8 07           ror         eax,7
  000000000000209E: 01 EA              add         edx,ebp
  00000000000020A0: 03 4C 24 20        add         ecx,dword ptr [rsp+20h]
  00000000000020A4: 31 C6              xor         esi,eax
  00000000000020A6: 89 D7              mov         edi,edx
  00000000000020A8: C1 C2 05           rol         edx,5
  00000000000020AB: 01 F1              add         ecx,esi
  00000000000020AD: 31 C7              xor         edi,eax
  00000000000020AF: C1 CD 07           ror         ebp,7
  00000000000020B2: 01 D1              add         ecx,edx
  00000000000020B4: 03 5C 24 24        add         ebx,dword ptr [rsp+24h]
  00000000000020B8: 31 EF              xor         edi,ebp
  00000000000020BA: 89 CE              mov         esi,ecx
  00000000000020BC: C1 C1 05           rol         ecx,5
  00000000000020BF: 01 FB              add         ebx,edi
  00000000000020C1: 31 EE              xor         esi,ebp
  00000000000020C3: C1 CA 07           ror         edx,7
  00000000000020C6: 01 CB              add         ebx,ecx
  00000000000020C8: 03 44 24 28        add         eax,dword ptr [rsp+28h]
  00000000000020CC: 31 D6              xor         esi,edx
  00000000000020CE: 89 DF              mov         edi,ebx
  00000000000020D0: C1 C3 05           rol         ebx,5
  00000000000020D3: 01 F0              add         eax,esi
  00000000000020D5: 31 D7              xor         edi,edx
  00000000000020D7: C1 C9 07           ror         ecx,7
  00000000000020DA: 01 D8              add         eax,ebx
  00000000000020DC: 03 6C 24 2C        add         ebp,dword ptr [rsp+2Ch]
  00000000000020E0: 31 CF              xor         edi,ecx
  00000000000020E2: 89 C6              mov         esi,eax
  00000000000020E4: C1 C0 05           rol         eax,5
  00000000000020E7: 01 FD              add         ebp,edi
  00000000000020E9: 31 CE              xor         esi,ecx
  00000000000020EB: C1 CB 07           ror         ebx,7
  00000000000020EE: 01 C5              add         ebp,eax
  00000000000020F0: 03 54 24 30        add         edx,dword ptr [rsp+30h]
  00000000000020F4: 31 DE              xor         esi,ebx
  00000000000020F6: 89 EF              mov         edi,ebp
  00000000000020F8: C1 C5 05           rol         ebp,5
  00000000000020FB: 01 F2              add         edx,esi
  00000000000020FD: 31 DF              xor         edi,ebx
  00000000000020FF: C1 C8 07           ror         eax,7
  0000000000002102: 01 EA              add         edx,ebp
  0000000000002104: 03 4C 24 34        add         ecx,dword ptr [rsp+34h]
  0000000000002108: 31 C7              xor         edi,eax
  000000000000210A: 89 D6              mov         esi,edx
  000000000000210C: C1 C2 05           rol         edx,5
  000000000000210F: 01 F9              add         ecx,edi
  0000000000002111: 31 C6              xor         esi,eax
  0000000000002113: C1 CD 07           ror         ebp,7
  0000000000002116: 01 D1              add         ecx,edx
  0000000000002118: 03 5C 24 38        add         ebx,dword ptr [rsp+38h]
  000000000000211C: 31 EE              xor         esi,ebp
  000000000000211E: 89 CF              mov         edi,ecx
  0000000000002120: C1 C1 05           rol         ecx,5
  0000000000002123: 01 F3              add         ebx,esi
  0000000000002125: 31 EF              xor         edi,ebp
  0000000000002127: C1 CA 07           ror         edx,7
  000000000000212A: 01 CB              add         ebx,ecx
  000000000000212C: 03 44 24 3C        add         eax,dword ptr [rsp+3Ch]
  0000000000002130: 31 D7              xor         edi,edx
  0000000000002132: 89 DE              mov         esi,ebx
  0000000000002134: C1 C3 05           rol         ebx,5
  0000000000002137: 01 F8              add         eax,edi
  0000000000002139: C1 C9 07           ror         ecx,7
  000000000000213C: 01 D8              add         eax,ebx
  000000000000213E: 41 03 00           add         eax,dword ptr [r8]
  0000000000002141: 41 03 70 04        add         esi,dword ptr [r8+4]
  0000000000002145: 41 03 48 08        add         ecx,dword ptr [r8+8]
  0000000000002149: 41 89 00           mov         dword ptr [r8],eax
  000000000000214C: 41 03 50 0C        add         edx,dword ptr [r8+0Ch]
  0000000000002150: 41 89 70 04        mov         dword ptr [r8+4],esi
  0000000000002154: 41 03 68 10        add         ebp,dword ptr [r8+10h]
  0000000000002158: 41 89 48 08        mov         dword ptr [r8+8],ecx
  000000000000215C: 41 89 50 0C        mov         dword ptr [r8+0Ch],edx
  0000000000002160: 41 89 68 10        mov         dword ptr [r8+10h],ebp
  0000000000002164: 41 0F 28 B3 78 FF  movaps      xmm6,xmmword ptr [r11-88h]
                    FF FF
  000000000000216C: 41 0F 28 7B 88     movaps      xmm7,xmmword ptr [r11-78h]
  0000000000002171: 45 0F 28 43 98     movaps      xmm8,xmmword ptr [r11-68h]
  0000000000002176: 45 0F 28 4B A8     movaps      xmm9,xmmword ptr [r11-58h]
  000000000000217B: 45 0F 28 53 B8     movaps      xmm10,xmmword ptr [r11-48h]
  0000000000002180: 45 0F 28 5B C8     movaps      xmm11,xmmword ptr [r11-38h]
  0000000000002185: 4D 8B 73 D8        mov         r14,qword ptr [r11-28h]
  0000000000002189: 4D 8B 6B E0        mov         r13,qword ptr [r11-20h]
  000000000000218D: 4D 8B 63 E8        mov         r12,qword ptr [r11-18h]
  0000000000002191: 49 8B 6B F0        mov         rbp,qword ptr [r11-10h]
  0000000000002195: 49 8B 5B F8        mov         rbx,qword ptr [r11-8]
  0000000000002199: 49 8D 23           lea         rsp,[r11]
L$epilogue_ssse3:
  000000000000219C: 48 8B 7C 24 08     mov         rdi,qword ptr [rsp+8]
  00000000000021A1: 48 8B 74 24 10     mov         rsi,qword ptr [rsp+10h]
  00000000000021A6: F3 C3              rep ret
L$SEH_end_sha1_block_data_order_ssse3:
  00000000000021A8: 90                 nop
  00000000000021A9: 90                 nop
  00000000000021AA: 90                 nop
  00000000000021AB: 90                 nop
  00000000000021AC: 90                 nop
  00000000000021AD: 90                 nop
  00000000000021AE: 90                 nop
  00000000000021AF: 90                 nop
aws_lc_0_21_1_sha1_block_data_order_avx:
  00000000000021B0: 48 89 7C 24 08     mov         qword ptr [rsp+8],rdi
  00000000000021B5: 48 89 74 24 10     mov         qword ptr [rsp+10h],rsi
  00000000000021BA: 48 89 E0           mov         rax,rsp
L$SEH_begin_sha1_block_data_order_avx:
  00000000000021BD: 48 89 CF           mov         rdi,rcx
  00000000000021C0: 48 89 D6           mov         rsi,rdx
  00000000000021C3: 4C 89 C2           mov         rdx,r8
  00000000000021C6: 49 89 E3           mov         r11,rsp
  00000000000021C9: 53                 push        rbx
  00000000000021CA: 55                 push        rbp
  00000000000021CB: 41 54              push        r12
  00000000000021CD: 41 55              push        r13
  00000000000021CF: 41 56              push        r14
  00000000000021D1: 48 8D A4 24 60 FF  lea         rsp,[rsp-0A0h]
                    FF FF
  00000000000021D9: C5 F8 77           vzeroupper
  00000000000021DC: C4 C1 78 29 B3 78  vmovaps     xmmword ptr [r11-88h],xmm6
                    FF FF FF
  00000000000021E5: C4 C1 78 29 7B 88  vmovaps     xmmword ptr [r11-78h],xmm7
  00000000000021EB: C4 41 78 29 43 98  vmovaps     xmmword ptr [r11-68h],xmm8
  00000000000021F1: C4 41 78 29 4B A8  vmovaps     xmmword ptr [r11-58h],xmm9
  00000000000021F7: C4 41 78 29 53 B8  vmovaps     xmmword ptr [r11-48h],xmm10
  00000000000021FD: C4 41 78 29 5B C8  vmovaps     xmmword ptr [r11-38h],xmm11
L$prologue_avx:
  0000000000002203: 48 83 E4 C0        and         rsp,0FFFFFFFFFFFFFFC0h
  0000000000002207: 49 89 F8           mov         r8,rdi
  000000000000220A: 49 89 F1           mov         r9,rsi
  000000000000220D: 49 89 D2           mov         r10,rdx
  0000000000002210: 49 C1 E2 06        shl         r10,6
  0000000000002214: 4D 01 CA           add         r10,r9
  0000000000002217: 4C 8D 35 40 00 00  lea         r14,[.rdata+40h]
                    00
  000000000000221E: 41 8B 00           mov         eax,dword ptr [r8]
  0000000000002221: 41 8B 58 04        mov         ebx,dword ptr [r8+4]
  0000000000002225: 41 8B 48 08        mov         ecx,dword ptr [r8+8]
  0000000000002229: 41 8B 50 0C        mov         edx,dword ptr [r8+0Ch]
  000000000000222D: 89 DE              mov         esi,ebx
  000000000000222F: 41 8B 68 10        mov         ebp,dword ptr [r8+10h]
  0000000000002233: 89 CF              mov         edi,ecx
  0000000000002235: 31 D7              xor         edi,edx
  0000000000002237: 21 FE              and         esi,edi
  0000000000002239: C4 C1 79 6F 76 40  vmovdqa     xmm6,xmmword ptr [r14+40h]
  000000000000223F: C4 41 79 6F 5E C0  vmovdqa     xmm11,xmmword ptr [r14-40h]
  0000000000002245: C4 C1 7A 6F 01     vmovdqu     xmm0,xmmword ptr [r9]
  000000000000224A: C4 C1 7A 6F 49 10  vmovdqu     xmm1,xmmword ptr [r9+10h]
  0000000000002250: C4 C1 7A 6F 51 20  vmovdqu     xmm2,xmmword ptr [r9+20h]
  0000000000002256: C4 C1 7A 6F 59 30  vmovdqu     xmm3,xmmword ptr [r9+30h]
  000000000000225C: C4 E2 79 00 C6     vpshufb     xmm0,xmm0,xmm6
  0000000000002261: 49 83 C1 40        add         r9,40h
  0000000000002265: C4 E2 71 00 CE     vpshufb     xmm1,xmm1,xmm6
  000000000000226A: C4 E2 69 00 D6     vpshufb     xmm2,xmm2,xmm6
  000000000000226F: C4 E2 61 00 DE     vpshufb     xmm3,xmm3,xmm6
  0000000000002274: C4 C1 79 FE E3     vpaddd      xmm4,xmm0,xmm11
  0000000000002279: C4 C1 71 FE EB     vpaddd      xmm5,xmm1,xmm11
  000000000000227E: C4 C1 69 FE F3     vpaddd      xmm6,xmm2,xmm11
  0000000000002283: C5 F9 7F 24 24     vmovdqa     xmmword ptr [rsp],xmm4
  0000000000002288: C5 F9 7F 6C 24 10  vmovdqa     xmmword ptr [rsp+10h],xmm5
  000000000000228E: C5 F9 7F 74 24 20  vmovdqa     xmmword ptr [rsp+20h],xmm6
  0000000000002294: E9 07 00 00 00     jmp         L$oop_avx
  0000000000002299: 90                 nop
  000000000000229A: 90                 nop
  000000000000229B: 90                 nop
  000000000000229C: 90                 nop
  000000000000229D: 90                 nop
  000000000000229E: 90                 nop
  000000000000229F: 90                 nop
L$oop_avx:
  00000000000022A0: 0F AC DB 02        shrd        ebx,ebx,2
  00000000000022A4: 31 D6              xor         esi,edx
  00000000000022A6: C4 E3 71 0F E0 08  vpalignr    xmm4,xmm1,xmm0,8
  00000000000022AC: 89 C7              mov         edi,eax
  00000000000022AE: 03 2C 24           add         ebp,dword ptr [rsp]
  00000000000022B1: C5 21 FE CB        vpaddd      xmm9,xmm11,xmm3
  00000000000022B5: 31 CB              xor         ebx,ecx
  00000000000022B7: 0F A4 C0 05        shld        eax,eax,5
  00000000000022BB: C5 B9 73 DB 04     vpsrldq     xmm8,xmm3,4
  00000000000022C0: 01 F5              add         ebp,esi
  00000000000022C2: 21 DF              and         edi,ebx
  00000000000022C4: C5 D9 EF E0        vpxor       xmm4,xmm4,xmm0
  00000000000022C8: 31 CB              xor         ebx,ecx
  00000000000022CA: 01 C5              add         ebp,eax
  00000000000022CC: C5 39 EF C2        vpxor       xmm8,xmm8,xmm2
  00000000000022D0: 0F AC C0 07        shrd        eax,eax,7
  00000000000022D4: 31 CF              xor         edi,ecx
  00000000000022D6: 89 EE              mov         esi,ebp
  00000000000022D8: 03 54 24 04        add         edx,dword ptr [rsp+4]
  00000000000022DC: C4 C1 59 EF E0     vpxor       xmm4,xmm4,xmm8
  00000000000022E1: 31 D8              xor         eax,ebx
  00000000000022E3: 0F A4 ED 05        shld        ebp,ebp,5
  00000000000022E7: C5 79 7F 4C 24 30  vmovdqa     xmmword ptr [rsp+30h],xmm9
  00000000000022ED: 01 FA              add         edx,edi
  00000000000022EF: 21 C6              and         esi,eax
  00000000000022F1: C5 B9 72 D4 1F     vpsrld      xmm8,xmm4,1Fh
  00000000000022F6: 31 D8              xor         eax,ebx
  00000000000022F8: 01 EA              add         edx,ebp
  00000000000022FA: 0F AC ED 07        shrd        ebp,ebp,7
  00000000000022FE: 31 DE              xor         esi,ebx
  0000000000002300: C5 A9 73 FC 0C     vpslldq     xmm10,xmm4,0Ch
  0000000000002305: C5 D9 FE E4        vpaddd      xmm4,xmm4,xmm4
  0000000000002309: 89 D7              mov         edi,edx
  000000000000230B: 03 4C 24 08        add         ecx,dword ptr [rsp+8]
  000000000000230F: 31 C5              xor         ebp,eax
  0000000000002311: 0F A4 D2 05        shld        edx,edx,5
  0000000000002315: C4 C1 31 72 D2 1E  vpsrld      xmm9,xmm10,1Eh
  000000000000231B: C4 C1 59 EB E0     vpor        xmm4,xmm4,xmm8
  0000000000002320: 01 F1              add         ecx,esi
  0000000000002322: 21 EF              and         edi,ebp
  0000000000002324: 31 C5              xor         ebp,eax
  0000000000002326: 01 D1              add         ecx,edx
  0000000000002328: C4 C1 29 72 F2 02  vpslld      xmm10,xmm10,2
  000000000000232E: C4 C1 59 EF E1     vpxor       xmm4,xmm4,xmm9
  0000000000002333: 0F AC D2 07        shrd        edx,edx,7
  0000000000002337: 31 C7              xor         edi,eax
  0000000000002339: 89 CE              mov         esi,ecx
  000000000000233B: 03 5C 24 0C        add         ebx,dword ptr [rsp+0Ch]
  000000000000233F: C4 C1 59 EF E2     vpxor       xmm4,xmm4,xmm10
  0000000000002344: 31 EA              xor         edx,ebp
  0000000000002346: 0F A4 C9 05        shld        ecx,ecx,5
  000000000000234A: 01 FB              add         ebx,edi
  000000000000234C: 21 D6              and         esi,edx
  000000000000234E: 31 EA              xor         edx,ebp
  0000000000002350: 01 CB              add         ebx,ecx
  0000000000002352: 0F AC C9 07        shrd        ecx,ecx,7
  0000000000002356: 31 EE              xor         esi,ebp
  0000000000002358: C4 E3 69 0F E9 08  vpalignr    xmm5,xmm2,xmm1,8
  000000000000235E: 89 DF              mov         edi,ebx
  0000000000002360: 03 44 24 10        add         eax,dword ptr [rsp+10h]
  0000000000002364: C5 21 FE CC        vpaddd      xmm9,xmm11,xmm4
  0000000000002368: 31 D1              xor         ecx,edx
  000000000000236A: 0F A4 DB 05        shld        ebx,ebx,5
  000000000000236E: C5 B9 73 DC 04     vpsrldq     xmm8,xmm4,4
  0000000000002373: 01 F0              add         eax,esi
  0000000000002375: 21 CF              and         edi,ecx
  0000000000002377: C5 D1 EF E9        vpxor       xmm5,xmm5,xmm1
  000000000000237B: 31 D1              xor         ecx,edx
  000000000000237D: 01 D8              add         eax,ebx
  000000000000237F: C5 39 EF C3        vpxor       xmm8,xmm8,xmm3
  0000000000002383: 0F AC DB 07        shrd        ebx,ebx,7
  0000000000002387: 31 D7              xor         edi,edx
  0000000000002389: 89 C6              mov         esi,eax
  000000000000238B: 03 6C 24 14        add         ebp,dword ptr [rsp+14h]
  000000000000238F: C4 C1 51 EF E8     vpxor       xmm5,xmm5,xmm8
  0000000000002394: 31 CB              xor         ebx,ecx
  0000000000002396: 0F A4 C0 05        shld        eax,eax,5
  000000000000239A: C5 79 7F 0C 24     vmovdqa     xmmword ptr [rsp],xmm9
  000000000000239F: 01 FD              add         ebp,edi
  00000000000023A1: 21 DE              and         esi,ebx
  00000000000023A3: C5 B9 72 D5 1F     vpsrld      xmm8,xmm5,1Fh
  00000000000023A8: 31 CB              xor         ebx,ecx
  00000000000023AA: 01 C5              add         ebp,eax
  00000000000023AC: 0F AC C0 07        shrd        eax,eax,7
  00000000000023B0: 31 CE              xor         esi,ecx
  00000000000023B2: C5 A9 73 FD 0C     vpslldq     xmm10,xmm5,0Ch
  00000000000023B7: C5 D1 FE ED        vpaddd      xmm5,xmm5,xmm5
  00000000000023BB: 89 EF              mov         edi,ebp
  00000000000023BD: 03 54 24 18        add         edx,dword ptr [rsp+18h]
  00000000000023C1: 31 D8              xor         eax,ebx
  00000000000023C3: 0F A4 ED 05        shld        ebp,ebp,5
  00000000000023C7: C4 C1 31 72 D2 1E  vpsrld      xmm9,xmm10,1Eh
  00000000000023CD: C4 C1 51 EB E8     vpor        xmm5,xmm5,xmm8
  00000000000023D2: 01 F2              add         edx,esi
  00000000000023D4: 21 C7              and         edi,eax
  00000000000023D6: 31 D8              xor         eax,ebx
  00000000000023D8: 01 EA              add         edx,ebp
  00000000000023DA: C4 C1 29 72 F2 02  vpslld      xmm10,xmm10,2
  00000000000023E0: C4 C1 51 EF E9     vpxor       xmm5,xmm5,xmm9
  00000000000023E5: 0F AC ED 07        shrd        ebp,ebp,7
  00000000000023E9: 31 DF              xor         edi,ebx
  00000000000023EB: 89 D6              mov         esi,edx
  00000000000023ED: 03 4C 24 1C        add         ecx,dword ptr [rsp+1Ch]
  00000000000023F1: C4 C1 51 EF EA     vpxor       xmm5,xmm5,xmm10
  00000000000023F6: 31 C5              xor         ebp,eax
  00000000000023F8: 0F A4 D2 05        shld        edx,edx,5
  00000000000023FC: C4 41 79 6F 5E E0  vmovdqa     xmm11,xmmword ptr [r14-20h]
  0000000000002402: 01 F9              add         ecx,edi
  0000000000002404: 21 EE              and         esi,ebp
  0000000000002406: 31 C5              xor         ebp,eax
  0000000000002408: 01 D1              add         ecx,edx
  000000000000240A: 0F AC D2 07        shrd        edx,edx,7
  000000000000240E: 31 C6              xor         esi,eax
  0000000000002410: C4 E3 61 0F F2 08  vpalignr    xmm6,xmm3,xmm2,8
  0000000000002416: 89 CF              mov         edi,ecx
  0000000000002418: 03 5C 24 20        add         ebx,dword ptr [rsp+20h]
  000000000000241C: C5 21 FE CD        vpaddd      xmm9,xmm11,xmm5
  0000000000002420: 31 EA              xor         edx,ebp
  0000000000002422: 0F A4 C9 05        shld        ecx,ecx,5
  0000000000002426: C5 B9 73 DD 04     vpsrldq     xmm8,xmm5,4
  000000000000242B: 01 F3              add         ebx,esi
  000000000000242D: 21 D7              and         edi,edx
  000000000000242F: C5 C9 EF F2        vpxor       xmm6,xmm6,xmm2
  0000000000002433: 31 EA              xor         edx,ebp
  0000000000002435: 01 CB              add         ebx,ecx
  0000000000002437: C5 39 EF C4        vpxor       xmm8,xmm8,xmm4
  000000000000243B: 0F AC C9 07        shrd        ecx,ecx,7
  000000000000243F: 31 EF              xor         edi,ebp
  0000000000002441: 89 DE              mov         esi,ebx
  0000000000002443: 03 44 24 24        add         eax,dword ptr [rsp+24h]
  0000000000002447: C4 C1 49 EF F0     vpxor       xmm6,xmm6,xmm8
  000000000000244C: 31 D1              xor         ecx,edx
  000000000000244E: 0F A4 DB 05        shld        ebx,ebx,5
  0000000000002452: C5 79 7F 4C 24 10  vmovdqa     xmmword ptr [rsp+10h],xmm9
  0000000000002458: 01 F8              add         eax,edi
  000000000000245A: 21 CE              and         esi,ecx
  000000000000245C: C5 B9 72 D6 1F     vpsrld      xmm8,xmm6,1Fh
  0000000000002461: 31 D1              xor         ecx,edx
  0000000000002463: 01 D8              add         eax,ebx
  0000000000002465: 0F AC DB 07        shrd        ebx,ebx,7
  0000000000002469: 31 D6              xor         esi,edx
  000000000000246B: C5 A9 73 FE 0C     vpslldq     xmm10,xmm6,0Ch
  0000000000002470: C5 C9 FE F6        vpaddd      xmm6,xmm6,xmm6
  0000000000002474: 89 C7              mov         edi,eax
  0000000000002476: 03 6C 24 28        add         ebp,dword ptr [rsp+28h]
  000000000000247A: 31 CB              xor         ebx,ecx
  000000000000247C: 0F A4 C0 05        shld        eax,eax,5
  0000000000002480: C4 C1 31 72 D2 1E  vpsrld      xmm9,xmm10,1Eh
  0000000000002486: C4 C1 49 EB F0     vpor        xmm6,xmm6,xmm8
  000000000000248B: 01 F5              add         ebp,esi
  000000000000248D: 21 DF              and         edi,ebx
  000000000000248F: 31 CB              xor         ebx,ecx
  0000000000002491: 01 C5              add         ebp,eax
  0000000000002493: C4 C1 29 72 F2 02  vpslld      xmm10,xmm10,2
  0000000000002499: C4 C1 49 EF F1     vpxor       xmm6,xmm6,xmm9
  000000000000249E: 0F AC C0 07        shrd        eax,eax,7
  00000000000024A2: 31 CF              xor         edi,ecx
  00000000000024A4: 89 EE              mov         esi,ebp
  00000000000024A6: 03 54 24 2C        add         edx,dword ptr [rsp+2Ch]
  00000000000024AA: C4 C1 49 EF F2     vpxor       xmm6,xmm6,xmm10
  00000000000024AF: 31 D8              xor         eax,ebx
  00000000000024B1: 0F A4 ED 05        shld        ebp,ebp,5
  00000000000024B5: 01 FA              add         edx,edi
  00000000000024B7: 21 C6              and         esi,eax
  00000000000024B9: 31 D8              xor         eax,ebx
  00000000000024BB: 01 EA              add         edx,ebp
  00000000000024BD: 0F AC ED 07        shrd        ebp,ebp,7
  00000000000024C1: 31 DE              xor         esi,ebx
  00000000000024C3: C4 E3 59 0F FB 08  vpalignr    xmm7,xmm4,xmm3,8
  00000000000024C9: 89 D7              mov         edi,edx
  00000000000024CB: 03 4C 24 30        add         ecx,dword ptr [rsp+30h]
  00000000000024CF: C5 21 FE CE        vpaddd      xmm9,xmm11,xmm6
  00000000000024D3: 31 C5              xor         ebp,eax
  00000000000024D5: 0F A4 D2 05        shld        edx,edx,5
  00000000000024D9: C5 B9 73 DE 04     vpsrldq     xmm8,xmm6,4
  00000000000024DE: 01 F1              add         ecx,esi
  00000000000024E0: 21 EF              and         edi,ebp
  00000000000024E2: C5 C1 EF FB        vpxor       xmm7,xmm7,xmm3
  00000000000024E6: 31 C5              xor         ebp,eax
  00000000000024E8: 01 D1              add         ecx,edx
  00000000000024EA: C5 39 EF C5        vpxor       xmm8,xmm8,xmm5
  00000000000024EE: 0F AC D2 07        shrd        edx,edx,7
  00000000000024F2: 31 C7              xor         edi,eax
  00000000000024F4: 89 CE              mov         esi,ecx
  00000000000024F6: 03 5C 24 34        add         ebx,dword ptr [rsp+34h]
  00000000000024FA: C4 C1 41 EF F8     vpxor       xmm7,xmm7,xmm8
  00000000000024FF: 31 EA              xor         edx,ebp
  0000000000002501: 0F A4 C9 05        shld        ecx,ecx,5
  0000000000002505: C5 79 7F 4C 24 20  vmovdqa     xmmword ptr [rsp+20h],xmm9
  000000000000250B: 01 FB              add         ebx,edi
  000000000000250D: 21 D6              and         esi,edx
  000000000000250F: C5 B9 72 D7 1F     vpsrld      xmm8,xmm7,1Fh
  0000000000002514: 31 EA              xor         edx,ebp
  0000000000002516: 01 CB              add         ebx,ecx
  0000000000002518: 0F AC C9 07        shrd        ecx,ecx,7
  000000000000251C: 31 EE              xor         esi,ebp
  000000000000251E: C5 A9 73 FF 0C     vpslldq     xmm10,xmm7,0Ch
  0000000000002523: C5 C1 FE FF        vpaddd      xmm7,xmm7,xmm7
  0000000000002527: 89 DF              mov         edi,ebx
  0000000000002529: 03 44 24 38        add         eax,dword ptr [rsp+38h]
  000000000000252D: 31 D1              xor         ecx,edx
  000000000000252F: 0F A4 DB 05        shld        ebx,ebx,5
  0000000000002533: C4 C1 31 72 D2 1E  vpsrld      xmm9,xmm10,1Eh
  0000000000002539: C4 C1 41 EB F8     vpor        xmm7,xmm7,xmm8
  000000000000253E: 01 F0              add         eax,esi
  0000000000002540: 21 CF              and         edi,ecx
  0000000000002542: 31 D1              xor         ecx,edx
  0000000000002544: 01 D8              add         eax,ebx
  0000000000002546: C4 C1 29 72 F2 02  vpslld      xmm10,xmm10,2
  000000000000254C: C4 C1 41 EF F9     vpxor       xmm7,xmm7,xmm9
  0000000000002551: 0F AC DB 07        shrd        ebx,ebx,7
  0000000000002555: 31 D7              xor         edi,edx
  0000000000002557: 89 C6              mov         esi,eax
  0000000000002559: 03 6C 24 3C        add         ebp,dword ptr [rsp+3Ch]
  000000000000255D: C4 C1 41 EF FA     vpxor       xmm7,xmm7,xmm10
  0000000000002562: 31 CB              xor         ebx,ecx
  0000000000002564: 0F A4 C0 05        shld        eax,eax,5
  0000000000002568: 01 FD              add         ebp,edi
  000000000000256A: 21 DE              and         esi,ebx
  000000000000256C: 31 CB              xor         ebx,ecx
  000000000000256E: 01 C5              add         ebp,eax
  0000000000002570: C4 63 41 0F C6 08  vpalignr    xmm8,xmm7,xmm6,8
  0000000000002576: C5 F9 EF C4        vpxor       xmm0,xmm0,xmm4
  000000000000257A: 0F AC C0 07        shrd        eax,eax,7
  000000000000257E: 31 CE              xor         esi,ecx
  0000000000002580: 89 EF              mov         edi,ebp
  0000000000002582: 03 14 24           add         edx,dword ptr [rsp]
  0000000000002585: C5 F9 EF C1        vpxor       xmm0,xmm0,xmm1
  0000000000002589: 31 D8              xor         eax,ebx
  000000000000258B: 0F A4 ED 05        shld        ebp,ebp,5
  000000000000258F: C5 21 FE CF        vpaddd      xmm9,xmm11,xmm7
  0000000000002593: 01 F2              add         edx,esi
  0000000000002595: 21 C7              and         edi,eax
  0000000000002597: C4 C1 79 EF C0     vpxor       xmm0,xmm0,xmm8
  000000000000259C: 31 D8              xor         eax,ebx
  000000000000259E: 01 EA              add         edx,ebp
  00000000000025A0: 0F AC ED 07        shrd        ebp,ebp,7
  00000000000025A4: 31 DF              xor         edi,ebx
  00000000000025A6: C5 B9 72 D0 1E     vpsrld      xmm8,xmm0,1Eh
  00000000000025AB: C5 79 7F 4C 24 30  vmovdqa     xmmword ptr [rsp+30h],xmm9
  00000000000025B1: 89 D6              mov         esi,edx
  00000000000025B3: 03 4C 24 04        add         ecx,dword ptr [rsp+4]
  00000000000025B7: 31 C5              xor         ebp,eax
  00000000000025B9: 0F A4 D2 05        shld        edx,edx,5
  00000000000025BD: C5 F9 72 F0 02     vpslld      xmm0,xmm0,2
  00000000000025C2: 01 F9              add         ecx,edi
  00000000000025C4: 21 EE              and         esi,ebp
  00000000000025C6: 31 C5              xor         ebp,eax
  00000000000025C8: 01 D1              add         ecx,edx
  00000000000025CA: 0F AC D2 07        shrd        edx,edx,7
  00000000000025CE: 31 C6              xor         esi,eax
  00000000000025D0: 89 CF              mov         edi,ecx
  00000000000025D2: 03 5C 24 08        add         ebx,dword ptr [rsp+8]
  00000000000025D6: C4 C1 79 EB C0     vpor        xmm0,xmm0,xmm8
  00000000000025DB: 31 EA              xor         edx,ebp
  00000000000025DD: 0F A4 C9 05        shld        ecx,ecx,5
  00000000000025E1: 01 F3              add         ebx,esi
  00000000000025E3: 21 D7              and         edi,edx
  00000000000025E5: 31 EA              xor         edx,ebp
  00000000000025E7: 01 CB              add         ebx,ecx
  00000000000025E9: 03 44 24 0C        add         eax,dword ptr [rsp+0Ch]
  00000000000025ED: 31 EF              xor         edi,ebp
  00000000000025EF: 89 DE              mov         esi,ebx
  00000000000025F1: 0F A4 DB 05        shld        ebx,ebx,5
  00000000000025F5: 01 F8              add         eax,edi
  00000000000025F7: 31 D6              xor         esi,edx
  00000000000025F9: 0F AC C9 07        shrd        ecx,ecx,7
  00000000000025FD: 01 D8              add         eax,ebx
  00000000000025FF: C4 63 79 0F C7 08  vpalignr    xmm8,xmm0,xmm7,8
  0000000000002605: C5 F1 EF CD        vpxor       xmm1,xmm1,xmm5
  0000000000002609: 03 6C 24 10        add         ebp,dword ptr [rsp+10h]
  000000000000260D: 31 CE              xor         esi,ecx
  000000000000260F: 89 C7              mov         edi,eax
  0000000000002611: 0F A4 C0 05        shld        eax,eax,5
  0000000000002615: C5 F1 EF CA        vpxor       xmm1,xmm1,xmm2
  0000000000002619: 01 F5              add         ebp,esi
  000000000000261B: 31 CF              xor         edi,ecx
  000000000000261D: C5 21 FE C8        vpaddd      xmm9,xmm11,xmm0
  0000000000002621: 0F AC DB 07        shrd        ebx,ebx,7
  0000000000002625: 01 C5              add         ebp,eax
  0000000000002627: C4 C1 71 EF C8     vpxor       xmm1,xmm1,xmm8
  000000000000262C: 03 54 24 14        add         edx,dword ptr [rsp+14h]
  0000000000002630: 31 DF              xor         edi,ebx
  0000000000002632: 89 EE              mov         esi,ebp
  0000000000002634: 0F A4 ED 05        shld        ebp,ebp,5
  0000000000002638: C5 B9 72 D1 1E     vpsrld      xmm8,xmm1,1Eh
  000000000000263D: C5 79 7F 0C 24     vmovdqa     xmmword ptr [rsp],xmm9
  0000000000002642: 01 FA              add         edx,edi
  0000000000002644: 31 DE              xor         esi,ebx
  0000000000002646: 0F AC C0 07        shrd        eax,eax,7
  000000000000264A: 01 EA              add         edx,ebp
  000000000000264C: C5 F1 72 F1 02     vpslld      xmm1,xmm1,2
  0000000000002651: 03 4C 24 18        add         ecx,dword ptr [rsp+18h]
  0000000000002655: 31 C6              xor         esi,eax
  0000000000002657: 89 D7              mov         edi,edx
  0000000000002659: 0F A4 D2 05        shld        edx,edx,5
  000000000000265D: 01 F1              add         ecx,esi
  000000000000265F: 31 C7              xor         edi,eax
  0000000000002661: 0F AC ED 07        shrd        ebp,ebp,7
  0000000000002665: 01 D1              add         ecx,edx
  0000000000002667: C4 C1 71 EB C8     vpor        xmm1,xmm1,xmm8
  000000000000266C: 03 5C 24 1C        add         ebx,dword ptr [rsp+1Ch]
  0000000000002670: 31 EF              xor         edi,ebp
  0000000000002672: 89 CE              mov         esi,ecx
  0000000000002674: 0F A4 C9 05        shld        ecx,ecx,5
  0000000000002678: 01 FB              add         ebx,edi
  000000000000267A: 31 EE              xor         esi,ebp
  000000000000267C: 0F AC D2 07        shrd        edx,edx,7
  0000000000002680: 01 CB              add         ebx,ecx
  0000000000002682: C4 63 71 0F C0 08  vpalignr    xmm8,xmm1,xmm0,8
  0000000000002688: C5 E9 EF D6        vpxor       xmm2,xmm2,xmm6
  000000000000268C: 03 44 24 20        add         eax,dword ptr [rsp+20h]
  0000000000002690: 31 D6              xor         esi,edx
  0000000000002692: 89 DF              mov         edi,ebx
  0000000000002694: 0F A4 DB 05        shld        ebx,ebx,5
  0000000000002698: C5 E9 EF D3        vpxor       xmm2,xmm2,xmm3
  000000000000269C: 01 F0              add         eax,esi
  000000000000269E: 31 D7              xor         edi,edx
  00000000000026A0: C5 21 FE C9        vpaddd      xmm9,xmm11,xmm1
  00000000000026A4: C4 41 79 6F 1E     vmovdqa     xmm11,xmmword ptr [r14]
  00000000000026A9: 0F AC C9 07        shrd        ecx,ecx,7
  00000000000026AD: 01 D8              add         eax,ebx
  00000000000026AF: C4 C1 69 EF D0     vpxor       xmm2,xmm2,xmm8
  00000000000026B4: 03 6C 24 24        add         ebp,dword ptr [rsp+24h]
  00000000000026B8: 31 CF              xor         edi,ecx
  00000000000026BA: 89 C6              mov         esi,eax
  00000000000026BC: 0F A4 C0 05        shld        eax,eax,5
  00000000000026C0: C5 B9 72 D2 1E     vpsrld      xmm8,xmm2,1Eh
  00000000000026C5: C5 79 7F 4C 24 10  vmovdqa     xmmword ptr [rsp+10h],xmm9
  00000000000026CB: 01 FD              add         ebp,edi
  00000000000026CD: 31 CE              xor         esi,ecx
  00000000000026CF: 0F AC DB 07        shrd        ebx,ebx,7
  00000000000026D3: 01 C5              add         ebp,eax
  00000000000026D5: C5 E9 72 F2 02     vpslld      xmm2,xmm2,2
  00000000000026DA: 03 54 24 28        add         edx,dword ptr [rsp+28h]
  00000000000026DE: 31 DE              xor         esi,ebx
  00000000000026E0: 89 EF              mov         edi,ebp
  00000000000026E2: 0F A4 ED 05        shld        ebp,ebp,5
  00000000000026E6: 01 F2              add         edx,esi
  00000000000026E8: 31 DF              xor         edi,ebx
  00000000000026EA: 0F AC C0 07        shrd        eax,eax,7
  00000000000026EE: 01 EA              add         edx,ebp
  00000000000026F0: C4 C1 69 EB D0     vpor        xmm2,xmm2,xmm8
  00000000000026F5: 03 4C 24 2C        add         ecx,dword ptr [rsp+2Ch]
  00000000000026F9: 31 C7              xor         edi,eax
  00000000000026FB: 89 D6              mov         esi,edx
  00000000000026FD: 0F A4 D2 05        shld        edx,edx,5
  0000000000002701: 01 F9              add         ecx,edi
  0000000000002703: 31 C6              xor         esi,eax
  0000000000002705: 0F AC ED 07        shrd        ebp,ebp,7
  0000000000002709: 01 D1              add         ecx,edx
  000000000000270B: C4 63 69 0F C1 08  vpalignr    xmm8,xmm2,xmm1,8
  0000000000002711: C5 E1 EF DF        vpxor       xmm3,xmm3,xmm7
  0000000000002715: 03 5C 24 30        add         ebx,dword ptr [rsp+30h]
  0000000000002719: 31 EE              xor         esi,ebp
  000000000000271B: 89 CF              mov         edi,ecx
  000000000000271D: 0F A4 C9 05        shld        ecx,ecx,5
  0000000000002721: C5 E1 EF DC        vpxor       xmm3,xmm3,xmm4
  0000000000002725: 01 F3              add         ebx,esi
  0000000000002727: 31 EF              xor         edi,ebp
  0000000000002729: C5 21 FE CA        vpaddd      xmm9,xmm11,xmm2
  000000000000272D: 0F AC D2 07        shrd        edx,edx,7
  0000000000002731: 01 CB              add         ebx,ecx
  0000000000002733: C4 C1 61 EF D8     vpxor       xmm3,xmm3,xmm8
  0000000000002738: 03 44 24 34        add         eax,dword ptr [rsp+34h]
  000000000000273C: 31 D7              xor         edi,edx
  000000000000273E: 89 DE              mov         esi,ebx
  0000000000002740: 0F A4 DB 05        shld        ebx,ebx,5
  0000000000002744: C5 B9 72 D3 1E     vpsrld      xmm8,xmm3,1Eh
  0000000000002749: C5 79 7F 4C 24 20  vmovdqa     xmmword ptr [rsp+20h],xmm9
  000000000000274F: 01 F8              add         eax,edi
  0000000000002751: 31 D6              xor         esi,edx
  0000000000002753: 0F AC C9 07        shrd        ecx,ecx,7
  0000000000002757: 01 D8              add         eax,ebx
  0000000000002759: C5 E1 72 F3 02     vpslld      xmm3,xmm3,2
  000000000000275E: 03 6C 24 38        add         ebp,dword ptr [rsp+38h]
  0000000000002762: 31 CE              xor         esi,ecx
  0000000000002764: 89 C7              mov         edi,eax
  0000000000002766: 0F A4 C0 05        shld        eax,eax,5
  000000000000276A: 01 F5              add         ebp,esi
  000000000000276C: 31 CF              xor         edi,ecx
  000000000000276E: 0F AC DB 07        shrd        ebx,ebx,7
  0000000000002772: 01 C5              add         ebp,eax
  0000000000002774: C4 C1 61 EB D8     vpor        xmm3,xmm3,xmm8
  0000000000002779: 03 54 24 3C        add         edx,dword ptr [rsp+3Ch]
  000000000000277D: 31 DF              xor         edi,ebx
  000000000000277F: 89 EE              mov         esi,ebp
  0000000000002781: 0F A4 ED 05        shld        ebp,ebp,5
  0000000000002785: 01 FA              add         edx,edi
  0000000000002787: 31 DE              xor         esi,ebx
  0000000000002789: 0F AC C0 07        shrd        eax,eax,7
  000000000000278D: 01 EA              add         edx,ebp
  000000000000278F: C4 63 61 0F C2 08  vpalignr    xmm8,xmm3,xmm2,8
  0000000000002795: C5 D9 EF E0        vpxor       xmm4,xmm4,xmm0
  0000000000002799: 03 0C 24           add         ecx,dword ptr [rsp]
  000000000000279C: 31 C6              xor         esi,eax
  000000000000279E: 89 D7              mov         edi,edx
  00000000000027A0: 0F A4 D2 05        shld        edx,edx,5
  00000000000027A4: C5 D9 EF E5        vpxor       xmm4,xmm4,xmm5
  00000000000027A8: 01 F1              add         ecx,esi
  00000000000027AA: 31 C7              xor         edi,eax
  00000000000027AC: C5 21 FE CB        vpaddd      xmm9,xmm11,xmm3
  00000000000027B0: 0F AC ED 07        shrd        ebp,ebp,7
  00000000000027B4: 01 D1              add         ecx,edx
  00000000000027B6: C4 C1 59 EF E0     vpxor       xmm4,xmm4,xmm8
  00000000000027BB: 03 5C 24 04        add         ebx,dword ptr [rsp+4]
  00000000000027BF: 31 EF              xor         edi,ebp
  00000000000027C1: 89 CE              mov         esi,ecx
  00000000000027C3: 0F A4 C9 05        shld        ecx,ecx,5
  00000000000027C7: C5 B9 72 D4 1E     vpsrld      xmm8,xmm4,1Eh
  00000000000027CC: C5 79 7F 4C 24 30  vmovdqa     xmmword ptr [rsp+30h],xmm9
  00000000000027D2: 01 FB              add         ebx,edi
  00000000000027D4: 31 EE              xor         esi,ebp
  00000000000027D6: 0F AC D2 07        shrd        edx,edx,7
  00000000000027DA: 01 CB              add         ebx,ecx
  00000000000027DC: C5 D9 72 F4 02     vpslld      xmm4,xmm4,2
  00000000000027E1: 03 44 24 08        add         eax,dword ptr [rsp+8]
  00000000000027E5: 31 D6              xor         esi,edx
  00000000000027E7: 89 DF              mov         edi,ebx
  00000000000027E9: 0F A4 DB 05        shld        ebx,ebx,5
  00000000000027ED: 01 F0              add         eax,esi
  00000000000027EF: 31 D7              xor         edi,edx
  00000000000027F1: 0F AC C9 07        shrd        ecx,ecx,7
  00000000000027F5: 01 D8              add         eax,ebx
  00000000000027F7: C4 C1 59 EB E0     vpor        xmm4,xmm4,xmm8
  00000000000027FC: 03 6C 24 0C        add         ebp,dword ptr [rsp+0Ch]
  0000000000002800: 31 CF              xor         edi,ecx
  0000000000002802: 89 C6              mov         esi,eax
  0000000000002804: 0F A4 C0 05        shld        eax,eax,5
  0000000000002808: 01 FD              add         ebp,edi
  000000000000280A: 31 CE              xor         esi,ecx
  000000000000280C: 0F AC DB 07        shrd        ebx,ebx,7
  0000000000002810: 01 C5              add         ebp,eax
  0000000000002812: C4 63 59 0F C3 08  vpalignr    xmm8,xmm4,xmm3,8
  0000000000002818: C5 D1 EF E9        vpxor       xmm5,xmm5,xmm1
  000000000000281C: 03 54 24 10        add         edx,dword ptr [rsp+10h]
  0000000000002820: 31 DE              xor         esi,ebx
  0000000000002822: 89 EF              mov         edi,ebp
  0000000000002824: 0F A4 ED 05        shld        ebp,ebp,5
  0000000000002828: C5 D1 EF EE        vpxor       xmm5,xmm5,xmm6
  000000000000282C: 01 F2              add         edx,esi
  000000000000282E: 31 DF              xor         edi,ebx
  0000000000002830: C5 21 FE CC        vpaddd      xmm9,xmm11,xmm4
  0000000000002834: 0F AC C0 07        shrd        eax,eax,7
  0000000000002838: 01 EA              add         edx,ebp
  000000000000283A: C4 C1 51 EF E8     vpxor       xmm5,xmm5,xmm8
  000000000000283F: 03 4C 24 14        add         ecx,dword ptr [rsp+14h]
  0000000000002843: 31 C7              xor         edi,eax
  0000000000002845: 89 D6              mov         esi,edx
  0000000000002847: 0F A4 D2 05        shld        edx,edx,5
  000000000000284B: C5 B9 72 D5 1E     vpsrld      xmm8,xmm5,1Eh
  0000000000002850: C5 79 7F 0C 24     vmovdqa     xmmword ptr [rsp],xmm9
  0000000000002855: 01 F9              add         ecx,edi
  0000000000002857: 31 C6              xor         esi,eax
  0000000000002859: 0F AC ED 07        shrd        ebp,ebp,7
  000000000000285D: 01 D1              add         ecx,edx
  000000000000285F: C5 D1 72 F5 02     vpslld      xmm5,xmm5,2
  0000000000002864: 03 5C 24 18        add         ebx,dword ptr [rsp+18h]
  0000000000002868: 31 EE              xor         esi,ebp
  000000000000286A: 89 CF              mov         edi,ecx
  000000000000286C: 0F A4 C9 05        shld        ecx,ecx,5
  0000000000002870: 01 F3              add         ebx,esi
  0000000000002872: 31 EF              xor         edi,ebp
  0000000000002874: 0F AC D2 07        shrd        edx,edx,7
  0000000000002878: 01 CB              add         ebx,ecx
  000000000000287A: C4 C1 51 EB E8     vpor        xmm5,xmm5,xmm8
  000000000000287F: 03 44 24 1C        add         eax,dword ptr [rsp+1Ch]
  0000000000002883: 0F AC C9 07        shrd        ecx,ecx,7
  0000000000002887: 89 DE              mov         esi,ebx
  0000000000002889: 31 D7              xor         edi,edx
  000000000000288B: 0F A4 DB 05        shld        ebx,ebx,5
  000000000000288F: 01 F8              add         eax,edi
  0000000000002891: 31 CE              xor         esi,ecx
  0000000000002893: 31 D1              xor         ecx,edx
  0000000000002895: 01 D8              add         eax,ebx
  0000000000002897: C4 63 51 0F C4 08  vpalignr    xmm8,xmm5,xmm4,8
  000000000000289D: C5 C9 EF F2        vpxor       xmm6,xmm6,xmm2
  00000000000028A1: 03 6C 24 20        add         ebp,dword ptr [rsp+20h]
  00000000000028A5: 21 CE              and         esi,ecx
  00000000000028A7: 31 D1              xor         ecx,edx
  00000000000028A9: 0F AC DB 07        shrd        ebx,ebx,7
  00000000000028AD: C5 C9 EF F7        vpxor       xmm6,xmm6,xmm7
  00000000000028B1: 89 C7              mov         edi,eax
  00000000000028B3: 31 CE              xor         esi,ecx
  00000000000028B5: C5 21 FE CD        vpaddd      xmm9,xmm11,xmm5
  00000000000028B9: 0F A4 C0 05        shld        eax,eax,5
  00000000000028BD: 01 F5              add         ebp,esi
  00000000000028BF: C4 C1 49 EF F0     vpxor       xmm6,xmm6,xmm8
  00000000000028C4: 31 DF              xor         edi,ebx
  00000000000028C6: 31 CB              xor         ebx,ecx
  00000000000028C8: 01 C5              add         ebp,eax
  00000000000028CA: 03 54 24 24        add         edx,dword ptr [rsp+24h]
  00000000000028CE: C5 B9 72 D6 1E     vpsrld      xmm8,xmm6,1Eh
  00000000000028D3: C5 79 7F 4C 24 10  vmovdqa     xmmword ptr [rsp+10h],xmm9
  00000000000028D9: 21 DF              and         edi,ebx
  00000000000028DB: 31 CB              xor         ebx,ecx
  00000000000028DD: 0F AC C0 07        shrd        eax,eax,7
  00000000000028E1: 89 EE              mov         esi,ebp
  00000000000028E3: C5 C9 72 F6 02     vpslld      xmm6,xmm6,2
  00000000000028E8: 31 DF              xor         edi,ebx
  00000000000028EA: 0F A4 ED 05        shld        ebp,ebp,5
  00000000000028EE: 01 FA              add         edx,edi
  00000000000028F0: 31 C6              xor         esi,eax
  00000000000028F2: 31 D8              xor         eax,ebx
  00000000000028F4: 01 EA              add         edx,ebp
  00000000000028F6: 03 4C 24 28        add         ecx,dword ptr [rsp+28h]
  00000000000028FA: 21 C6              and         esi,eax
  00000000000028FC: C4 C1 49 EB F0     vpor        xmm6,xmm6,xmm8
  0000000000002901: 31 D8              xor         eax,ebx
  0000000000002903: 0F AC ED 07        shrd        ebp,ebp,7
  0000000000002907: 89 D7              mov         edi,edx
  0000000000002909: 31 C6              xor         esi,eax
  000000000000290B: 0F A4 D2 05        shld        edx,edx,5
  000000000000290F: 01 F1              add         ecx,esi
  0000000000002911: 31 EF              xor         edi,ebp
  0000000000002913: 31 C5              xor         ebp,eax
  0000000000002915: 01 D1              add         ecx,edx
  0000000000002917: 03 5C 24 2C        add         ebx,dword ptr [rsp+2Ch]
  000000000000291B: 21 EF              and         edi,ebp
  000000000000291D: 31 C5              xor         ebp,eax
  000000000000291F: 0F AC D2 07        shrd        edx,edx,7
  0000000000002923: 89 CE              mov         esi,ecx
  0000000000002925: 31 EF              xor         edi,ebp
  0000000000002927: 0F A4 C9 05        shld        ecx,ecx,5
  000000000000292B: 01 FB              add         ebx,edi
  000000000000292D: 31 D6              xor         esi,edx
  000000000000292F: 31 EA              xor         edx,ebp
  0000000000002931: 01 CB              add         ebx,ecx
  0000000000002933: C4 63 49 0F C5 08  vpalignr    xmm8,xmm6,xmm5,8
  0000000000002939: C5 C1 EF FB        vpxor       xmm7,xmm7,xmm3
  000000000000293D: 03 44 24 30        add         eax,dword ptr [rsp+30h]
  0000000000002941: 21 D6              and         esi,edx
  0000000000002943: 31 EA              xor         edx,ebp
  0000000000002945: 0F AC C9 07        shrd        ecx,ecx,7
  0000000000002949: C5 C1 EF F8        vpxor       xmm7,xmm7,xmm0
  000000000000294D: 89 DF              mov         edi,ebx
  000000000000294F: 31 D6              xor         esi,edx
  0000000000002951: C5 21 FE CE        vpaddd      xmm9,xmm11,xmm6
  0000000000002955: C4 41 79 6F 5E 20  vmovdqa     xmm11,xmmword ptr [r14+20h]
  000000000000295B: 0F A4 DB 05        shld        ebx,ebx,5
  000000000000295F: 01 F0              add         eax,esi
  0000000000002961: C4 C1 41 EF F8     vpxor       xmm7,xmm7,xmm8
  0000000000002966: 31 CF              xor         edi,ecx
  0000000000002968: 31 D1              xor         ecx,edx
  000000000000296A: 01 D8              add         eax,ebx
  000000000000296C: 03 6C 24 34        add         ebp,dword ptr [rsp+34h]
  0000000000002970: C5 B9 72 D7 1E     vpsrld      xmm8,xmm7,1Eh
  0000000000002975: C5 79 7F 4C 24 20  vmovdqa     xmmword ptr [rsp+20h],xmm9
  000000000000297B: 21 CF              and         edi,ecx
  000000000000297D: 31 D1              xor         ecx,edx
  000000000000297F: 0F AC DB 07        shrd        ebx,ebx,7
  0000000000002983: 89 C6              mov         esi,eax
  0000000000002985: C5 C1 72 F7 02     vpslld      xmm7,xmm7,2
  000000000000298A: 31 CF              xor         edi,ecx
  000000000000298C: 0F A4 C0 05        shld        eax,eax,5
  0000000000002990: 01 FD              add         ebp,edi
  0000000000002992: 31 DE              xor         esi,ebx
  0000000000002994: 31 CB              xor         ebx,ecx
  0000000000002996: 01 C5              add         ebp,eax
  0000000000002998: 03 54 24 38        add         edx,dword ptr [rsp+38h]
  000000000000299C: 21 DE              and         esi,ebx
  000000000000299E: C4 C1 41 EB F8     vpor        xmm7,xmm7,xmm8
  00000000000029A3: 31 CB              xor         ebx,ecx
  00000000000029A5: 0F AC C0 07        shrd        eax,eax,7
  00000000000029A9: 89 EF              mov         edi,ebp
  00000000000029AB: 31 DE              xor         esi,ebx
  00000000000029AD: 0F A4 ED 05        shld        ebp,ebp,5
  00000000000029B1: 01 F2              add         edx,esi
  00000000000029B3: 31 C7              xor         edi,eax
  00000000000029B5: 31 D8              xor         eax,ebx
  00000000000029B7: 01 EA              add         edx,ebp
  00000000000029B9: 03 4C 24 3C        add         ecx,dword ptr [rsp+3Ch]
  00000000000029BD: 21 C7              and         edi,eax
  00000000000029BF: 31 D8              xor         eax,ebx
  00000000000029C1: 0F AC ED 07        shrd        ebp,ebp,7
  00000000000029C5: 89 D6              mov         esi,edx
  00000000000029C7: 31 C7              xor         edi,eax
  00000000000029C9: 0F A4 D2 05        shld        edx,edx,5
  00000000000029CD: 01 F9              add         ecx,edi
  00000000000029CF: 31 EE              xor         esi,ebp
  00000000000029D1: 31 C5              xor         ebp,eax
  00000000000029D3: 01 D1              add         ecx,edx
  00000000000029D5: C4 63 41 0F C6 08  vpalignr    xmm8,xmm7,xmm6,8
  00000000000029DB: C5 F9 EF C4        vpxor       xmm0,xmm0,xmm4
  00000000000029DF: 03 1C 24           add         ebx,dword ptr [rsp]
  00000000000029E2: 21 EE              and         esi,ebp
  00000000000029E4: 31 C5              xor         ebp,eax
  00000000000029E6: 0F AC D2 07        shrd        edx,edx,7
  00000000000029EA: C5 F9 EF C1        vpxor       xmm0,xmm0,xmm1
  00000000000029EE: 89 CF              mov         edi,ecx
  00000000000029F0: 31 EE              xor         esi,ebp
  00000000000029F2: C5 21 FE CF        vpaddd      xmm9,xmm11,xmm7
  00000000000029F6: 0F A4 C9 05        shld        ecx,ecx,5
  00000000000029FA: 01 F3              add         ebx,esi
  00000000000029FC: C4 C1 79 EF C0     vpxor       xmm0,xmm0,xmm8
  0000000000002A01: 31 D7              xor         edi,edx
  0000000000002A03: 31 EA              xor         edx,ebp
  0000000000002A05: 01 CB              add         ebx,ecx
  0000000000002A07: 03 44 24 04        add         eax,dword ptr [rsp+4]
  0000000000002A0B: C5 B9 72 D0 1E     vpsrld      xmm8,xmm0,1Eh
  0000000000002A10: C5 79 7F 4C 24 30  vmovdqa     xmmword ptr [rsp+30h],xmm9
  0000000000002A16: 21 D7              and         edi,edx
  0000000000002A18: 31 EA              xor         edx,ebp
  0000000000002A1A: 0F AC C9 07        shrd        ecx,ecx,7
  0000000000002A1E: 89 DE              mov         esi,ebx
  0000000000002A20: C5 F9 72 F0 02     vpslld      xmm0,xmm0,2
  0000000000002A25: 31 D7              xor         edi,edx
  0000000000002A27: 0F A4 DB 05        shld        ebx,ebx,5
  0000000000002A2B: 01 F8              add         eax,edi
  0000000000002A2D: 31 CE              xor         esi,ecx
  0000000000002A2F: 31 D1              xor         ecx,edx
  0000000000002A31: 01 D8              add         eax,ebx
  0000000000002A33: 03 6C 24 08        add         ebp,dword ptr [rsp+8]
  0000000000002A37: 21 CE              and         esi,ecx
  0000000000002A39: C4 C1 79 EB C0     vpor        xmm0,xmm0,xmm8
  0000000000002A3E: 31 D1              xor         ecx,edx
  0000000000002A40: 0F AC DB 07        shrd        ebx,ebx,7
  0000000000002A44: 89 C7              mov         edi,eax
  0000000000002A46: 31 CE              xor         esi,ecx
  0000000000002A48: 0F A4 C0 05        shld        eax,eax,5
  0000000000002A4C: 01 F5              add         ebp,esi
  0000000000002A4E: 31 DF              xor         edi,ebx
  0000000000002A50: 31 CB              xor         ebx,ecx
  0000000000002A52: 01 C5              add         ebp,eax
  0000000000002A54: 03 54 24 0C        add         edx,dword ptr [rsp+0Ch]
  0000000000002A58: 21 DF              and         edi,ebx
  0000000000002A5A: 31 CB              xor         ebx,ecx
  0000000000002A5C: 0F AC C0 07        shrd        eax,eax,7
  0000000000002A60: 89 EE              mov         esi,ebp
  0000000000002A62: 31 DF              xor         edi,ebx
  0000000000002A64: 0F A4 ED 05        shld        ebp,ebp,5
  0000000000002A68: 01 FA              add         edx,edi
  0000000000002A6A: 31 C6              xor         esi,eax
  0000000000002A6C: 31 D8              xor         eax,ebx
  0000000000002A6E: 01 EA              add         edx,ebp
  0000000000002A70: C4 63 79 0F C7 08  vpalignr    xmm8,xmm0,xmm7,8
  0000000000002A76: C5 F1 EF CD        vpxor       xmm1,xmm1,xmm5
  0000000000002A7A: 03 4C 24 10        add         ecx,dword ptr [rsp+10h]
  0000000000002A7E: 21 C6              and         esi,eax
  0000000000002A80: 31 D8              xor         eax,ebx
  0000000000002A82: 0F AC ED 07        shrd        ebp,ebp,7
  0000000000002A86: C5 F1 EF CA        vpxor       xmm1,xmm1,xmm2
  0000000000002A8A: 89 D7              mov         edi,edx
  0000000000002A8C: 31 C6              xor         esi,eax
  0000000000002A8E: C5 21 FE C8        vpaddd      xmm9,xmm11,xmm0
  0000000000002A92: 0F A4 D2 05        shld        edx,edx,5
  0000000000002A96: 01 F1              add         ecx,esi
  0000000000002A98: C4 C1 71 EF C8     vpxor       xmm1,xmm1,xmm8
  0000000000002A9D: 31 EF              xor         edi,ebp
  0000000000002A9F: 31 C5              xor         ebp,eax
  0000000000002AA1: 01 D1              add         ecx,edx
  0000000000002AA3: 03 5C 24 14        add         ebx,dword ptr [rsp+14h]
  0000000000002AA7: C5 B9 72 D1 1E     vpsrld      xmm8,xmm1,1Eh
  0000000000002AAC: C5 79 7F 0C 24     vmovdqa     xmmword ptr [rsp],xmm9
  0000000000002AB1: 21 EF              and         edi,ebp
  0000000000002AB3: 31 C5              xor         ebp,eax
  0000000000002AB5: 0F AC D2 07        shrd        edx,edx,7
  0000000000002AB9: 89 CE              mov         esi,ecx
  0000000000002ABB: C5 F1 72 F1 02     vpslld      xmm1,xmm1,2
  0000000000002AC0: 31 EF              xor         edi,ebp
  0000000000002AC2: 0F A4 C9 05        shld        ecx,ecx,5
  0000000000002AC6: 01 FB              add         ebx,edi
  0000000000002AC8: 31 D6              xor         esi,edx
  0000000000002ACA: 31 EA              xor         edx,ebp
  0000000000002ACC: 01 CB              add         ebx,ecx
  0000000000002ACE: 03 44 24 18        add         eax,dword ptr [rsp+18h]
  0000000000002AD2: 21 D6              and         esi,edx
  0000000000002AD4: C4 C1 71 EB C8     vpor        xmm1,xmm1,xmm8
  0000000000002AD9: 31 EA              xor         edx,ebp
  0000000000002ADB: 0F AC C9 07        shrd        ecx,ecx,7
  0000000000002ADF: 89 DF              mov         edi,ebx
  0000000000002AE1: 31 D6              xor         esi,edx
  0000000000002AE3: 0F A4 DB 05        shld        ebx,ebx,5
  0000000000002AE7: 01 F0              add         eax,esi
  0000000000002AE9: 31 CF              xor         edi,ecx
  0000000000002AEB: 31 D1              xor         ecx,edx
  0000000000002AED: 01 D8              add         eax,ebx
  0000000000002AEF: 03 6C 24 1C        add         ebp,dword ptr [rsp+1Ch]
  0000000000002AF3: 21 CF              and         edi,ecx
  0000000000002AF5: 31 D1              xor         ecx,edx
  0000000000002AF7: 0F AC DB 07        shrd        ebx,ebx,7
  0000000000002AFB: 89 C6              mov         esi,eax
  0000000000002AFD: 31 CF              xor         edi,ecx
  0000000000002AFF: 0F A4 C0 05        shld        eax,eax,5
  0000000000002B03: 01 FD              add         ebp,edi
  0000000000002B05: 31 DE              xor         esi,ebx
  0000000000002B07: 31 CB              xor         ebx,ecx
  0000000000002B09: 01 C5              add         ebp,eax
  0000000000002B0B: C4 63 71 0F C0 08  vpalignr    xmm8,xmm1,xmm0,8
  0000000000002B11: C5 E9 EF D6        vpxor       xmm2,xmm2,xmm6
  0000000000002B15: 03 54 24 20        add         edx,dword ptr [rsp+20h]
  0000000000002B19: 21 DE              and         esi,ebx
  0000000000002B1B: 31 CB              xor         ebx,ecx
  0000000000002B1D: 0F AC C0 07        shrd        eax,eax,7
  0000000000002B21: C5 E9 EF D3        vpxor       xmm2,xmm2,xmm3
  0000000000002B25: 89 EF              mov         edi,ebp
  0000000000002B27: 31 DE              xor         esi,ebx
  0000000000002B29: C5 21 FE C9        vpaddd      xmm9,xmm11,xmm1
  0000000000002B2D: 0F A4 ED 05        shld        ebp,ebp,5
  0000000000002B31: 01 F2              add         edx,esi
  0000000000002B33: C4 C1 69 EF D0     vpxor       xmm2,xmm2,xmm8
  0000000000002B38: 31 C7              xor         edi,eax
  0000000000002B3A: 31 D8              xor         eax,ebx
  0000000000002B3C: 01 EA              add         edx,ebp
  0000000000002B3E: 03 4C 24 24        add         ecx,dword ptr [rsp+24h]
  0000000000002B42: C5 B9 72 D2 1E     vpsrld      xmm8,xmm2,1Eh
  0000000000002B47: C5 79 7F 4C 24 10  vmovdqa     xmmword ptr [rsp+10h],xmm9
  0000000000002B4D: 21 C7              and         edi,eax
  0000000000002B4F: 31 D8              xor         eax,ebx
  0000000000002B51: 0F AC ED 07        shrd        ebp,ebp,7
  0000000000002B55: 89 D6              mov         esi,edx
  0000000000002B57: C5 E9 72 F2 02     vpslld      xmm2,xmm2,2
  0000000000002B5C: 31 C7              xor         edi,eax
  0000000000002B5E: 0F A4 D2 05        shld        edx,edx,5
  0000000000002B62: 01 F9              add         ecx,edi
  0000000000002B64: 31 EE              xor         esi,ebp
  0000000000002B66: 31 C5              xor         ebp,eax
  0000000000002B68: 01 D1              add         ecx,edx
  0000000000002B6A: 03 5C 24 28        add         ebx,dword ptr [rsp+28h]
  0000000000002B6E: 21 EE              and         esi,ebp
  0000000000002B70: C4 C1 69 EB D0     vpor        xmm2,xmm2,xmm8
  0000000000002B75: 31 C5              xor         ebp,eax
  0000000000002B77: 0F AC D2 07        shrd        edx,edx,7
  0000000000002B7B: 89 CF              mov         edi,ecx
  0000000000002B7D: 31 EE              xor         esi,ebp
  0000000000002B7F: 0F A4 C9 05        shld        ecx,ecx,5
  0000000000002B83: 01 F3              add         ebx,esi
  0000000000002B85: 31 D7              xor         edi,edx
  0000000000002B87: 31 EA              xor         edx,ebp
  0000000000002B89: 01 CB              add         ebx,ecx
  0000000000002B8B: 03 44 24 2C        add         eax,dword ptr [rsp+2Ch]
  0000000000002B8F: 21 D7              and         edi,edx
  0000000000002B91: 31 EA              xor         edx,ebp
  0000000000002B93: 0F AC C9 07        shrd        ecx,ecx,7
  0000000000002B97: 89 DE              mov         esi,ebx
  0000000000002B99: 31 D7              xor         edi,edx
  0000000000002B9B: 0F A4 DB 05        shld        ebx,ebx,5
  0000000000002B9F: 01 F8              add         eax,edi
  0000000000002BA1: 31 D6              xor         esi,edx
  0000000000002BA3: 01 D8              add         eax,ebx
  0000000000002BA5: C4 63 69 0F C1 08  vpalignr    xmm8,xmm2,xmm1,8
  0000000000002BAB: C5 E1 EF DF        vpxor       xmm3,xmm3,xmm7
  0000000000002BAF: 03 6C 24 30        add         ebp,dword ptr [rsp+30h]
  0000000000002BB3: 31 CE              xor         esi,ecx
  0000000000002BB5: 89 C7              mov         edi,eax
  0000000000002BB7: 0F A4 C0 05        shld        eax,eax,5
  0000000000002BBB: C5 E1 EF DC        vpxor       xmm3,xmm3,xmm4
  0000000000002BBF: 01 F5              add         ebp,esi
  0000000000002BC1: 31 CF              xor         edi,ecx
  0000000000002BC3: C5 21 FE CA        vpaddd      xmm9,xmm11,xmm2
  0000000000002BC7: 0F AC DB 07        shrd        ebx,ebx,7
  0000000000002BCB: 01 C5              add         ebp,eax
  0000000000002BCD: C4 C1 61 EF D8     vpxor       xmm3,xmm3,xmm8
  0000000000002BD2: 03 54 24 34        add         edx,dword ptr [rsp+34h]
  0000000000002BD6: 31 DF              xor         edi,ebx
  0000000000002BD8: 89 EE              mov         esi,ebp
  0000000000002BDA: 0F A4 ED 05        shld        ebp,ebp,5
  0000000000002BDE: C5 B9 72 D3 1E     vpsrld      xmm8,xmm3,1Eh
  0000000000002BE3: C5 79 7F 4C 24 20  vmovdqa     xmmword ptr [rsp+20h],xmm9
  0000000000002BE9: 01 FA              add         edx,edi
  0000000000002BEB: 31 DE              xor         esi,ebx
  0000000000002BED: 0F AC C0 07        shrd        eax,eax,7
  0000000000002BF1: 01 EA              add         edx,ebp
  0000000000002BF3: C5 E1 72 F3 02     vpslld      xmm3,xmm3,2
  0000000000002BF8: 03 4C 24 38        add         ecx,dword ptr [rsp+38h]
  0000000000002BFC: 31 C6              xor         esi,eax
  0000000000002BFE: 89 D7              mov         edi,edx
  0000000000002C00: 0F A4 D2 05        shld        edx,edx,5
  0000000000002C04: 01 F1              add         ecx,esi
  0000000000002C06: 31 C7              xor         edi,eax
  0000000000002C08: 0F AC ED 07        shrd        ebp,ebp,7
  0000000000002C0C: 01 D1              add         ecx,edx
  0000000000002C0E: C4 C1 61 EB D8     vpor        xmm3,xmm3,xmm8
  0000000000002C13: 03 5C 24 3C        add         ebx,dword ptr [rsp+3Ch]
  0000000000002C17: 31 EF              xor         edi,ebp
  0000000000002C19: 89 CE              mov         esi,ecx
  0000000000002C1B: 0F A4 C9 05        shld        ecx,ecx,5
  0000000000002C1F: 01 FB              add         ebx,edi
  0000000000002C21: 31 EE              xor         esi,ebp
  0000000000002C23: 0F AC D2 07        shrd        edx,edx,7
  0000000000002C27: 01 CB              add         ebx,ecx
  0000000000002C29: 03 04 24           add         eax,dword ptr [rsp]
  0000000000002C2C: C5 21 FE CB        vpaddd      xmm9,xmm11,xmm3
  0000000000002C30: 31 D6              xor         esi,edx
  0000000000002C32: 89 DF              mov         edi,ebx
  0000000000002C34: 0F A4 DB 05        shld        ebx,ebx,5
  0000000000002C38: 01 F0              add         eax,esi
  0000000000002C3A: C5 79 7F 4C 24 30  vmovdqa     xmmword ptr [rsp+30h],xmm9
  0000000000002C40: 31 D7              xor         edi,edx
  0000000000002C42: 0F AC C9 07        shrd        ecx,ecx,7
  0000000000002C46: 01 D8              add         eax,ebx
  0000000000002C48: 03 6C 24 04        add         ebp,dword ptr [rsp+4]
  0000000000002C4C: 31 CF              xor         edi,ecx
  0000000000002C4E: 89 C6              mov         esi,eax
  0000000000002C50: 0F A4 C0 05        shld        eax,eax,5
  0000000000002C54: 01 FD              add         ebp,edi
  0000000000002C56: 31 CE              xor         esi,ecx
  0000000000002C58: 0F AC DB 07        shrd        ebx,ebx,7
  0000000000002C5C: 01 C5              add         ebp,eax
  0000000000002C5E: 03 54 24 08        add         edx,dword ptr [rsp+8]
  0000000000002C62: 31 DE              xor         esi,ebx
  0000000000002C64: 89 EF              mov         edi,ebp
  0000000000002C66: 0F A4 ED 05        shld        ebp,ebp,5
  0000000000002C6A: 01 F2              add         edx,esi
  0000000000002C6C: 31 DF              xor         edi,ebx
  0000000000002C6E: 0F AC C0 07        shrd        eax,eax,7
  0000000000002C72: 01 EA              add         edx,ebp
  0000000000002C74: 03 4C 24 0C        add         ecx,dword ptr [rsp+0Ch]
  0000000000002C78: 31 C7              xor         edi,eax
  0000000000002C7A: 89 D6              mov         esi,edx
  0000000000002C7C: 0F A4 D2 05        shld        edx,edx,5
  0000000000002C80: 01 F9              add         ecx,edi
  0000000000002C82: 31 C6              xor         esi,eax
  0000000000002C84: 0F AC ED 07        shrd        ebp,ebp,7
  0000000000002C88: 01 D1              add         ecx,edx
  0000000000002C8A: 4D 39 D1           cmp         r9,r10
  0000000000002C8D: 0F 84 9D 01 00 00  je          L$done_avx
  0000000000002C93: C4 C1 79 6F 76 40  vmovdqa     xmm6,xmmword ptr [r14+40h]
  0000000000002C99: C4 41 79 6F 5E C0  vmovdqa     xmm11,xmmword ptr [r14-40h]
  0000000000002C9F: C4 C1 7A 6F 01     vmovdqu     xmm0,xmmword ptr [r9]
  0000000000002CA4: C4 C1 7A 6F 49 10  vmovdqu     xmm1,xmmword ptr [r9+10h]
  0000000000002CAA: C4 C1 7A 6F 51 20  vmovdqu     xmm2,xmmword ptr [r9+20h]
  0000000000002CB0: C4 C1 7A 6F 59 30  vmovdqu     xmm3,xmmword ptr [r9+30h]
  0000000000002CB6: C4 E2 79 00 C6     vpshufb     xmm0,xmm0,xmm6
  0000000000002CBB: 49 83 C1 40        add         r9,40h
  0000000000002CBF: 03 5C 24 10        add         ebx,dword ptr [rsp+10h]
  0000000000002CC3: 31 EE              xor         esi,ebp
  0000000000002CC5: C4 E2 71 00 CE     vpshufb     xmm1,xmm1,xmm6
  0000000000002CCA: 89 CF              mov         edi,ecx
  0000000000002CCC: 0F A4 C9 05        shld        ecx,ecx,5
  0000000000002CD0: C4 C1 79 FE E3     vpaddd      xmm4,xmm0,xmm11
  0000000000002CD5: 01 F3              add         ebx,esi
  0000000000002CD7: 31 EF              xor         edi,ebp
  0000000000002CD9: 0F AC D2 07        shrd        edx,edx,7
  0000000000002CDD: 01 CB              add         ebx,ecx
  0000000000002CDF: C5 F9 7F 24 24     vmovdqa     xmmword ptr [rsp],xmm4
  0000000000002CE4: 03 44 24 14        add         eax,dword ptr [rsp+14h]
  0000000000002CE8: 31 D7              xor         edi,edx
  0000000000002CEA: 89 DE              mov         esi,ebx
  0000000000002CEC: 0F A4 DB 05        shld        ebx,ebx,5
  0000000000002CF0: 01 F8              add         eax,edi
  0000000000002CF2: 31 D6              xor         esi,edx
  0000000000002CF4: 0F AC C9 07        shrd        ecx,ecx,7
  0000000000002CF8: 01 D8              add         eax,ebx
  0000000000002CFA: 03 6C 24 18        add         ebp,dword ptr [rsp+18h]
  0000000000002CFE: 31 CE              xor         esi,ecx
  0000000000002D00: 89 C7              mov         edi,eax
  0000000000002D02: 0F A4 C0 05        shld        eax,eax,5
  0000000000002D06: 01 F5              add         ebp,esi
  0000000000002D08: 31 CF              xor         edi,ecx
  0000000000002D0A: 0F AC DB 07        shrd        ebx,ebx,7
  0000000000002D0E: 01 C5              add         ebp,eax
  0000000000002D10: 03 54 24 1C        add         edx,dword ptr [rsp+1Ch]
  0000000000002D14: 31 DF              xor         edi,ebx
  0000000000002D16: 89 EE              mov         esi,ebp
  0000000000002D18: 0F A4 ED 05        shld        ebp,ebp,5
  0000000000002D1C: 01 FA              add         edx,edi
  0000000000002D1E: 31 DE              xor         esi,ebx
  0000000000002D20: 0F AC C0 07        shrd        eax,eax,7
  0000000000002D24: 01 EA              add         edx,ebp
  0000000000002D26: 03 4C 24 20        add         ecx,dword ptr [rsp+20h]
  0000000000002D2A: 31 C6              xor         esi,eax
  0000000000002D2C: C4 E2 69 00 D6     vpshufb     xmm2,xmm2,xmm6
  0000000000002D31: 89 D7              mov         edi,edx
  0000000000002D33: 0F A4 D2 05        shld        edx,edx,5
  0000000000002D37: C4 C1 71 FE EB     vpaddd      xmm5,xmm1,xmm11
  0000000000002D3C: 01 F1              add         ecx,esi
  0000000000002D3E: 31 C7              xor         edi,eax
  0000000000002D40: 0F AC ED 07        shrd        ebp,ebp,7
  0000000000002D44: 01 D1              add         ecx,edx
  0000000000002D46: C5 F9 7F 6C 24 10  vmovdqa     xmmword ptr [rsp+10h],xmm5
  0000000000002D4C: 03 5C 24 24        add         ebx,dword ptr [rsp+24h]
  0000000000002D50: 31 EF              xor         edi,ebp
  0000000000002D52: 89 CE              mov         esi,ecx
  0000000000002D54: 0F A4 C9 05        shld        ecx,ecx,5
  0000000000002D58: 01 FB              add         ebx,edi
  0000000000002D5A: 31 EE              xor         esi,ebp
  0000000000002D5C: 0F AC D2 07        shrd        edx,edx,7
  0000000000002D60: 01 CB              add         ebx,ecx
  0000000000002D62: 03 44 24 28        add         eax,dword ptr [rsp+28h]
  0000000000002D66: 31 D6              xor         esi,edx
  0000000000002D68: 89 DF              mov         edi,ebx
  0000000000002D6A: 0F A4 DB 05        shld        ebx,ebx,5
  0000000000002D6E: 01 F0              add         eax,esi
  0000000000002D70: 31 D7              xor         edi,edx
  0000000000002D72: 0F AC C9 07        shrd        ecx,ecx,7
  0000000000002D76: 01 D8              add         eax,ebx
  0000000000002D78: 03 6C 24 2C        add         ebp,dword ptr [rsp+2Ch]
  0000000000002D7C: 31 CF              xor         edi,ecx
  0000000000002D7E: 89 C6              mov         esi,eax
  0000000000002D80: 0F A4 C0 05        shld        eax,eax,5
  0000000000002D84: 01 FD              add         ebp,edi
  0000000000002D86: 31 CE              xor         esi,ecx
  0000000000002D88: 0F AC DB 07        shrd        ebx,ebx,7
  0000000000002D8C: 01 C5              add         ebp,eax
  0000000000002D8E: 03 54 24 30        add         edx,dword ptr [rsp+30h]
  0000000000002D92: 31 DE              xor         esi,ebx
  0000000000002D94: C4 E2 61 00 DE     vpshufb     xmm3,xmm3,xmm6
  0000000000002D99: 89 EF              mov         edi,ebp
  0000000000002D9B: 0F A4 ED 05        shld        ebp,ebp,5
  0000000000002D9F: C4 C1 69 FE F3     vpaddd      xmm6,xmm2,xmm11
  0000000000002DA4: 01 F2              add         edx,esi
  0000000000002DA6: 31 DF              xor         edi,ebx
  0000000000002DA8: 0F AC C0 07        shrd        eax,eax,7
  0000000000002DAC: 01 EA              add         edx,ebp
  0000000000002DAE: C5 F9 7F 74 24 20  vmovdqa     xmmword ptr [rsp+20h],xmm6
  0000000000002DB4: 03 4C 24 34        add         ecx,dword ptr [rsp+34h]
  0000000000002DB8: 31 C7              xor         edi,eax
  0000000000002DBA: 89 D6              mov         esi,edx
  0000000000002DBC: 0F A4 D2 05        shld        edx,edx,5
  0000000000002DC0: 01 F9              add         ecx,edi
  0000000000002DC2: 31 C6              xor         esi,eax
  0000000000002DC4: 0F AC ED 07        shrd        ebp,ebp,7
  0000000000002DC8: 01 D1              add         ecx,edx
  0000000000002DCA: 03 5C 24 38        add         ebx,dword ptr [rsp+38h]
  0000000000002DCE: 31 EE              xor         esi,ebp
  0000000000002DD0: 89 CF              mov         edi,ecx
  0000000000002DD2: 0F A4 C9 05        shld        ecx,ecx,5
  0000000000002DD6: 01 F3              add         ebx,esi
  0000000000002DD8: 31 EF              xor         edi,ebp
  0000000000002DDA: 0F AC D2 07        shrd        edx,edx,7
  0000000000002DDE: 01 CB              add         ebx,ecx
  0000000000002DE0: 03 44 24 3C        add         eax,dword ptr [rsp+3Ch]
  0000000000002DE4: 31 D7              xor         edi,edx
  0000000000002DE6: 89 DE              mov         esi,ebx
  0000000000002DE8: 0F A4 DB 05        shld        ebx,ebx,5
  0000000000002DEC: 01 F8              add         eax,edi
  0000000000002DEE: 0F AC C9 07        shrd        ecx,ecx,7
  0000000000002DF2: 01 D8              add         eax,ebx
  0000000000002DF4: 41 03 00           add         eax,dword ptr [r8]
  0000000000002DF7: 41 03 70 04        add         esi,dword ptr [r8+4]
  0000000000002DFB: 41 03 48 08        add         ecx,dword ptr [r8+8]
  0000000000002DFF: 41 03 50 0C        add         edx,dword ptr [r8+0Ch]
  0000000000002E03: 41 89 00           mov         dword ptr [r8],eax
  0000000000002E06: 41 03 68 10        add         ebp,dword ptr [r8+10h]
  0000000000002E0A: 41 89 70 04        mov         dword ptr [r8+4],esi
  0000000000002E0E: 89 F3              mov         ebx,esi
  0000000000002E10: 41 89 48 08        mov         dword ptr [r8+8],ecx
  0000000000002E14: 89 CF              mov         edi,ecx
  0000000000002E16: 41 89 50 0C        mov         dword ptr [r8+0Ch],edx
  0000000000002E1A: 31 D7              xor         edi,edx
  0000000000002E1C: 41 89 68 10        mov         dword ptr [r8+10h],ebp
  0000000000002E20: 21 FE              and         esi,edi
  0000000000002E22: E9 79 F4 FF FF     jmp         L$oop_avx
  0000000000002E27: 90                 nop
  0000000000002E28: 90                 nop
  0000000000002E29: 90                 nop
  0000000000002E2A: 90                 nop
  0000000000002E2B: 90                 nop
  0000000000002E2C: 90                 nop
  0000000000002E2D: 90                 nop
  0000000000002E2E: 90                 nop
  0000000000002E2F: 90                 nop
L$done_avx:
  0000000000002E30: 03 5C 24 10        add         ebx,dword ptr [rsp+10h]
  0000000000002E34: 31 EE              xor         esi,ebp
  0000000000002E36: 89 CF              mov         edi,ecx
  0000000000002E38: 0F A4 C9 05        shld        ecx,ecx,5
  0000000000002E3C: 01 F3              add         ebx,esi
  0000000000002E3E: 31 EF              xor         edi,ebp
  0000000000002E40: 0F AC D2 07        shrd        edx,edx,7
  0000000000002E44: 01 CB              add         ebx,ecx
  0000000000002E46: 03 44 24 14        add         eax,dword ptr [rsp+14h]
  0000000000002E4A: 31 D7              xor         edi,edx
  0000000000002E4C: 89 DE              mov         esi,ebx
  0000000000002E4E: 0F A4 DB 05        shld        ebx,ebx,5
  0000000000002E52: 01 F8              add         eax,edi
  0000000000002E54: 31 D6              xor         esi,edx
  0000000000002E56: 0F AC C9 07        shrd        ecx,ecx,7
  0000000000002E5A: 01 D8              add         eax,ebx
  0000000000002E5C: 03 6C 24 18        add         ebp,dword ptr [rsp+18h]
  0000000000002E60: 31 CE              xor         esi,ecx
  0000000000002E62: 89 C7              mov         edi,eax
  0000000000002E64: 0F A4 C0 05        shld        eax,eax,5
  0000000000002E68: 01 F5              add         ebp,esi
  0000000000002E6A: 31 CF              xor         edi,ecx
  0000000000002E6C: 0F AC DB 07        shrd        ebx,ebx,7
  0000000000002E70: 01 C5              add         ebp,eax
  0000000000002E72: 03 54 24 1C        add         edx,dword ptr [rsp+1Ch]
  0000000000002E76: 31 DF              xor         edi,ebx
  0000000000002E78: 89 EE              mov         esi,ebp
  0000000000002E7A: 0F A4 ED 05        shld        ebp,ebp,5
  0000000000002E7E: 01 FA              add         edx,edi
  0000000000002E80: 31 DE              xor         esi,ebx
  0000000000002E82: 0F AC C0 07        shrd        eax,eax,7
  0000000000002E86: 01 EA              add         edx,ebp
  0000000000002E88: 03 4C 24 20        add         ecx,dword ptr [rsp+20h]
  0000000000002E8C: 31 C6              xor         esi,eax
  0000000000002E8E: 89 D7              mov         edi,edx
  0000000000002E90: 0F A4 D2 05        shld        edx,edx,5
  0000000000002E94: 01 F1              add         ecx,esi
  0000000000002E96: 31 C7              xor         edi,eax
  0000000000002E98: 0F AC ED 07        shrd        ebp,ebp,7
  0000000000002E9C: 01 D1              add         ecx,edx
  0000000000002E9E: 03 5C 24 24        add         ebx,dword ptr [rsp+24h]
  0000000000002EA2: 31 EF              xor         edi,ebp
  0000000000002EA4: 89 CE              mov         esi,ecx
  0000000000002EA6: 0F A4 C9 05        shld        ecx,ecx,5
  0000000000002EAA: 01 FB              add         ebx,edi
  0000000000002EAC: 31 EE              xor         esi,ebp
  0000000000002EAE: 0F AC D2 07        shrd        edx,edx,7
  0000000000002EB2: 01 CB              add         ebx,ecx
  0000000000002EB4: 03 44 24 28        add         eax,dword ptr [rsp+28h]
  0000000000002EB8: 31 D6              xor         esi,edx
  0000000000002EBA: 89 DF              mov         edi,ebx
  0000000000002EBC: 0F A4 DB 05        shld        ebx,ebx,5
  0000000000002EC0: 01 F0              add         eax,esi
  0000000000002EC2: 31 D7              xor         edi,edx
  0000000000002EC4: 0F AC C9 07        shrd        ecx,ecx,7
  0000000000002EC8: 01 D8              add         eax,ebx
  0000000000002ECA: 03 6C 24 2C        add         ebp,dword ptr [rsp+2Ch]
  0000000000002ECE: 31 CF              xor         edi,ecx
  0000000000002ED0: 89 C6              mov         esi,eax
  0000000000002ED2: 0F A4 C0 05        shld        eax,eax,5
  0000000000002ED6: 01 FD              add         ebp,edi
  0000000000002ED8: 31 CE              xor         esi,ecx
  0000000000002EDA: 0F AC DB 07        shrd        ebx,ebx,7
  0000000000002EDE: 01 C5              add         ebp,eax
  0000000000002EE0: 03 54 24 30        add         edx,dword ptr [rsp+30h]
  0000000000002EE4: 31 DE              xor         esi,ebx
  0000000000002EE6: 89 EF              mov         edi,ebp
  0000000000002EE8: 0F A4 ED 05        shld        ebp,ebp,5
  0000000000002EEC: 01 F2              add         edx,esi
  0000000000002EEE: 31 DF              xor         edi,ebx
  0000000000002EF0: 0F AC C0 07        shrd        eax,eax,7
  0000000000002EF4: 01 EA              add         edx,ebp
  0000000000002EF6: 03 4C 24 34        add         ecx,dword ptr [rsp+34h]
  0000000000002EFA: 31 C7              xor         edi,eax
  0000000000002EFC: 89 D6              mov         esi,edx
  0000000000002EFE: 0F A4 D2 05        shld        edx,edx,5
  0000000000002F02: 01 F9              add         ecx,edi
  0000000000002F04: 31 C6              xor         esi,eax
  0000000000002F06: 0F AC ED 07        shrd        ebp,ebp,7
  0000000000002F0A: 01 D1              add         ecx,edx
  0000000000002F0C: 03 5C 24 38        add         ebx,dword ptr [rsp+38h]
  0000000000002F10: 31 EE              xor         esi,ebp
  0000000000002F12: 89 CF              mov         edi,ecx
  0000000000002F14: 0F A4 C9 05        shld        ecx,ecx,5
  0000000000002F18: 01 F3              add         ebx,esi
  0000000000002F1A: 31 EF              xor         edi,ebp
  0000000000002F1C: 0F AC D2 07        shrd        edx,edx,7
  0000000000002F20: 01 CB              add         ebx,ecx
  0000000000002F22: 03 44 24 3C        add         eax,dword ptr [rsp+3Ch]
  0000000000002F26: 31 D7              xor         edi,edx
  0000000000002F28: 89 DE              mov         esi,ebx
  0000000000002F2A: 0F A4 DB 05        shld        ebx,ebx,5
  0000000000002F2E: 01 F8              add         eax,edi
  0000000000002F30: 0F AC C9 07        shrd        ecx,ecx,7
  0000000000002F34: 01 D8              add         eax,ebx
  0000000000002F36: C5 F8 77           vzeroupper
  0000000000002F39: 41 03 00           add         eax,dword ptr [r8]
  0000000000002F3C: 41 03 70 04        add         esi,dword ptr [r8+4]
  0000000000002F40: 41 03 48 08        add         ecx,dword ptr [r8+8]
  0000000000002F44: 41 89 00           mov         dword ptr [r8],eax
  0000000000002F47: 41 03 50 0C        add         edx,dword ptr [r8+0Ch]
  0000000000002F4B: 41 89 70 04        mov         dword ptr [r8+4],esi
  0000000000002F4F: 41 03 68 10        add         ebp,dword ptr [r8+10h]
  0000000000002F53: 41 89 48 08        mov         dword ptr [r8+8],ecx
  0000000000002F57: 41 89 50 0C        mov         dword ptr [r8+0Ch],edx
  0000000000002F5B: 41 89 68 10        mov         dword ptr [r8+10h],ebp
  0000000000002F5F: 41 0F 28 B3 78 FF  movaps      xmm6,xmmword ptr [r11-88h]
                    FF FF
  0000000000002F67: 41 0F 28 7B 88     movaps      xmm7,xmmword ptr [r11-78h]
  0000000000002F6C: 45 0F 28 43 98     movaps      xmm8,xmmword ptr [r11-68h]
  0000000000002F71: 45 0F 28 4B A8     movaps      xmm9,xmmword ptr [r11-58h]
  0000000000002F76: 45 0F 28 53 B8     movaps      xmm10,xmmword ptr [r11-48h]
  0000000000002F7B: 45 0F 28 5B C8     movaps      xmm11,xmmword ptr [r11-38h]
  0000000000002F80: 4D 8B 73 D8        mov         r14,qword ptr [r11-28h]
  0000000000002F84: 4D 8B 6B E0        mov         r13,qword ptr [r11-20h]
  0000000000002F88: 4D 8B 63 E8        mov         r12,qword ptr [r11-18h]
  0000000000002F8C: 49 8B 6B F0        mov         rbp,qword ptr [r11-10h]
  0000000000002F90: 49 8B 5B F8        mov         rbx,qword ptr [r11-8]
  0000000000002F94: 49 8D 23           lea         rsp,[r11]
L$epilogue_avx:
  0000000000002F97: 48 8B 7C 24 08     mov         rdi,qword ptr [rsp+8]
  0000000000002F9C: 48 8B 74 24 10     mov         rsi,qword ptr [rsp+10h]
  0000000000002FA1: F3 C3              rep ret
L$SEH_end_sha1_block_data_order_avx:
  0000000000002FA3: 90                 nop
  0000000000002FA4: 90                 nop
  0000000000002FA5: 90                 nop
  0000000000002FA6: 90                 nop
  0000000000002FA7: 90                 nop
  0000000000002FA8: 90                 nop
  0000000000002FA9: 90                 nop
  0000000000002FAA: 90                 nop
  0000000000002FAB: 90                 nop
  0000000000002FAC: 90                 nop
  0000000000002FAD: 90                 nop
  0000000000002FAE: 90                 nop
  0000000000002FAF: 90                 nop
aws_lc_0_21_1_sha1_block_data_order_avx2:
  0000000000002FB0: 48 89 7C 24 08     mov         qword ptr [rsp+8],rdi
  0000000000002FB5: 48 89 74 24 10     mov         qword ptr [rsp+10h],rsi
  0000000000002FBA: 48 89 E0           mov         rax,rsp
L$SEH_begin_sha1_block_data_order_avx2:
  0000000000002FBD: 48 89 CF           mov         rdi,rcx
  0000000000002FC0: 48 89 D6           mov         rsi,rdx
  0000000000002FC3: 4C 89 C2           mov         rdx,r8
  0000000000002FC6: 49 89 E3           mov         r11,rsp
  0000000000002FC9: 53                 push        rbx
  0000000000002FCA: 55                 push        rbp
  0000000000002FCB: 41 54              push        r12
  0000000000002FCD: 41 55              push        r13
  0000000000002FCF: 41 56              push        r14
  0000000000002FD1: C5 F8 77           vzeroupper
  0000000000002FD4: 48 8D 64 24 A0     lea         rsp,[rsp-60h]
  0000000000002FD9: C4 C1 78 29 B3 78  vmovaps     xmmword ptr [r11-88h],xmm6
                    FF FF FF
  0000000000002FE2: C4 C1 78 29 7B 88  vmovaps     xmmword ptr [r11-78h],xmm7
  0000000000002FE8: C4 41 78 29 43 98  vmovaps     xmmword ptr [r11-68h],xmm8
  0000000000002FEE: C4 41 78 29 4B A8  vmovaps     xmmword ptr [r11-58h],xmm9
  0000000000002FF4: C4 41 78 29 53 B8  vmovaps     xmmword ptr [r11-48h],xmm10
  0000000000002FFA: C4 41 78 29 5B C8  vmovaps     xmmword ptr [r11-38h],xmm11
L$prologue_avx2:
  0000000000003000: 49 89 F8           mov         r8,rdi
  0000000000003003: 49 89 F1           mov         r9,rsi
  0000000000003006: 49 89 D2           mov         r10,rdx
  0000000000003009: 48 8D A4 24 80 FD  lea         rsp,[rsp-280h]
                    FF FF
  0000000000003011: 49 C1 E2 06        shl         r10,6
  0000000000003015: 4D 8D 69 40        lea         r13,[r9+40h]
  0000000000003019: 48 83 E4 80        and         rsp,0FFFFFFFFFFFFFF80h
  000000000000301D: 4D 01 CA           add         r10,r9
  0000000000003020: 4C 8D 35 40 00 00  lea         r14,[.rdata+40h]
                    00
  0000000000003027: 41 8B 00           mov         eax,dword ptr [r8]
  000000000000302A: 4D 39 D5           cmp         r13,r10
  000000000000302D: 4D 0F 43 E9        cmovae      r13,r9
  0000000000003031: 41 8B 68 04        mov         ebp,dword ptr [r8+4]
  0000000000003035: 41 8B 48 08        mov         ecx,dword ptr [r8+8]
  0000000000003039: 41 8B 50 0C        mov         edx,dword ptr [r8+0Ch]
  000000000000303D: 41 8B 70 10        mov         esi,dword ptr [r8+10h]
  0000000000003041: C4 C1 7E 6F 76 40  vmovdqu     ymm6,ymmword ptr [r14+40h]
  0000000000003047: C4 C1 7A 6F 01     vmovdqu     xmm0,xmmword ptr [r9]
  000000000000304C: C4 C1 7A 6F 49 10  vmovdqu     xmm1,xmmword ptr [r9+10h]
  0000000000003052: C4 C1 7A 6F 51 20  vmovdqu     xmm2,xmmword ptr [r9+20h]
  0000000000003058: C4 C1 7A 6F 59 30  vmovdqu     xmm3,xmmword ptr [r9+30h]
  000000000000305E: 4D 8D 49 40        lea         r9,[r9+40h]
  0000000000003062: C4 C3 7D 38 45 00  vinserti128 ymm0,ymm0,xmmword ptr [r13],1
                    01
  0000000000003069: C4 C3 75 38 4D 10  vinserti128 ymm1,ymm1,xmmword ptr [r13+10h],1
                    01
  0000000000003070: C4 E2 7D 00 C6     vpshufb     ymm0,ymm0,ymm6
  0000000000003075: C4 C3 6D 38 55 20  vinserti128 ymm2,ymm2,xmmword ptr [r13+20h],1
                    01
  000000000000307C: C4 E2 75 00 CE     vpshufb     ymm1,ymm1,ymm6
  0000000000003081: C4 C3 65 38 5D 30  vinserti128 ymm3,ymm3,xmmword ptr [r13+30h],1
                    01
  0000000000003088: C4 E2 6D 00 D6     vpshufb     ymm2,ymm2,ymm6
  000000000000308D: C4 41 7E 6F 5E C0  vmovdqu     ymm11,ymmword ptr [r14-40h]
  0000000000003093: C4 E2 65 00 DE     vpshufb     ymm3,ymm3,ymm6
  0000000000003098: C4 C1 7D FE E3     vpaddd      ymm4,ymm0,ymm11
  000000000000309D: C4 C1 75 FE EB     vpaddd      ymm5,ymm1,ymm11
  00000000000030A2: C5 FE 7F 24 24     vmovdqu     ymmword ptr [rsp],ymm4
  00000000000030A7: C4 C1 6D FE F3     vpaddd      ymm6,ymm2,ymm11
  00000000000030AC: C5 FE 7F 6C 24 20  vmovdqu     ymmword ptr [rsp+20h],ymm5
  00000000000030B2: C4 C1 65 FE FB     vpaddd      ymm7,ymm3,ymm11
  00000000000030B7: C5 FE 7F 74 24 40  vmovdqu     ymmword ptr [rsp+40h],ymm6
  00000000000030BD: C5 FE 7F 7C 24 60  vmovdqu     ymmword ptr [rsp+60h],ymm7
  00000000000030C3: C4 E3 75 0F E0 08  vpalignr    ymm4,ymm1,ymm0,8
  00000000000030C9: C5 BD 73 DB 04     vpsrldq     ymm8,ymm3,4
  00000000000030CE: C5 DD EF E0        vpxor       ymm4,ymm4,ymm0
  00000000000030D2: C5 3D EF C2        vpxor       ymm8,ymm8,ymm2
  00000000000030D6: C4 C1 5D EF E0     vpxor       ymm4,ymm4,ymm8
  00000000000030DB: C5 BD 72 D4 1F     vpsrld      ymm8,ymm4,1Fh
  00000000000030E0: C5 AD 73 FC 0C     vpslldq     ymm10,ymm4,0Ch
  00000000000030E5: C5 DD FE E4        vpaddd      ymm4,ymm4,ymm4
  00000000000030E9: C4 C1 35 72 D2 1E  vpsrld      ymm9,ymm10,1Eh
  00000000000030EF: C4 C1 5D EB E0     vpor        ymm4,ymm4,ymm8
  00000000000030F4: C4 C1 2D 72 F2 02  vpslld      ymm10,ymm10,2
  00000000000030FA: C4 C1 5D EF E1     vpxor       ymm4,ymm4,ymm9
  00000000000030FF: C4 C1 5D EF E2     vpxor       ymm4,ymm4,ymm10
  0000000000003104: C4 41 5D FE CB     vpaddd      ymm9,ymm4,ymm11
  0000000000003109: C5 7E 7F 8C 24 80  vmovdqu     ymmword ptr [rsp+80h],ymm9
                    00 00 00
  0000000000003112: C4 E3 6D 0F E9 08  vpalignr    ymm5,ymm2,ymm1,8
  0000000000003118: C5 BD 73 DC 04     vpsrldq     ymm8,ymm4,4
  000000000000311D: C5 D5 EF E9        vpxor       ymm5,ymm5,ymm1
  0000000000003121: C5 3D EF C3        vpxor       ymm8,ymm8,ymm3
  0000000000003125: C4 C1 55 EF E8     vpxor       ymm5,ymm5,ymm8
  000000000000312A: C5 BD 72 D5 1F     vpsrld      ymm8,ymm5,1Fh
  000000000000312F: C4 41 7E 6F 5E E0  vmovdqu     ymm11,ymmword ptr [r14-20h]
  0000000000003135: C5 AD 73 FD 0C     vpslldq     ymm10,ymm5,0Ch
  000000000000313A: C5 D5 FE ED        vpaddd      ymm5,ymm5,ymm5
  000000000000313E: C4 C1 35 72 D2 1E  vpsrld      ymm9,ymm10,1Eh
  0000000000003144: C4 C1 55 EB E8     vpor        ymm5,ymm5,ymm8
  0000000000003149: C4 C1 2D 72 F2 02  vpslld      ymm10,ymm10,2
  000000000000314F: C4 C1 55 EF E9     vpxor       ymm5,ymm5,ymm9
  0000000000003154: C4 C1 55 EF EA     vpxor       ymm5,ymm5,ymm10
  0000000000003159: C4 41 55 FE CB     vpaddd      ymm9,ymm5,ymm11
  000000000000315E: C5 7E 7F 8C 24 A0  vmovdqu     ymmword ptr [rsp+0A0h],ymm9
                    00 00 00
  0000000000003167: C4 E3 65 0F F2 08  vpalignr    ymm6,ymm3,ymm2,8
  000000000000316D: C5 BD 73 DD 04     vpsrldq     ymm8,ymm5,4
  0000000000003172: C5 CD EF F2        vpxor       ymm6,ymm6,ymm2
  0000000000003176: C5 3D EF C4        vpxor       ymm8,ymm8,ymm4
  000000000000317A: C4 C1 4D EF F0     vpxor       ymm6,ymm6,ymm8
  000000000000317F: C5 BD 72 D6 1F     vpsrld      ymm8,ymm6,1Fh
  0000000000003184: C5 AD 73 FE 0C     vpslldq     ymm10,ymm6,0Ch
  0000000000003189: C5 CD FE F6        vpaddd      ymm6,ymm6,ymm6
  000000000000318D: C4 C1 35 72 D2 1E  vpsrld      ymm9,ymm10,1Eh
  0000000000003193: C4 C1 4D EB F0     vpor        ymm6,ymm6,ymm8
  0000000000003198: C4 C1 2D 72 F2 02  vpslld      ymm10,ymm10,2
  000000000000319E: C4 C1 4D EF F1     vpxor       ymm6,ymm6,ymm9
  00000000000031A3: C4 C1 4D EF F2     vpxor       ymm6,ymm6,ymm10
  00000000000031A8: C4 41 4D FE CB     vpaddd      ymm9,ymm6,ymm11
  00000000000031AD: C5 7E 7F 8C 24 C0  vmovdqu     ymmword ptr [rsp+0C0h],ymm9
                    00 00 00
  00000000000031B6: C4 E3 5D 0F FB 08  vpalignr    ymm7,ymm4,ymm3,8
  00000000000031BC: C5 BD 73 DE 04     vpsrldq     ymm8,ymm6,4
  00000000000031C1: C5 C5 EF FB        vpxor       ymm7,ymm7,ymm3
  00000000000031C5: C5 3D EF C5        vpxor       ymm8,ymm8,ymm5
  00000000000031C9: C4 C1 45 EF F8     vpxor       ymm7,ymm7,ymm8
  00000000000031CE: C5 BD 72 D7 1F     vpsrld      ymm8,ymm7,1Fh
  00000000000031D3: C5 AD 73 FF 0C     vpslldq     ymm10,ymm7,0Ch
  00000000000031D8: C5 C5 FE FF        vpaddd      ymm7,ymm7,ymm7
  00000000000031DC: C4 C1 35 72 D2 1E  vpsrld      ymm9,ymm10,1Eh
  00000000000031E2: C4 C1 45 EB F8     vpor        ymm7,ymm7,ymm8
  00000000000031E7: C4 C1 2D 72 F2 02  vpslld      ymm10,ymm10,2
  00000000000031ED: C4 C1 45 EF F9     vpxor       ymm7,ymm7,ymm9
  00000000000031F2: C4 C1 45 EF FA     vpxor       ymm7,ymm7,ymm10
  00000000000031F7: C4 41 45 FE CB     vpaddd      ymm9,ymm7,ymm11
  00000000000031FC: C5 7E 7F 8C 24 E0  vmovdqu     ymmword ptr [rsp+0E0h],ymm9
                    00 00 00
  0000000000003205: 4C 8D AC 24 80 00  lea         r13,[rsp+80h]
                    00 00
  000000000000320D: E9 0E 00 00 00     jmp         L$oop_avx2
  0000000000003212: 90                 nop
  0000000000003213: 90                 nop
  0000000000003214: 90                 nop
  0000000000003215: 90                 nop
  0000000000003216: 90                 nop
  0000000000003217: 90                 nop
  0000000000003218: 90                 nop
  0000000000003219: 90                 nop
  000000000000321A: 90                 nop
  000000000000321B: 90                 nop
  000000000000321C: 90                 nop
  000000000000321D: 90                 nop
  000000000000321E: 90                 nop
  000000000000321F: 90                 nop
L$oop_avx2:
  0000000000003220: C4 E3 7B F0 DD 02  rorx        ebx,ebp,2
  0000000000003226: C4 E2 50 F2 FA     andn        edi,ebp,edx
  000000000000322B: 21 CD              and         ebp,ecx
  000000000000322D: 31 FD              xor         ebp,edi
  000000000000322F: E9 0C 00 00 00     jmp         L$align32_1
  0000000000003234: 90                 nop
  0000000000003235: 90                 nop
  0000000000003236: 90                 nop
  0000000000003237: 90                 nop
  0000000000003238: 90                 nop
  0000000000003239: 90                 nop
  000000000000323A: 90                 nop
  000000000000323B: 90                 nop
  000000000000323C: 90                 nop
  000000000000323D: 90                 nop
  000000000000323E: 90                 nop
  000000000000323F: 90                 nop
L$align32_1:
  0000000000003240: C4 63 45 0F C6 08  vpalignr    ymm8,ymm7,ymm6,8
  0000000000003246: C5 FD EF C4        vpxor       ymm0,ymm0,ymm4
  000000000000324A: 41 03 75 80        add         esi,dword ptr [r13-80h]
  000000000000324E: C4 E2 78 F2 F9     andn        edi,eax,ecx
  0000000000003253: C5 FD EF C1        vpxor       ymm0,ymm0,ymm1
  0000000000003257: 01 EE              add         esi,ebp
  0000000000003259: C4 63 7B F0 E0 1B  rorx        r12d,eax,1Bh
  000000000000325F: C4 E3 7B F0 E8 02  rorx        ebp,eax,2
  0000000000003265: C4 C1 7D EF C0     vpxor       ymm0,ymm0,ymm8
  000000000000326A: 21 D8              and         eax,ebx
  000000000000326C: 44 01 E6           add         esi,r12d
  000000000000326F: 31 F8              xor         eax,edi
  0000000000003271: C5 BD 72 D0 1E     vpsrld      ymm8,ymm0,1Eh
  0000000000003276: C5 FD 72 F0 02     vpslld      ymm0,ymm0,2
  000000000000327B: 41 03 55 84        add         edx,dword ptr [r13-7Ch]
  000000000000327F: C4 E2 48 F2 FB     andn        edi,esi,ebx
  0000000000003284: 01 C2              add         edx,eax
  0000000000003286: C4 63 7B F0 E6 1B  rorx        r12d,esi,1Bh
  000000000000328C: C4 E3 7B F0 C6 02  rorx        eax,esi,2
  0000000000003292: 21 EE              and         esi,ebp
  0000000000003294: C4 C1 7D EB C0     vpor        ymm0,ymm0,ymm8
  0000000000003299: 44 01 E2           add         edx,r12d
  000000000000329C: 31 FE              xor         esi,edi
  000000000000329E: 41 03 4D 88        add         ecx,dword ptr [r13-78h]
  00000000000032A2: C4 E2 68 F2 FD     andn        edi,edx,ebp
  00000000000032A7: C4 41 7D FE CB     vpaddd      ymm9,ymm0,ymm11
  00000000000032AC: 01 F1              add         ecx,esi
  00000000000032AE: C4 63 7B F0 E2 1B  rorx        r12d,edx,1Bh
  00000000000032B4: C4 E3 7B F0 F2 02  rorx        esi,edx,2
  00000000000032BA: 21 C2              and         edx,eax
  00000000000032BC: C5 7E 7F 8C 24 00  vmovdqu     ymmword ptr [rsp+100h],ymm9
                    01 00 00
  00000000000032C5: 44 01 E1           add         ecx,r12d
  00000000000032C8: 31 FA              xor         edx,edi
  00000000000032CA: 41 03 5D 8C        add         ebx,dword ptr [r13-74h]
  00000000000032CE: C4 E2 70 F2 F8     andn        edi,ecx,eax
  00000000000032D3: 01 D3              add         ebx,edx
  00000000000032D5: C4 63 7B F0 E1 1B  rorx        r12d,ecx,1Bh
  00000000000032DB: C4 E3 7B F0 D1 02  rorx        edx,ecx,2
  00000000000032E1: 21 F1              and         ecx,esi
  00000000000032E3: 44 01 E3           add         ebx,r12d
  00000000000032E6: 31 F9              xor         ecx,edi
  00000000000032E8: 41 03 6D A0        add         ebp,dword ptr [r13-60h]
  00000000000032EC: C4 E2 60 F2 FE     andn        edi,ebx,esi
  00000000000032F1: 01 CD              add         ebp,ecx
  00000000000032F3: C4 63 7B F0 E3 1B  rorx        r12d,ebx,1Bh
  00000000000032F9: C4 E3 7B F0 CB 02  rorx        ecx,ebx,2
  00000000000032FF: 21 D3              and         ebx,edx
  0000000000003301: 44 01 E5           add         ebp,r12d
  0000000000003304: 31 FB              xor         ebx,edi
  0000000000003306: C4 63 7D 0F C7 08  vpalignr    ymm8,ymm0,ymm7,8
  000000000000330C: C5 F5 EF CD        vpxor       ymm1,ymm1,ymm5
  0000000000003310: 41 03 45 A4        add         eax,dword ptr [r13-5Ch]
  0000000000003314: C4 E2 50 F2 FA     andn        edi,ebp,edx
  0000000000003319: C5 F5 EF CA        vpxor       ymm1,ymm1,ymm2
  000000000000331D: 01 D8              add         eax,ebx
  000000000000331F: C4 63 7B F0 E5 1B  rorx        r12d,ebp,1Bh
  0000000000003325: C4 E3 7B F0 DD 02  rorx        ebx,ebp,2
  000000000000332B: C4 C1 75 EF C8     vpxor       ymm1,ymm1,ymm8
  0000000000003330: 21 CD              and         ebp,ecx
  0000000000003332: 44 01 E0           add         eax,r12d
  0000000000003335: 31 FD              xor         ebp,edi
  0000000000003337: C5 BD 72 D1 1E     vpsrld      ymm8,ymm1,1Eh
  000000000000333C: C5 F5 72 F1 02     vpslld      ymm1,ymm1,2
  0000000000003341: 41 03 75 A8        add         esi,dword ptr [r13-58h]
  0000000000003345: C4 E2 78 F2 F9     andn        edi,eax,ecx
  000000000000334A: 01 EE              add         esi,ebp
  000000000000334C: C4 63 7B F0 E0 1B  rorx        r12d,eax,1Bh
  0000000000003352: C4 E3 7B F0 E8 02  rorx        ebp,eax,2
  0000000000003358: 21 D8              and         eax,ebx
  000000000000335A: C4 C1 75 EB C8     vpor        ymm1,ymm1,ymm8
  000000000000335F: 44 01 E6           add         esi,r12d
  0000000000003362: 31 F8              xor         eax,edi
  0000000000003364: 41 03 55 AC        add         edx,dword ptr [r13-54h]
  0000000000003368: C4 E2 48 F2 FB     andn        edi,esi,ebx
  000000000000336D: C4 41 75 FE CB     vpaddd      ymm9,ymm1,ymm11
  0000000000003372: 01 C2              add         edx,eax
  0000000000003374: C4 63 7B F0 E6 1B  rorx        r12d,esi,1Bh
  000000000000337A: C4 E3 7B F0 C6 02  rorx        eax,esi,2
  0000000000003380: 21 EE              and         esi,ebp
  0000000000003382: C5 7E 7F 8C 24 20  vmovdqu     ymmword ptr [rsp+120h],ymm9
                    01 00 00
  000000000000338B: 44 01 E2           add         edx,r12d
  000000000000338E: 31 FE              xor         esi,edi
  0000000000003390: 41 03 4D C0        add         ecx,dword ptr [r13-40h]
  0000000000003394: C4 E2 68 F2 FD     andn        edi,edx,ebp
  0000000000003399: 01 F1              add         ecx,esi
  000000000000339B: C4 63 7B F0 E2 1B  rorx        r12d,edx,1Bh
  00000000000033A1: C4 E3 7B F0 F2 02  rorx        esi,edx,2
  00000000000033A7: 21 C2              and         edx,eax
  00000000000033A9: 44 01 E1           add         ecx,r12d
  00000000000033AC: 31 FA              xor         edx,edi
  00000000000033AE: 41 03 5D C4        add         ebx,dword ptr [r13-3Ch]
  00000000000033B2: C4 E2 70 F2 F8     andn        edi,ecx,eax
  00000000000033B7: 01 D3              add         ebx,edx
  00000000000033B9: C4 63 7B F0 E1 1B  rorx        r12d,ecx,1Bh
  00000000000033BF: C4 E3 7B F0 D1 02  rorx        edx,ecx,2
  00000000000033C5: 21 F1              and         ecx,esi
  00000000000033C7: 44 01 E3           add         ebx,r12d
  00000000000033CA: 31 F9              xor         ecx,edi
  00000000000033CC: C4 63 75 0F C0 08  vpalignr    ymm8,ymm1,ymm0,8
  00000000000033D2: C5 ED EF D6        vpxor       ymm2,ymm2,ymm6
  00000000000033D6: 41 03 6D C8        add         ebp,dword ptr [r13-38h]
  00000000000033DA: C4 E2 60 F2 FE     andn        edi,ebx,esi
  00000000000033DF: C5 ED EF D3        vpxor       ymm2,ymm2,ymm3
  00000000000033E3: C4 41 7E 6F 1E     vmovdqu     ymm11,ymmword ptr [r14]
  00000000000033E8: 01 CD              add         ebp,ecx
  00000000000033EA: C4 63 7B F0 E3 1B  rorx        r12d,ebx,1Bh
  00000000000033F0: C4 E3 7B F0 CB 02  rorx        ecx,ebx,2
  00000000000033F6: C4 C1 6D EF D0     vpxor       ymm2,ymm2,ymm8
  00000000000033FB: 21 D3              and         ebx,edx
  00000000000033FD: 44 01 E5           add         ebp,r12d
  0000000000003400: 31 FB              xor         ebx,edi
  0000000000003402: C5 BD 72 D2 1E     vpsrld      ymm8,ymm2,1Eh
  0000000000003407: C5 ED 72 F2 02     vpslld      ymm2,ymm2,2
  000000000000340C: 41 03 45 CC        add         eax,dword ptr [r13-34h]
  0000000000003410: C4 E2 50 F2 FA     andn        edi,ebp,edx
  0000000000003415: 01 D8              add         eax,ebx
  0000000000003417: C4 63 7B F0 E5 1B  rorx        r12d,ebp,1Bh
  000000000000341D: C4 E3 7B F0 DD 02  rorx        ebx,ebp,2
  0000000000003423: 21 CD              and         ebp,ecx
  0000000000003425: C4 C1 6D EB D0     vpor        ymm2,ymm2,ymm8
  000000000000342A: 44 01 E0           add         eax,r12d
  000000000000342D: 31 FD              xor         ebp,edi
  000000000000342F: 41 03 75 E0        add         esi,dword ptr [r13-20h]
  0000000000003433: C4 E2 78 F2 F9     andn        edi,eax,ecx
  0000000000003438: C4 41 6D FE CB     vpaddd      ymm9,ymm2,ymm11
  000000000000343D: 01 EE              add         esi,ebp
  000000000000343F: C4 63 7B F0 E0 1B  rorx        r12d,eax,1Bh
  0000000000003445: C4 E3 7B F0 E8 02  rorx        ebp,eax,2
  000000000000344B: 21 D8              and         eax,ebx
  000000000000344D: C5 7E 7F 8C 24 40  vmovdqu     ymmword ptr [rsp+140h],ymm9
                    01 00 00
  0000000000003456: 44 01 E6           add         esi,r12d
  0000000000003459: 31 F8              xor         eax,edi
  000000000000345B: 41 03 55 E4        add         edx,dword ptr [r13-1Ch]
  000000000000345F: C4 E2 48 F2 FB     andn        edi,esi,ebx
  0000000000003464: 01 C2              add         edx,eax
  0000000000003466: C4 63 7B F0 E6 1B  rorx        r12d,esi,1Bh
  000000000000346C: C4 E3 7B F0 C6 02  rorx        eax,esi,2
  0000000000003472: 21 EE              and         esi,ebp
  0000000000003474: 44 01 E2           add         edx,r12d
  0000000000003477: 31 FE              xor         esi,edi
  0000000000003479: 41 03 4D E8        add         ecx,dword ptr [r13-18h]
  000000000000347D: C4 E2 68 F2 FD     andn        edi,edx,ebp
  0000000000003482: 01 F1              add         ecx,esi
  0000000000003484: C4 63 7B F0 E2 1B  rorx        r12d,edx,1Bh
  000000000000348A: C4 E3 7B F0 F2 02  rorx        esi,edx,2
  0000000000003490: 21 C2              and         edx,eax
  0000000000003492: 44 01 E1           add         ecx,r12d
  0000000000003495: 31 FA              xor         edx,edi
  0000000000003497: C4 63 6D 0F C1 08  vpalignr    ymm8,ymm2,ymm1,8
  000000000000349D: C5 E5 EF DF        vpxor       ymm3,ymm3,ymm7
  00000000000034A1: 41 03 5D EC        add         ebx,dword ptr [r13-14h]
  00000000000034A5: C4 E2 70 F2 F8     andn        edi,ecx,eax
  00000000000034AA: C5 E5 EF DC        vpxor       ymm3,ymm3,ymm4
  00000000000034AE: 01 D3              add         ebx,edx
  00000000000034B0: C4 63 7B F0 E1 1B  rorx        r12d,ecx,1Bh
  00000000000034B6: C4 E3 7B F0 D1 02  rorx        edx,ecx,2
  00000000000034BC: C4 C1 65 EF D8     vpxor       ymm3,ymm3,ymm8
  00000000000034C1: 21 F1              and         ecx,esi
  00000000000034C3: 44 01 E3           add         ebx,r12d
  00000000000034C6: 31 F9              xor         ecx,edi
  00000000000034C8: C5 BD 72 D3 1E     vpsrld      ymm8,ymm3,1Eh
  00000000000034CD: C5 E5 72 F3 02     vpslld      ymm3,ymm3,2
  00000000000034D2: 41 03 6D 00        add         ebp,dword ptr [r13]
  00000000000034D6: C4 E2 60 F2 FE     andn        edi,ebx,esi
  00000000000034DB: 01 CD              add         ebp,ecx
  00000000000034DD: C4 63 7B F0 E3 1B  rorx        r12d,ebx,1Bh
  00000000000034E3: C4 E3 7B F0 CB 02  rorx        ecx,ebx,2
  00000000000034E9: 21 D3              and         ebx,edx
  00000000000034EB: C4 C1 65 EB D8     vpor        ymm3,ymm3,ymm8
  00000000000034F0: 44 01 E5           add         ebp,r12d
  00000000000034F3: 31 FB              xor         ebx,edi
  00000000000034F5: 41 03 45 04        add         eax,dword ptr [r13+4]
  00000000000034F9: C4 E2 50 F2 FA     andn        edi,ebp,edx
  00000000000034FE: C4 41 65 FE CB     vpaddd      ymm9,ymm3,ymm11
  0000000000003503: 01 D8              add         eax,ebx
  0000000000003505: C4 63 7B F0 E5 1B  rorx        r12d,ebp,1Bh
  000000000000350B: C4 E3 7B F0 DD 02  rorx        ebx,ebp,2
  0000000000003511: 21 CD              and         ebp,ecx
  0000000000003513: C5 7E 7F 8C 24 60  vmovdqu     ymmword ptr [rsp+160h],ymm9
                    01 00 00
  000000000000351C: 44 01 E0           add         eax,r12d
  000000000000351F: 31 FD              xor         ebp,edi
  0000000000003521: 41 03 75 08        add         esi,dword ptr [r13+8]
  0000000000003525: C4 E2 78 F2 F9     andn        edi,eax,ecx
  000000000000352A: 01 EE              add         esi,ebp
  000000000000352C: C4 63 7B F0 E0 1B  rorx        r12d,eax,1Bh
  0000000000003532: C4 E3 7B F0 E8 02  rorx        ebp,eax,2
  0000000000003538: 21 D8              and         eax,ebx
  000000000000353A: 44 01 E6           add         esi,r12d
  000000000000353D: 31 F8              xor         eax,edi
  000000000000353F: 41 03 55 0C        add         edx,dword ptr [r13+0Ch]
  0000000000003543: 8D 14 02           lea         edx,[rdx+rax]
  0000000000003546: C4 63 7B F0 E6 1B  rorx        r12d,esi,1Bh
  000000000000354C: C4 E3 7B F0 C6 02  rorx        eax,esi,2
  0000000000003552: 31 EE              xor         esi,ebp
  0000000000003554: 44 01 E2           add         edx,r12d
  0000000000003557: 31 DE              xor         esi,ebx
  0000000000003559: C4 63 65 0F C2 08  vpalignr    ymm8,ymm3,ymm2,8
  000000000000355F: C5 DD EF E0        vpxor       ymm4,ymm4,ymm0
  0000000000003563: 41 03 4D 20        add         ecx,dword ptr [r13+20h]
  0000000000003567: 8D 0C 31           lea         ecx,[rcx+rsi]
  000000000000356A: C5 DD EF E5        vpxor       ymm4,ymm4,ymm5
  000000000000356E: C4 63 7B F0 E2 1B  rorx        r12d,edx,1Bh
  0000000000003574: C4 E3 7B F0 F2 02  rorx        esi,edx,2
  000000000000357A: 31 C2              xor         edx,eax
  000000000000357C: C4 C1 5D EF E0     vpxor       ymm4,ymm4,ymm8
  0000000000003581: 44 01 E1           add         ecx,r12d
  0000000000003584: 31 EA              xor         edx,ebp
  0000000000003586: 41 03 5D 24        add         ebx,dword ptr [r13+24h]
  000000000000358A: C5 BD 72 D4 1E     vpsrld      ymm8,ymm4,1Eh
  000000000000358F: C5 DD 72 F4 02     vpslld      ymm4,ymm4,2
  0000000000003594: 8D 1C 13           lea         ebx,[rbx+rdx]
  0000000000003597: C4 63 7B F0 E1 1B  rorx        r12d,ecx,1Bh
  000000000000359D: C4 E3 7B F0 D1 02  rorx        edx,ecx,2
  00000000000035A3: 31 F1              xor         ecx,esi
  00000000000035A5: 44 01 E3           add         ebx,r12d
  00000000000035A8: 31 C1              xor         ecx,eax
  00000000000035AA: C4 C1 5D EB E0     vpor        ymm4,ymm4,ymm8
  00000000000035AF: 41 03 6D 28        add         ebp,dword ptr [r13+28h]
  00000000000035B3: 8D 2C 29           lea         ebp,[rcx+rbp]
  00000000000035B6: C4 63 7B F0 E3 1B  rorx        r12d,ebx,1Bh
  00000000000035BC: C4 E3 7B F0 CB 02  rorx        ecx,ebx,2
  00000000000035C2: C4 41 5D FE CB     vpaddd      ymm9,ymm4,ymm11
  00000000000035C7: 31 D3              xor         ebx,edx
  00000000000035C9: 44 01 E5           add         ebp,r12d
  00000000000035CC: 31 F3              xor         ebx,esi
  00000000000035CE: 41 03 45 2C        add         eax,dword ptr [r13+2Ch]
  00000000000035D2: C5 7E 7F 8C 24 80  vmovdqu     ymmword ptr [rsp+180h],ymm9
                    01 00 00
  00000000000035DB: 8D 04 18           lea         eax,[rax+rbx]
  00000000000035DE: C4 63 7B F0 E5 1B  rorx        r12d,ebp,1Bh
  00000000000035E4: C4 E3 7B F0 DD 02  rorx        ebx,ebp,2
  00000000000035EA: 31 CD              xor         ebp,ecx
  00000000000035EC: 44 01 E0           add         eax,r12d
  00000000000035EF: 31 D5              xor         ebp,edx
  00000000000035F1: 41 03 75 40        add         esi,dword ptr [r13+40h]
  00000000000035F5: 8D 34 2E           lea         esi,[rsi+rbp]
  00000000000035F8: C4 63 7B F0 E0 1B  rorx        r12d,eax,1Bh
  00000000000035FE: C4 E3 7B F0 E8 02  rorx        ebp,eax,2
  0000000000003604: 31 D8              xor         eax,ebx
  0000000000003606: 44 01 E6           add         esi,r12d
  0000000000003609: 31 C8              xor         eax,ecx
  000000000000360B: C4 63 5D 0F C3 08  vpalignr    ymm8,ymm4,ymm3,8
  0000000000003611: C5 D5 EF E9        vpxor       ymm5,ymm5,ymm1
  0000000000003615: 41 03 55 44        add         edx,dword ptr [r13+44h]
  0000000000003619: 8D 14 02           lea         edx,[rdx+rax]
  000000000000361C: C5 D5 EF EE        vpxor       ymm5,ymm5,ymm6
  0000000000003620: C4 63 7B F0 E6 1B  rorx        r12d,esi,1Bh
  0000000000003626: C4 E3 7B F0 C6 02  rorx        eax,esi,2
  000000000000362C: 31 EE              xor         esi,ebp
  000000000000362E: C4 C1 55 EF E8     vpxor       ymm5,ymm5,ymm8
  0000000000003633: 44 01 E2           add         edx,r12d
  0000000000003636: 31 DE              xor         esi,ebx
  0000000000003638: 41 03 4D 48        add         ecx,dword ptr [r13+48h]
  000000000000363C: C5 BD 72 D5 1E     vpsrld      ymm8,ymm5,1Eh
  0000000000003641: C5 D5 72 F5 02     vpslld      ymm5,ymm5,2
  0000000000003646: 8D 0C 31           lea         ecx,[rcx+rsi]
  0000000000003649: C4 63 7B F0 E2 1B  rorx        r12d,edx,1Bh
  000000000000364F: C4 E3 7B F0 F2 02  rorx        esi,edx,2
  0000000000003655: 31 C2              xor         edx,eax
  0000000000003657: 44 01 E1           add         ecx,r12d
  000000000000365A: 31 EA              xor         edx,ebp
  000000000000365C: C4 C1 55 EB E8     vpor        ymm5,ymm5,ymm8
  0000000000003661: 41 03 5D 4C        add         ebx,dword ptr [r13+4Ch]
  0000000000003665: 8D 1C 13           lea         ebx,[rbx+rdx]
  0000000000003668: C4 63 7B F0 E1 1B  rorx        r12d,ecx,1Bh
  000000000000366E: C4 E3 7B F0 D1 02  rorx        edx,ecx,2
  0000000000003674: C4 41 55 FE CB     vpaddd      ymm9,ymm5,ymm11
  0000000000003679: 31 F1              xor         ecx,esi
  000000000000367B: 44 01 E3           add         ebx,r12d
  000000000000367E: 31 C1              xor         ecx,eax
  0000000000003680: 41 03 6D 60        add         ebp,dword ptr [r13+60h]
  0000000000003684: C5 7E 7F 8C 24 A0  vmovdqu     ymmword ptr [rsp+1A0h],ymm9
                    01 00 00
  000000000000368D: 8D 2C 29           lea         ebp,[rcx+rbp]
  0000000000003690: C4 63 7B F0 E3 1B  rorx        r12d,ebx,1Bh
  0000000000003696: C4 E3 7B F0 CB 02  rorx        ecx,ebx,2
  000000000000369C: 31 D3              xor         ebx,edx
  000000000000369E: 44 01 E5           add         ebp,r12d
  00000000000036A1: 31 F3              xor         ebx,esi
  00000000000036A3: 41 03 45 64        add         eax,dword ptr [r13+64h]
  00000000000036A7: 8D 04 18           lea         eax,[rax+rbx]
  00000000000036AA: C4 63 7B F0 E5 1B  rorx        r12d,ebp,1Bh
  00000000000036B0: C4 E3 7B F0 DD 02  rorx        ebx,ebp,2
  00000000000036B6: 31 CD              xor         ebp,ecx
  00000000000036B8: 44 01 E0           add         eax,r12d
  00000000000036BB: 31 D5              xor         ebp,edx
  00000000000036BD: C4 63 55 0F C4 08  vpalignr    ymm8,ymm5,ymm4,8
  00000000000036C3: C5 CD EF F2        vpxor       ymm6,ymm6,ymm2
  00000000000036C7: 41 03 75 68        add         esi,dword ptr [r13+68h]
  00000000000036CB: 8D 34 2E           lea         esi,[rsi+rbp]
  00000000000036CE: C5 CD EF F7        vpxor       ymm6,ymm6,ymm7
  00000000000036D2: C4 63 7B F0 E0 1B  rorx        r12d,eax,1Bh
  00000000000036D8: C4 E3 7B F0 E8 02  rorx        ebp,eax,2
  00000000000036DE: 31 D8              xor         eax,ebx
  00000000000036E0: C4 C1 4D EF F0     vpxor       ymm6,ymm6,ymm8
  00000000000036E5: 44 01 E6           add         esi,r12d
  00000000000036E8: 31 C8              xor         eax,ecx
  00000000000036EA: 41 03 55 6C        add         edx,dword ptr [r13+6Ch]
  00000000000036EE: 4D 8D AD 00 01 00  lea         r13,[r13+100h]
                    00
  00000000000036F5: C5 BD 72 D6 1E     vpsrld      ymm8,ymm6,1Eh
  00000000000036FA: C5 CD 72 F6 02     vpslld      ymm6,ymm6,2
  00000000000036FF: 8D 14 02           lea         edx,[rdx+rax]
  0000000000003702: C4 63 7B F0 E6 1B  rorx        r12d,esi,1Bh
  0000000000003708: C4 E3 7B F0 C6 02  rorx        eax,esi,2
  000000000000370E: 31 EE              xor         esi,ebp
  0000000000003710: 44 01 E2           add         edx,r12d
  0000000000003713: 31 DE              xor         esi,ebx
  0000000000003715: C4 C1 4D EB F0     vpor        ymm6,ymm6,ymm8
  000000000000371A: 41 03 4D 80        add         ecx,dword ptr [r13-80h]
  000000000000371E: 8D 0C 31           lea         ecx,[rcx+rsi]
  0000000000003721: C4 63 7B F0 E2 1B  rorx        r12d,edx,1Bh
  0000000000003727: C4 E3 7B F0 F2 02  rorx        esi,edx,2
  000000000000372D: C4 41 4D FE CB     vpaddd      ymm9,ymm6,ymm11
  0000000000003732: 31 C2              xor         edx,eax
  0000000000003734: 44 01 E1           add         ecx,r12d
  0000000000003737: 31 EA              xor         edx,ebp
  0000000000003739: 41 03 5D 84        add         ebx,dword ptr [r13-7Ch]
  000000000000373D: C5 7E 7F 8C 24 C0  vmovdqu     ymmword ptr [rsp+1C0h],ymm9
                    01 00 00
  0000000000003746: 8D 1C 13           lea         ebx,[rbx+rdx]
  0000000000003749: C4 63 7B F0 E1 1B  rorx        r12d,ecx,1Bh
  000000000000374F: C4 E3 7B F0 D1 02  rorx        edx,ecx,2
  0000000000003755: 31 F1              xor         ecx,esi
  0000000000003757: 44 01 E3           add         ebx,r12d
  000000000000375A: 31 C1              xor         ecx,eax
  000000000000375C: 41 03 6D 88        add         ebp,dword ptr [r13-78h]
  0000000000003760: 8D 2C 29           lea         ebp,[rcx+rbp]
  0000000000003763: C4 63 7B F0 E3 1B  rorx        r12d,ebx,1Bh
  0000000000003769: C4 E3 7B F0 CB 02  rorx        ecx,ebx,2
  000000000000376F: 31 D3              xor         ebx,edx
  0000000000003771: 44 01 E5           add         ebp,r12d
  0000000000003774: 31 F3              xor         ebx,esi
  0000000000003776: C4 63 4D 0F C5 08  vpalignr    ymm8,ymm6,ymm5,8
  000000000000377C: C5 C5 EF FB        vpxor       ymm7,ymm7,ymm3
  0000000000003780: 41 03 45 8C        add         eax,dword ptr [r13-74h]
  0000000000003784: 8D 04 18           lea         eax,[rax+rbx]
  0000000000003787: C5 C5 EF F8        vpxor       ymm7,ymm7,ymm0
  000000000000378B: C4 41 7E 6F 5E 20  vmovdqu     ymm11,ymmword ptr [r14+20h]
  0000000000003791: C4 63 7B F0 E5 1B  rorx        r12d,ebp,1Bh
  0000000000003797: C4 E3 7B F0 DD 02  rorx        ebx,ebp,2
  000000000000379D: 31 CD              xor         ebp,ecx
  000000000000379F: C4 C1 45 EF F8     vpxor       ymm7,ymm7,ymm8
  00000000000037A4: 44 01 E0           add         eax,r12d
  00000000000037A7: 31 D5              xor         ebp,edx
  00000000000037A9: 41 03 75 A0        add         esi,dword ptr [r13-60h]
  00000000000037AD: C5 BD 72 D7 1E     vpsrld      ymm8,ymm7,1Eh
  00000000000037B2: C5 C5 72 F7 02     vpslld      ymm7,ymm7,2
  00000000000037B7: 8D 34 2E           lea         esi,[rsi+rbp]
  00000000000037BA: C4 63 7B F0 E0 1B  rorx        r12d,eax,1Bh
  00000000000037C0: C4 E3 7B F0 E8 02  rorx        ebp,eax,2
  00000000000037C6: 31 D8              xor         eax,ebx
  00000000000037C8: 44 01 E6           add         esi,r12d
  00000000000037CB: 31 C8              xor         eax,ecx
  00000000000037CD: C4 C1 45 EB F8     vpor        ymm7,ymm7,ymm8
  00000000000037D2: 41 03 55 A4        add         edx,dword ptr [r13-5Ch]
  00000000000037D6: 8D 14 02           lea         edx,[rdx+rax]
  00000000000037D9: C4 63 7B F0 E6 1B  rorx        r12d,esi,1Bh
  00000000000037DF: C4 E3 7B F0 C6 02  rorx        eax,esi,2
  00000000000037E5: C4 41 45 FE CB     vpaddd      ymm9,ymm7,ymm11
  00000000000037EA: 31 EE              xor         esi,ebp
  00000000000037EC: 44 01 E2           add         edx,r12d
  00000000000037EF: 31 DE              xor         esi,ebx
  00000000000037F1: 41 03 4D A8        add         ecx,dword ptr [r13-58h]
  00000000000037F5: C5 7E 7F 8C 24 E0  vmovdqu     ymmword ptr [rsp+1E0h],ymm9
                    01 00 00
  00000000000037FE: 8D 0C 31           lea         ecx,[rcx+rsi]
  0000000000003801: C4 63 7B F0 E2 1B  rorx        r12d,edx,1Bh
  0000000000003807: C4 E3 7B F0 F2 02  rorx        esi,edx,2
  000000000000380D: 31 C2              xor         edx,eax
  000000000000380F: 44 01 E1           add         ecx,r12d
  0000000000003812: 31 EA              xor         edx,ebp
  0000000000003814: 41 03 5D AC        add         ebx,dword ptr [r13-54h]
  0000000000003818: 89 F7              mov         edi,esi
  000000000000381A: 31 C7              xor         edi,eax
  000000000000381C: 8D 1C 13           lea         ebx,[rbx+rdx]
  000000000000381F: C4 63 7B F0 E1 1B  rorx        r12d,ecx,1Bh
  0000000000003825: C4 E3 7B F0 D1 02  rorx        edx,ecx,2
  000000000000382B: 31 F1              xor         ecx,esi
  000000000000382D: 44 01 E3           add         ebx,r12d
  0000000000003830: 21 F9              and         ecx,edi
  0000000000003832: E9 09 00 00 00     jmp         L$align32_2
  0000000000003837: 90                 nop
  0000000000003838: 90                 nop
  0000000000003839: 90                 nop
  000000000000383A: 90                 nop
  000000000000383B: 90                 nop
  000000000000383C: 90                 nop
  000000000000383D: 90                 nop
  000000000000383E: 90                 nop
  000000000000383F: 90                 nop
L$align32_2:
  0000000000003840: C4 63 45 0F C6 08  vpalignr    ymm8,ymm7,ymm6,8
  0000000000003846: C5 FD EF C4        vpxor       ymm0,ymm0,ymm4
  000000000000384A: 41 03 6D C0        add         ebp,dword ptr [r13-40h]
  000000000000384E: 31 F1              xor         ecx,esi
  0000000000003850: C5 FD EF C1        vpxor       ymm0,ymm0,ymm1
  0000000000003854: 89 D7              mov         edi,edx
  0000000000003856: 31 F7              xor         edi,esi
  0000000000003858: 8D 2C 29           lea         ebp,[rcx+rbp]
  000000000000385B: C4 C1 7D EF C0     vpxor       ymm0,ymm0,ymm8
  0000000000003860: C4 63 7B F0 E3 1B  rorx        r12d,ebx,1Bh
  0000000000003866: C4 E3 7B F0 CB 02  rorx        ecx,ebx,2
  000000000000386C: 31 D3              xor         ebx,edx
  000000000000386E: C5 BD 72 D0 1E     vpsrld      ymm8,ymm0,1Eh
  0000000000003873: C5 FD 72 F0 02     vpslld      ymm0,ymm0,2
  0000000000003878: 44 01 E5           add         ebp,r12d
  000000000000387B: 21 FB              and         ebx,edi
  000000000000387D: 41 03 45 C4        add         eax,dword ptr [r13-3Ch]
  0000000000003881: 31 D3              xor         ebx,edx
  0000000000003883: 89 CF              mov         edi,ecx
  0000000000003885: 31 D7              xor         edi,edx
  0000000000003887: C4 C1 7D EB C0     vpor        ymm0,ymm0,ymm8
  000000000000388C: 8D 04 18           lea         eax,[rax+rbx]
  000000000000388F: C4 63 7B F0 E5 1B  rorx        r12d,ebp,1Bh
  0000000000003895: C4 E3 7B F0 DD 02  rorx        ebx,ebp,2
  000000000000389B: 31 CD              xor         ebp,ecx
  000000000000389D: C4 41 7D FE CB     vpaddd      ymm9,ymm0,ymm11
  00000000000038A2: 44 01 E0           add         eax,r12d
  00000000000038A5: 21 FD              and         ebp,edi
  00000000000038A7: 41 03 75 C8        add         esi,dword ptr [r13-38h]
  00000000000038AB: 31 CD              xor         ebp,ecx
  00000000000038AD: C5 7E 7F 8C 24 00  vmovdqu     ymmword ptr [rsp+200h],ymm9
                    02 00 00
  00000000000038B6: 89 DF              mov         edi,ebx
  00000000000038B8: 31 CF              xor         edi,ecx
  00000000000038BA: 8D 34 2E           lea         esi,[rsi+rbp]
  00000000000038BD: C4 63 7B F0 E0 1B  rorx        r12d,eax,1Bh
  00000000000038C3: C4 E3 7B F0 E8 02  rorx        ebp,eax,2
  00000000000038C9: 31 D8              xor         eax,ebx
  00000000000038CB: 44 01 E6           add         esi,r12d
  00000000000038CE: 21 F8              and         eax,edi
  00000000000038D0: 41 03 55 CC        add         edx,dword ptr [r13-34h]
  00000000000038D4: 31 D8              xor         eax,ebx
  00000000000038D6: 89 EF              mov         edi,ebp
  00000000000038D8: 31 DF              xor         edi,ebx
  00000000000038DA: 8D 14 02           lea         edx,[rdx+rax]
  00000000000038DD: C4 63 7B F0 E6 1B  rorx        r12d,esi,1Bh
  00000000000038E3: C4 E3 7B F0 C6 02  rorx        eax,esi,2
  00000000000038E9: 31 EE              xor         esi,ebp
  00000000000038EB: 44 01 E2           add         edx,r12d
  00000000000038EE: 21 FE              and         esi,edi
  00000000000038F0: 41 03 4D E0        add         ecx,dword ptr [r13-20h]
  00000000000038F4: 31 EE              xor         esi,ebp
  00000000000038F6: 89 C7              mov         edi,eax
  00000000000038F8: 31 EF              xor         edi,ebp
  00000000000038FA: 8D 0C 31           lea         ecx,[rcx+rsi]
  00000000000038FD: C4 63 7B F0 E2 1B  rorx        r12d,edx,1Bh
  0000000000003903: C4 E3 7B F0 F2 02  rorx        esi,edx,2
  0000000000003909: 31 C2              xor         edx,eax
  000000000000390B: 44 01 E1           add         ecx,r12d
  000000000000390E: 21 FA              and         edx,edi
  0000000000003910: C4 63 7D 0F C7 08  vpalignr    ymm8,ymm0,ymm7,8
  0000000000003916: C5 F5 EF CD        vpxor       ymm1,ymm1,ymm5
  000000000000391A: 41 03 5D E4        add         ebx,dword ptr [r13-1Ch]
  000000000000391E: 31 C2              xor         edx,eax
  0000000000003920: C5 F5 EF CA        vpxor       ymm1,ymm1,ymm2
  0000000000003924: 89 F7              mov         edi,esi
  0000000000003926: 31 C7              xor         edi,eax
  0000000000003928: 8D 1C 13           lea         ebx,[rbx+rdx]
  000000000000392B: C4 C1 75 EF C8     vpxor       ymm1,ymm1,ymm8
  0000000000003930: C4 63 7B F0 E1 1B  rorx        r12d,ecx,1Bh
  0000000000003936: C4 E3 7B F0 D1 02  rorx        edx,ecx,2
  000000000000393C: 31 F1              xor         ecx,esi
  000000000000393E: C5 BD 72 D1 1E     vpsrld      ymm8,ymm1,1Eh
  0000000000003943: C5 F5 72 F1 02     vpslld      ymm1,ymm1,2
  0000000000003948: 44 01 E3           add         ebx,r12d
  000000000000394B: 21 F9              and         ecx,edi
  000000000000394D: 41 03 6D E8        add         ebp,dword ptr [r13-18h]
  0000000000003951: 31 F1              xor         ecx,esi
  0000000000003953: 89 D7              mov         edi,edx
  0000000000003955: 31 F7              xor         edi,esi
  0000000000003957: C4 C1 75 EB C8     vpor        ymm1,ymm1,ymm8
  000000000000395C: 8D 2C 29           lea         ebp,[rcx+rbp]
  000000000000395F: C4 63 7B F0 E3 1B  rorx        r12d,ebx,1Bh
  0000000000003965: C4 E3 7B F0 CB 02  rorx        ecx,ebx,2
  000000000000396B: 31 D3              xor         ebx,edx
  000000000000396D: C4 41 75 FE CB     vpaddd      ymm9,ymm1,ymm11
  0000000000003972: 44 01 E5           add         ebp,r12d
  0000000000003975: 21 FB              and         ebx,edi
  0000000000003977: 41 03 45 EC        add         eax,dword ptr [r13-14h]
  000000000000397B: 31 D3              xor         ebx,edx
  000000000000397D: C5 7E 7F 8C 24 20  vmovdqu     ymmword ptr [rsp+220h],ymm9
                    02 00 00
  0000000000003986: 89 CF              mov         edi,ecx
  0000000000003988: 31 D7              xor         edi,edx
  000000000000398A: 8D 04 18           lea         eax,[rax+rbx]
  000000000000398D: C4 63 7B F0 E5 1B  rorx        r12d,ebp,1Bh
  0000000000003993: C4 E3 7B F0 DD 02  rorx        ebx,ebp,2
  0000000000003999: 31 CD              xor         ebp,ecx
  000000000000399B: 44 01 E0           add         eax,r12d
  000000000000399E: 21 FD              and         ebp,edi
  00000000000039A0: 41 03 75 00        add         esi,dword ptr [r13]
  00000000000039A4: 31 CD              xor         ebp,ecx
  00000000000039A6: 89 DF              mov         edi,ebx
  00000000000039A8: 31 CF              xor         edi,ecx
  00000000000039AA: 8D 34 2E           lea         esi,[rsi+rbp]
  00000000000039AD: C4 63 7B F0 E0 1B  rorx        r12d,eax,1Bh
  00000000000039B3: C4 E3 7B F0 E8 02  rorx        ebp,eax,2
  00000000000039B9: 31 D8              xor         eax,ebx
  00000000000039BB: 44 01 E6           add         esi,r12d
  00000000000039BE: 21 F8              and         eax,edi
  00000000000039C0: 41 03 55 04        add         edx,dword ptr [r13+4]
  00000000000039C4: 31 D8              xor         eax,ebx
  00000000000039C6: 89 EF              mov         edi,ebp
  00000000000039C8: 31 DF              xor         edi,ebx
  00000000000039CA: 8D 14 02           lea         edx,[rdx+rax]
  00000000000039CD: C4 63 7B F0 E6 1B  rorx        r12d,esi,1Bh
  00000000000039D3: C4 E3 7B F0 C6 02  rorx        eax,esi,2
  00000000000039D9: 31 EE              xor         esi,ebp
  00000000000039DB: 44 01 E2           add         edx,r12d
  00000000000039DE: 21 FE              and         esi,edi
  00000000000039E0: C4 63 75 0F C0 08  vpalignr    ymm8,ymm1,ymm0,8
  00000000000039E6: C5 ED EF D6        vpxor       ymm2,ymm2,ymm6
  00000000000039EA: 41 03 4D 08        add         ecx,dword ptr [r13+8]
  00000000000039EE: 31 EE              xor         esi,ebp
  00000000000039F0: C5 ED EF D3        vpxor       ymm2,ymm2,ymm3
  00000000000039F4: 89 C7              mov         edi,eax
  00000000000039F6: 31 EF              xor         edi,ebp
  00000000000039F8: 8D 0C 31           lea         ecx,[rcx+rsi]
  00000000000039FB: C4 C1 6D EF D0     vpxor       ymm2,ymm2,ymm8
  0000000000003A00: C4 63 7B F0 E2 1B  rorx        r12d,edx,1Bh
  0000000000003A06: C4 E3 7B F0 F2 02  rorx        esi,edx,2
  0000000000003A0C: 31 C2              xor         edx,eax
  0000000000003A0E: C5 BD 72 D2 1E     vpsrld      ymm8,ymm2,1Eh
  0000000000003A13: C5 ED 72 F2 02     vpslld      ymm2,ymm2,2
  0000000000003A18: 44 01 E1           add         ecx,r12d
  0000000000003A1B: 21 FA              and         edx,edi
  0000000000003A1D: 41 03 5D 0C        add         ebx,dword ptr [r13+0Ch]
  0000000000003A21: 31 C2              xor         edx,eax
  0000000000003A23: 89 F7              mov         edi,esi
  0000000000003A25: 31 C7              xor         edi,eax
  0000000000003A27: C4 C1 6D EB D0     vpor        ymm2,ymm2,ymm8
  0000000000003A2C: 8D 1C 13           lea         ebx,[rbx+rdx]
  0000000000003A2F: C4 63 7B F0 E1 1B  rorx        r12d,ecx,1Bh
  0000000000003A35: C4 E3 7B F0 D1 02  rorx        edx,ecx,2
  0000000000003A3B: 31 F1              xor         ecx,esi
  0000000000003A3D: C4 41 6D FE CB     vpaddd      ymm9,ymm2,ymm11
  0000000000003A42: 44 01 E3           add         ebx,r12d
  0000000000003A45: 21 F9              and         ecx,edi
  0000000000003A47: 41 03 6D 20        add         ebp,dword ptr [r13+20h]
  0000000000003A4B: 31 F1              xor         ecx,esi
  0000000000003A4D: C5 7E 7F 8C 24 40  vmovdqu     ymmword ptr [rsp+240h],ymm9
                    02 00 00
  0000000000003A56: 89 D7              mov         edi,edx
  0000000000003A58: 31 F7              xor         edi,esi
  0000000000003A5A: 8D 2C 29           lea         ebp,[rcx+rbp]
  0000000000003A5D: C4 63 7B F0 E3 1B  rorx        r12d,ebx,1Bh
  0000000000003A63: C4 E3 7B F0 CB 02  rorx        ecx,ebx,2
  0000000000003A69: 31 D3              xor         ebx,edx
  0000000000003A6B: 44 01 E5           add         ebp,r12d
  0000000000003A6E: 21 FB              and         ebx,edi
  0000000000003A70: 41 03 45 24        add         eax,dword ptr [r13+24h]
  0000000000003A74: 31 D3              xor         ebx,edx
  0000000000003A76: 89 CF              mov         edi,ecx
  0000000000003A78: 31 D7              xor         edi,edx
  0000000000003A7A: 8D 04 18           lea         eax,[rax+rbx]
  0000000000003A7D: C4 63 7B F0 E5 1B  rorx        r12d,ebp,1Bh
  0000000000003A83: C4 E3 7B F0 DD 02  rorx        ebx,ebp,2
  0000000000003A89: 31 CD              xor         ebp,ecx
  0000000000003A8B: 44 01 E0           add         eax,r12d
  0000000000003A8E: 21 FD              and         ebp,edi
  0000000000003A90: 41 03 75 28        add         esi,dword ptr [r13+28h]
  0000000000003A94: 31 CD              xor         ebp,ecx
  0000000000003A96: 89 DF              mov         edi,ebx
  0000000000003A98: 31 CF              xor         edi,ecx
  0000000000003A9A: 8D 34 2E           lea         esi,[rsi+rbp]
  0000000000003A9D: C4 63 7B F0 E0 1B  rorx        r12d,eax,1Bh
  0000000000003AA3: C4 E3 7B F0 E8 02  rorx        ebp,eax,2
  0000000000003AA9: 31 D8              xor         eax,ebx
  0000000000003AAB: 44 01 E6           add         esi,r12d
  0000000000003AAE: 21 F8              and         eax,edi
  0000000000003AB0: C4 63 6D 0F C1 08  vpalignr    ymm8,ymm2,ymm1,8
  0000000000003AB6: C5 E5 EF DF        vpxor       ymm3,ymm3,ymm7
  0000000000003ABA: 41 03 55 2C        add         edx,dword ptr [r13+2Ch]
  0000000000003ABE: 31 D8              xor         eax,ebx
  0000000000003AC0: C5 E5 EF DC        vpxor       ymm3,ymm3,ymm4
  0000000000003AC4: 89 EF              mov         edi,ebp
  0000000000003AC6: 31 DF              xor         edi,ebx
  0000000000003AC8: 8D 14 02           lea         edx,[rdx+rax]
  0000000000003ACB: C4 C1 65 EF D8     vpxor       ymm3,ymm3,ymm8
  0000000000003AD0: C4 63 7B F0 E6 1B  rorx        r12d,esi,1Bh
  0000000000003AD6: C4 E3 7B F0 C6 02  rorx        eax,esi,2
  0000000000003ADC: 31 EE              xor         esi,ebp
  0000000000003ADE: C5 BD 72 D3 1E     vpsrld      ymm8,ymm3,1Eh
  0000000000003AE3: C5 E5 72 F3 02     vpslld      ymm3,ymm3,2
  0000000000003AE8: 44 01 E2           add         edx,r12d
  0000000000003AEB: 21 FE              and         esi,edi
  0000000000003AED: 41 03 4D 40        add         ecx,dword ptr [r13+40h]
  0000000000003AF1: 31 EE              xor         esi,ebp
  0000000000003AF3: 89 C7              mov         edi,eax
  0000000000003AF5: 31 EF              xor         edi,ebp
  0000000000003AF7: C4 C1 65 EB D8     vpor        ymm3,ymm3,ymm8
  0000000000003AFC: 8D 0C 31           lea         ecx,[rcx+rsi]
  0000000000003AFF: C4 63 7B F0 E2 1B  rorx        r12d,edx,1Bh
  0000000000003B05: C4 E3 7B F0 F2 02  rorx        esi,edx,2
  0000000000003B0B: 31 C2              xor         edx,eax
  0000000000003B0D: C4 41 65 FE CB     vpaddd      ymm9,ymm3,ymm11
  0000000000003B12: 44 01 E1           add         ecx,r12d
  0000000000003B15: 21 FA              and         edx,edi
  0000000000003B17: 41 03 5D 44        add         ebx,dword ptr [r13+44h]
  0000000000003B1B: 31 C2              xor         edx,eax
  0000000000003B1D: C5 7E 7F 8C 24 60  vmovdqu     ymmword ptr [rsp+260h],ymm9
                    02 00 00
  0000000000003B26: 89 F7              mov         edi,esi
  0000000000003B28: 31 C7              xor         edi,eax
  0000000000003B2A: 8D 1C 13           lea         ebx,[rbx+rdx]
  0000000000003B2D: C4 63 7B F0 E1 1B  rorx        r12d,ecx,1Bh
  0000000000003B33: C4 E3 7B F0 D1 02  rorx        edx,ecx,2
  0000000000003B39: 31 F1              xor         ecx,esi
  0000000000003B3B: 44 01 E3           add         ebx,r12d
  0000000000003B3E: 21 F9              and         ecx,edi
  0000000000003B40: 41 03 6D 48        add         ebp,dword ptr [r13+48h]
  0000000000003B44: 31 F1              xor         ecx,esi
  0000000000003B46: 89 D7              mov         edi,edx
  0000000000003B48: 31 F7              xor         edi,esi
  0000000000003B4A: 8D 2C 29           lea         ebp,[rcx+rbp]
  0000000000003B4D: C4 63 7B F0 E3 1B  rorx        r12d,ebx,1Bh
  0000000000003B53: C4 E3 7B F0 CB 02  rorx        ecx,ebx,2
  0000000000003B59: 31 D3              xor         ebx,edx
  0000000000003B5B: 44 01 E5           add         ebp,r12d
  0000000000003B5E: 21 FB              and         ebx,edi
  0000000000003B60: 41 03 45 4C        add         eax,dword ptr [r13+4Ch]
  0000000000003B64: 31 D3              xor         ebx,edx
  0000000000003B66: 8D 04 18           lea         eax,[rax+rbx]
  0000000000003B69: C4 63 7B F0 E5 1B  rorx        r12d,ebp,1Bh
  0000000000003B6F: C4 E3 7B F0 DD 02  rorx        ebx,ebp,2
  0000000000003B75: 31 CD              xor         ebp,ecx
  0000000000003B77: 44 01 E0           add         eax,r12d
  0000000000003B7A: 31 D5              xor         ebp,edx
  0000000000003B7C: 41 03 75 60        add         esi,dword ptr [r13+60h]
  0000000000003B80: 8D 34 2E           lea         esi,[rsi+rbp]
  0000000000003B83: C4 63 7B F0 E0 1B  rorx        r12d,eax,1Bh
  0000000000003B89: C4 E3 7B F0 E8 02  rorx        ebp,eax,2
  0000000000003B8F: 31 D8              xor         eax,ebx
  0000000000003B91: 44 01 E6           add         esi,r12d
  0000000000003B94: 31 C8              xor         eax,ecx
  0000000000003B96: 41 03 55 64        add         edx,dword ptr [r13+64h]
  0000000000003B9A: 8D 14 02           lea         edx,[rdx+rax]
  0000000000003B9D: C4 63 7B F0 E6 1B  rorx        r12d,esi,1Bh
  0000000000003BA3: C4 E3 7B F0 C6 02  rorx        eax,esi,2
  0000000000003BA9: 31 EE              xor         esi,ebp
  0000000000003BAB: 44 01 E2           add         edx,r12d
  0000000000003BAE: 31 DE              xor         esi,ebx
  0000000000003BB0: 41 03 4D 68        add         ecx,dword ptr [r13+68h]
  0000000000003BB4: 8D 0C 31           lea         ecx,[rcx+rsi]
  0000000000003BB7: C4 63 7B F0 E2 1B  rorx        r12d,edx,1Bh
  0000000000003BBD: C4 E3 7B F0 F2 02  rorx        esi,edx,2
  0000000000003BC3: 31 C2              xor         edx,eax
  0000000000003BC5: 44 01 E1           add         ecx,r12d
  0000000000003BC8: 31 EA              xor         edx,ebp
  0000000000003BCA: 41 03 5D 6C        add         ebx,dword ptr [r13+6Ch]
  0000000000003BCE: 4D 8D AD 00 01 00  lea         r13,[r13+100h]
                    00
  0000000000003BD5: 8D 1C 13           lea         ebx,[rbx+rdx]
  0000000000003BD8: C4 63 7B F0 E1 1B  rorx        r12d,ecx,1Bh
  0000000000003BDE: C4 E3 7B F0 D1 02  rorx        edx,ecx,2
  0000000000003BE4: 31 F1              xor         ecx,esi
  0000000000003BE6: 44 01 E3           add         ebx,r12d
  0000000000003BE9: 31 C1              xor         ecx,eax
  0000000000003BEB: 41 03 6D 80        add         ebp,dword ptr [r13-80h]
  0000000000003BEF: 8D 2C 29           lea         ebp,[rcx+rbp]
  0000000000003BF2: C4 63 7B F0 E3 1B  rorx        r12d,ebx,1Bh
  0000000000003BF8: C4 E3 7B F0 CB 02  rorx        ecx,ebx,2
  0000000000003BFE: 31 D3              xor         ebx,edx
  0000000000003C00: 44 01 E5           add         ebp,r12d
  0000000000003C03: 31 F3              xor         ebx,esi
  0000000000003C05: 41 03 45 84        add         eax,dword ptr [r13-7Ch]
  0000000000003C09: 8D 04 18           lea         eax,[rax+rbx]
  0000000000003C0C: C4 63 7B F0 E5 1B  rorx        r12d,ebp,1Bh
  0000000000003C12: C4 E3 7B F0 DD 02  rorx        ebx,ebp,2
  0000000000003C18: 31 CD              xor         ebp,ecx
  0000000000003C1A: 44 01 E0           add         eax,r12d
  0000000000003C1D: 31 D5              xor         ebp,edx
  0000000000003C1F: 41 03 75 88        add         esi,dword ptr [r13-78h]
  0000000000003C23: 8D 34 2E           lea         esi,[rsi+rbp]
  0000000000003C26: C4 63 7B F0 E0 1B  rorx        r12d,eax,1Bh
  0000000000003C2C: C4 E3 7B F0 E8 02  rorx        ebp,eax,2
  0000000000003C32: 31 D8              xor         eax,ebx
  0000000000003C34: 44 01 E6           add         esi,r12d
  0000000000003C37: 31 C8              xor         eax,ecx
  0000000000003C39: 41 03 55 8C        add         edx,dword ptr [r13-74h]
  0000000000003C3D: 8D 14 02           lea         edx,[rdx+rax]
  0000000000003C40: C4 63 7B F0 E6 1B  rorx        r12d,esi,1Bh
  0000000000003C46: C4 E3 7B F0 C6 02  rorx        eax,esi,2
  0000000000003C4C: 31 EE              xor         esi,ebp
  0000000000003C4E: 44 01 E2           add         edx,r12d
  0000000000003C51: 31 DE              xor         esi,ebx
  0000000000003C53: 41 03 4D A0        add         ecx,dword ptr [r13-60h]
  0000000000003C57: 8D 0C 31           lea         ecx,[rcx+rsi]
  0000000000003C5A: C4 63 7B F0 E2 1B  rorx        r12d,edx,1Bh
  0000000000003C60: C4 E3 7B F0 F2 02  rorx        esi,edx,2
  0000000000003C66: 31 C2              xor         edx,eax
  0000000000003C68: 44 01 E1           add         ecx,r12d
  0000000000003C6B: 31 EA              xor         edx,ebp
  0000000000003C6D: 41 03 5D A4        add         ebx,dword ptr [r13-5Ch]
  0000000000003C71: 8D 1C 13           lea         ebx,[rbx+rdx]
  0000000000003C74: C4 63 7B F0 E1 1B  rorx        r12d,ecx,1Bh
  0000000000003C7A: C4 E3 7B F0 D1 02  rorx        edx,ecx,2
  0000000000003C80: 31 F1              xor         ecx,esi
  0000000000003C82: 44 01 E3           add         ebx,r12d
  0000000000003C85: 31 C1              xor         ecx,eax
  0000000000003C87: 41 03 6D A8        add         ebp,dword ptr [r13-58h]
  0000000000003C8B: 8D 2C 29           lea         ebp,[rcx+rbp]
  0000000000003C8E: C4 63 7B F0 E3 1B  rorx        r12d,ebx,1Bh
  0000000000003C94: C4 E3 7B F0 CB 02  rorx        ecx,ebx,2
  0000000000003C9A: 31 D3              xor         ebx,edx
  0000000000003C9C: 44 01 E5           add         ebp,r12d
  0000000000003C9F: 31 F3              xor         ebx,esi
  0000000000003CA1: 41 03 45 AC        add         eax,dword ptr [r13-54h]
  0000000000003CA5: 8D 04 18           lea         eax,[rax+rbx]
  0000000000003CA8: C4 63 7B F0 E5 1B  rorx        r12d,ebp,1Bh
  0000000000003CAE: C4 E3 7B F0 DD 02  rorx        ebx,ebp,2
  0000000000003CB4: 31 CD              xor         ebp,ecx
  0000000000003CB6: 44 01 E0           add         eax,r12d
  0000000000003CB9: 31 D5              xor         ebp,edx
  0000000000003CBB: 41 03 75 C0        add         esi,dword ptr [r13-40h]
  0000000000003CBF: 8D 34 2E           lea         esi,[rsi+rbp]
  0000000000003CC2: C4 63 7B F0 E0 1B  rorx        r12d,eax,1Bh
  0000000000003CC8: C4 E3 7B F0 E8 02  rorx        ebp,eax,2
  0000000000003CCE: 31 D8              xor         eax,ebx
  0000000000003CD0: 44 01 E6           add         esi,r12d
  0000000000003CD3: 31 C8              xor         eax,ecx
  0000000000003CD5: 41 03 55 C4        add         edx,dword ptr [r13-3Ch]
  0000000000003CD9: 8D 14 02           lea         edx,[rdx+rax]
  0000000000003CDC: C4 63 7B F0 E6 1B  rorx        r12d,esi,1Bh
  0000000000003CE2: C4 E3 7B F0 C6 02  rorx        eax,esi,2
  0000000000003CE8: 31 EE              xor         esi,ebp
  0000000000003CEA: 44 01 E2           add         edx,r12d
  0000000000003CED: 31 DE              xor         esi,ebx
  0000000000003CEF: 41 03 4D C8        add         ecx,dword ptr [r13-38h]
  0000000000003CF3: 8D 0C 31           lea         ecx,[rcx+rsi]
  0000000000003CF6: C4 63 7B F0 E2 1B  rorx        r12d,edx,1Bh
  0000000000003CFC: C4 E3 7B F0 F2 02  rorx        esi,edx,2
  0000000000003D02: 31 C2              xor         edx,eax
  0000000000003D04: 44 01 E1           add         ecx,r12d
  0000000000003D07: 31 EA              xor         edx,ebp
  0000000000003D09: 41 03 5D CC        add         ebx,dword ptr [r13-34h]
  0000000000003D0D: 8D 1C 13           lea         ebx,[rbx+rdx]
  0000000000003D10: C4 63 7B F0 E1 1B  rorx        r12d,ecx,1Bh
  0000000000003D16: C4 E3 7B F0 D1 02  rorx        edx,ecx,2
  0000000000003D1C: 31 F1              xor         ecx,esi
  0000000000003D1E: 44 01 E3           add         ebx,r12d
  0000000000003D21: 31 C1              xor         ecx,eax
  0000000000003D23: 41 03 6D E0        add         ebp,dword ptr [r13-20h]
  0000000000003D27: 8D 2C 29           lea         ebp,[rcx+rbp]
  0000000000003D2A: C4 63 7B F0 E3 1B  rorx        r12d,ebx,1Bh
  0000000000003D30: C4 E3 7B F0 CB 02  rorx        ecx,ebx,2
  0000000000003D36: 31 D3              xor         ebx,edx
  0000000000003D38: 44 01 E5           add         ebp,r12d
  0000000000003D3B: 31 F3              xor         ebx,esi
  0000000000003D3D: 41 03 45 E4        add         eax,dword ptr [r13-1Ch]
  0000000000003D41: 8D 04 18           lea         eax,[rax+rbx]
  0000000000003D44: C4 63 7B F0 E5 1B  rorx        r12d,ebp,1Bh
  0000000000003D4A: C4 E3 7B F0 DD 02  rorx        ebx,ebp,2
  0000000000003D50: 31 CD              xor         ebp,ecx
  0000000000003D52: 44 01 E0           add         eax,r12d
  0000000000003D55: 31 D5              xor         ebp,edx
  0000000000003D57: 41 03 75 E8        add         esi,dword ptr [r13-18h]
  0000000000003D5B: 8D 34 2E           lea         esi,[rsi+rbp]
  0000000000003D5E: C4 63 7B F0 E0 1B  rorx        r12d,eax,1Bh
  0000000000003D64: C4 E3 7B F0 E8 02  rorx        ebp,eax,2
  0000000000003D6A: 31 D8              xor         eax,ebx
  0000000000003D6C: 44 01 E6           add         esi,r12d
  0000000000003D6F: 31 C8              xor         eax,ecx
  0000000000003D71: 41 03 55 EC        add         edx,dword ptr [r13-14h]
  0000000000003D75: 8D 14 02           lea         edx,[rdx+rax]
  0000000000003D78: C4 63 7B F0 E6 1B  rorx        r12d,esi,1Bh
  0000000000003D7E: 44 01 E2           add         edx,r12d
  0000000000003D81: 4D 8D A9 80 00 00  lea         r13,[r9+80h]
                    00
  0000000000003D88: 49 8D B9 80 00 00  lea         rdi,[r9+80h]
                    00
  0000000000003D8F: 4D 39 D5           cmp         r13,r10
  0000000000003D92: 4D 0F 43 E9        cmovae      r13,r9
  0000000000003D96: 41 03 10           add         edx,dword ptr [r8]
  0000000000003D99: 41 03 70 04        add         esi,dword ptr [r8+4]
  0000000000003D9D: 41 03 68 08        add         ebp,dword ptr [r8+8]
  0000000000003DA1: 41 89 10           mov         dword ptr [r8],edx
  0000000000003DA4: 41 03 58 0C        add         ebx,dword ptr [r8+0Ch]
  0000000000003DA8: 41 89 70 04        mov         dword ptr [r8+4],esi
  0000000000003DAC: 89 D0              mov         eax,edx
  0000000000003DAE: 41 03 48 10        add         ecx,dword ptr [r8+10h]
  0000000000003DB2: 41 89 EC           mov         r12d,ebp
  0000000000003DB5: 41 89 68 08        mov         dword ptr [r8+8],ebp
  0000000000003DB9: 89 DA              mov         edx,ebx
  0000000000003DBB: 41 89 58 0C        mov         dword ptr [r8+0Ch],ebx
  0000000000003DBF: 89 F5              mov         ebp,esi
  0000000000003DC1: 41 89 48 10        mov         dword ptr [r8+10h],ecx
  0000000000003DC5: 89 CE              mov         esi,ecx
  0000000000003DC7: 44 89 E1           mov         ecx,r12d
  0000000000003DCA: 4D 39 D1           cmp         r9,r10
  0000000000003DCD: 0F 84 26 0B 00 00  je          L$done_avx2
  0000000000003DD3: C4 C1 7E 6F 76 40  vmovdqu     ymm6,ymmword ptr [r14+40h]
  0000000000003DD9: 4C 39 D7           cmp         rdi,r10
  0000000000003DDC: 0F 87 3E 00 00 00  ja          L$ast_avx2
  0000000000003DE2: C5 FA 6F 47 C0     vmovdqu     xmm0,xmmword ptr [rdi-40h]
  0000000000003DE7: C5 FA 6F 4F D0     vmovdqu     xmm1,xmmword ptr [rdi-30h]
  0000000000003DEC: C5 FA 6F 57 E0     vmovdqu     xmm2,xmmword ptr [rdi-20h]
  0000000000003DF1: C5 FA 6F 5F F0     vmovdqu     xmm3,xmmword ptr [rdi-10h]
  0000000000003DF6: C4 C3 7D 38 45 00  vinserti128 ymm0,ymm0,xmmword ptr [r13],1
                    01
  0000000000003DFD: C4 C3 75 38 4D 10  vinserti128 ymm1,ymm1,xmmword ptr [r13+10h],1
                    01
  0000000000003E04: C4 C3 6D 38 55 20  vinserti128 ymm2,ymm2,xmmword ptr [r13+20h],1
                    01
  0000000000003E0B: C4 C3 65 38 5D 30  vinserti128 ymm3,ymm3,xmmword ptr [r13+30h],1
                    01
  0000000000003E12: E9 09 00 00 00     jmp         L$ast_avx2
  0000000000003E17: 90                 nop
  0000000000003E18: 90                 nop
  0000000000003E19: 90                 nop
  0000000000003E1A: 90                 nop
  0000000000003E1B: 90                 nop
  0000000000003E1C: 90                 nop
  0000000000003E1D: 90                 nop
  0000000000003E1E: 90                 nop
  0000000000003E1F: 90                 nop
L$ast_avx2:
  0000000000003E20: 4C 8D AC 24 90 00  lea         r13,[rsp+90h]
                    00 00
  0000000000003E28: C4 E3 7B F0 DD 02  rorx        ebx,ebp,2
  0000000000003E2E: C4 E2 50 F2 FA     andn        edi,ebp,edx
  0000000000003E33: 21 CD              and         ebp,ecx
  0000000000003E35: 31 FD              xor         ebp,edi
  0000000000003E37: 49 83 E9 80        sub         r9,0FFFFFFFFFFFFFF80h
  0000000000003E3B: 41 03 75 80        add         esi,dword ptr [r13-80h]
  0000000000003E3F: C4 E2 78 F2 F9     andn        edi,eax,ecx
  0000000000003E44: 01 EE              add         esi,ebp
  0000000000003E46: C4 63 7B F0 E0 1B  rorx        r12d,eax,1Bh
  0000000000003E4C: C4 E3 7B F0 E8 02  rorx        ebp,eax,2
  0000000000003E52: 21 D8              and         eax,ebx
  0000000000003E54: 44 01 E6           add         esi,r12d
  0000000000003E57: 31 F8              xor         eax,edi
  0000000000003E59: 41 03 55 84        add         edx,dword ptr [r13-7Ch]
  0000000000003E5D: C4 E2 48 F2 FB     andn        edi,esi,ebx
  0000000000003E62: 01 C2              add         edx,eax
  0000000000003E64: C4 63 7B F0 E6 1B  rorx        r12d,esi,1Bh
  0000000000003E6A: C4 E3 7B F0 C6 02  rorx        eax,esi,2
  0000000000003E70: 21 EE              and         esi,ebp
  0000000000003E72: 44 01 E2           add         edx,r12d
  0000000000003E75: 31 FE              xor         esi,edi
  0000000000003E77: 41 03 4D 88        add         ecx,dword ptr [r13-78h]
  0000000000003E7B: C4 E2 68 F2 FD     andn        edi,edx,ebp
  0000000000003E80: 01 F1              add         ecx,esi
  0000000000003E82: C4 63 7B F0 E2 1B  rorx        r12d,edx,1Bh
  0000000000003E88: C4 E3 7B F0 F2 02  rorx        esi,edx,2
  0000000000003E8E: 21 C2              and         edx,eax
  0000000000003E90: 44 01 E1           add         ecx,r12d
  0000000000003E93: 31 FA              xor         edx,edi
  0000000000003E95: 41 03 5D 8C        add         ebx,dword ptr [r13-74h]
  0000000000003E99: C4 E2 70 F2 F8     andn        edi,ecx,eax
  0000000000003E9E: 01 D3              add         ebx,edx
  0000000000003EA0: C4 63 7B F0 E1 1B  rorx        r12d,ecx,1Bh
  0000000000003EA6: C4 E3 7B F0 D1 02  rorx        edx,ecx,2
  0000000000003EAC: 21 F1              and         ecx,esi
  0000000000003EAE: 44 01 E3           add         ebx,r12d
  0000000000003EB1: 31 F9              xor         ecx,edi
  0000000000003EB3: 41 03 6D A0        add         ebp,dword ptr [r13-60h]
  0000000000003EB7: C4 E2 60 F2 FE     andn        edi,ebx,esi
  0000000000003EBC: 01 CD              add         ebp,ecx
  0000000000003EBE: C4 63 7B F0 E3 1B  rorx        r12d,ebx,1Bh
  0000000000003EC4: C4 E3 7B F0 CB 02  rorx        ecx,ebx,2
  0000000000003ECA: 21 D3              and         ebx,edx
  0000000000003ECC: 44 01 E5           add         ebp,r12d
  0000000000003ECF: 31 FB              xor         ebx,edi
  0000000000003ED1: 41 03 45 A4        add         eax,dword ptr [r13-5Ch]
  0000000000003ED5: C4 E2 50 F2 FA     andn        edi,ebp,edx
  0000000000003EDA: 01 D8              add         eax,ebx
  0000000000003EDC: C4 63 7B F0 E5 1B  rorx        r12d,ebp,1Bh
  0000000000003EE2: C4 E3 7B F0 DD 02  rorx        ebx,ebp,2
  0000000000003EE8: 21 CD              and         ebp,ecx
  0000000000003EEA: 44 01 E0           add         eax,r12d
  0000000000003EED: 31 FD              xor         ebp,edi
  0000000000003EEF: 41 03 75 A8        add         esi,dword ptr [r13-58h]
  0000000000003EF3: C4 E2 78 F2 F9     andn        edi,eax,ecx
  0000000000003EF8: 01 EE              add         esi,ebp
  0000000000003EFA: C4 63 7B F0 E0 1B  rorx        r12d,eax,1Bh
  0000000000003F00: C4 E3 7B F0 E8 02  rorx        ebp,eax,2
  0000000000003F06: 21 D8              and         eax,ebx
  0000000000003F08: 44 01 E6           add         esi,r12d
  0000000000003F0B: 31 F8              xor         eax,edi
  0000000000003F0D: 41 03 55 AC        add         edx,dword ptr [r13-54h]
  0000000000003F11: C4 E2 48 F2 FB     andn        edi,esi,ebx
  0000000000003F16: 01 C2              add         edx,eax
  0000000000003F18: C4 63 7B F0 E6 1B  rorx        r12d,esi,1Bh
  0000000000003F1E: C4 E3 7B F0 C6 02  rorx        eax,esi,2
  0000000000003F24: 21 EE              and         esi,ebp
  0000000000003F26: 44 01 E2           add         edx,r12d
  0000000000003F29: 31 FE              xor         esi,edi
  0000000000003F2B: 41 03 4D C0        add         ecx,dword ptr [r13-40h]
  0000000000003F2F: C4 E2 68 F2 FD     andn        edi,edx,ebp
  0000000000003F34: 01 F1              add         ecx,esi
  0000000000003F36: C4 63 7B F0 E2 1B  rorx        r12d,edx,1Bh
  0000000000003F3C: C4 E3 7B F0 F2 02  rorx        esi,edx,2
  0000000000003F42: 21 C2              and         edx,eax
  0000000000003F44: 44 01 E1           add         ecx,r12d
  0000000000003F47: 31 FA              xor         edx,edi
  0000000000003F49: 41 03 5D C4        add         ebx,dword ptr [r13-3Ch]
  0000000000003F4D: C4 E2 70 F2 F8     andn        edi,ecx,eax
  0000000000003F52: 01 D3              add         ebx,edx
  0000000000003F54: C4 63 7B F0 E1 1B  rorx        r12d,ecx,1Bh
  0000000000003F5A: C4 E3 7B F0 D1 02  rorx        edx,ecx,2
  0000000000003F60: 21 F1              and         ecx,esi
  0000000000003F62: 44 01 E3           add         ebx,r12d
  0000000000003F65: 31 F9              xor         ecx,edi
  0000000000003F67: 41 03 6D C8        add         ebp,dword ptr [r13-38h]
  0000000000003F6B: C4 E2 60 F2 FE     andn        edi,ebx,esi
  0000000000003F70: 01 CD              add         ebp,ecx
  0000000000003F72: C4 63 7B F0 E3 1B  rorx        r12d,ebx,1Bh
  0000000000003F78: C4 E3 7B F0 CB 02  rorx        ecx,ebx,2
  0000000000003F7E: 21 D3              and         ebx,edx
  0000000000003F80: 44 01 E5           add         ebp,r12d
  0000000000003F83: 31 FB              xor         ebx,edi
  0000000000003F85: 41 03 45 CC        add         eax,dword ptr [r13-34h]
  0000000000003F89: C4 E2 50 F2 FA     andn        edi,ebp,edx
  0000000000003F8E: 01 D8              add         eax,ebx
  0000000000003F90: C4 63 7B F0 E5 1B  rorx        r12d,ebp,1Bh
  0000000000003F96: C4 E3 7B F0 DD 02  rorx        ebx,ebp,2
  0000000000003F9C: 21 CD              and         ebp,ecx
  0000000000003F9E: 44 01 E0           add         eax,r12d
  0000000000003FA1: 31 FD              xor         ebp,edi
  0000000000003FA3: 41 03 75 E0        add         esi,dword ptr [r13-20h]
  0000000000003FA7: C4 E2 78 F2 F9     andn        edi,eax,ecx
  0000000000003FAC: 01 EE              add         esi,ebp
  0000000000003FAE: C4 63 7B F0 E0 1B  rorx        r12d,eax,1Bh
  0000000000003FB4: C4 E3 7B F0 E8 02  rorx        ebp,eax,2
  0000000000003FBA: 21 D8              and         eax,ebx
  0000000000003FBC: 44 01 E6           add         esi,r12d
  0000000000003FBF: 31 F8              xor         eax,edi
  0000000000003FC1: 41 03 55 E4        add         edx,dword ptr [r13-1Ch]
  0000000000003FC5: C4 E2 48 F2 FB     andn        edi,esi,ebx
  0000000000003FCA: 01 C2              add         edx,eax
  0000000000003FCC: C4 63 7B F0 E6 1B  rorx        r12d,esi,1Bh
  0000000000003FD2: C4 E3 7B F0 C6 02  rorx        eax,esi,2
  0000000000003FD8: 21 EE              and         esi,ebp
  0000000000003FDA: 44 01 E2           add         edx,r12d
  0000000000003FDD: 31 FE              xor         esi,edi
  0000000000003FDF: 41 03 4D E8        add         ecx,dword ptr [r13-18h]
  0000000000003FE3: C4 E2 68 F2 FD     andn        edi,edx,ebp
  0000000000003FE8: 01 F1              add         ecx,esi
  0000000000003FEA: C4 63 7B F0 E2 1B  rorx        r12d,edx,1Bh
  0000000000003FF0: C4 E3 7B F0 F2 02  rorx        esi,edx,2
  0000000000003FF6: 21 C2              and         edx,eax
  0000000000003FF8: 44 01 E1           add         ecx,r12d
  0000000000003FFB: 31 FA              xor         edx,edi
  0000000000003FFD: 41 03 5D EC        add         ebx,dword ptr [r13-14h]
  0000000000004001: C4 E2 70 F2 F8     andn        edi,ecx,eax
  0000000000004006: 01 D3              add         ebx,edx
  0000000000004008: C4 63 7B F0 E1 1B  rorx        r12d,ecx,1Bh
  000000000000400E: C4 E3 7B F0 D1 02  rorx        edx,ecx,2
  0000000000004014: 21 F1              and         ecx,esi
  0000000000004016: 44 01 E3           add         ebx,r12d
  0000000000004019: 31 F9              xor         ecx,edi
  000000000000401B: 41 03 6D 00        add         ebp,dword ptr [r13]
  000000000000401F: C4 E2 60 F2 FE     andn        edi,ebx,esi
  0000000000004024: 01 CD              add         ebp,ecx
  0000000000004026: C4 63 7B F0 E3 1B  rorx        r12d,ebx,1Bh
  000000000000402C: C4 E3 7B F0 CB 02  rorx        ecx,ebx,2
  0000000000004032: 21 D3              and         ebx,edx
  0000000000004034: 44 01 E5           add         ebp,r12d
  0000000000004037: 31 FB              xor         ebx,edi
  0000000000004039: 41 03 45 04        add         eax,dword ptr [r13+4]
  000000000000403D: C4 E2 50 F2 FA     andn        edi,ebp,edx
  0000000000004042: 01 D8              add         eax,ebx
  0000000000004044: C4 63 7B F0 E5 1B  rorx        r12d,ebp,1Bh
  000000000000404A: C4 E3 7B F0 DD 02  rorx        ebx,ebp,2
  0000000000004050: 21 CD              and         ebp,ecx
  0000000000004052: 44 01 E0           add         eax,r12d
  0000000000004055: 31 FD              xor         ebp,edi
  0000000000004057: 41 03 75 08        add         esi,dword ptr [r13+8]
  000000000000405B: C4 E2 78 F2 F9     andn        edi,eax,ecx
  0000000000004060: 01 EE              add         esi,ebp
  0000000000004062: C4 63 7B F0 E0 1B  rorx        r12d,eax,1Bh
  0000000000004068: C4 E3 7B F0 E8 02  rorx        ebp,eax,2
  000000000000406E: 21 D8              and         eax,ebx
  0000000000004070: 44 01 E6           add         esi,r12d
  0000000000004073: 31 F8              xor         eax,edi
  0000000000004075: 41 03 55 0C        add         edx,dword ptr [r13+0Ch]
  0000000000004079: 8D 14 02           lea         edx,[rdx+rax]
  000000000000407C: C4 63 7B F0 E6 1B  rorx        r12d,esi,1Bh
  0000000000004082: C4 E3 7B F0 C6 02  rorx        eax,esi,2
  0000000000004088: 31 EE              xor         esi,ebp
  000000000000408A: 44 01 E2           add         edx,r12d
  000000000000408D: 31 DE              xor         esi,ebx
  000000000000408F: 41 03 4D 20        add         ecx,dword ptr [r13+20h]
  0000000000004093: 8D 0C 31           lea         ecx,[rcx+rsi]
  0000000000004096: C4 63 7B F0 E2 1B  rorx        r12d,edx,1Bh
  000000000000409C: C4 E3 7B F0 F2 02  rorx        esi,edx,2
  00000000000040A2: 31 C2              xor         edx,eax
  00000000000040A4: 44 01 E1           add         ecx,r12d
  00000000000040A7: 31 EA              xor         edx,ebp
  00000000000040A9: 41 03 5D 24        add         ebx,dword ptr [r13+24h]
  00000000000040AD: 8D 1C 13           lea         ebx,[rbx+rdx]
  00000000000040B0: C4 63 7B F0 E1 1B  rorx        r12d,ecx,1Bh
  00000000000040B6: C4 E3 7B F0 D1 02  rorx        edx,ecx,2
  00000000000040BC: 31 F1              xor         ecx,esi
  00000000000040BE: 44 01 E3           add         ebx,r12d
  00000000000040C1: 31 C1              xor         ecx,eax
  00000000000040C3: 41 03 6D 28        add         ebp,dword ptr [r13+28h]
  00000000000040C7: 8D 2C 29           lea         ebp,[rcx+rbp]
  00000000000040CA: C4 63 7B F0 E3 1B  rorx        r12d,ebx,1Bh
  00000000000040D0: C4 E3 7B F0 CB 02  rorx        ecx,ebx,2
  00000000000040D6: 31 D3              xor         ebx,edx
  00000000000040D8: 44 01 E5           add         ebp,r12d
  00000000000040DB: 31 F3              xor         ebx,esi
  00000000000040DD: 41 03 45 2C        add         eax,dword ptr [r13+2Ch]
  00000000000040E1: 8D 04 18           lea         eax,[rax+rbx]
  00000000000040E4: C4 63 7B F0 E5 1B  rorx        r12d,ebp,1Bh
  00000000000040EA: C4 E3 7B F0 DD 02  rorx        ebx,ebp,2
  00000000000040F0: 31 CD              xor         ebp,ecx
  00000000000040F2: 44 01 E0           add         eax,r12d
  00000000000040F5: 31 D5              xor         ebp,edx
  00000000000040F7: 41 03 75 40        add         esi,dword ptr [r13+40h]
  00000000000040FB: 8D 34 2E           lea         esi,[rsi+rbp]
  00000000000040FE: C4 63 7B F0 E0 1B  rorx        r12d,eax,1Bh
  0000000000004104: C4 E3 7B F0 E8 02  rorx        ebp,eax,2
  000000000000410A: 31 D8              xor         eax,ebx
  000000000000410C: 44 01 E6           add         esi,r12d
  000000000000410F: 31 C8              xor         eax,ecx
  0000000000004111: C4 41 7E 6F 5E C0  vmovdqu     ymm11,ymmword ptr [r14-40h]
  0000000000004117: C4 E2 7D 00 C6     vpshufb     ymm0,ymm0,ymm6
  000000000000411C: 41 03 55 44        add         edx,dword ptr [r13+44h]
  0000000000004120: 8D 14 02           lea         edx,[rdx+rax]
  0000000000004123: C4 63 7B F0 E6 1B  rorx        r12d,esi,1Bh
  0000000000004129: C4 E3 7B F0 C6 02  rorx        eax,esi,2
  000000000000412F: 31 EE              xor         esi,ebp
  0000000000004131: 44 01 E2           add         edx,r12d
  0000000000004134: 31 DE              xor         esi,ebx
  0000000000004136: 41 03 4D 48        add         ecx,dword ptr [r13+48h]
  000000000000413A: 8D 0C 31           lea         ecx,[rcx+rsi]
  000000000000413D: C4 63 7B F0 E2 1B  rorx        r12d,edx,1Bh
  0000000000004143: C4 E3 7B F0 F2 02  rorx        esi,edx,2
  0000000000004149: 31 C2              xor         edx,eax
  000000000000414B: 44 01 E1           add         ecx,r12d
  000000000000414E: 31 EA              xor         edx,ebp
  0000000000004150: 41 03 5D 4C        add         ebx,dword ptr [r13+4Ch]
  0000000000004154: 8D 1C 13           lea         ebx,[rbx+rdx]
  0000000000004157: C4 63 7B F0 E1 1B  rorx        r12d,ecx,1Bh
  000000000000415D: C4 E3 7B F0 D1 02  rorx        edx,ecx,2
  0000000000004163: 31 F1              xor         ecx,esi
  0000000000004165: 44 01 E3           add         ebx,r12d
  0000000000004168: 31 C1              xor         ecx,eax
  000000000000416A: 41 03 6D 60        add         ebp,dword ptr [r13+60h]
  000000000000416E: 8D 2C 29           lea         ebp,[rcx+rbp]
  0000000000004171: C4 63 7B F0 E3 1B  rorx        r12d,ebx,1Bh
  0000000000004177: C4 E3 7B F0 CB 02  rorx        ecx,ebx,2
  000000000000417D: 31 D3              xor         ebx,edx
  000000000000417F: 44 01 E5           add         ebp,r12d
  0000000000004182: 31 F3              xor         ebx,esi
  0000000000004184: 41 03 45 64        add         eax,dword ptr [r13+64h]
  0000000000004188: 8D 04 18           lea         eax,[rax+rbx]
  000000000000418B: C4 63 7B F0 E5 1B  rorx        r12d,ebp,1Bh
  0000000000004191: C4 E3 7B F0 DD 02  rorx        ebx,ebp,2
  0000000000004197: 31 CD              xor         ebp,ecx
  0000000000004199: 44 01 E0           add         eax,r12d
  000000000000419C: 31 D5              xor         ebp,edx
  000000000000419E: C4 E2 75 00 CE     vpshufb     ymm1,ymm1,ymm6
  00000000000041A3: C4 41 7D FE C3     vpaddd      ymm8,ymm0,ymm11
  00000000000041A8: 41 03 75 68        add         esi,dword ptr [r13+68h]
  00000000000041AC: 8D 34 2E           lea         esi,[rsi+rbp]
  00000000000041AF: C4 63 7B F0 E0 1B  rorx        r12d,eax,1Bh
  00000000000041B5: C4 E3 7B F0 E8 02  rorx        ebp,eax,2
  00000000000041BB: 31 D8              xor         eax,ebx
  00000000000041BD: 44 01 E6           add         esi,r12d
  00000000000041C0: 31 C8              xor         eax,ecx
  00000000000041C2: 41 03 55 6C        add         edx,dword ptr [r13+6Ch]
  00000000000041C6: 4D 8D AD 00 01 00  lea         r13,[r13+100h]
                    00
  00000000000041CD: 8D 14 02           lea         edx,[rdx+rax]
  00000000000041D0: C4 63 7B F0 E6 1B  rorx        r12d,esi,1Bh
  00000000000041D6: C4 E3 7B F0 C6 02  rorx        eax,esi,2
  00000000000041DC: 31 EE              xor         esi,ebp
  00000000000041DE: 44 01 E2           add         edx,r12d
  00000000000041E1: 31 DE              xor         esi,ebx
  00000000000041E3: 41 03 4D 80        add         ecx,dword ptr [r13-80h]
  00000000000041E7: 8D 0C 31           lea         ecx,[rcx+rsi]
  00000000000041EA: C4 63 7B F0 E2 1B  rorx        r12d,edx,1Bh
  00000000000041F0: C4 E3 7B F0 F2 02  rorx        esi,edx,2
  00000000000041F6: 31 C2              xor         edx,eax
  00000000000041F8: 44 01 E1           add         ecx,r12d
  00000000000041FB: 31 EA              xor         edx,ebp
  00000000000041FD: 41 03 5D 84        add         ebx,dword ptr [r13-7Ch]
  0000000000004201: 8D 1C 13           lea         ebx,[rbx+rdx]
  0000000000004204: C4 63 7B F0 E1 1B  rorx        r12d,ecx,1Bh
  000000000000420A: C4 E3 7B F0 D1 02  rorx        edx,ecx,2
  0000000000004210: 31 F1              xor         ecx,esi
  0000000000004212: 44 01 E3           add         ebx,r12d
  0000000000004215: 31 C1              xor         ecx,eax
  0000000000004217: 41 03 6D 88        add         ebp,dword ptr [r13-78h]
  000000000000421B: 8D 2C 29           lea         ebp,[rcx+rbp]
  000000000000421E: C4 63 7B F0 E3 1B  rorx        r12d,ebx,1Bh
  0000000000004224: C4 E3 7B F0 CB 02  rorx        ecx,ebx,2
  000000000000422A: 31 D3              xor         ebx,edx
  000000000000422C: 44 01 E5           add         ebp,r12d
  000000000000422F: 31 F3              xor         ebx,esi
  0000000000004231: C5 7E 7F 04 24     vmovdqu     ymmword ptr [rsp],ymm8
  0000000000004236: C4 E2 6D 00 D6     vpshufb     ymm2,ymm2,ymm6
  000000000000423B: C4 41 75 FE CB     vpaddd      ymm9,ymm1,ymm11
  0000000000004240: 41 03 45 8C        add         eax,dword ptr [r13-74h]
  0000000000004244: 8D 04 18           lea         eax,[rax+rbx]
  0000000000004247: C4 63 7B F0 E5 1B  rorx        r12d,ebp,1Bh
  000000000000424D: C4 E3 7B F0 DD 02  rorx        ebx,ebp,2
  0000000000004253: 31 CD              xor         ebp,ecx
  0000000000004255: 44 01 E0           add         eax,r12d
  0000000000004258: 31 D5              xor         ebp,edx
  000000000000425A: 41 03 75 A0        add         esi,dword ptr [r13-60h]
  000000000000425E: 8D 34 2E           lea         esi,[rsi+rbp]
  0000000000004261: C4 63 7B F0 E0 1B  rorx        r12d,eax,1Bh
  0000000000004267: C4 E3 7B F0 E8 02  rorx        ebp,eax,2
  000000000000426D: 31 D8              xor         eax,ebx
  000000000000426F: 44 01 E6           add         esi,r12d
  0000000000004272: 31 C8              xor         eax,ecx
  0000000000004274: 41 03 55 A4        add         edx,dword ptr [r13-5Ch]
  0000000000004278: 8D 14 02           lea         edx,[rdx+rax]
  000000000000427B: C4 63 7B F0 E6 1B  rorx        r12d,esi,1Bh
  0000000000004281: C4 E3 7B F0 C6 02  rorx        eax,esi,2
  0000000000004287: 31 EE              xor         esi,ebp
  0000000000004289: 44 01 E2           add         edx,r12d
  000000000000428C: 31 DE              xor         esi,ebx
  000000000000428E: 41 03 4D A8        add         ecx,dword ptr [r13-58h]
  0000000000004292: 8D 0C 31           lea         ecx,[rcx+rsi]
  0000000000004295: C4 63 7B F0 E2 1B  rorx        r12d,edx,1Bh
  000000000000429B: C4 E3 7B F0 F2 02  rorx        esi,edx,2
  00000000000042A1: 31 C2              xor         edx,eax
  00000000000042A3: 44 01 E1           add         ecx,r12d
  00000000000042A6: 31 EA              xor         edx,ebp
  00000000000042A8: 41 03 5D AC        add         ebx,dword ptr [r13-54h]
  00000000000042AC: 89 F7              mov         edi,esi
  00000000000042AE: 31 C7              xor         edi,eax
  00000000000042B0: 8D 1C 13           lea         ebx,[rbx+rdx]
  00000000000042B3: C4 63 7B F0 E1 1B  rorx        r12d,ecx,1Bh
  00000000000042B9: C4 E3 7B F0 D1 02  rorx        edx,ecx,2
  00000000000042BF: 31 F1              xor         ecx,esi
  00000000000042C1: 44 01 E3           add         ebx,r12d
  00000000000042C4: 21 F9              and         ecx,edi
  00000000000042C6: C5 7E 7F 4C 24 20  vmovdqu     ymmword ptr [rsp+20h],ymm9
  00000000000042CC: C4 E2 65 00 DE     vpshufb     ymm3,ymm3,ymm6
  00000000000042D1: C4 C1 6D FE F3     vpaddd      ymm6,ymm2,ymm11
  00000000000042D6: 41 03 6D C0        add         ebp,dword ptr [r13-40h]
  00000000000042DA: 31 F1              xor         ecx,esi
  00000000000042DC: 89 D7              mov         edi,edx
  00000000000042DE: 31 F7              xor         edi,esi
  00000000000042E0: 8D 2C 29           lea         ebp,[rcx+rbp]
  00000000000042E3: C4 63 7B F0 E3 1B  rorx        r12d,ebx,1Bh
  00000000000042E9: C4 E3 7B F0 CB 02  rorx        ecx,ebx,2
  00000000000042EF: 31 D3              xor         ebx,edx
  00000000000042F1: 44 01 E5           add         ebp,r12d
  00000000000042F4: 21 FB              and         ebx,edi
  00000000000042F6: 41 03 45 C4        add         eax,dword ptr [r13-3Ch]
  00000000000042FA: 31 D3              xor         ebx,edx
  00000000000042FC: 89 CF              mov         edi,ecx
  00000000000042FE: 31 D7              xor         edi,edx
  0000000000004300: 8D 04 18           lea         eax,[rax+rbx]
  0000000000004303: C4 63 7B F0 E5 1B  rorx        r12d,ebp,1Bh
  0000000000004309: C4 E3 7B F0 DD 02  rorx        ebx,ebp,2
  000000000000430F: 31 CD              xor         ebp,ecx
  0000000000004311: 44 01 E0           add         eax,r12d
  0000000000004314: 21 FD              and         ebp,edi
  0000000000004316: 41 03 75 C8        add         esi,dword ptr [r13-38h]
  000000000000431A: 31 CD              xor         ebp,ecx
  000000000000431C: 89 DF              mov         edi,ebx
  000000000000431E: 31 CF              xor         edi,ecx
  0000000000004320: 8D 34 2E           lea         esi,[rsi+rbp]
  0000000000004323: C4 63 7B F0 E0 1B  rorx        r12d,eax,1Bh
  0000000000004329: C4 E3 7B F0 E8 02  rorx        ebp,eax,2
  000000000000432F: 31 D8              xor         eax,ebx
  0000000000004331: 44 01 E6           add         esi,r12d
  0000000000004334: 21 F8              and         eax,edi
  0000000000004336: 41 03 55 CC        add         edx,dword ptr [r13-34h]
  000000000000433A: 31 D8              xor         eax,ebx
  000000000000433C: 89 EF              mov         edi,ebp
  000000000000433E: 31 DF              xor         edi,ebx
  0000000000004340: 8D 14 02           lea         edx,[rdx+rax]
  0000000000004343: C4 63 7B F0 E6 1B  rorx        r12d,esi,1Bh
  0000000000004349: C4 E3 7B F0 C6 02  rorx        eax,esi,2
  000000000000434F: 31 EE              xor         esi,ebp
  0000000000004351: 44 01 E2           add         edx,r12d
  0000000000004354: 21 FE              and         esi,edi
  0000000000004356: 41 03 4D E0        add         ecx,dword ptr [r13-20h]
  000000000000435A: 31 EE              xor         esi,ebp
  000000000000435C: 89 C7              mov         edi,eax
  000000000000435E: 31 EF              xor         edi,ebp
  0000000000004360: 8D 0C 31           lea         ecx,[rcx+rsi]
  0000000000004363: C4 63 7B F0 E2 1B  rorx        r12d,edx,1Bh
  0000000000004369: C4 E3 7B F0 F2 02  rorx        esi,edx,2
  000000000000436F: 31 C2              xor         edx,eax
  0000000000004371: 44 01 E1           add         ecx,r12d
  0000000000004374: 21 FA              and         edx,edi
  0000000000004376: E9 05 00 00 00     jmp         L$align32_3
  000000000000437B: 90                 nop
  000000000000437C: 90                 nop
  000000000000437D: 90                 nop
  000000000000437E: 90                 nop
  000000000000437F: 90                 nop
L$align32_3:
  0000000000004380: C5 FE 7F 74 24 40  vmovdqu     ymmword ptr [rsp+40h],ymm6
  0000000000004386: C4 C1 65 FE FB     vpaddd      ymm7,ymm3,ymm11
  000000000000438B: 41 03 5D E4        add         ebx,dword ptr [r13-1Ch]
  000000000000438F: 31 C2              xor         edx,eax
  0000000000004391: 89 F7              mov         edi,esi
  0000000000004393: 31 C7              xor         edi,eax
  0000000000004395: 8D 1C 13           lea         ebx,[rbx+rdx]
  0000000000004398: C4 63 7B F0 E1 1B  rorx        r12d,ecx,1Bh
  000000000000439E: C4 E3 7B F0 D1 02  rorx        edx,ecx,2
  00000000000043A4: 31 F1              xor         ecx,esi
  00000000000043A6: 44 01 E3           add         ebx,r12d
  00000000000043A9: 21 F9              and         ecx,edi
  00000000000043AB: 41 03 6D E8        add         ebp,dword ptr [r13-18h]
  00000000000043AF: 31 F1              xor         ecx,esi
  00000000000043B1: 89 D7              mov         edi,edx
  00000000000043B3: 31 F7              xor         edi,esi
  00000000000043B5: 8D 2C 29           lea         ebp,[rcx+rbp]
  00000000000043B8: C4 63 7B F0 E3 1B  rorx        r12d,ebx,1Bh
  00000000000043BE: C4 E3 7B F0 CB 02  rorx        ecx,ebx,2
  00000000000043C4: 31 D3              xor         ebx,edx
  00000000000043C6: 44 01 E5           add         ebp,r12d
  00000000000043C9: 21 FB              and         ebx,edi
  00000000000043CB: 41 03 45 EC        add         eax,dword ptr [r13-14h]
  00000000000043CF: 31 D3              xor         ebx,edx
  00000000000043D1: 89 CF              mov         edi,ecx
  00000000000043D3: 31 D7              xor         edi,edx
  00000000000043D5: 8D 04 18           lea         eax,[rax+rbx]
  00000000000043D8: C4 63 7B F0 E5 1B  rorx        r12d,ebp,1Bh
  00000000000043DE: C4 E3 7B F0 DD 02  rorx        ebx,ebp,2
  00000000000043E4: 31 CD              xor         ebp,ecx
  00000000000043E6: 44 01 E0           add         eax,r12d
  00000000000043E9: 21 FD              and         ebp,edi
  00000000000043EB: 41 03 75 00        add         esi,dword ptr [r13]
  00000000000043EF: 31 CD              xor         ebp,ecx
  00000000000043F1: 89 DF              mov         edi,ebx
  00000000000043F3: 31 CF              xor         edi,ecx
  00000000000043F5: 8D 34 2E           lea         esi,[rsi+rbp]
  00000000000043F8: C4 63 7B F0 E0 1B  rorx        r12d,eax,1Bh
  00000000000043FE: C4 E3 7B F0 E8 02  rorx        ebp,eax,2
  0000000000004404: 31 D8              xor         eax,ebx
  0000000000004406: 44 01 E6           add         esi,r12d
  0000000000004409: 21 F8              and         eax,edi
  000000000000440B: 41 03 55 04        add         edx,dword ptr [r13+4]
  000000000000440F: 31 D8              xor         eax,ebx
  0000000000004411: 89 EF              mov         edi,ebp
  0000000000004413: 31 DF              xor         edi,ebx
  0000000000004415: 8D 14 02           lea         edx,[rdx+rax]
  0000000000004418: C4 63 7B F0 E6 1B  rorx        r12d,esi,1Bh
  000000000000441E: C4 E3 7B F0 C6 02  rorx        eax,esi,2
  0000000000004424: 31 EE              xor         esi,ebp
  0000000000004426: 44 01 E2           add         edx,r12d
  0000000000004429: 21 FE              and         esi,edi
  000000000000442B: C5 FE 7F 7C 24 60  vmovdqu     ymmword ptr [rsp+60h],ymm7
  0000000000004431: 41 03 4D 08        add         ecx,dword ptr [r13+8]
  0000000000004435: 31 EE              xor         esi,ebp
  0000000000004437: 89 C7              mov         edi,eax
  0000000000004439: 31 EF              xor         edi,ebp
  000000000000443B: 8D 0C 31           lea         ecx,[rcx+rsi]
  000000000000443E: C4 63 7B F0 E2 1B  rorx        r12d,edx,1Bh
  0000000000004444: C4 E3 7B F0 F2 02  rorx        esi,edx,2
  000000000000444A: 31 C2              xor         edx,eax
  000000000000444C: 44 01 E1           add         ecx,r12d
  000000000000444F: 21 FA              and         edx,edi
  0000000000004451: 41 03 5D 0C        add         ebx,dword ptr [r13+0Ch]
  0000000000004455: 31 C2              xor         edx,eax
  0000000000004457: 89 F7              mov         edi,esi
  0000000000004459: 31 C7              xor         edi,eax
  000000000000445B: 8D 1C 13           lea         ebx,[rbx+rdx]
  000000000000445E: C4 63 7B F0 E1 1B  rorx        r12d,ecx,1Bh
  0000000000004464: C4 E3 7B F0 D1 02  rorx        edx,ecx,2
  000000000000446A: 31 F1              xor         ecx,esi
  000000000000446C: 44 01 E3           add         ebx,r12d
  000000000000446F: 21 F9              and         ecx,edi
  0000000000004471: 41 03 6D 20        add         ebp,dword ptr [r13+20h]
  0000000000004475: 31 F1              xor         ecx,esi
  0000000000004477: 89 D7              mov         edi,edx
  0000000000004479: 31 F7              xor         edi,esi
  000000000000447B: 8D 2C 29           lea         ebp,[rcx+rbp]
  000000000000447E: C4 63 7B F0 E3 1B  rorx        r12d,ebx,1Bh
  0000000000004484: C4 E3 7B F0 CB 02  rorx        ecx,ebx,2
  000000000000448A: 31 D3              xor         ebx,edx
  000000000000448C: 44 01 E5           add         ebp,r12d
  000000000000448F: 21 FB              and         ebx,edi
  0000000000004491: 41 03 45 24        add         eax,dword ptr [r13+24h]
  0000000000004495: 31 D3              xor         ebx,edx
  0000000000004497: 89 CF              mov         edi,ecx
  0000000000004499: 31 D7              xor         edi,edx
  000000000000449B: 8D 04 18           lea         eax,[rax+rbx]
  000000000000449E: C4 63 7B F0 E5 1B  rorx        r12d,ebp,1Bh
  00000000000044A4: C4 E3 7B F0 DD 02  rorx        ebx,ebp,2
  00000000000044AA: 31 CD              xor         ebp,ecx
  00000000000044AC: 44 01 E0           add         eax,r12d
  00000000000044AF: 21 FD              and         ebp,edi
  00000000000044B1: 41 03 75 28        add         esi,dword ptr [r13+28h]
  00000000000044B5: 31 CD              xor         ebp,ecx
  00000000000044B7: 89 DF              mov         edi,ebx
  00000000000044B9: 31 CF              xor         edi,ecx
  00000000000044BB: 8D 34 2E           lea         esi,[rsi+rbp]
  00000000000044BE: C4 63 7B F0 E0 1B  rorx        r12d,eax,1Bh
  00000000000044C4: C4 E3 7B F0 E8 02  rorx        ebp,eax,2
  00000000000044CA: 31 D8              xor         eax,ebx
  00000000000044CC: 44 01 E6           add         esi,r12d
  00000000000044CF: 21 F8              and         eax,edi
  00000000000044D1: C4 E3 75 0F E0 08  vpalignr    ymm4,ymm1,ymm0,8
  00000000000044D7: 41 03 55 2C        add         edx,dword ptr [r13+2Ch]
  00000000000044DB: 31 D8              xor         eax,ebx
  00000000000044DD: 89 EF              mov         edi,ebp
  00000000000044DF: 31 DF              xor         edi,ebx
  00000000000044E1: C5 BD 73 DB 04     vpsrldq     ymm8,ymm3,4
  00000000000044E6: 8D 14 02           lea         edx,[rdx+rax]
  00000000000044E9: C4 63 7B F0 E6 1B  rorx        r12d,esi,1Bh
  00000000000044EF: C4 E3 7B F0 C6 02  rorx        eax,esi,2
  00000000000044F5: C5 DD EF E0        vpxor       ymm4,ymm4,ymm0
  00000000000044F9: C5 3D EF C2        vpxor       ymm8,ymm8,ymm2
  00000000000044FD: 31 EE              xor         esi,ebp
  00000000000044FF: 44 01 E2           add         edx,r12d
  0000000000004502: C4 C1 5D EF E0     vpxor       ymm4,ymm4,ymm8
  0000000000004507: 21 FE              and         esi,edi
  0000000000004509: 41 03 4D 40        add         ecx,dword ptr [r13+40h]
  000000000000450D: 31 EE              xor         esi,ebp
  000000000000450F: 89 C7              mov         edi,eax
  0000000000004511: C5 BD 72 D4 1F     vpsrld      ymm8,ymm4,1Fh
  0000000000004516: 31 EF              xor         edi,ebp
  0000000000004518: 8D 0C 31           lea         ecx,[rcx+rsi]
  000000000000451B: C4 63 7B F0 E2 1B  rorx        r12d,edx,1Bh
  0000000000004521: C5 AD 73 FC 0C     vpslldq     ymm10,ymm4,0Ch
  0000000000004526: C5 DD FE E4        vpaddd      ymm4,ymm4,ymm4
  000000000000452A: C4 E3 7B F0 F2 02  rorx        esi,edx,2
  0000000000004530: 31 C2              xor         edx,eax
  0000000000004532: C4 C1 35 72 D2 1E  vpsrld      ymm9,ymm10,1Eh
  0000000000004538: C4 C1 5D EB E0     vpor        ymm4,ymm4,ymm8
  000000000000453D: 44 01 E1           add         ecx,r12d
  0000000000004540: 21 FA              and         edx,edi
  0000000000004542: C4 C1 2D 72 F2 02  vpslld      ymm10,ymm10,2
  0000000000004548: C4 C1 5D EF E1     vpxor       ymm4,ymm4,ymm9
  000000000000454D: 41 03 5D 44        add         ebx,dword ptr [r13+44h]
  0000000000004551: 31 C2              xor         edx,eax
  0000000000004553: C4 C1 5D EF E2     vpxor       ymm4,ymm4,ymm10
  0000000000004558: 89 F7              mov         edi,esi
  000000000000455A: 31 C7              xor         edi,eax
  000000000000455C: 8D 1C 13           lea         ebx,[rbx+rdx]
  000000000000455F: C4 41 5D FE CB     vpaddd      ymm9,ymm4,ymm11
  0000000000004564: C4 63 7B F0 E1 1B  rorx        r12d,ecx,1Bh
  000000000000456A: C4 E3 7B F0 D1 02  rorx        edx,ecx,2
  0000000000004570: 31 F1              xor         ecx,esi
  0000000000004572: C5 7E 7F 8C 24 80  vmovdqu     ymmword ptr [rsp+80h],ymm9
                    00 00 00
  000000000000457B: 44 01 E3           add         ebx,r12d
  000000000000457E: 21 F9              and         ecx,edi
  0000000000004580: 41 03 6D 48        add         ebp,dword ptr [r13+48h]
  0000000000004584: 31 F1              xor         ecx,esi
  0000000000004586: 89 D7              mov         edi,edx
  0000000000004588: 31 F7              xor         edi,esi
  000000000000458A: 8D 2C 29           lea         ebp,[rcx+rbp]
  000000000000458D: C4 63 7B F0 E3 1B  rorx        r12d,ebx,1Bh
  0000000000004593: C4 E3 7B F0 CB 02  rorx        ecx,ebx,2
  0000000000004599: 31 D3              xor         ebx,edx
  000000000000459B: 44 01 E5           add         ebp,r12d
  000000000000459E: 21 FB              and         ebx,edi
  00000000000045A0: 41 03 45 4C        add         eax,dword ptr [r13+4Ch]
  00000000000045A4: 31 D3              xor         ebx,edx
  00000000000045A6: 8D 04 18           lea         eax,[rax+rbx]
  00000000000045A9: C4 63 7B F0 E5 1B  rorx        r12d,ebp,1Bh
  00000000000045AF: C4 E3 7B F0 DD 02  rorx        ebx,ebp,2
  00000000000045B5: 31 CD              xor         ebp,ecx
  00000000000045B7: 44 01 E0           add         eax,r12d
  00000000000045BA: 31 D5              xor         ebp,edx
  00000000000045BC: C4 E3 6D 0F E9 08  vpalignr    ymm5,ymm2,ymm1,8
  00000000000045C2: 41 03 75 60        add         esi,dword ptr [r13+60h]
  00000000000045C6: 8D 34 2E           lea         esi,[rsi+rbp]
  00000000000045C9: C4 63 7B F0 E0 1B  rorx        r12d,eax,1Bh
  00000000000045CF: C4 E3 7B F0 E8 02  rorx        ebp,eax,2
  00000000000045D5: C5 BD 73 DC 04     vpsrldq     ymm8,ymm4,4
  00000000000045DA: 31 D8              xor         eax,ebx
  00000000000045DC: 44 01 E6           add         esi,r12d
  00000000000045DF: 31 C8              xor         eax,ecx
  00000000000045E1: C5 D5 EF E9        vpxor       ymm5,ymm5,ymm1
  00000000000045E5: C5 3D EF C3        vpxor       ymm8,ymm8,ymm3
  00000000000045E9: 41 03 55 64        add         edx,dword ptr [r13+64h]
  00000000000045ED: 8D 14 02           lea         edx,[rdx+rax]
  00000000000045F0: C4 C1 55 EF E8     vpxor       ymm5,ymm5,ymm8
  00000000000045F5: C4 63 7B F0 E6 1B  rorx        r12d,esi,1Bh
  00000000000045FB: C4 E3 7B F0 C6 02  rorx        eax,esi,2
  0000000000004601: 31 EE              xor         esi,ebp
  0000000000004603: 44 01 E2           add         edx,r12d
  0000000000004606: C5 BD 72 D5 1F     vpsrld      ymm8,ymm5,1Fh
  000000000000460B: C4 41 7E 6F 5E E0  vmovdqu     ymm11,ymmword ptr [r14-20h]
  0000000000004611: 31 DE              xor         esi,ebx
  0000000000004613: 41 03 4D 68        add         ecx,dword ptr [r13+68h]
  0000000000004617: 8D 0C 31           lea         ecx,[rcx+rsi]
  000000000000461A: C5 AD 73 FD 0C     vpslldq     ymm10,ymm5,0Ch
  000000000000461F: C5 D5 FE ED        vpaddd      ymm5,ymm5,ymm5
  0000000000004623: C4 63 7B F0 E2 1B  rorx        r12d,edx,1Bh
  0000000000004629: C4 E3 7B F0 F2 02  rorx        esi,edx,2
  000000000000462F: C4 C1 35 72 D2 1E  vpsrld      ymm9,ymm10,1Eh
  0000000000004635: C4 C1 55 EB E8     vpor        ymm5,ymm5,ymm8
  000000000000463A: 31 C2              xor         edx,eax
  000000000000463C: 44 01 E1           add         ecx,r12d
  000000000000463F: C4 C1 2D 72 F2 02  vpslld      ymm10,ymm10,2
  0000000000004645: C4 C1 55 EF E9     vpxor       ymm5,ymm5,ymm9
  000000000000464A: 31 EA              xor         edx,ebp
  000000000000464C: 41 03 5D 6C        add         ebx,dword ptr [r13+6Ch]
  0000000000004650: 4D 8D AD 00 01 00  lea         r13,[r13+100h]
                    00
  0000000000004657: C4 C1 55 EF EA     vpxor       ymm5,ymm5,ymm10
  000000000000465C: 8D 1C 13           lea         ebx,[rbx+rdx]
  000000000000465F: C4 63 7B F0 E1 1B  rorx        r12d,ecx,1Bh
  0000000000004665: C4 E3 7B F0 D1 02  rorx        edx,ecx,2
  000000000000466B: C4 41 55 FE CB     vpaddd      ymm9,ymm5,ymm11
  0000000000004670: 31 F1              xor         ecx,esi
  0000000000004672: 44 01 E3           add         ebx,r12d
  0000000000004675: 31 C1              xor         ecx,eax
  0000000000004677: C5 7E 7F 8C 24 A0  vmovdqu     ymmword ptr [rsp+0A0h],ymm9
                    00 00 00
  0000000000004680: 41 03 6D 80        add         ebp,dword ptr [r13-80h]
  0000000000004684: 8D 2C 29           lea         ebp,[rcx+rbp]
  0000000000004687: C4 63 7B F0 E3 1B  rorx        r12d,ebx,1Bh
  000000000000468D: C4 E3 7B F0 CB 02  rorx        ecx,ebx,2
  0000000000004693: 31 D3              xor         ebx,edx
  0000000000004695: 44 01 E5           add         ebp,r12d
  0000000000004698: 31 F3              xor         ebx,esi
  000000000000469A: C4 E3 65 0F F2 08  vpalignr    ymm6,ymm3,ymm2,8
  00000000000046A0: 41 03 45 84        add         eax,dword ptr [r13-7Ch]
  00000000000046A4: 8D 04 18           lea         eax,[rax+rbx]
  00000000000046A7: C4 63 7B F0 E5 1B  rorx        r12d,ebp,1Bh
  00000000000046AD: C4 E3 7B F0 DD 02  rorx        ebx,ebp,2
  00000000000046B3: C5 BD 73 DD 04     vpsrldq     ymm8,ymm5,4
  00000000000046B8: 31 CD              xor         ebp,ecx
  00000000000046BA: 44 01 E0           add         eax,r12d
  00000000000046BD: 31 D5              xor         ebp,edx
  00000000000046BF: C5 CD EF F2        vpxor       ymm6,ymm6,ymm2
  00000000000046C3: C5 3D EF C4        vpxor       ymm8,ymm8,ymm4
  00000000000046C7: 41 03 75 88        add         esi,dword ptr [r13-78h]
  00000000000046CB: 8D 34 2E           lea         esi,[rsi+rbp]
  00000000000046CE: C4 C1 4D EF F0     vpxor       ymm6,ymm6,ymm8
  00000000000046D3: C4 63 7B F0 E0 1B  rorx        r12d,eax,1Bh
  00000000000046D9: C4 E3 7B F0 E8 02  rorx        ebp,eax,2
  00000000000046DF: 31 D8              xor         eax,ebx
  00000000000046E1: 44 01 E6           add         esi,r12d
  00000000000046E4: C5 BD 72 D6 1F     vpsrld      ymm8,ymm6,1Fh
  00000000000046E9: 31 C8              xor         eax,ecx
  00000000000046EB: 41 03 55 8C        add         edx,dword ptr [r13-74h]
  00000000000046EF: 8D 14 02           lea         edx,[rdx+rax]
  00000000000046F2: C5 AD 73 FE 0C     vpslldq     ymm10,ymm6,0Ch
  00000000000046F7: C5 CD FE F6        vpaddd      ymm6,ymm6,ymm6
  00000000000046FB: C4 63 7B F0 E6 1B  rorx        r12d,esi,1Bh
  0000000000004701: C4 E3 7B F0 C6 02  rorx        eax,esi,2
  0000000000004707: C4 C1 35 72 D2 1E  vpsrld      ymm9,ymm10,1Eh
  000000000000470D: C4 C1 4D EB F0     vpor        ymm6,ymm6,ymm8
  0000000000004712: 31 EE              xor         esi,ebp
  0000000000004714: 44 01 E2           add         edx,r12d
  0000000000004717: C4 C1 2D 72 F2 02  vpslld      ymm10,ymm10,2
  000000000000471D: C4 C1 4D EF F1     vpxor       ymm6,ymm6,ymm9
  0000000000004722: 31 DE              xor         esi,ebx
  0000000000004724: 41 03 4D A0        add         ecx,dword ptr [r13-60h]
  0000000000004728: C4 C1 4D EF F2     vpxor       ymm6,ymm6,ymm10
  000000000000472D: 8D 0C 31           lea         ecx,[rcx+rsi]
  0000000000004730: C4 63 7B F0 E2 1B  rorx        r12d,edx,1Bh
  0000000000004736: C4 E3 7B F0 F2 02  rorx        esi,edx,2
  000000000000473C: C4 41 4D FE CB     vpaddd      ymm9,ymm6,ymm11
  0000000000004741: 31 C2              xor         edx,eax
  0000000000004743: 44 01 E1           add         ecx,r12d
  0000000000004746: 31 EA              xor         edx,ebp
  0000000000004748: C5 7E 7F 8C 24 C0  vmovdqu     ymmword ptr [rsp+0C0h],ymm9
                    00 00 00
  0000000000004751: 41 03 5D A4        add         ebx,dword ptr [r13-5Ch]
  0000000000004755: 8D 1C 13           lea         ebx,[rbx+rdx]
  0000000000004758: C4 63 7B F0 E1 1B  rorx        r12d,ecx,1Bh
  000000000000475E: C4 E3 7B F0 D1 02  rorx        edx,ecx,2
  0000000000004764: 31 F1              xor         ecx,esi
  0000000000004766: 44 01 E3           add         ebx,r12d
  0000000000004769: 31 C1              xor         ecx,eax
  000000000000476B: C4 E3 5D 0F FB 08  vpalignr    ymm7,ymm4,ymm3,8
  0000000000004771: 41 03 6D A8        add         ebp,dword ptr [r13-58h]
  0000000000004775: 8D 2C 29           lea         ebp,[rcx+rbp]
  0000000000004778: C4 63 7B F0 E3 1B  rorx        r12d,ebx,1Bh
  000000000000477E: C4 E3 7B F0 CB 02  rorx        ecx,ebx,2
  0000000000004784: C5 BD 73 DE 04     vpsrldq     ymm8,ymm6,4
  0000000000004789: 31 D3              xor         ebx,edx
  000000000000478B: 44 01 E5           add         ebp,r12d
  000000000000478E: 31 F3              xor         ebx,esi
  0000000000004790: C5 C5 EF FB        vpxor       ymm7,ymm7,ymm3
  0000000000004794: C5 3D EF C5        vpxor       ymm8,ymm8,ymm5
  0000000000004798: 41 03 45 AC        add         eax,dword ptr [r13-54h]
  000000000000479C: 8D 04 18           lea         eax,[rax+rbx]
  000000000000479F: C4 C1 45 EF F8     vpxor       ymm7,ymm7,ymm8
  00000000000047A4: C4 63 7B F0 E5 1B  rorx        r12d,ebp,1Bh
  00000000000047AA: C4 E3 7B F0 DD 02  rorx        ebx,ebp,2
  00000000000047B0: 31 CD              xor         ebp,ecx
  00000000000047B2: 44 01 E0           add         eax,r12d
  00000000000047B5: C5 BD 72 D7 1F     vpsrld      ymm8,ymm7,1Fh
  00000000000047BA: 31 D5              xor         ebp,edx
  00000000000047BC: 41 03 75 C0        add         esi,dword ptr [r13-40h]
  00000000000047C0: 8D 34 2E           lea         esi,[rsi+rbp]
  00000000000047C3: C5 AD 73 FF 0C     vpslldq     ymm10,ymm7,0Ch
  00000000000047C8: C5 C5 FE FF        vpaddd      ymm7,ymm7,ymm7
  00000000000047CC: C4 63 7B F0 E0 1B  rorx        r12d,eax,1Bh
  00000000000047D2: C4 E3 7B F0 E8 02  rorx        ebp,eax,2
  00000000000047D8: C4 C1 35 72 D2 1E  vpsrld      ymm9,ymm10,1Eh
  00000000000047DE: C4 C1 45 EB F8     vpor        ymm7,ymm7,ymm8
  00000000000047E3: 31 D8              xor         eax,ebx
  00000000000047E5: 44 01 E6           add         esi,r12d
  00000000000047E8: C4 C1 2D 72 F2 02  vpslld      ymm10,ymm10,2
  00000000000047EE: C4 C1 45 EF F9     vpxor       ymm7,ymm7,ymm9
  00000000000047F3: 31 C8              xor         eax,ecx
  00000000000047F5: 41 03 55 C4        add         edx,dword ptr [r13-3Ch]
  00000000000047F9: C4 C1 45 EF FA     vpxor       ymm7,ymm7,ymm10
  00000000000047FE: 8D 14 02           lea         edx,[rdx+rax]
  0000000000004801: C4 63 7B F0 E6 1B  rorx        r12d,esi,1Bh
  0000000000004807: C4 E3 7B F0 C6 02  rorx        eax,esi,2
  000000000000480D: C4 41 45 FE CB     vpaddd      ymm9,ymm7,ymm11
  0000000000004812: 31 EE              xor         esi,ebp
  0000000000004814: 44 01 E2           add         edx,r12d
  0000000000004817: 31 DE              xor         esi,ebx
  0000000000004819: C5 7E 7F 8C 24 E0  vmovdqu     ymmword ptr [rsp+0E0h],ymm9
                    00 00 00
  0000000000004822: 41 03 4D C8        add         ecx,dword ptr [r13-38h]
  0000000000004826: 8D 0C 31           lea         ecx,[rcx+rsi]
  0000000000004829: C4 63 7B F0 E2 1B  rorx        r12d,edx,1Bh
  000000000000482F: C4 E3 7B F0 F2 02  rorx        esi,edx,2
  0000000000004835: 31 C2              xor         edx,eax
  0000000000004837: 44 01 E1           add         ecx,r12d
  000000000000483A: 31 EA              xor         edx,ebp
  000000000000483C: 41 03 5D CC        add         ebx,dword ptr [r13-34h]
  0000000000004840: 8D 1C 13           lea         ebx,[rbx+rdx]
  0000000000004843: C4 63 7B F0 E1 1B  rorx        r12d,ecx,1Bh
  0000000000004849: C4 E3 7B F0 D1 02  rorx        edx,ecx,2
  000000000000484F: 31 F1              xor         ecx,esi
  0000000000004851: 44 01 E3           add         ebx,r12d
  0000000000004854: 31 C1              xor         ecx,eax
  0000000000004856: 41 03 6D E0        add         ebp,dword ptr [r13-20h]
  000000000000485A: 8D 2C 29           lea         ebp,[rcx+rbp]
  000000000000485D: C4 63 7B F0 E3 1B  rorx        r12d,ebx,1Bh
  0000000000004863: C4 E3 7B F0 CB 02  rorx        ecx,ebx,2
  0000000000004869: 31 D3              xor         ebx,edx
  000000000000486B: 44 01 E5           add         ebp,r12d
  000000000000486E: 31 F3              xor         ebx,esi
  0000000000004870: 41 03 45 E4        add         eax,dword ptr [r13-1Ch]
  0000000000004874: 8D 04 18           lea         eax,[rax+rbx]
  0000000000004877: C4 63 7B F0 E5 1B  rorx        r12d,ebp,1Bh
  000000000000487D: C4 E3 7B F0 DD 02  rorx        ebx,ebp,2
  0000000000004883: 31 CD              xor         ebp,ecx
  0000000000004885: 44 01 E0           add         eax,r12d
  0000000000004888: 31 D5              xor         ebp,edx
  000000000000488A: 41 03 75 E8        add         esi,dword ptr [r13-18h]
  000000000000488E: 8D 34 2E           lea         esi,[rsi+rbp]
  0000000000004891: C4 63 7B F0 E0 1B  rorx        r12d,eax,1Bh
  0000000000004897: C4 E3 7B F0 E8 02  rorx        ebp,eax,2
  000000000000489D: 31 D8              xor         eax,ebx
  000000000000489F: 44 01 E6           add         esi,r12d
  00000000000048A2: 31 C8              xor         eax,ecx
  00000000000048A4: 41 03 55 EC        add         edx,dword ptr [r13-14h]
  00000000000048A8: 8D 14 02           lea         edx,[rdx+rax]
  00000000000048AB: C4 63 7B F0 E6 1B  rorx        r12d,esi,1Bh
  00000000000048B1: 44 01 E2           add         edx,r12d
  00000000000048B4: 4C 8D AC 24 80 00  lea         r13,[rsp+80h]
                    00 00
  00000000000048BC: 41 03 10           add         edx,dword ptr [r8]
  00000000000048BF: 41 03 70 04        add         esi,dword ptr [r8+4]
  00000000000048C3: 41 03 68 08        add         ebp,dword ptr [r8+8]
  00000000000048C7: 41 89 10           mov         dword ptr [r8],edx
  00000000000048CA: 41 03 58 0C        add         ebx,dword ptr [r8+0Ch]
  00000000000048CE: 41 89 70 04        mov         dword ptr [r8+4],esi
  00000000000048D2: 89 D0              mov         eax,edx
  00000000000048D4: 41 03 48 10        add         ecx,dword ptr [r8+10h]
  00000000000048D8: 41 89 EC           mov         r12d,ebp
  00000000000048DB: 41 89 68 08        mov         dword ptr [r8+8],ebp
  00000000000048DF: 89 DA              mov         edx,ebx
  00000000000048E1: 41 89 58 0C        mov         dword ptr [r8+0Ch],ebx
  00000000000048E5: 89 F5              mov         ebp,esi
  00000000000048E7: 41 89 48 10        mov         dword ptr [r8+10h],ecx
  00000000000048EB: 89 CE              mov         esi,ecx
  00000000000048ED: 44 89 E1           mov         ecx,r12d
  00000000000048F0: 4D 39 D1           cmp         r9,r10
  00000000000048F3: 0F 86 27 E9 FF FF  jbe         L$oop_avx2
L$done_avx2:
  00000000000048F9: C5 F8 77           vzeroupper
  00000000000048FC: 41 0F 28 B3 78 FF  movaps      xmm6,xmmword ptr [r11-88h]
                    FF FF
  0000000000004904: 41 0F 28 7B 88     movaps      xmm7,xmmword ptr [r11-78h]
  0000000000004909: 45 0F 28 43 98     movaps      xmm8,xmmword ptr [r11-68h]
  000000000000490E: 45 0F 28 4B A8     movaps      xmm9,xmmword ptr [r11-58h]
  0000000000004913: 45 0F 28 53 B8     movaps      xmm10,xmmword ptr [r11-48h]
  0000000000004918: 45 0F 28 5B C8     movaps      xmm11,xmmword ptr [r11-38h]
  000000000000491D: 4D 8B 73 D8        mov         r14,qword ptr [r11-28h]
  0000000000004921: 4D 8B 6B E0        mov         r13,qword ptr [r11-20h]
  0000000000004925: 4D 8B 63 E8        mov         r12,qword ptr [r11-18h]
  0000000000004929: 49 8B 6B F0        mov         rbp,qword ptr [r11-10h]
  000000000000492D: 49 8B 5B F8        mov         rbx,qword ptr [r11-8]
  0000000000004931: 49 8D 23           lea         rsp,[r11]
L$epilogue_avx2:
  0000000000004934: 48 8B 7C 24 08     mov         rdi,qword ptr [rsp+8]
  0000000000004939: 48 8B 74 24 10     mov         rsi,qword ptr [rsp+10h]
  000000000000493E: F3 C3              rep ret
L$SEH_end_sha1_block_data_order_avx2:
  0000000000004940: 56                 push        rsi
  0000000000004941: 57                 push        rdi
  0000000000004942: 53                 push        rbx
  0000000000004943: 55                 push        rbp
  0000000000004944: 41 54              push        r12
  0000000000004946: 41 55              push        r13
  0000000000004948: 41 56              push        r14
  000000000000494A: 41 57              push        r15
  000000000000494C: 9C                 pushfq
  000000000000494D: 48 83 EC 40        sub         rsp,40h
  0000000000004951: 49 8B 40 78        mov         rax,qword ptr [r8+78h]
  0000000000004955: 49 8B 98 F8 00 00  mov         rbx,qword ptr [r8+0F8h]
                    00
  000000000000495C: 4C 8D 15 D4 B6 FF  lea         r10,[L$prologue]
                    FF
  0000000000004963: 4C 39 D3           cmp         rbx,r10
  0000000000004966: 0F 82 5E 01 00 00  jb          L$common_seh_tail
  000000000000496C: 49 8B 80 98 00 00  mov         rax,qword ptr [r8+98h]
                    00
  0000000000004973: 4C 8D 15 AF C6 FF  lea         r10,[L$epilogue]
                    FF
  000000000000497A: 4C 39 D3           cmp         rbx,r10
  000000000000497D: 0F 83 47 01 00 00  jae         L$common_seh_tail
  0000000000004983: 48 8B 40 40        mov         rax,qword ptr [rax+40h]
  0000000000004987: 48 8B 58 F8        mov         rbx,qword ptr [rax-8]
  000000000000498B: 48 8B 68 F0        mov         rbp,qword ptr [rax-10h]
  000000000000498F: 4C 8B 60 E8        mov         r12,qword ptr [rax-18h]
  0000000000004993: 4C 8B 68 E0        mov         r13,qword ptr [rax-20h]
  0000000000004997: 4C 8B 70 D8        mov         r14,qword ptr [rax-28h]
  000000000000499B: 49 89 98 90 00 00  mov         qword ptr [r8+90h],rbx
                    00
  00000000000049A2: 49 89 A8 A0 00 00  mov         qword ptr [r8+0A0h],rbp
                    00
  00000000000049A9: 4D 89 A0 D8 00 00  mov         qword ptr [r8+0D8h],r12
                    00
  00000000000049B0: 4D 89 A8 E0 00 00  mov         qword ptr [r8+0E0h],r13
                    00
  00000000000049B7: 4D 89 B0 E8 00 00  mov         qword ptr [r8+0E8h],r14
                    00
  00000000000049BE: E9 07 01 00 00     jmp         L$common_seh_tail
  00000000000049C3: 90                 nop
  00000000000049C4: 90                 nop
  00000000000049C5: 90                 nop
  00000000000049C6: 90                 nop
  00000000000049C7: 90                 nop
  00000000000049C8: 90                 nop
  00000000000049C9: 90                 nop
  00000000000049CA: 90                 nop
  00000000000049CB: 90                 nop
  00000000000049CC: 90                 nop
  00000000000049CD: 90                 nop
  00000000000049CE: 90                 nop
  00000000000049CF: 90                 nop
shaext_handler:
  00000000000049D0: 56                 push        rsi
  00000000000049D1: 57                 push        rdi
  00000000000049D2: 53                 push        rbx
  00000000000049D3: 55                 push        rbp
  00000000000049D4: 41 54              push        r12
  00000000000049D6: 41 55              push        r13
  00000000000049D8: 41 56              push        r14
  00000000000049DA: 41 57              push        r15
  00000000000049DC: 9C                 pushfq
  00000000000049DD: 48 83 EC 40        sub         rsp,40h
  00000000000049E1: 49 8B 40 78        mov         rax,qword ptr [r8+78h]
  00000000000049E5: 49 8B 98 F8 00 00  mov         rbx,qword ptr [r8+0F8h]
                    00
  00000000000049EC: 4C 8D 15 7A C6 FF  lea         r10,[L$prologue_shaext]
                    FF
  00000000000049F3: 4C 39 D3           cmp         rbx,r10
  00000000000049F6: 0F 82 CE 00 00 00  jb          L$common_seh_tail
  00000000000049FC: 4C 8D 15 FC C8 FF  lea         r10,[L$epilogue_shaext]
                    FF
  0000000000004A03: 4C 39 D3           cmp         rbx,r10
  0000000000004A06: 0F 83 BE 00 00 00  jae         L$common_seh_tail
  0000000000004A0C: 48 8D 70 B8        lea         rsi,[rax-48h]
  0000000000004A10: 49 8D B8 00 02 00  lea         rdi,[r8+200h]
                    00
  0000000000004A17: B9 08 00 00 00     mov         ecx,8
  0000000000004A1C: FC                 cld
  0000000000004A1D: F3 48 A5           rep movs    qword ptr [rdi],qword ptr [rsi]
  0000000000004A20: E9 A5 00 00 00     jmp         L$common_seh_tail
  0000000000004A25: 90                 nop
  0000000000004A26: 90                 nop
  0000000000004A27: 90                 nop
  0000000000004A28: 90                 nop
  0000000000004A29: 90                 nop
  0000000000004A2A: 90                 nop
  0000000000004A2B: 90                 nop
  0000000000004A2C: 90                 nop
  0000000000004A2D: 90                 nop
  0000000000004A2E: 90                 nop
  0000000000004A2F: 90                 nop
ssse3_handler:
  0000000000004A30: 56                 push        rsi
  0000000000004A31: 57                 push        rdi
  0000000000004A32: 53                 push        rbx
  0000000000004A33: 55                 push        rbp
  0000000000004A34: 41 54              push        r12
  0000000000004A36: 41 55              push        r13
  0000000000004A38: 41 56              push        r14
  0000000000004A3A: 41 57              push        r15
  0000000000004A3C: 9C                 pushfq
  0000000000004A3D: 48 83 EC 40        sub         rsp,40h
  0000000000004A41: 49 8B 40 78        mov         rax,qword ptr [r8+78h]
  0000000000004A45: 49 8B 98 F8 00 00  mov         rbx,qword ptr [r8+0F8h]
                    00
  0000000000004A4C: 49 8B 71 08        mov         rsi,qword ptr [r9+8]
  0000000000004A50: 4D 8B 59 38        mov         r11,qword ptr [r9+38h]
  0000000000004A54: 45 8B 13           mov         r10d,dword ptr [r11]
  0000000000004A57: 4E 8D 14 16        lea         r10,[rsi+r10]
  0000000000004A5B: 4C 39 D3           cmp         rbx,r10
  0000000000004A5E: 0F 82 66 00 00 00  jb          L$common_seh_tail
  0000000000004A64: 49 8B 80 D0 00 00  mov         rax,qword ptr [r8+0D0h]
                    00
  0000000000004A6B: 45 8B 53 04        mov         r10d,dword ptr [r11+4]
  0000000000004A6F: 4E 8D 14 16        lea         r10,[rsi+r10]
  0000000000004A73: 4C 39 D3           cmp         rbx,r10
  0000000000004A76: 0F 83 4E 00 00 00  jae         L$common_seh_tail
  0000000000004A7C: 48 8D B0 78 FF FF  lea         rsi,[rax-88h]
                    FF
  0000000000004A83: 49 8D B8 00 02 00  lea         rdi,[r8+200h]
                    00
  0000000000004A8A: B9 0C 00 00 00     mov         ecx,0Ch
  0000000000004A8F: FC                 cld
  0000000000004A90: F3 48 A5           rep movs    qword ptr [rdi],qword ptr [rsi]
  0000000000004A93: 48 8B 58 F8        mov         rbx,qword ptr [rax-8]
  0000000000004A97: 48 8B 68 F0        mov         rbp,qword ptr [rax-10h]
  0000000000004A9B: 4C 8B 60 E8        mov         r12,qword ptr [rax-18h]
  0000000000004A9F: 4C 8B 68 E0        mov         r13,qword ptr [rax-20h]
  0000000000004AA3: 4C 8B 70 D8        mov         r14,qword ptr [rax-28h]
  0000000000004AA7: 49 89 98 90 00 00  mov         qword ptr [r8+90h],rbx
                    00
  0000000000004AAE: 49 89 A8 A0 00 00  mov         qword ptr [r8+0A0h],rbp
                    00
  0000000000004AB5: 4D 89 A0 D8 00 00  mov         qword ptr [r8+0D8h],r12
                    00
  0000000000004ABC: 4D 89 A8 E0 00 00  mov         qword ptr [r8+0E0h],r13
                    00
  0000000000004AC3: 4D 89 B0 E8 00 00  mov         qword ptr [r8+0E8h],r14
                    00
L$common_seh_tail:
  0000000000004ACA: 48 8B 78 08        mov         rdi,qword ptr [rax+8]
  0000000000004ACE: 48 8B 70 10        mov         rsi,qword ptr [rax+10h]
  0000000000004AD2: 49 89 80 98 00 00  mov         qword ptr [r8+98h],rax
                    00
  0000000000004AD9: 49 89 B0 A8 00 00  mov         qword ptr [r8+0A8h],rsi
                    00
  0000000000004AE0: 49 89 B8 B0 00 00  mov         qword ptr [r8+0B0h],rdi
                    00
  0000000000004AE7: 49 8B 79 28        mov         rdi,qword ptr [r9+28h]
  0000000000004AEB: 4C 89 C6           mov         rsi,r8
  0000000000004AEE: B9 9A 00 00 00     mov         ecx,9Ah
  0000000000004AF3: FC                 cld
  0000000000004AF4: F3 48 A5           rep movs    qword ptr [rdi],qword ptr [rsi]
  0000000000004AF7: 4C 89 CE           mov         rsi,r9
  0000000000004AFA: 48 31 C9           xor         rcx,rcx
  0000000000004AFD: 48 8B 56 08        mov         rdx,qword ptr [rsi+8]
  0000000000004B01: 4C 8B 06           mov         r8,qword ptr [rsi]
  0000000000004B04: 4C 8B 4E 10        mov         r9,qword ptr [rsi+10h]
  0000000000004B08: 4C 8B 56 28        mov         r10,qword ptr [rsi+28h]
  0000000000004B0C: 4C 8D 5E 38        lea         r11,[rsi+38h]
  0000000000004B10: 4C 8D 66 18        lea         r12,[rsi+18h]
  0000000000004B14: 4C 89 54 24 20     mov         qword ptr [rsp+20h],r10
  0000000000004B19: 4C 89 5C 24 28     mov         qword ptr [rsp+28h],r11
  0000000000004B1E: 4C 89 64 24 30     mov         qword ptr [rsp+30h],r12
  0000000000004B23: 48 89 4C 24 38     mov         qword ptr [rsp+38h],rcx
  0000000000004B28: FF 15 00 00 00 00  call        qword ptr [__imp_RtlVirtualUnwind]
  0000000000004B2E: B8 01 00 00 00     mov         eax,1
  0000000000004B33: 48 83 C4 40        add         rsp,40h
  0000000000004B37: 9D                 popfq
  0000000000004B38: 41 5F              pop         r15
  0000000000004B3A: 41 5E              pop         r14
  0000000000004B3C: 41 5D              pop         r13
  0000000000004B3E: 41 5C              pop         r12
  0000000000004B40: 5D                 pop         rbp
  0000000000004B41: 5B                 pop         rbx
  0000000000004B42: 5F                 pop         rdi
  0000000000004B43: 5E                 pop         rsi
  0000000000004B44: F3 C3              rep ret

  Summary

          1C .debug$T
          3C .pdata
         100 .rdata
        4B46 .text
          40 .xdata
