Copyright (C) Microsoft Corporation.  All rights reserved.


Dump of file sha256-x86_64.obj

File Type: COFF OBJECT

aws_lc_0_21_2_sha256_block_data_order_nohw:
  0000000000000000: 48 89 7C 24 08     mov         qword ptr [rsp+8],rdi
  0000000000000005: 48 89 74 24 10     mov         qword ptr [rsp+10h],rsi
  000000000000000A: 48 89 E0           mov         rax,rsp
L$SEH_begin_sha256_block_data_order_nohw:
  000000000000000D: 48 89 CF           mov         rdi,rcx
  0000000000000010: 48 89 D6           mov         rsi,rdx
  0000000000000013: 4C 89 C2           mov         rdx,r8
  0000000000000016: 48 89 E0           mov         rax,rsp
  0000000000000019: 53                 push        rbx
  000000000000001A: 55                 push        rbp
  000000000000001B: 41 54              push        r12
  000000000000001D: 41 55              push        r13
  000000000000001F: 41 56              push        r14
  0000000000000021: 41 57              push        r15
  0000000000000023: 48 C1 E2 04        shl         rdx,4
  0000000000000027: 48 83 EC 60        sub         rsp,60h
  000000000000002B: 48 8D 14 96        lea         rdx,[rsi+rdx*4]
  000000000000002F: 48 83 E4 C0        and         rsp,0FFFFFFFFFFFFFFC0h
  0000000000000033: 48 89 7C 24 40     mov         qword ptr [rsp+40h],rdi
  0000000000000038: 48 89 74 24 48     mov         qword ptr [rsp+48h],rsi
  000000000000003D: 48 89 54 24 50     mov         qword ptr [rsp+50h],rdx
  0000000000000042: 48 89 44 24 58     mov         qword ptr [rsp+58h],rax
L$prologue:
  0000000000000047: 8B 07              mov         eax,dword ptr [rdi]
  0000000000000049: 8B 5F 04           mov         ebx,dword ptr [rdi+4]
  000000000000004C: 8B 4F 08           mov         ecx,dword ptr [rdi+8]
  000000000000004F: 8B 57 0C           mov         edx,dword ptr [rdi+0Ch]
  0000000000000052: 44 8B 47 10        mov         r8d,dword ptr [rdi+10h]
  0000000000000056: 44 8B 4F 14        mov         r9d,dword ptr [rdi+14h]
  000000000000005A: 44 8B 57 18        mov         r10d,dword ptr [rdi+18h]
  000000000000005E: 44 8B 5F 1C        mov         r11d,dword ptr [rdi+1Ch]
  0000000000000062: E9 09 00 00 00     jmp         L$loop
  0000000000000067: 90                 nop
  0000000000000068: 90                 nop
  0000000000000069: 90                 nop
  000000000000006A: 90                 nop
  000000000000006B: 90                 nop
  000000000000006C: 90                 nop
  000000000000006D: 90                 nop
  000000000000006E: 90                 nop
  000000000000006F: 90                 nop
L$loop:
  0000000000000070: 89 DF              mov         edi,ebx
  0000000000000072: 48 8D 2D 00 00 00  lea         rbp,[.rdata]
                    00
  0000000000000079: 31 CF              xor         edi,ecx
  000000000000007B: 44 8B 26           mov         r12d,dword ptr [rsi]
  000000000000007E: 45 89 C5           mov         r13d,r8d
  0000000000000081: 41 89 C6           mov         r14d,eax
  0000000000000084: 41 0F CC           bswap       r12d
  0000000000000087: 41 C1 CD 0E        ror         r13d,0Eh
  000000000000008B: 45 89 CF           mov         r15d,r9d
  000000000000008E: 45 31 C5           xor         r13d,r8d
  0000000000000091: 41 C1 CE 09        ror         r14d,9
  0000000000000095: 45 31 D7           xor         r15d,r10d
  0000000000000098: 44 89 24 24        mov         dword ptr [rsp],r12d
  000000000000009C: 41 31 C6           xor         r14d,eax
  000000000000009F: 45 21 C7           and         r15d,r8d
  00000000000000A2: 41 C1 CD 05        ror         r13d,5
  00000000000000A6: 45 01 DC           add         r12d,r11d
  00000000000000A9: 45 31 D7           xor         r15d,r10d
  00000000000000AC: 41 C1 CE 0B        ror         r14d,0Bh
  00000000000000B0: 45 31 C5           xor         r13d,r8d
  00000000000000B3: 45 01 FC           add         r12d,r15d
  00000000000000B6: 41 89 C7           mov         r15d,eax
  00000000000000B9: 44 03 65 00        add         r12d,dword ptr [rbp]
  00000000000000BD: 41 31 C6           xor         r14d,eax
  00000000000000C0: 41 31 DF           xor         r15d,ebx
  00000000000000C3: 41 C1 CD 06        ror         r13d,6
  00000000000000C7: 41 89 DB           mov         r11d,ebx
  00000000000000CA: 44 21 FF           and         edi,r15d
  00000000000000CD: 41 C1 CE 02        ror         r14d,2
  00000000000000D1: 45 01 EC           add         r12d,r13d
  00000000000000D4: 41 31 FB           xor         r11d,edi
  00000000000000D7: 44 01 E2           add         edx,r12d
  00000000000000DA: 45 01 E3           add         r11d,r12d
  00000000000000DD: 48 8D 6D 04        lea         rbp,[rbp+4]
  00000000000000E1: 45 01 F3           add         r11d,r14d
  00000000000000E4: 44 8B 66 04        mov         r12d,dword ptr [rsi+4]
  00000000000000E8: 41 89 D5           mov         r13d,edx
  00000000000000EB: 45 89 DE           mov         r14d,r11d
  00000000000000EE: 41 0F CC           bswap       r12d
  00000000000000F1: 41 C1 CD 0E        ror         r13d,0Eh
  00000000000000F5: 44 89 C7           mov         edi,r8d
  00000000000000F8: 41 31 D5           xor         r13d,edx
  00000000000000FB: 41 C1 CE 09        ror         r14d,9
  00000000000000FF: 44 31 CF           xor         edi,r9d
  0000000000000102: 44 89 64 24 04     mov         dword ptr [rsp+4],r12d
  0000000000000107: 45 31 DE           xor         r14d,r11d
  000000000000010A: 21 D7              and         edi,edx
  000000000000010C: 41 C1 CD 05        ror         r13d,5
  0000000000000110: 45 01 D4           add         r12d,r10d
  0000000000000113: 44 31 CF           xor         edi,r9d
  0000000000000116: 41 C1 CE 0B        ror         r14d,0Bh
  000000000000011A: 41 31 D5           xor         r13d,edx
  000000000000011D: 41 01 FC           add         r12d,edi
  0000000000000120: 44 89 DF           mov         edi,r11d
  0000000000000123: 44 03 65 00        add         r12d,dword ptr [rbp]
  0000000000000127: 45 31 DE           xor         r14d,r11d
  000000000000012A: 31 C7              xor         edi,eax
  000000000000012C: 41 C1 CD 06        ror         r13d,6
  0000000000000130: 41 89 C2           mov         r10d,eax
  0000000000000133: 41 21 FF           and         r15d,edi
  0000000000000136: 41 C1 CE 02        ror         r14d,2
  000000000000013A: 45 01 EC           add         r12d,r13d
  000000000000013D: 45 31 FA           xor         r10d,r15d
  0000000000000140: 44 01 E1           add         ecx,r12d
  0000000000000143: 45 01 E2           add         r10d,r12d
  0000000000000146: 48 8D 6D 04        lea         rbp,[rbp+4]
  000000000000014A: 45 01 F2           add         r10d,r14d
  000000000000014D: 44 8B 66 08        mov         r12d,dword ptr [rsi+8]
  0000000000000151: 41 89 CD           mov         r13d,ecx
  0000000000000154: 45 89 D6           mov         r14d,r10d
  0000000000000157: 41 0F CC           bswap       r12d
  000000000000015A: 41 C1 CD 0E        ror         r13d,0Eh
  000000000000015E: 41 89 D7           mov         r15d,edx
  0000000000000161: 41 31 CD           xor         r13d,ecx
  0000000000000164: 41 C1 CE 09        ror         r14d,9
  0000000000000168: 45 31 C7           xor         r15d,r8d
  000000000000016B: 44 89 64 24 08     mov         dword ptr [rsp+8],r12d
  0000000000000170: 45 31 D6           xor         r14d,r10d
  0000000000000173: 41 21 CF           and         r15d,ecx
  0000000000000176: 41 C1 CD 05        ror         r13d,5
  000000000000017A: 45 01 CC           add         r12d,r9d
  000000000000017D: 45 31 C7           xor         r15d,r8d
  0000000000000180: 41 C1 CE 0B        ror         r14d,0Bh
  0000000000000184: 41 31 CD           xor         r13d,ecx
  0000000000000187: 45 01 FC           add         r12d,r15d
  000000000000018A: 45 89 D7           mov         r15d,r10d
  000000000000018D: 44 03 65 00        add         r12d,dword ptr [rbp]
  0000000000000191: 45 31 D6           xor         r14d,r10d
  0000000000000194: 45 31 DF           xor         r15d,r11d
  0000000000000197: 41 C1 CD 06        ror         r13d,6
  000000000000019B: 45 89 D9           mov         r9d,r11d
  000000000000019E: 44 21 FF           and         edi,r15d
  00000000000001A1: 41 C1 CE 02        ror         r14d,2
  00000000000001A5: 45 01 EC           add         r12d,r13d
  00000000000001A8: 41 31 F9           xor         r9d,edi
  00000000000001AB: 44 01 E3           add         ebx,r12d
  00000000000001AE: 45 01 E1           add         r9d,r12d
  00000000000001B1: 48 8D 6D 04        lea         rbp,[rbp+4]
  00000000000001B5: 45 01 F1           add         r9d,r14d
  00000000000001B8: 44 8B 66 0C        mov         r12d,dword ptr [rsi+0Ch]
  00000000000001BC: 41 89 DD           mov         r13d,ebx
  00000000000001BF: 45 89 CE           mov         r14d,r9d
  00000000000001C2: 41 0F CC           bswap       r12d
  00000000000001C5: 41 C1 CD 0E        ror         r13d,0Eh
  00000000000001C9: 89 CF              mov         edi,ecx
  00000000000001CB: 41 31 DD           xor         r13d,ebx
  00000000000001CE: 41 C1 CE 09        ror         r14d,9
  00000000000001D2: 31 D7              xor         edi,edx
  00000000000001D4: 44 89 64 24 0C     mov         dword ptr [rsp+0Ch],r12d
  00000000000001D9: 45 31 CE           xor         r14d,r9d
  00000000000001DC: 21 DF              and         edi,ebx
  00000000000001DE: 41 C1 CD 05        ror         r13d,5
  00000000000001E2: 45 01 C4           add         r12d,r8d
  00000000000001E5: 31 D7              xor         edi,edx
  00000000000001E7: 41 C1 CE 0B        ror         r14d,0Bh
  00000000000001EB: 41 31 DD           xor         r13d,ebx
  00000000000001EE: 41 01 FC           add         r12d,edi
  00000000000001F1: 44 89 CF           mov         edi,r9d
  00000000000001F4: 44 03 65 00        add         r12d,dword ptr [rbp]
  00000000000001F8: 45 31 CE           xor         r14d,r9d
  00000000000001FB: 44 31 D7           xor         edi,r10d
  00000000000001FE: 41 C1 CD 06        ror         r13d,6
  0000000000000202: 45 89 D0           mov         r8d,r10d
  0000000000000205: 41 21 FF           and         r15d,edi
  0000000000000208: 41 C1 CE 02        ror         r14d,2
  000000000000020C: 45 01 EC           add         r12d,r13d
  000000000000020F: 45 31 F8           xor         r8d,r15d
  0000000000000212: 44 01 E0           add         eax,r12d
  0000000000000215: 45 01 E0           add         r8d,r12d
  0000000000000218: 48 8D 6D 14        lea         rbp,[rbp+14h]
  000000000000021C: 45 01 F0           add         r8d,r14d
  000000000000021F: 44 8B 66 10        mov         r12d,dword ptr [rsi+10h]
  0000000000000223: 41 89 C5           mov         r13d,eax
  0000000000000226: 45 89 C6           mov         r14d,r8d
  0000000000000229: 41 0F CC           bswap       r12d
  000000000000022C: 41 C1 CD 0E        ror         r13d,0Eh
  0000000000000230: 41 89 DF           mov         r15d,ebx
  0000000000000233: 41 31 C5           xor         r13d,eax
  0000000000000236: 41 C1 CE 09        ror         r14d,9
  000000000000023A: 41 31 CF           xor         r15d,ecx
  000000000000023D: 44 89 64 24 10     mov         dword ptr [rsp+10h],r12d
  0000000000000242: 45 31 C6           xor         r14d,r8d
  0000000000000245: 41 21 C7           and         r15d,eax
  0000000000000248: 41 C1 CD 05        ror         r13d,5
  000000000000024C: 41 01 D4           add         r12d,edx
  000000000000024F: 41 31 CF           xor         r15d,ecx
  0000000000000252: 41 C1 CE 0B        ror         r14d,0Bh
  0000000000000256: 41 31 C5           xor         r13d,eax
  0000000000000259: 45 01 FC           add         r12d,r15d
  000000000000025C: 45 89 C7           mov         r15d,r8d
  000000000000025F: 44 03 65 00        add         r12d,dword ptr [rbp]
  0000000000000263: 45 31 C6           xor         r14d,r8d
  0000000000000266: 45 31 CF           xor         r15d,r9d
  0000000000000269: 41 C1 CD 06        ror         r13d,6
  000000000000026D: 44 89 CA           mov         edx,r9d
  0000000000000270: 44 21 FF           and         edi,r15d
  0000000000000273: 41 C1 CE 02        ror         r14d,2
  0000000000000277: 45 01 EC           add         r12d,r13d
  000000000000027A: 31 FA              xor         edx,edi
  000000000000027C: 45 01 E3           add         r11d,r12d
  000000000000027F: 44 01 E2           add         edx,r12d
  0000000000000282: 48 8D 6D 04        lea         rbp,[rbp+4]
  0000000000000286: 44 01 F2           add         edx,r14d
  0000000000000289: 44 8B 66 14        mov         r12d,dword ptr [rsi+14h]
  000000000000028D: 45 89 DD           mov         r13d,r11d
  0000000000000290: 41 89 D6           mov         r14d,edx
  0000000000000293: 41 0F CC           bswap       r12d
  0000000000000296: 41 C1 CD 0E        ror         r13d,0Eh
  000000000000029A: 89 C7              mov         edi,eax
  000000000000029C: 45 31 DD           xor         r13d,r11d
  000000000000029F: 41 C1 CE 09        ror         r14d,9
  00000000000002A3: 31 DF              xor         edi,ebx
  00000000000002A5: 44 89 64 24 14     mov         dword ptr [rsp+14h],r12d
  00000000000002AA: 41 31 D6           xor         r14d,edx
  00000000000002AD: 44 21 DF           and         edi,r11d
  00000000000002B0: 41 C1 CD 05        ror         r13d,5
  00000000000002B4: 41 01 CC           add         r12d,ecx
  00000000000002B7: 31 DF              xor         edi,ebx
  00000000000002B9: 41 C1 CE 0B        ror         r14d,0Bh
  00000000000002BD: 45 31 DD           xor         r13d,r11d
  00000000000002C0: 41 01 FC           add         r12d,edi
  00000000000002C3: 89 D7              mov         edi,edx
  00000000000002C5: 44 03 65 00        add         r12d,dword ptr [rbp]
  00000000000002C9: 41 31 D6           xor         r14d,edx
  00000000000002CC: 44 31 C7           xor         edi,r8d
  00000000000002CF: 41 C1 CD 06        ror         r13d,6
  00000000000002D3: 44 89 C1           mov         ecx,r8d
  00000000000002D6: 41 21 FF           and         r15d,edi
  00000000000002D9: 41 C1 CE 02        ror         r14d,2
  00000000000002DD: 45 01 EC           add         r12d,r13d
  00000000000002E0: 44 31 F9           xor         ecx,r15d
  00000000000002E3: 45 01 E2           add         r10d,r12d
  00000000000002E6: 44 01 E1           add         ecx,r12d
  00000000000002E9: 48 8D 6D 04        lea         rbp,[rbp+4]
  00000000000002ED: 44 01 F1           add         ecx,r14d
  00000000000002F0: 44 8B 66 18        mov         r12d,dword ptr [rsi+18h]
  00000000000002F4: 45 89 D5           mov         r13d,r10d
  00000000000002F7: 41 89 CE           mov         r14d,ecx
  00000000000002FA: 41 0F CC           bswap       r12d
  00000000000002FD: 41 C1 CD 0E        ror         r13d,0Eh
  0000000000000301: 45 89 DF           mov         r15d,r11d
  0000000000000304: 45 31 D5           xor         r13d,r10d
  0000000000000307: 41 C1 CE 09        ror         r14d,9
  000000000000030B: 41 31 C7           xor         r15d,eax
  000000000000030E: 44 89 64 24 18     mov         dword ptr [rsp+18h],r12d
  0000000000000313: 41 31 CE           xor         r14d,ecx
  0000000000000316: 45 21 D7           and         r15d,r10d
  0000000000000319: 41 C1 CD 05        ror         r13d,5
  000000000000031D: 41 01 DC           add         r12d,ebx
  0000000000000320: 41 31 C7           xor         r15d,eax
  0000000000000323: 41 C1 CE 0B        ror         r14d,0Bh
  0000000000000327: 45 31 D5           xor         r13d,r10d
  000000000000032A: 45 01 FC           add         r12d,r15d
  000000000000032D: 41 89 CF           mov         r15d,ecx
  0000000000000330: 44 03 65 00        add         r12d,dword ptr [rbp]
  0000000000000334: 41 31 CE           xor         r14d,ecx
  0000000000000337: 41 31 D7           xor         r15d,edx
  000000000000033A: 41 C1 CD 06        ror         r13d,6
  000000000000033E: 89 D3              mov         ebx,edx
  0000000000000340: 44 21 FF           and         edi,r15d
  0000000000000343: 41 C1 CE 02        ror         r14d,2
  0000000000000347: 45 01 EC           add         r12d,r13d
  000000000000034A: 31 FB              xor         ebx,edi
  000000000000034C: 45 01 E1           add         r9d,r12d
  000000000000034F: 44 01 E3           add         ebx,r12d
  0000000000000352: 48 8D 6D 04        lea         rbp,[rbp+4]
  0000000000000356: 44 01 F3           add         ebx,r14d
  0000000000000359: 44 8B 66 1C        mov         r12d,dword ptr [rsi+1Ch]
  000000000000035D: 45 89 CD           mov         r13d,r9d
  0000000000000360: 41 89 DE           mov         r14d,ebx
  0000000000000363: 41 0F CC           bswap       r12d
  0000000000000366: 41 C1 CD 0E        ror         r13d,0Eh
  000000000000036A: 44 89 D7           mov         edi,r10d
  000000000000036D: 45 31 CD           xor         r13d,r9d
  0000000000000370: 41 C1 CE 09        ror         r14d,9
  0000000000000374: 44 31 DF           xor         edi,r11d
  0000000000000377: 44 89 64 24 1C     mov         dword ptr [rsp+1Ch],r12d
  000000000000037C: 41 31 DE           xor         r14d,ebx
  000000000000037F: 44 21 CF           and         edi,r9d
  0000000000000382: 41 C1 CD 05        ror         r13d,5
  0000000000000386: 41 01 C4           add         r12d,eax
  0000000000000389: 44 31 DF           xor         edi,r11d
  000000000000038C: 41 C1 CE 0B        ror         r14d,0Bh
  0000000000000390: 45 31 CD           xor         r13d,r9d
  0000000000000393: 41 01 FC           add         r12d,edi
  0000000000000396: 89 DF              mov         edi,ebx
  0000000000000398: 44 03 65 00        add         r12d,dword ptr [rbp]
  000000000000039C: 41 31 DE           xor         r14d,ebx
  000000000000039F: 31 CF              xor         edi,ecx
  00000000000003A1: 41 C1 CD 06        ror         r13d,6
  00000000000003A5: 89 C8              mov         eax,ecx
  00000000000003A7: 41 21 FF           and         r15d,edi
  00000000000003AA: 41 C1 CE 02        ror         r14d,2
  00000000000003AE: 45 01 EC           add         r12d,r13d
  00000000000003B1: 44 31 F8           xor         eax,r15d
  00000000000003B4: 45 01 E0           add         r8d,r12d
  00000000000003B7: 44 01 E0           add         eax,r12d
  00000000000003BA: 48 8D 6D 14        lea         rbp,[rbp+14h]
  00000000000003BE: 44 01 F0           add         eax,r14d
  00000000000003C1: 44 8B 66 20        mov         r12d,dword ptr [rsi+20h]
  00000000000003C5: 45 89 C5           mov         r13d,r8d
  00000000000003C8: 41 89 C6           mov         r14d,eax
  00000000000003CB: 41 0F CC           bswap       r12d
  00000000000003CE: 41 C1 CD 0E        ror         r13d,0Eh
  00000000000003D2: 45 89 CF           mov         r15d,r9d
  00000000000003D5: 45 31 C5           xor         r13d,r8d
  00000000000003D8: 41 C1 CE 09        ror         r14d,9
  00000000000003DC: 45 31 D7           xor         r15d,r10d
  00000000000003DF: 44 89 64 24 20     mov         dword ptr [rsp+20h],r12d
  00000000000003E4: 41 31 C6           xor         r14d,eax
  00000000000003E7: 45 21 C7           and         r15d,r8d
  00000000000003EA: 41 C1 CD 05        ror         r13d,5
  00000000000003EE: 45 01 DC           add         r12d,r11d
  00000000000003F1: 45 31 D7           xor         r15d,r10d
  00000000000003F4: 41 C1 CE 0B        ror         r14d,0Bh
  00000000000003F8: 45 31 C5           xor         r13d,r8d
  00000000000003FB: 45 01 FC           add         r12d,r15d
  00000000000003FE: 41 89 C7           mov         r15d,eax
  0000000000000401: 44 03 65 00        add         r12d,dword ptr [rbp]
  0000000000000405: 41 31 C6           xor         r14d,eax
  0000000000000408: 41 31 DF           xor         r15d,ebx
  000000000000040B: 41 C1 CD 06        ror         r13d,6
  000000000000040F: 41 89 DB           mov         r11d,ebx
  0000000000000412: 44 21 FF           and         edi,r15d
  0000000000000415: 41 C1 CE 02        ror         r14d,2
  0000000000000419: 45 01 EC           add         r12d,r13d
  000000000000041C: 41 31 FB           xor         r11d,edi
  000000000000041F: 44 01 E2           add         edx,r12d
  0000000000000422: 45 01 E3           add         r11d,r12d
  0000000000000425: 48 8D 6D 04        lea         rbp,[rbp+4]
  0000000000000429: 45 01 F3           add         r11d,r14d
  000000000000042C: 44 8B 66 24        mov         r12d,dword ptr [rsi+24h]
  0000000000000430: 41 89 D5           mov         r13d,edx
  0000000000000433: 45 89 DE           mov         r14d,r11d
  0000000000000436: 41 0F CC           bswap       r12d
  0000000000000439: 41 C1 CD 0E        ror         r13d,0Eh
  000000000000043D: 44 89 C7           mov         edi,r8d
  0000000000000440: 41 31 D5           xor         r13d,edx
  0000000000000443: 41 C1 CE 09        ror         r14d,9
  0000000000000447: 44 31 CF           xor         edi,r9d
  000000000000044A: 44 89 64 24 24     mov         dword ptr [rsp+24h],r12d
  000000000000044F: 45 31 DE           xor         r14d,r11d
  0000000000000452: 21 D7              and         edi,edx
  0000000000000454: 41 C1 CD 05        ror         r13d,5
  0000000000000458: 45 01 D4           add         r12d,r10d
  000000000000045B: 44 31 CF           xor         edi,r9d
  000000000000045E: 41 C1 CE 0B        ror         r14d,0Bh
  0000000000000462: 41 31 D5           xor         r13d,edx
  0000000000000465: 41 01 FC           add         r12d,edi
  0000000000000468: 44 89 DF           mov         edi,r11d
  000000000000046B: 44 03 65 00        add         r12d,dword ptr [rbp]
  000000000000046F: 45 31 DE           xor         r14d,r11d
  0000000000000472: 31 C7              xor         edi,eax
  0000000000000474: 41 C1 CD 06        ror         r13d,6
  0000000000000478: 41 89 C2           mov         r10d,eax
  000000000000047B: 41 21 FF           and         r15d,edi
  000000000000047E: 41 C1 CE 02        ror         r14d,2
  0000000000000482: 45 01 EC           add         r12d,r13d
  0000000000000485: 45 31 FA           xor         r10d,r15d
  0000000000000488: 44 01 E1           add         ecx,r12d
  000000000000048B: 45 01 E2           add         r10d,r12d
  000000000000048E: 48 8D 6D 04        lea         rbp,[rbp+4]
  0000000000000492: 45 01 F2           add         r10d,r14d
  0000000000000495: 44 8B 66 28        mov         r12d,dword ptr [rsi+28h]
  0000000000000499: 41 89 CD           mov         r13d,ecx
  000000000000049C: 45 89 D6           mov         r14d,r10d
  000000000000049F: 41 0F CC           bswap       r12d
  00000000000004A2: 41 C1 CD 0E        ror         r13d,0Eh
  00000000000004A6: 41 89 D7           mov         r15d,edx
  00000000000004A9: 41 31 CD           xor         r13d,ecx
  00000000000004AC: 41 C1 CE 09        ror         r14d,9
  00000000000004B0: 45 31 C7           xor         r15d,r8d
  00000000000004B3: 44 89 64 24 28     mov         dword ptr [rsp+28h],r12d
  00000000000004B8: 45 31 D6           xor         r14d,r10d
  00000000000004BB: 41 21 CF           and         r15d,ecx
  00000000000004BE: 41 C1 CD 05        ror         r13d,5
  00000000000004C2: 45 01 CC           add         r12d,r9d
  00000000000004C5: 45 31 C7           xor         r15d,r8d
  00000000000004C8: 41 C1 CE 0B        ror         r14d,0Bh
  00000000000004CC: 41 31 CD           xor         r13d,ecx
  00000000000004CF: 45 01 FC           add         r12d,r15d
  00000000000004D2: 45 89 D7           mov         r15d,r10d
  00000000000004D5: 44 03 65 00        add         r12d,dword ptr [rbp]
  00000000000004D9: 45 31 D6           xor         r14d,r10d
  00000000000004DC: 45 31 DF           xor         r15d,r11d
  00000000000004DF: 41 C1 CD 06        ror         r13d,6
  00000000000004E3: 45 89 D9           mov         r9d,r11d
  00000000000004E6: 44 21 FF           and         edi,r15d
  00000000000004E9: 41 C1 CE 02        ror         r14d,2
  00000000000004ED: 45 01 EC           add         r12d,r13d
  00000000000004F0: 41 31 F9           xor         r9d,edi
  00000000000004F3: 44 01 E3           add         ebx,r12d
  00000000000004F6: 45 01 E1           add         r9d,r12d
  00000000000004F9: 48 8D 6D 04        lea         rbp,[rbp+4]
  00000000000004FD: 45 01 F1           add         r9d,r14d
  0000000000000500: 44 8B 66 2C        mov         r12d,dword ptr [rsi+2Ch]
  0000000000000504: 41 89 DD           mov         r13d,ebx
  0000000000000507: 45 89 CE           mov         r14d,r9d
  000000000000050A: 41 0F CC           bswap       r12d
  000000000000050D: 41 C1 CD 0E        ror         r13d,0Eh
  0000000000000511: 89 CF              mov         edi,ecx
  0000000000000513: 41 31 DD           xor         r13d,ebx
  0000000000000516: 41 C1 CE 09        ror         r14d,9
  000000000000051A: 31 D7              xor         edi,edx
  000000000000051C: 44 89 64 24 2C     mov         dword ptr [rsp+2Ch],r12d
  0000000000000521: 45 31 CE           xor         r14d,r9d
  0000000000000524: 21 DF              and         edi,ebx
  0000000000000526: 41 C1 CD 05        ror         r13d,5
  000000000000052A: 45 01 C4           add         r12d,r8d
  000000000000052D: 31 D7              xor         edi,edx
  000000000000052F: 41 C1 CE 0B        ror         r14d,0Bh
  0000000000000533: 41 31 DD           xor         r13d,ebx
  0000000000000536: 41 01 FC           add         r12d,edi
  0000000000000539: 44 89 CF           mov         edi,r9d
  000000000000053C: 44 03 65 00        add         r12d,dword ptr [rbp]
  0000000000000540: 45 31 CE           xor         r14d,r9d
  0000000000000543: 44 31 D7           xor         edi,r10d
  0000000000000546: 41 C1 CD 06        ror         r13d,6
  000000000000054A: 45 89 D0           mov         r8d,r10d
  000000000000054D: 41 21 FF           and         r15d,edi
  0000000000000550: 41 C1 CE 02        ror         r14d,2
  0000000000000554: 45 01 EC           add         r12d,r13d
  0000000000000557: 45 31 F8           xor         r8d,r15d
  000000000000055A: 44 01 E0           add         eax,r12d
  000000000000055D: 45 01 E0           add         r8d,r12d
  0000000000000560: 48 8D 6D 14        lea         rbp,[rbp+14h]
  0000000000000564: 45 01 F0           add         r8d,r14d
  0000000000000567: 44 8B 66 30        mov         r12d,dword ptr [rsi+30h]
  000000000000056B: 41 89 C5           mov         r13d,eax
  000000000000056E: 45 89 C6           mov         r14d,r8d
  0000000000000571: 41 0F CC           bswap       r12d
  0000000000000574: 41 C1 CD 0E        ror         r13d,0Eh
  0000000000000578: 41 89 DF           mov         r15d,ebx
  000000000000057B: 41 31 C5           xor         r13d,eax
  000000000000057E: 41 C1 CE 09        ror         r14d,9
  0000000000000582: 41 31 CF           xor         r15d,ecx
  0000000000000585: 44 89 64 24 30     mov         dword ptr [rsp+30h],r12d
  000000000000058A: 45 31 C6           xor         r14d,r8d
  000000000000058D: 41 21 C7           and         r15d,eax
  0000000000000590: 41 C1 CD 05        ror         r13d,5
  0000000000000594: 41 01 D4           add         r12d,edx
  0000000000000597: 41 31 CF           xor         r15d,ecx
  000000000000059A: 41 C1 CE 0B        ror         r14d,0Bh
  000000000000059E: 41 31 C5           xor         r13d,eax
  00000000000005A1: 45 01 FC           add         r12d,r15d
  00000000000005A4: 45 89 C7           mov         r15d,r8d
  00000000000005A7: 44 03 65 00        add         r12d,dword ptr [rbp]
  00000000000005AB: 45 31 C6           xor         r14d,r8d
  00000000000005AE: 45 31 CF           xor         r15d,r9d
  00000000000005B1: 41 C1 CD 06        ror         r13d,6
  00000000000005B5: 44 89 CA           mov         edx,r9d
  00000000000005B8: 44 21 FF           and         edi,r15d
  00000000000005BB: 41 C1 CE 02        ror         r14d,2
  00000000000005BF: 45 01 EC           add         r12d,r13d
  00000000000005C2: 31 FA              xor         edx,edi
  00000000000005C4: 45 01 E3           add         r11d,r12d
  00000000000005C7: 44 01 E2           add         edx,r12d
  00000000000005CA: 48 8D 6D 04        lea         rbp,[rbp+4]
  00000000000005CE: 44 01 F2           add         edx,r14d
  00000000000005D1: 44 8B 66 34        mov         r12d,dword ptr [rsi+34h]
  00000000000005D5: 45 89 DD           mov         r13d,r11d
  00000000000005D8: 41 89 D6           mov         r14d,edx
  00000000000005DB: 41 0F CC           bswap       r12d
  00000000000005DE: 41 C1 CD 0E        ror         r13d,0Eh
  00000000000005E2: 89 C7              mov         edi,eax
  00000000000005E4: 45 31 DD           xor         r13d,r11d
  00000000000005E7: 41 C1 CE 09        ror         r14d,9
  00000000000005EB: 31 DF              xor         edi,ebx
  00000000000005ED: 44 89 64 24 34     mov         dword ptr [rsp+34h],r12d
  00000000000005F2: 41 31 D6           xor         r14d,edx
  00000000000005F5: 44 21 DF           and         edi,r11d
  00000000000005F8: 41 C1 CD 05        ror         r13d,5
  00000000000005FC: 41 01 CC           add         r12d,ecx
  00000000000005FF: 31 DF              xor         edi,ebx
  0000000000000601: 41 C1 CE 0B        ror         r14d,0Bh
  0000000000000605: 45 31 DD           xor         r13d,r11d
  0000000000000608: 41 01 FC           add         r12d,edi
  000000000000060B: 89 D7              mov         edi,edx
  000000000000060D: 44 03 65 00        add         r12d,dword ptr [rbp]
  0000000000000611: 41 31 D6           xor         r14d,edx
  0000000000000614: 44 31 C7           xor         edi,r8d
  0000000000000617: 41 C1 CD 06        ror         r13d,6
  000000000000061B: 44 89 C1           mov         ecx,r8d
  000000000000061E: 41 21 FF           and         r15d,edi
  0000000000000621: 41 C1 CE 02        ror         r14d,2
  0000000000000625: 45 01 EC           add         r12d,r13d
  0000000000000628: 44 31 F9           xor         ecx,r15d
  000000000000062B: 45 01 E2           add         r10d,r12d
  000000000000062E: 44 01 E1           add         ecx,r12d
  0000000000000631: 48 8D 6D 04        lea         rbp,[rbp+4]
  0000000000000635: 44 01 F1           add         ecx,r14d
  0000000000000638: 44 8B 66 38        mov         r12d,dword ptr [rsi+38h]
  000000000000063C: 45 89 D5           mov         r13d,r10d
  000000000000063F: 41 89 CE           mov         r14d,ecx
  0000000000000642: 41 0F CC           bswap       r12d
  0000000000000645: 41 C1 CD 0E        ror         r13d,0Eh
  0000000000000649: 45 89 DF           mov         r15d,r11d
  000000000000064C: 45 31 D5           xor         r13d,r10d
  000000000000064F: 41 C1 CE 09        ror         r14d,9
  0000000000000653: 41 31 C7           xor         r15d,eax
  0000000000000656: 44 89 64 24 38     mov         dword ptr [rsp+38h],r12d
  000000000000065B: 41 31 CE           xor         r14d,ecx
  000000000000065E: 45 21 D7           and         r15d,r10d
  0000000000000661: 41 C1 CD 05        ror         r13d,5
  0000000000000665: 41 01 DC           add         r12d,ebx
  0000000000000668: 41 31 C7           xor         r15d,eax
  000000000000066B: 41 C1 CE 0B        ror         r14d,0Bh
  000000000000066F: 45 31 D5           xor         r13d,r10d
  0000000000000672: 45 01 FC           add         r12d,r15d
  0000000000000675: 41 89 CF           mov         r15d,ecx
  0000000000000678: 44 03 65 00        add         r12d,dword ptr [rbp]
  000000000000067C: 41 31 CE           xor         r14d,ecx
  000000000000067F: 41 31 D7           xor         r15d,edx
  0000000000000682: 41 C1 CD 06        ror         r13d,6
  0000000000000686: 89 D3              mov         ebx,edx
  0000000000000688: 44 21 FF           and         edi,r15d
  000000000000068B: 41 C1 CE 02        ror         r14d,2
  000000000000068F: 45 01 EC           add         r12d,r13d
  0000000000000692: 31 FB              xor         ebx,edi
  0000000000000694: 45 01 E1           add         r9d,r12d
  0000000000000697: 44 01 E3           add         ebx,r12d
  000000000000069A: 48 8D 6D 04        lea         rbp,[rbp+4]
  000000000000069E: 44 01 F3           add         ebx,r14d
  00000000000006A1: 44 8B 66 3C        mov         r12d,dword ptr [rsi+3Ch]
  00000000000006A5: 45 89 CD           mov         r13d,r9d
  00000000000006A8: 41 89 DE           mov         r14d,ebx
  00000000000006AB: 41 0F CC           bswap       r12d
  00000000000006AE: 41 C1 CD 0E        ror         r13d,0Eh
  00000000000006B2: 44 89 D7           mov         edi,r10d
  00000000000006B5: 45 31 CD           xor         r13d,r9d
  00000000000006B8: 41 C1 CE 09        ror         r14d,9
  00000000000006BC: 44 31 DF           xor         edi,r11d
  00000000000006BF: 44 89 64 24 3C     mov         dword ptr [rsp+3Ch],r12d
  00000000000006C4: 41 31 DE           xor         r14d,ebx
  00000000000006C7: 44 21 CF           and         edi,r9d
  00000000000006CA: 41 C1 CD 05        ror         r13d,5
  00000000000006CE: 41 01 C4           add         r12d,eax
  00000000000006D1: 44 31 DF           xor         edi,r11d
  00000000000006D4: 41 C1 CE 0B        ror         r14d,0Bh
  00000000000006D8: 45 31 CD           xor         r13d,r9d
  00000000000006DB: 41 01 FC           add         r12d,edi
  00000000000006DE: 89 DF              mov         edi,ebx
  00000000000006E0: 44 03 65 00        add         r12d,dword ptr [rbp]
  00000000000006E4: 41 31 DE           xor         r14d,ebx
  00000000000006E7: 31 CF              xor         edi,ecx
  00000000000006E9: 41 C1 CD 06        ror         r13d,6
  00000000000006ED: 89 C8              mov         eax,ecx
  00000000000006EF: 41 21 FF           and         r15d,edi
  00000000000006F2: 41 C1 CE 02        ror         r14d,2
  00000000000006F6: 45 01 EC           add         r12d,r13d
  00000000000006F9: 44 31 F8           xor         eax,r15d
  00000000000006FC: 45 01 E0           add         r8d,r12d
  00000000000006FF: 44 01 E0           add         eax,r12d
  0000000000000702: 48 8D 6D 14        lea         rbp,[rbp+14h]
  0000000000000706: E9 05 00 00 00     jmp         L$rounds_16_xx
  000000000000070B: 90                 nop
  000000000000070C: 90                 nop
  000000000000070D: 90                 nop
  000000000000070E: 90                 nop
  000000000000070F: 90                 nop
L$rounds_16_xx:
  0000000000000710: 44 8B 6C 24 04     mov         r13d,dword ptr [rsp+4]
  0000000000000715: 44 8B 7C 24 38     mov         r15d,dword ptr [rsp+38h]
  000000000000071A: 45 89 EC           mov         r12d,r13d
  000000000000071D: 41 C1 CD 0B        ror         r13d,0Bh
  0000000000000721: 44 01 F0           add         eax,r14d
  0000000000000724: 45 89 FE           mov         r14d,r15d
  0000000000000727: 41 C1 CF 02        ror         r15d,2
  000000000000072B: 45 31 E5           xor         r13d,r12d
  000000000000072E: 41 C1 EC 03        shr         r12d,3
  0000000000000732: 41 C1 CD 07        ror         r13d,7
  0000000000000736: 45 31 F7           xor         r15d,r14d
  0000000000000739: 41 C1 EE 0A        shr         r14d,0Ah
  000000000000073D: 41 C1 CF 11        ror         r15d,11h
  0000000000000741: 45 31 EC           xor         r12d,r13d
  0000000000000744: 45 31 F7           xor         r15d,r14d
  0000000000000747: 44 03 64 24 24     add         r12d,dword ptr [rsp+24h]
  000000000000074C: 44 03 24 24        add         r12d,dword ptr [rsp]
  0000000000000750: 45 89 C5           mov         r13d,r8d
  0000000000000753: 45 01 FC           add         r12d,r15d
  0000000000000756: 41 89 C6           mov         r14d,eax
  0000000000000759: 41 C1 CD 0E        ror         r13d,0Eh
  000000000000075D: 45 89 CF           mov         r15d,r9d
  0000000000000760: 45 31 C5           xor         r13d,r8d
  0000000000000763: 41 C1 CE 09        ror         r14d,9
  0000000000000767: 45 31 D7           xor         r15d,r10d
  000000000000076A: 44 89 24 24        mov         dword ptr [rsp],r12d
  000000000000076E: 41 31 C6           xor         r14d,eax
  0000000000000771: 45 21 C7           and         r15d,r8d
  0000000000000774: 41 C1 CD 05        ror         r13d,5
  0000000000000778: 45 01 DC           add         r12d,r11d
  000000000000077B: 45 31 D7           xor         r15d,r10d
  000000000000077E: 41 C1 CE 0B        ror         r14d,0Bh
  0000000000000782: 45 31 C5           xor         r13d,r8d
  0000000000000785: 45 01 FC           add         r12d,r15d
  0000000000000788: 41 89 C7           mov         r15d,eax
  000000000000078B: 44 03 65 00        add         r12d,dword ptr [rbp]
  000000000000078F: 41 31 C6           xor         r14d,eax
  0000000000000792: 41 31 DF           xor         r15d,ebx
  0000000000000795: 41 C1 CD 06        ror         r13d,6
  0000000000000799: 41 89 DB           mov         r11d,ebx
  000000000000079C: 44 21 FF           and         edi,r15d
  000000000000079F: 41 C1 CE 02        ror         r14d,2
  00000000000007A3: 45 01 EC           add         r12d,r13d
  00000000000007A6: 41 31 FB           xor         r11d,edi
  00000000000007A9: 44 01 E2           add         edx,r12d
  00000000000007AC: 45 01 E3           add         r11d,r12d
  00000000000007AF: 48 8D 6D 04        lea         rbp,[rbp+4]
  00000000000007B3: 44 8B 6C 24 08     mov         r13d,dword ptr [rsp+8]
  00000000000007B8: 8B 7C 24 3C        mov         edi,dword ptr [rsp+3Ch]
  00000000000007BC: 45 89 EC           mov         r12d,r13d
  00000000000007BF: 41 C1 CD 0B        ror         r13d,0Bh
  00000000000007C3: 45 01 F3           add         r11d,r14d
  00000000000007C6: 41 89 FE           mov         r14d,edi
  00000000000007C9: C1 CF 02           ror         edi,2
  00000000000007CC: 45 31 E5           xor         r13d,r12d
  00000000000007CF: 41 C1 EC 03        shr         r12d,3
  00000000000007D3: 41 C1 CD 07        ror         r13d,7
  00000000000007D7: 44 31 F7           xor         edi,r14d
  00000000000007DA: 41 C1 EE 0A        shr         r14d,0Ah
  00000000000007DE: C1 CF 11           ror         edi,11h
  00000000000007E1: 45 31 EC           xor         r12d,r13d
  00000000000007E4: 44 31 F7           xor         edi,r14d
  00000000000007E7: 44 03 64 24 28     add         r12d,dword ptr [rsp+28h]
  00000000000007EC: 44 03 64 24 04     add         r12d,dword ptr [rsp+4]
  00000000000007F1: 41 89 D5           mov         r13d,edx
  00000000000007F4: 41 01 FC           add         r12d,edi
  00000000000007F7: 45 89 DE           mov         r14d,r11d
  00000000000007FA: 41 C1 CD 0E        ror         r13d,0Eh
  00000000000007FE: 44 89 C7           mov         edi,r8d
  0000000000000801: 41 31 D5           xor         r13d,edx
  0000000000000804: 41 C1 CE 09        ror         r14d,9
  0000000000000808: 44 31 CF           xor         edi,r9d
  000000000000080B: 44 89 64 24 04     mov         dword ptr [rsp+4],r12d
  0000000000000810: 45 31 DE           xor         r14d,r11d
  0000000000000813: 21 D7              and         edi,edx
  0000000000000815: 41 C1 CD 05        ror         r13d,5
  0000000000000819: 45 01 D4           add         r12d,r10d
  000000000000081C: 44 31 CF           xor         edi,r9d
  000000000000081F: 41 C1 CE 0B        ror         r14d,0Bh
  0000000000000823: 41 31 D5           xor         r13d,edx
  0000000000000826: 41 01 FC           add         r12d,edi
  0000000000000829: 44 89 DF           mov         edi,r11d
  000000000000082C: 44 03 65 00        add         r12d,dword ptr [rbp]
  0000000000000830: 45 31 DE           xor         r14d,r11d
  0000000000000833: 31 C7              xor         edi,eax
  0000000000000835: 41 C1 CD 06        ror         r13d,6
  0000000000000839: 41 89 C2           mov         r10d,eax
  000000000000083C: 41 21 FF           and         r15d,edi
  000000000000083F: 41 C1 CE 02        ror         r14d,2
  0000000000000843: 45 01 EC           add         r12d,r13d
  0000000000000846: 45 31 FA           xor         r10d,r15d
  0000000000000849: 44 01 E1           add         ecx,r12d
  000000000000084C: 45 01 E2           add         r10d,r12d
  000000000000084F: 48 8D 6D 04        lea         rbp,[rbp+4]
  0000000000000853: 44 8B 6C 24 0C     mov         r13d,dword ptr [rsp+0Ch]
  0000000000000858: 44 8B 3C 24        mov         r15d,dword ptr [rsp]
  000000000000085C: 45 89 EC           mov         r12d,r13d
  000000000000085F: 41 C1 CD 0B        ror         r13d,0Bh
  0000000000000863: 45 01 F2           add         r10d,r14d
  0000000000000866: 45 89 FE           mov         r14d,r15d
  0000000000000869: 41 C1 CF 02        ror         r15d,2
  000000000000086D: 45 31 E5           xor         r13d,r12d
  0000000000000870: 41 C1 EC 03        shr         r12d,3
  0000000000000874: 41 C1 CD 07        ror         r13d,7
  0000000000000878: 45 31 F7           xor         r15d,r14d
  000000000000087B: 41 C1 EE 0A        shr         r14d,0Ah
  000000000000087F: 41 C1 CF 11        ror         r15d,11h
  0000000000000883: 45 31 EC           xor         r12d,r13d
  0000000000000886: 45 31 F7           xor         r15d,r14d
  0000000000000889: 44 03 64 24 2C     add         r12d,dword ptr [rsp+2Ch]
  000000000000088E: 44 03 64 24 08     add         r12d,dword ptr [rsp+8]
  0000000000000893: 41 89 CD           mov         r13d,ecx
  0000000000000896: 45 01 FC           add         r12d,r15d
  0000000000000899: 45 89 D6           mov         r14d,r10d
  000000000000089C: 41 C1 CD 0E        ror         r13d,0Eh
  00000000000008A0: 41 89 D7           mov         r15d,edx
  00000000000008A3: 41 31 CD           xor         r13d,ecx
  00000000000008A6: 41 C1 CE 09        ror         r14d,9
  00000000000008AA: 45 31 C7           xor         r15d,r8d
  00000000000008AD: 44 89 64 24 08     mov         dword ptr [rsp+8],r12d
  00000000000008B2: 45 31 D6           xor         r14d,r10d
  00000000000008B5: 41 21 CF           and         r15d,ecx
  00000000000008B8: 41 C1 CD 05        ror         r13d,5
  00000000000008BC: 45 01 CC           add         r12d,r9d
  00000000000008BF: 45 31 C7           xor         r15d,r8d
  00000000000008C2: 41 C1 CE 0B        ror         r14d,0Bh
  00000000000008C6: 41 31 CD           xor         r13d,ecx
  00000000000008C9: 45 01 FC           add         r12d,r15d
  00000000000008CC: 45 89 D7           mov         r15d,r10d
  00000000000008CF: 44 03 65 00        add         r12d,dword ptr [rbp]
  00000000000008D3: 45 31 D6           xor         r14d,r10d
  00000000000008D6: 45 31 DF           xor         r15d,r11d
  00000000000008D9: 41 C1 CD 06        ror         r13d,6
  00000000000008DD: 45 89 D9           mov         r9d,r11d
  00000000000008E0: 44 21 FF           and         edi,r15d
  00000000000008E3: 41 C1 CE 02        ror         r14d,2
  00000000000008E7: 45 01 EC           add         r12d,r13d
  00000000000008EA: 41 31 F9           xor         r9d,edi
  00000000000008ED: 44 01 E3           add         ebx,r12d
  00000000000008F0: 45 01 E1           add         r9d,r12d
  00000000000008F3: 48 8D 6D 04        lea         rbp,[rbp+4]
  00000000000008F7: 44 8B 6C 24 10     mov         r13d,dword ptr [rsp+10h]
  00000000000008FC: 8B 7C 24 04        mov         edi,dword ptr [rsp+4]
  0000000000000900: 45 89 EC           mov         r12d,r13d
  0000000000000903: 41 C1 CD 0B        ror         r13d,0Bh
  0000000000000907: 45 01 F1           add         r9d,r14d
  000000000000090A: 41 89 FE           mov         r14d,edi
  000000000000090D: C1 CF 02           ror         edi,2
  0000000000000910: 45 31 E5           xor         r13d,r12d
  0000000000000913: 41 C1 EC 03        shr         r12d,3
  0000000000000917: 41 C1 CD 07        ror         r13d,7
  000000000000091B: 44 31 F7           xor         edi,r14d
  000000000000091E: 41 C1 EE 0A        shr         r14d,0Ah
  0000000000000922: C1 CF 11           ror         edi,11h
  0000000000000925: 45 31 EC           xor         r12d,r13d
  0000000000000928: 44 31 F7           xor         edi,r14d
  000000000000092B: 44 03 64 24 30     add         r12d,dword ptr [rsp+30h]
  0000000000000930: 44 03 64 24 0C     add         r12d,dword ptr [rsp+0Ch]
  0000000000000935: 41 89 DD           mov         r13d,ebx
  0000000000000938: 41 01 FC           add         r12d,edi
  000000000000093B: 45 89 CE           mov         r14d,r9d
  000000000000093E: 41 C1 CD 0E        ror         r13d,0Eh
  0000000000000942: 89 CF              mov         edi,ecx
  0000000000000944: 41 31 DD           xor         r13d,ebx
  0000000000000947: 41 C1 CE 09        ror         r14d,9
  000000000000094B: 31 D7              xor         edi,edx
  000000000000094D: 44 89 64 24 0C     mov         dword ptr [rsp+0Ch],r12d
  0000000000000952: 45 31 CE           xor         r14d,r9d
  0000000000000955: 21 DF              and         edi,ebx
  0000000000000957: 41 C1 CD 05        ror         r13d,5
  000000000000095B: 45 01 C4           add         r12d,r8d
  000000000000095E: 31 D7              xor         edi,edx
  0000000000000960: 41 C1 CE 0B        ror         r14d,0Bh
  0000000000000964: 41 31 DD           xor         r13d,ebx
  0000000000000967: 41 01 FC           add         r12d,edi
  000000000000096A: 44 89 CF           mov         edi,r9d
  000000000000096D: 44 03 65 00        add         r12d,dword ptr [rbp]
  0000000000000971: 45 31 CE           xor         r14d,r9d
  0000000000000974: 44 31 D7           xor         edi,r10d
  0000000000000977: 41 C1 CD 06        ror         r13d,6
  000000000000097B: 45 89 D0           mov         r8d,r10d
  000000000000097E: 41 21 FF           and         r15d,edi
  0000000000000981: 41 C1 CE 02        ror         r14d,2
  0000000000000985: 45 01 EC           add         r12d,r13d
  0000000000000988: 45 31 F8           xor         r8d,r15d
  000000000000098B: 44 01 E0           add         eax,r12d
  000000000000098E: 45 01 E0           add         r8d,r12d
  0000000000000991: 48 8D 6D 14        lea         rbp,[rbp+14h]
  0000000000000995: 44 8B 6C 24 14     mov         r13d,dword ptr [rsp+14h]
  000000000000099A: 44 8B 7C 24 08     mov         r15d,dword ptr [rsp+8]
  000000000000099F: 45 89 EC           mov         r12d,r13d
  00000000000009A2: 41 C1 CD 0B        ror         r13d,0Bh
  00000000000009A6: 45 01 F0           add         r8d,r14d
  00000000000009A9: 45 89 FE           mov         r14d,r15d
  00000000000009AC: 41 C1 CF 02        ror         r15d,2
  00000000000009B0: 45 31 E5           xor         r13d,r12d
  00000000000009B3: 41 C1 EC 03        shr         r12d,3
  00000000000009B7: 41 C1 CD 07        ror         r13d,7
  00000000000009BB: 45 31 F7           xor         r15d,r14d
  00000000000009BE: 41 C1 EE 0A        shr         r14d,0Ah
  00000000000009C2: 41 C1 CF 11        ror         r15d,11h
  00000000000009C6: 45 31 EC           xor         r12d,r13d
  00000000000009C9: 45 31 F7           xor         r15d,r14d
  00000000000009CC: 44 03 64 24 34     add         r12d,dword ptr [rsp+34h]
  00000000000009D1: 44 03 64 24 10     add         r12d,dword ptr [rsp+10h]
  00000000000009D6: 41 89 C5           mov         r13d,eax
  00000000000009D9: 45 01 FC           add         r12d,r15d
  00000000000009DC: 45 89 C6           mov         r14d,r8d
  00000000000009DF: 41 C1 CD 0E        ror         r13d,0Eh
  00000000000009E3: 41 89 DF           mov         r15d,ebx
  00000000000009E6: 41 31 C5           xor         r13d,eax
  00000000000009E9: 41 C1 CE 09        ror         r14d,9
  00000000000009ED: 41 31 CF           xor         r15d,ecx
  00000000000009F0: 44 89 64 24 10     mov         dword ptr [rsp+10h],r12d
  00000000000009F5: 45 31 C6           xor         r14d,r8d
  00000000000009F8: 41 21 C7           and         r15d,eax
  00000000000009FB: 41 C1 CD 05        ror         r13d,5
  00000000000009FF: 41 01 D4           add         r12d,edx
  0000000000000A02: 41 31 CF           xor         r15d,ecx
  0000000000000A05: 41 C1 CE 0B        ror         r14d,0Bh
  0000000000000A09: 41 31 C5           xor         r13d,eax
  0000000000000A0C: 45 01 FC           add         r12d,r15d
  0000000000000A0F: 45 89 C7           mov         r15d,r8d
  0000000000000A12: 44 03 65 00        add         r12d,dword ptr [rbp]
  0000000000000A16: 45 31 C6           xor         r14d,r8d
  0000000000000A19: 45 31 CF           xor         r15d,r9d
  0000000000000A1C: 41 C1 CD 06        ror         r13d,6
  0000000000000A20: 44 89 CA           mov         edx,r9d
  0000000000000A23: 44 21 FF           and         edi,r15d
  0000000000000A26: 41 C1 CE 02        ror         r14d,2
  0000000000000A2A: 45 01 EC           add         r12d,r13d
  0000000000000A2D: 31 FA              xor         edx,edi
  0000000000000A2F: 45 01 E3           add         r11d,r12d
  0000000000000A32: 44 01 E2           add         edx,r12d
  0000000000000A35: 48 8D 6D 04        lea         rbp,[rbp+4]
  0000000000000A39: 44 8B 6C 24 18     mov         r13d,dword ptr [rsp+18h]
  0000000000000A3E: 8B 7C 24 0C        mov         edi,dword ptr [rsp+0Ch]
  0000000000000A42: 45 89 EC           mov         r12d,r13d
  0000000000000A45: 41 C1 CD 0B        ror         r13d,0Bh
  0000000000000A49: 44 01 F2           add         edx,r14d
  0000000000000A4C: 41 89 FE           mov         r14d,edi
  0000000000000A4F: C1 CF 02           ror         edi,2
  0000000000000A52: 45 31 E5           xor         r13d,r12d
  0000000000000A55: 41 C1 EC 03        shr         r12d,3
  0000000000000A59: 41 C1 CD 07        ror         r13d,7
  0000000000000A5D: 44 31 F7           xor         edi,r14d
  0000000000000A60: 41 C1 EE 0A        shr         r14d,0Ah
  0000000000000A64: C1 CF 11           ror         edi,11h
  0000000000000A67: 45 31 EC           xor         r12d,r13d
  0000000000000A6A: 44 31 F7           xor         edi,r14d
  0000000000000A6D: 44 03 64 24 38     add         r12d,dword ptr [rsp+38h]
  0000000000000A72: 44 03 64 24 14     add         r12d,dword ptr [rsp+14h]
  0000000000000A77: 45 89 DD           mov         r13d,r11d
  0000000000000A7A: 41 01 FC           add         r12d,edi
  0000000000000A7D: 41 89 D6           mov         r14d,edx
  0000000000000A80: 41 C1 CD 0E        ror         r13d,0Eh
  0000000000000A84: 89 C7              mov         edi,eax
  0000000000000A86: 45 31 DD           xor         r13d,r11d
  0000000000000A89: 41 C1 CE 09        ror         r14d,9
  0000000000000A8D: 31 DF              xor         edi,ebx
  0000000000000A8F: 44 89 64 24 14     mov         dword ptr [rsp+14h],r12d
  0000000000000A94: 41 31 D6           xor         r14d,edx
  0000000000000A97: 44 21 DF           and         edi,r11d
  0000000000000A9A: 41 C1 CD 05        ror         r13d,5
  0000000000000A9E: 41 01 CC           add         r12d,ecx
  0000000000000AA1: 31 DF              xor         edi,ebx
  0000000000000AA3: 41 C1 CE 0B        ror         r14d,0Bh
  0000000000000AA7: 45 31 DD           xor         r13d,r11d
  0000000000000AAA: 41 01 FC           add         r12d,edi
  0000000000000AAD: 89 D7              mov         edi,edx
  0000000000000AAF: 44 03 65 00        add         r12d,dword ptr [rbp]
  0000000000000AB3: 41 31 D6           xor         r14d,edx
  0000000000000AB6: 44 31 C7           xor         edi,r8d
  0000000000000AB9: 41 C1 CD 06        ror         r13d,6
  0000000000000ABD: 44 89 C1           mov         ecx,r8d
  0000000000000AC0: 41 21 FF           and         r15d,edi
  0000000000000AC3: 41 C1 CE 02        ror         r14d,2
  0000000000000AC7: 45 01 EC           add         r12d,r13d
  0000000000000ACA: 44 31 F9           xor         ecx,r15d
  0000000000000ACD: 45 01 E2           add         r10d,r12d
  0000000000000AD0: 44 01 E1           add         ecx,r12d
  0000000000000AD3: 48 8D 6D 04        lea         rbp,[rbp+4]
  0000000000000AD7: 44 8B 6C 24 1C     mov         r13d,dword ptr [rsp+1Ch]
  0000000000000ADC: 44 8B 7C 24 10     mov         r15d,dword ptr [rsp+10h]
  0000000000000AE1: 45 89 EC           mov         r12d,r13d
  0000000000000AE4: 41 C1 CD 0B        ror         r13d,0Bh
  0000000000000AE8: 44 01 F1           add         ecx,r14d
  0000000000000AEB: 45 89 FE           mov         r14d,r15d
  0000000000000AEE: 41 C1 CF 02        ror         r15d,2
  0000000000000AF2: 45 31 E5           xor         r13d,r12d
  0000000000000AF5: 41 C1 EC 03        shr         r12d,3
  0000000000000AF9: 41 C1 CD 07        ror         r13d,7
  0000000000000AFD: 45 31 F7           xor         r15d,r14d
  0000000000000B00: 41 C1 EE 0A        shr         r14d,0Ah
  0000000000000B04: 41 C1 CF 11        ror         r15d,11h
  0000000000000B08: 45 31 EC           xor         r12d,r13d
  0000000000000B0B: 45 31 F7           xor         r15d,r14d
  0000000000000B0E: 44 03 64 24 3C     add         r12d,dword ptr [rsp+3Ch]
  0000000000000B13: 44 03 64 24 18     add         r12d,dword ptr [rsp+18h]
  0000000000000B18: 45 89 D5           mov         r13d,r10d
  0000000000000B1B: 45 01 FC           add         r12d,r15d
  0000000000000B1E: 41 89 CE           mov         r14d,ecx
  0000000000000B21: 41 C1 CD 0E        ror         r13d,0Eh
  0000000000000B25: 45 89 DF           mov         r15d,r11d
  0000000000000B28: 45 31 D5           xor         r13d,r10d
  0000000000000B2B: 41 C1 CE 09        ror         r14d,9
  0000000000000B2F: 41 31 C7           xor         r15d,eax
  0000000000000B32: 44 89 64 24 18     mov         dword ptr [rsp+18h],r12d
  0000000000000B37: 41 31 CE           xor         r14d,ecx
  0000000000000B3A: 45 21 D7           and         r15d,r10d
  0000000000000B3D: 41 C1 CD 05        ror         r13d,5
  0000000000000B41: 41 01 DC           add         r12d,ebx
  0000000000000B44: 41 31 C7           xor         r15d,eax
  0000000000000B47: 41 C1 CE 0B        ror         r14d,0Bh
  0000000000000B4B: 45 31 D5           xor         r13d,r10d
  0000000000000B4E: 45 01 FC           add         r12d,r15d
  0000000000000B51: 41 89 CF           mov         r15d,ecx
  0000000000000B54: 44 03 65 00        add         r12d,dword ptr [rbp]
  0000000000000B58: 41 31 CE           xor         r14d,ecx
  0000000000000B5B: 41 31 D7           xor         r15d,edx
  0000000000000B5E: 41 C1 CD 06        ror         r13d,6
  0000000000000B62: 89 D3              mov         ebx,edx
  0000000000000B64: 44 21 FF           and         edi,r15d
  0000000000000B67: 41 C1 CE 02        ror         r14d,2
  0000000000000B6B: 45 01 EC           add         r12d,r13d
  0000000000000B6E: 31 FB              xor         ebx,edi
  0000000000000B70: 45 01 E1           add         r9d,r12d
  0000000000000B73: 44 01 E3           add         ebx,r12d
  0000000000000B76: 48 8D 6D 04        lea         rbp,[rbp+4]
  0000000000000B7A: 44 8B 6C 24 20     mov         r13d,dword ptr [rsp+20h]
  0000000000000B7F: 8B 7C 24 14        mov         edi,dword ptr [rsp+14h]
  0000000000000B83: 45 89 EC           mov         r12d,r13d
  0000000000000B86: 41 C1 CD 0B        ror         r13d,0Bh
  0000000000000B8A: 44 01 F3           add         ebx,r14d
  0000000000000B8D: 41 89 FE           mov         r14d,edi
  0000000000000B90: C1 CF 02           ror         edi,2
  0000000000000B93: 45 31 E5           xor         r13d,r12d
  0000000000000B96: 41 C1 EC 03        shr         r12d,3
  0000000000000B9A: 41 C1 CD 07        ror         r13d,7
  0000000000000B9E: 44 31 F7           xor         edi,r14d
  0000000000000BA1: 41 C1 EE 0A        shr         r14d,0Ah
  0000000000000BA5: C1 CF 11           ror         edi,11h
  0000000000000BA8: 45 31 EC           xor         r12d,r13d
  0000000000000BAB: 44 31 F7           xor         edi,r14d
  0000000000000BAE: 44 03 24 24        add         r12d,dword ptr [rsp]
  0000000000000BB2: 44 03 64 24 1C     add         r12d,dword ptr [rsp+1Ch]
  0000000000000BB7: 45 89 CD           mov         r13d,r9d
  0000000000000BBA: 41 01 FC           add         r12d,edi
  0000000000000BBD: 41 89 DE           mov         r14d,ebx
  0000000000000BC0: 41 C1 CD 0E        ror         r13d,0Eh
  0000000000000BC4: 44 89 D7           mov         edi,r10d
  0000000000000BC7: 45 31 CD           xor         r13d,r9d
  0000000000000BCA: 41 C1 CE 09        ror         r14d,9
  0000000000000BCE: 44 31 DF           xor         edi,r11d
  0000000000000BD1: 44 89 64 24 1C     mov         dword ptr [rsp+1Ch],r12d
  0000000000000BD6: 41 31 DE           xor         r14d,ebx
  0000000000000BD9: 44 21 CF           and         edi,r9d
  0000000000000BDC: 41 C1 CD 05        ror         r13d,5
  0000000000000BE0: 41 01 C4           add         r12d,eax
  0000000000000BE3: 44 31 DF           xor         edi,r11d
  0000000000000BE6: 41 C1 CE 0B        ror         r14d,0Bh
  0000000000000BEA: 45 31 CD           xor         r13d,r9d
  0000000000000BED: 41 01 FC           add         r12d,edi
  0000000000000BF0: 89 DF              mov         edi,ebx
  0000000000000BF2: 44 03 65 00        add         r12d,dword ptr [rbp]
  0000000000000BF6: 41 31 DE           xor         r14d,ebx
  0000000000000BF9: 31 CF              xor         edi,ecx
  0000000000000BFB: 41 C1 CD 06        ror         r13d,6
  0000000000000BFF: 89 C8              mov         eax,ecx
  0000000000000C01: 41 21 FF           and         r15d,edi
  0000000000000C04: 41 C1 CE 02        ror         r14d,2
  0000000000000C08: 45 01 EC           add         r12d,r13d
  0000000000000C0B: 44 31 F8           xor         eax,r15d
  0000000000000C0E: 45 01 E0           add         r8d,r12d
  0000000000000C11: 44 01 E0           add         eax,r12d
  0000000000000C14: 48 8D 6D 14        lea         rbp,[rbp+14h]
  0000000000000C18: 44 8B 6C 24 24     mov         r13d,dword ptr [rsp+24h]
  0000000000000C1D: 44 8B 7C 24 18     mov         r15d,dword ptr [rsp+18h]
  0000000000000C22: 45 89 EC           mov         r12d,r13d
  0000000000000C25: 41 C1 CD 0B        ror         r13d,0Bh
  0000000000000C29: 44 01 F0           add         eax,r14d
  0000000000000C2C: 45 89 FE           mov         r14d,r15d
  0000000000000C2F: 41 C1 CF 02        ror         r15d,2
  0000000000000C33: 45 31 E5           xor         r13d,r12d
  0000000000000C36: 41 C1 EC 03        shr         r12d,3
  0000000000000C3A: 41 C1 CD 07        ror         r13d,7
  0000000000000C3E: 45 31 F7           xor         r15d,r14d
  0000000000000C41: 41 C1 EE 0A        shr         r14d,0Ah
  0000000000000C45: 41 C1 CF 11        ror         r15d,11h
  0000000000000C49: 45 31 EC           xor         r12d,r13d
  0000000000000C4C: 45 31 F7           xor         r15d,r14d
  0000000000000C4F: 44 03 64 24 04     add         r12d,dword ptr [rsp+4]
  0000000000000C54: 44 03 64 24 20     add         r12d,dword ptr [rsp+20h]
  0000000000000C59: 45 89 C5           mov         r13d,r8d
  0000000000000C5C: 45 01 FC           add         r12d,r15d
  0000000000000C5F: 41 89 C6           mov         r14d,eax
  0000000000000C62: 41 C1 CD 0E        ror         r13d,0Eh
  0000000000000C66: 45 89 CF           mov         r15d,r9d
  0000000000000C69: 45 31 C5           xor         r13d,r8d
  0000000000000C6C: 41 C1 CE 09        ror         r14d,9
  0000000000000C70: 45 31 D7           xor         r15d,r10d
  0000000000000C73: 44 89 64 24 20     mov         dword ptr [rsp+20h],r12d
  0000000000000C78: 41 31 C6           xor         r14d,eax
  0000000000000C7B: 45 21 C7           and         r15d,r8d
  0000000000000C7E: 41 C1 CD 05        ror         r13d,5
  0000000000000C82: 45 01 DC           add         r12d,r11d
  0000000000000C85: 45 31 D7           xor         r15d,r10d
  0000000000000C88: 41 C1 CE 0B        ror         r14d,0Bh
  0000000000000C8C: 45 31 C5           xor         r13d,r8d
  0000000000000C8F: 45 01 FC           add         r12d,r15d
  0000000000000C92: 41 89 C7           mov         r15d,eax
  0000000000000C95: 44 03 65 00        add         r12d,dword ptr [rbp]
  0000000000000C99: 41 31 C6           xor         r14d,eax
  0000000000000C9C: 41 31 DF           xor         r15d,ebx
  0000000000000C9F: 41 C1 CD 06        ror         r13d,6
  0000000000000CA3: 41 89 DB           mov         r11d,ebx
  0000000000000CA6: 44 21 FF           and         edi,r15d
  0000000000000CA9: 41 C1 CE 02        ror         r14d,2
  0000000000000CAD: 45 01 EC           add         r12d,r13d
  0000000000000CB0: 41 31 FB           xor         r11d,edi
  0000000000000CB3: 44 01 E2           add         edx,r12d
  0000000000000CB6: 45 01 E3           add         r11d,r12d
  0000000000000CB9: 48 8D 6D 04        lea         rbp,[rbp+4]
  0000000000000CBD: 44 8B 6C 24 28     mov         r13d,dword ptr [rsp+28h]
  0000000000000CC2: 8B 7C 24 1C        mov         edi,dword ptr [rsp+1Ch]
  0000000000000CC6: 45 89 EC           mov         r12d,r13d
  0000000000000CC9: 41 C1 CD 0B        ror         r13d,0Bh
  0000000000000CCD: 45 01 F3           add         r11d,r14d
  0000000000000CD0: 41 89 FE           mov         r14d,edi
  0000000000000CD3: C1 CF 02           ror         edi,2
  0000000000000CD6: 45 31 E5           xor         r13d,r12d
  0000000000000CD9: 41 C1 EC 03        shr         r12d,3
  0000000000000CDD: 41 C1 CD 07        ror         r13d,7
  0000000000000CE1: 44 31 F7           xor         edi,r14d
  0000000000000CE4: 41 C1 EE 0A        shr         r14d,0Ah
  0000000000000CE8: C1 CF 11           ror         edi,11h
  0000000000000CEB: 45 31 EC           xor         r12d,r13d
  0000000000000CEE: 44 31 F7           xor         edi,r14d
  0000000000000CF1: 44 03 64 24 08     add         r12d,dword ptr [rsp+8]
  0000000000000CF6: 44 03 64 24 24     add         r12d,dword ptr [rsp+24h]
  0000000000000CFB: 41 89 D5           mov         r13d,edx
  0000000000000CFE: 41 01 FC           add         r12d,edi
  0000000000000D01: 45 89 DE           mov         r14d,r11d
  0000000000000D04: 41 C1 CD 0E        ror         r13d,0Eh
  0000000000000D08: 44 89 C7           mov         edi,r8d
  0000000000000D0B: 41 31 D5           xor         r13d,edx
  0000000000000D0E: 41 C1 CE 09        ror         r14d,9
  0000000000000D12: 44 31 CF           xor         edi,r9d
  0000000000000D15: 44 89 64 24 24     mov         dword ptr [rsp+24h],r12d
  0000000000000D1A: 45 31 DE           xor         r14d,r11d
  0000000000000D1D: 21 D7              and         edi,edx
  0000000000000D1F: 41 C1 CD 05        ror         r13d,5
  0000000000000D23: 45 01 D4           add         r12d,r10d
  0000000000000D26: 44 31 CF           xor         edi,r9d
  0000000000000D29: 41 C1 CE 0B        ror         r14d,0Bh
  0000000000000D2D: 41 31 D5           xor         r13d,edx
  0000000000000D30: 41 01 FC           add         r12d,edi
  0000000000000D33: 44 89 DF           mov         edi,r11d
  0000000000000D36: 44 03 65 00        add         r12d,dword ptr [rbp]
  0000000000000D3A: 45 31 DE           xor         r14d,r11d
  0000000000000D3D: 31 C7              xor         edi,eax
  0000000000000D3F: 41 C1 CD 06        ror         r13d,6
  0000000000000D43: 41 89 C2           mov         r10d,eax
  0000000000000D46: 41 21 FF           and         r15d,edi
  0000000000000D49: 41 C1 CE 02        ror         r14d,2
  0000000000000D4D: 45 01 EC           add         r12d,r13d
  0000000000000D50: 45 31 FA           xor         r10d,r15d
  0000000000000D53: 44 01 E1           add         ecx,r12d
  0000000000000D56: 45 01 E2           add         r10d,r12d
  0000000000000D59: 48 8D 6D 04        lea         rbp,[rbp+4]
  0000000000000D5D: 44 8B 6C 24 2C     mov         r13d,dword ptr [rsp+2Ch]
  0000000000000D62: 44 8B 7C 24 20     mov         r15d,dword ptr [rsp+20h]
  0000000000000D67: 45 89 EC           mov         r12d,r13d
  0000000000000D6A: 41 C1 CD 0B        ror         r13d,0Bh
  0000000000000D6E: 45 01 F2           add         r10d,r14d
  0000000000000D71: 45 89 FE           mov         r14d,r15d
  0000000000000D74: 41 C1 CF 02        ror         r15d,2
  0000000000000D78: 45 31 E5           xor         r13d,r12d
  0000000000000D7B: 41 C1 EC 03        shr         r12d,3
  0000000000000D7F: 41 C1 CD 07        ror         r13d,7
  0000000000000D83: 45 31 F7           xor         r15d,r14d
  0000000000000D86: 41 C1 EE 0A        shr         r14d,0Ah
  0000000000000D8A: 41 C1 CF 11        ror         r15d,11h
  0000000000000D8E: 45 31 EC           xor         r12d,r13d
  0000000000000D91: 45 31 F7           xor         r15d,r14d
  0000000000000D94: 44 03 64 24 0C     add         r12d,dword ptr [rsp+0Ch]
  0000000000000D99: 44 03 64 24 28     add         r12d,dword ptr [rsp+28h]
  0000000000000D9E: 41 89 CD           mov         r13d,ecx
  0000000000000DA1: 45 01 FC           add         r12d,r15d
  0000000000000DA4: 45 89 D6           mov         r14d,r10d
  0000000000000DA7: 41 C1 CD 0E        ror         r13d,0Eh
  0000000000000DAB: 41 89 D7           mov         r15d,edx
  0000000000000DAE: 41 31 CD           xor         r13d,ecx
  0000000000000DB1: 41 C1 CE 09        ror         r14d,9
  0000000000000DB5: 45 31 C7           xor         r15d,r8d
  0000000000000DB8: 44 89 64 24 28     mov         dword ptr [rsp+28h],r12d
  0000000000000DBD: 45 31 D6           xor         r14d,r10d
  0000000000000DC0: 41 21 CF           and         r15d,ecx
  0000000000000DC3: 41 C1 CD 05        ror         r13d,5
  0000000000000DC7: 45 01 CC           add         r12d,r9d
  0000000000000DCA: 45 31 C7           xor         r15d,r8d
  0000000000000DCD: 41 C1 CE 0B        ror         r14d,0Bh
  0000000000000DD1: 41 31 CD           xor         r13d,ecx
  0000000000000DD4: 45 01 FC           add         r12d,r15d
  0000000000000DD7: 45 89 D7           mov         r15d,r10d
  0000000000000DDA: 44 03 65 00        add         r12d,dword ptr [rbp]
  0000000000000DDE: 45 31 D6           xor         r14d,r10d
  0000000000000DE1: 45 31 DF           xor         r15d,r11d
  0000000000000DE4: 41 C1 CD 06        ror         r13d,6
  0000000000000DE8: 45 89 D9           mov         r9d,r11d
  0000000000000DEB: 44 21 FF           and         edi,r15d
  0000000000000DEE: 41 C1 CE 02        ror         r14d,2
  0000000000000DF2: 45 01 EC           add         r12d,r13d
  0000000000000DF5: 41 31 F9           xor         r9d,edi
  0000000000000DF8: 44 01 E3           add         ebx,r12d
  0000000000000DFB: 45 01 E1           add         r9d,r12d
  0000000000000DFE: 48 8D 6D 04        lea         rbp,[rbp+4]
  0000000000000E02: 44 8B 6C 24 30     mov         r13d,dword ptr [rsp+30h]
  0000000000000E07: 8B 7C 24 24        mov         edi,dword ptr [rsp+24h]
  0000000000000E0B: 45 89 EC           mov         r12d,r13d
  0000000000000E0E: 41 C1 CD 0B        ror         r13d,0Bh
  0000000000000E12: 45 01 F1           add         r9d,r14d
  0000000000000E15: 41 89 FE           mov         r14d,edi
  0000000000000E18: C1 CF 02           ror         edi,2
  0000000000000E1B: 45 31 E5           xor         r13d,r12d
  0000000000000E1E: 41 C1 EC 03        shr         r12d,3
  0000000000000E22: 41 C1 CD 07        ror         r13d,7
  0000000000000E26: 44 31 F7           xor         edi,r14d
  0000000000000E29: 41 C1 EE 0A        shr         r14d,0Ah
  0000000000000E2D: C1 CF 11           ror         edi,11h
  0000000000000E30: 45 31 EC           xor         r12d,r13d
  0000000000000E33: 44 31 F7           xor         edi,r14d
  0000000000000E36: 44 03 64 24 10     add         r12d,dword ptr [rsp+10h]
  0000000000000E3B: 44 03 64 24 2C     add         r12d,dword ptr [rsp+2Ch]
  0000000000000E40: 41 89 DD           mov         r13d,ebx
  0000000000000E43: 41 01 FC           add         r12d,edi
  0000000000000E46: 45 89 CE           mov         r14d,r9d
  0000000000000E49: 41 C1 CD 0E        ror         r13d,0Eh
  0000000000000E4D: 89 CF              mov         edi,ecx
  0000000000000E4F: 41 31 DD           xor         r13d,ebx
  0000000000000E52: 41 C1 CE 09        ror         r14d,9
  0000000000000E56: 31 D7              xor         edi,edx
  0000000000000E58: 44 89 64 24 2C     mov         dword ptr [rsp+2Ch],r12d
  0000000000000E5D: 45 31 CE           xor         r14d,r9d
  0000000000000E60: 21 DF              and         edi,ebx
  0000000000000E62: 41 C1 CD 05        ror         r13d,5
  0000000000000E66: 45 01 C4           add         r12d,r8d
  0000000000000E69: 31 D7              xor         edi,edx
  0000000000000E6B: 41 C1 CE 0B        ror         r14d,0Bh
  0000000000000E6F: 41 31 DD           xor         r13d,ebx
  0000000000000E72: 41 01 FC           add         r12d,edi
  0000000000000E75: 44 89 CF           mov         edi,r9d
  0000000000000E78: 44 03 65 00        add         r12d,dword ptr [rbp]
  0000000000000E7C: 45 31 CE           xor         r14d,r9d
  0000000000000E7F: 44 31 D7           xor         edi,r10d
  0000000000000E82: 41 C1 CD 06        ror         r13d,6
  0000000000000E86: 45 89 D0           mov         r8d,r10d
  0000000000000E89: 41 21 FF           and         r15d,edi
  0000000000000E8C: 41 C1 CE 02        ror         r14d,2
  0000000000000E90: 45 01 EC           add         r12d,r13d
  0000000000000E93: 45 31 F8           xor         r8d,r15d
  0000000000000E96: 44 01 E0           add         eax,r12d
  0000000000000E99: 45 01 E0           add         r8d,r12d
  0000000000000E9C: 48 8D 6D 14        lea         rbp,[rbp+14h]
  0000000000000EA0: 44 8B 6C 24 34     mov         r13d,dword ptr [rsp+34h]
  0000000000000EA5: 44 8B 7C 24 28     mov         r15d,dword ptr [rsp+28h]
  0000000000000EAA: 45 89 EC           mov         r12d,r13d
  0000000000000EAD: 41 C1 CD 0B        ror         r13d,0Bh
  0000000000000EB1: 45 01 F0           add         r8d,r14d
  0000000000000EB4: 45 89 FE           mov         r14d,r15d
  0000000000000EB7: 41 C1 CF 02        ror         r15d,2
  0000000000000EBB: 45 31 E5           xor         r13d,r12d
  0000000000000EBE: 41 C1 EC 03        shr         r12d,3
  0000000000000EC2: 41 C1 CD 07        ror         r13d,7
  0000000000000EC6: 45 31 F7           xor         r15d,r14d
  0000000000000EC9: 41 C1 EE 0A        shr         r14d,0Ah
  0000000000000ECD: 41 C1 CF 11        ror         r15d,11h
  0000000000000ED1: 45 31 EC           xor         r12d,r13d
  0000000000000ED4: 45 31 F7           xor         r15d,r14d
  0000000000000ED7: 44 03 64 24 14     add         r12d,dword ptr [rsp+14h]
  0000000000000EDC: 44 03 64 24 30     add         r12d,dword ptr [rsp+30h]
  0000000000000EE1: 41 89 C5           mov         r13d,eax
  0000000000000EE4: 45 01 FC           add         r12d,r15d
  0000000000000EE7: 45 89 C6           mov         r14d,r8d
  0000000000000EEA: 41 C1 CD 0E        ror         r13d,0Eh
  0000000000000EEE: 41 89 DF           mov         r15d,ebx
  0000000000000EF1: 41 31 C5           xor         r13d,eax
  0000000000000EF4: 41 C1 CE 09        ror         r14d,9
  0000000000000EF8: 41 31 CF           xor         r15d,ecx
  0000000000000EFB: 44 89 64 24 30     mov         dword ptr [rsp+30h],r12d
  0000000000000F00: 45 31 C6           xor         r14d,r8d
  0000000000000F03: 41 21 C7           and         r15d,eax
  0000000000000F06: 41 C1 CD 05        ror         r13d,5
  0000000000000F0A: 41 01 D4           add         r12d,edx
  0000000000000F0D: 41 31 CF           xor         r15d,ecx
  0000000000000F10: 41 C1 CE 0B        ror         r14d,0Bh
  0000000000000F14: 41 31 C5           xor         r13d,eax
  0000000000000F17: 45 01 FC           add         r12d,r15d
  0000000000000F1A: 45 89 C7           mov         r15d,r8d
  0000000000000F1D: 44 03 65 00        add         r12d,dword ptr [rbp]
  0000000000000F21: 45 31 C6           xor         r14d,r8d
  0000000000000F24: 45 31 CF           xor         r15d,r9d
  0000000000000F27: 41 C1 CD 06        ror         r13d,6
  0000000000000F2B: 44 89 CA           mov         edx,r9d
  0000000000000F2E: 44 21 FF           and         edi,r15d
  0000000000000F31: 41 C1 CE 02        ror         r14d,2
  0000000000000F35: 45 01 EC           add         r12d,r13d
  0000000000000F38: 31 FA              xor         edx,edi
  0000000000000F3A: 45 01 E3           add         r11d,r12d
  0000000000000F3D: 44 01 E2           add         edx,r12d
  0000000000000F40: 48 8D 6D 04        lea         rbp,[rbp+4]
  0000000000000F44: 44 8B 6C 24 38     mov         r13d,dword ptr [rsp+38h]
  0000000000000F49: 8B 7C 24 2C        mov         edi,dword ptr [rsp+2Ch]
  0000000000000F4D: 45 89 EC           mov         r12d,r13d
  0000000000000F50: 41 C1 CD 0B        ror         r13d,0Bh
  0000000000000F54: 44 01 F2           add         edx,r14d
  0000000000000F57: 41 89 FE           mov         r14d,edi
  0000000000000F5A: C1 CF 02           ror         edi,2
  0000000000000F5D: 45 31 E5           xor         r13d,r12d
  0000000000000F60: 41 C1 EC 03        shr         r12d,3
  0000000000000F64: 41 C1 CD 07        ror         r13d,7
  0000000000000F68: 44 31 F7           xor         edi,r14d
  0000000000000F6B: 41 C1 EE 0A        shr         r14d,0Ah
  0000000000000F6F: C1 CF 11           ror         edi,11h
  0000000000000F72: 45 31 EC           xor         r12d,r13d
  0000000000000F75: 44 31 F7           xor         edi,r14d
  0000000000000F78: 44 03 64 24 18     add         r12d,dword ptr [rsp+18h]
  0000000000000F7D: 44 03 64 24 34     add         r12d,dword ptr [rsp+34h]
  0000000000000F82: 45 89 DD           mov         r13d,r11d
  0000000000000F85: 41 01 FC           add         r12d,edi
  0000000000000F88: 41 89 D6           mov         r14d,edx
  0000000000000F8B: 41 C1 CD 0E        ror         r13d,0Eh
  0000000000000F8F: 89 C7              mov         edi,eax
  0000000000000F91: 45 31 DD           xor         r13d,r11d
  0000000000000F94: 41 C1 CE 09        ror         r14d,9
  0000000000000F98: 31 DF              xor         edi,ebx
  0000000000000F9A: 44 89 64 24 34     mov         dword ptr [rsp+34h],r12d
  0000000000000F9F: 41 31 D6           xor         r14d,edx
  0000000000000FA2: 44 21 DF           and         edi,r11d
  0000000000000FA5: 41 C1 CD 05        ror         r13d,5
  0000000000000FA9: 41 01 CC           add         r12d,ecx
  0000000000000FAC: 31 DF              xor         edi,ebx
  0000000000000FAE: 41 C1 CE 0B        ror         r14d,0Bh
  0000000000000FB2: 45 31 DD           xor         r13d,r11d
  0000000000000FB5: 41 01 FC           add         r12d,edi
  0000000000000FB8: 89 D7              mov         edi,edx
  0000000000000FBA: 44 03 65 00        add         r12d,dword ptr [rbp]
  0000000000000FBE: 41 31 D6           xor         r14d,edx
  0000000000000FC1: 44 31 C7           xor         edi,r8d
  0000000000000FC4: 41 C1 CD 06        ror         r13d,6
  0000000000000FC8: 44 89 C1           mov         ecx,r8d
  0000000000000FCB: 41 21 FF           and         r15d,edi
  0000000000000FCE: 41 C1 CE 02        ror         r14d,2
  0000000000000FD2: 45 01 EC           add         r12d,r13d
  0000000000000FD5: 44 31 F9           xor         ecx,r15d
  0000000000000FD8: 45 01 E2           add         r10d,r12d
  0000000000000FDB: 44 01 E1           add         ecx,r12d
  0000000000000FDE: 48 8D 6D 04        lea         rbp,[rbp+4]
  0000000000000FE2: 44 8B 6C 24 3C     mov         r13d,dword ptr [rsp+3Ch]
  0000000000000FE7: 44 8B 7C 24 30     mov         r15d,dword ptr [rsp+30h]
  0000000000000FEC: 45 89 EC           mov         r12d,r13d
  0000000000000FEF: 41 C1 CD 0B        ror         r13d,0Bh
  0000000000000FF3: 44 01 F1           add         ecx,r14d
  0000000000000FF6: 45 89 FE           mov         r14d,r15d
  0000000000000FF9: 41 C1 CF 02        ror         r15d,2
  0000000000000FFD: 45 31 E5           xor         r13d,r12d
  0000000000001000: 41 C1 EC 03        shr         r12d,3
  0000000000001004: 41 C1 CD 07        ror         r13d,7
  0000000000001008: 45 31 F7           xor         r15d,r14d
  000000000000100B: 41 C1 EE 0A        shr         r14d,0Ah
  000000000000100F: 41 C1 CF 11        ror         r15d,11h
  0000000000001013: 45 31 EC           xor         r12d,r13d
  0000000000001016: 45 31 F7           xor         r15d,r14d
  0000000000001019: 44 03 64 24 1C     add         r12d,dword ptr [rsp+1Ch]
  000000000000101E: 44 03 64 24 38     add         r12d,dword ptr [rsp+38h]
  0000000000001023: 45 89 D5           mov         r13d,r10d
  0000000000001026: 45 01 FC           add         r12d,r15d
  0000000000001029: 41 89 CE           mov         r14d,ecx
  000000000000102C: 41 C1 CD 0E        ror         r13d,0Eh
  0000000000001030: 45 89 DF           mov         r15d,r11d
  0000000000001033: 45 31 D5           xor         r13d,r10d
  0000000000001036: 41 C1 CE 09        ror         r14d,9
  000000000000103A: 41 31 C7           xor         r15d,eax
  000000000000103D: 44 89 64 24 38     mov         dword ptr [rsp+38h],r12d
  0000000000001042: 41 31 CE           xor         r14d,ecx
  0000000000001045: 45 21 D7           and         r15d,r10d
  0000000000001048: 41 C1 CD 05        ror         r13d,5
  000000000000104C: 41 01 DC           add         r12d,ebx
  000000000000104F: 41 31 C7           xor         r15d,eax
  0000000000001052: 41 C1 CE 0B        ror         r14d,0Bh
  0000000000001056: 45 31 D5           xor         r13d,r10d
  0000000000001059: 45 01 FC           add         r12d,r15d
  000000000000105C: 41 89 CF           mov         r15d,ecx
  000000000000105F: 44 03 65 00        add         r12d,dword ptr [rbp]
  0000000000001063: 41 31 CE           xor         r14d,ecx
  0000000000001066: 41 31 D7           xor         r15d,edx
  0000000000001069: 41 C1 CD 06        ror         r13d,6
  000000000000106D: 89 D3              mov         ebx,edx
  000000000000106F: 44 21 FF           and         edi,r15d
  0000000000001072: 41 C1 CE 02        ror         r14d,2
  0000000000001076: 45 01 EC           add         r12d,r13d
  0000000000001079: 31 FB              xor         ebx,edi
  000000000000107B: 45 01 E1           add         r9d,r12d
  000000000000107E: 44 01 E3           add         ebx,r12d
  0000000000001081: 48 8D 6D 04        lea         rbp,[rbp+4]
  0000000000001085: 44 8B 2C 24        mov         r13d,dword ptr [rsp]
  0000000000001089: 8B 7C 24 34        mov         edi,dword ptr [rsp+34h]
  000000000000108D: 45 89 EC           mov         r12d,r13d
  0000000000001090: 41 C1 CD 0B        ror         r13d,0Bh
  0000000000001094: 44 01 F3           add         ebx,r14d
  0000000000001097: 41 89 FE           mov         r14d,edi
  000000000000109A: C1 CF 02           ror         edi,2
  000000000000109D: 45 31 E5           xor         r13d,r12d
  00000000000010A0: 41 C1 EC 03        shr         r12d,3
  00000000000010A4: 41 C1 CD 07        ror         r13d,7
  00000000000010A8: 44 31 F7           xor         edi,r14d
  00000000000010AB: 41 C1 EE 0A        shr         r14d,0Ah
  00000000000010AF: C1 CF 11           ror         edi,11h
  00000000000010B2: 45 31 EC           xor         r12d,r13d
  00000000000010B5: 44 31 F7           xor         edi,r14d
  00000000000010B8: 44 03 64 24 20     add         r12d,dword ptr [rsp+20h]
  00000000000010BD: 44 03 64 24 3C     add         r12d,dword ptr [rsp+3Ch]
  00000000000010C2: 45 89 CD           mov         r13d,r9d
  00000000000010C5: 41 01 FC           add         r12d,edi
  00000000000010C8: 41 89 DE           mov         r14d,ebx
  00000000000010CB: 41 C1 CD 0E        ror         r13d,0Eh
  00000000000010CF: 44 89 D7           mov         edi,r10d
  00000000000010D2: 45 31 CD           xor         r13d,r9d
  00000000000010D5: 41 C1 CE 09        ror         r14d,9
  00000000000010D9: 44 31 DF           xor         edi,r11d
  00000000000010DC: 44 89 64 24 3C     mov         dword ptr [rsp+3Ch],r12d
  00000000000010E1: 41 31 DE           xor         r14d,ebx
  00000000000010E4: 44 21 CF           and         edi,r9d
  00000000000010E7: 41 C1 CD 05        ror         r13d,5
  00000000000010EB: 41 01 C4           add         r12d,eax
  00000000000010EE: 44 31 DF           xor         edi,r11d
  00000000000010F1: 41 C1 CE 0B        ror         r14d,0Bh
  00000000000010F5: 45 31 CD           xor         r13d,r9d
  00000000000010F8: 41 01 FC           add         r12d,edi
  00000000000010FB: 89 DF              mov         edi,ebx
  00000000000010FD: 44 03 65 00        add         r12d,dword ptr [rbp]
  0000000000001101: 41 31 DE           xor         r14d,ebx
  0000000000001104: 31 CF              xor         edi,ecx
  0000000000001106: 41 C1 CD 06        ror         r13d,6
  000000000000110A: 89 C8              mov         eax,ecx
  000000000000110C: 41 21 FF           and         r15d,edi
  000000000000110F: 41 C1 CE 02        ror         r14d,2
  0000000000001113: 45 01 EC           add         r12d,r13d
  0000000000001116: 44 31 F8           xor         eax,r15d
  0000000000001119: 45 01 E0           add         r8d,r12d
  000000000000111C: 44 01 E0           add         eax,r12d
  000000000000111F: 48 8D 6D 14        lea         rbp,[rbp+14h]
  0000000000001123: 80 7D 03 00        cmp         byte ptr [rbp+3],0
  0000000000001127: 0F 85 E3 F5 FF FF  jne         L$rounds_16_xx
  000000000000112D: 48 8B 7C 24 40     mov         rdi,qword ptr [rsp+40h]
  0000000000001132: 44 01 F0           add         eax,r14d
  0000000000001135: 48 8D 76 40        lea         rsi,[rsi+40h]
  0000000000001139: 03 07              add         eax,dword ptr [rdi]
  000000000000113B: 03 5F 04           add         ebx,dword ptr [rdi+4]
  000000000000113E: 03 4F 08           add         ecx,dword ptr [rdi+8]
  0000000000001141: 03 57 0C           add         edx,dword ptr [rdi+0Ch]
  0000000000001144: 44 03 47 10        add         r8d,dword ptr [rdi+10h]
  0000000000001148: 44 03 4F 14        add         r9d,dword ptr [rdi+14h]
  000000000000114C: 44 03 57 18        add         r10d,dword ptr [rdi+18h]
  0000000000001150: 44 03 5F 1C        add         r11d,dword ptr [rdi+1Ch]
  0000000000001154: 48 3B 74 24 50     cmp         rsi,qword ptr [rsp+50h]
  0000000000001159: 89 07              mov         dword ptr [rdi],eax
  000000000000115B: 89 5F 04           mov         dword ptr [rdi+4],ebx
  000000000000115E: 89 4F 08           mov         dword ptr [rdi+8],ecx
  0000000000001161: 89 57 0C           mov         dword ptr [rdi+0Ch],edx
  0000000000001164: 44 89 47 10        mov         dword ptr [rdi+10h],r8d
  0000000000001168: 44 89 4F 14        mov         dword ptr [rdi+14h],r9d
  000000000000116C: 44 89 57 18        mov         dword ptr [rdi+18h],r10d
  0000000000001170: 44 89 5F 1C        mov         dword ptr [rdi+1Ch],r11d
  0000000000001174: 0F 82 F6 EE FF FF  jb          L$loop
  000000000000117A: 48 8B 74 24 58     mov         rsi,qword ptr [rsp+58h]
  000000000000117F: 4C 8B 7E D0        mov         r15,qword ptr [rsi-30h]
  0000000000001183: 4C 8B 76 D8        mov         r14,qword ptr [rsi-28h]
  0000000000001187: 4C 8B 6E E0        mov         r13,qword ptr [rsi-20h]
  000000000000118B: 4C 8B 66 E8        mov         r12,qword ptr [rsi-18h]
  000000000000118F: 48 8B 6E F0        mov         rbp,qword ptr [rsi-10h]
  0000000000001193: 48 8B 5E F8        mov         rbx,qword ptr [rsi-8]
  0000000000001197: 48 8D 26           lea         rsp,[rsi]
L$epilogue:
  000000000000119A: 48 8B 7C 24 08     mov         rdi,qword ptr [rsp+8]
  000000000000119F: 48 8B 74 24 10     mov         rsi,qword ptr [rsp+10h]
  00000000000011A4: F3 C3              rep ret
L$SEH_end_sha256_block_data_order_nohw:
  00000000000011A6: 90                 nop
  00000000000011A7: 90                 nop
  00000000000011A8: 90                 nop
  00000000000011A9: 90                 nop
  00000000000011AA: 90                 nop
  00000000000011AB: 90                 nop
  00000000000011AC: 90                 nop
  00000000000011AD: 90                 nop
  00000000000011AE: 90                 nop
  00000000000011AF: 90                 nop
  00000000000011B0: 90                 nop
  00000000000011B1: 90                 nop
  00000000000011B2: 90                 nop
  00000000000011B3: 90                 nop
  00000000000011B4: 90                 nop
  00000000000011B5: 90                 nop
  00000000000011B6: 90                 nop
  00000000000011B7: 90                 nop
  00000000000011B8: 90                 nop
  00000000000011B9: 90                 nop
  00000000000011BA: 90                 nop
  00000000000011BB: 90                 nop
  00000000000011BC: 90                 nop
  00000000000011BD: 90                 nop
  00000000000011BE: 90                 nop
  00000000000011BF: 90                 nop
aws_lc_0_21_2_sha256_block_data_order_hw:
  00000000000011C0: 48 89 7C 24 08     mov         qword ptr [rsp+8],rdi
  00000000000011C5: 48 89 74 24 10     mov         qword ptr [rsp+10h],rsi
  00000000000011CA: 48 89 E0           mov         rax,rsp
L$SEH_begin_sha256_block_data_order_hw:
  00000000000011CD: 48 89 CF           mov         rdi,rcx
  00000000000011D0: 48 89 D6           mov         rsi,rdx
  00000000000011D3: 4C 89 C2           mov         rdx,r8
  00000000000011D6: 48 8D 64 24 A8     lea         rsp,[rsp-58h]
  00000000000011DB: 0F 29 70 A8        movaps      xmmword ptr [rax-58h],xmm6
  00000000000011DF: 0F 29 78 B8        movaps      xmmword ptr [rax-48h],xmm7
  00000000000011E3: 44 0F 29 40 C8     movaps      xmmword ptr [rax-38h],xmm8
  00000000000011E8: 44 0F 29 48 D8     movaps      xmmword ptr [rax-28h],xmm9
  00000000000011ED: 44 0F 29 50 E8     movaps      xmmword ptr [rax-18h],xmm10
L$prologue_shaext:
  00000000000011F2: 48 8D 0D 80 00 00  lea         rcx,[.rdata+80h]
                    00
  00000000000011F9: F3 0F 6F 0F        movdqu      xmm1,xmmword ptr [rdi]
  00000000000011FD: F3 0F 6F 57 10     movdqu      xmm2,xmmword ptr [rdi+10h]
  0000000000001202: 66 0F 6F B9 80 01  movdqa      xmm7,xmmword ptr [rcx+180h]
                    00 00
  000000000000120A: 66 0F 70 C1 1B     pshufd      xmm0,xmm1,1Bh
  000000000000120F: 66 0F 70 C9 B1     pshufd      xmm1,xmm1,0B1h
  0000000000001214: 66 0F 70 D2 1B     pshufd      xmm2,xmm2,1Bh
  0000000000001219: 66 44 0F 6F C7     movdqa      xmm8,xmm7
  000000000000121E: 66 0F 3A 0F CA 08  palignr     xmm1,xmm2,8
  0000000000001224: 66 0F 6C D0        punpcklqdq  xmm2,xmm0
  0000000000001228: E9 03 00 00 00     jmp         L$oop_shaext
  000000000000122D: 90                 nop
  000000000000122E: 90                 nop
  000000000000122F: 90                 nop
L$oop_shaext:
  0000000000001230: F3 0F 6F 1E        movdqu      xmm3,xmmword ptr [rsi]
  0000000000001234: F3 0F 6F 66 10     movdqu      xmm4,xmmword ptr [rsi+10h]
  0000000000001239: F3 0F 6F 6E 20     movdqu      xmm5,xmmword ptr [rsi+20h]
  000000000000123E: 66 0F 38 00 DF     pshufb      xmm3,xmm7
  0000000000001243: F3 0F 6F 76 30     movdqu      xmm6,xmmword ptr [rsi+30h]
  0000000000001248: 66 0F 6F 41 80     movdqa      xmm0,xmmword ptr [rcx-80h]
  000000000000124D: 66 0F FE C3        paddd       xmm0,xmm3
  0000000000001251: 66 0F 38 00 E7     pshufb      xmm4,xmm7
  0000000000001256: 66 44 0F 6F D2     movdqa      xmm10,xmm2
  000000000000125B: 0F 38 CB D1        sha256rnds2 xmm2,xmm1,xmm0
  000000000000125F: 66 0F 70 C0 0E     pshufd      xmm0,xmm0,0Eh
  0000000000001264: 90                 nop
  0000000000001265: 66 44 0F 6F C9     movdqa      xmm9,xmm1
  000000000000126A: 0F 38 CB CA        sha256rnds2 xmm1,xmm2,xmm0
  000000000000126E: 66 0F 6F 41 A0     movdqa      xmm0,xmmword ptr [rcx-60h]
  0000000000001273: 66 0F FE C4        paddd       xmm0,xmm4
  0000000000001277: 66 0F 38 00 EF     pshufb      xmm5,xmm7
  000000000000127C: 0F 38 CB D1        sha256rnds2 xmm2,xmm1,xmm0
  0000000000001280: 66 0F 70 C0 0E     pshufd      xmm0,xmm0,0Eh
  0000000000001285: 48 8D 76 40        lea         rsi,[rsi+40h]
  0000000000001289: 0F 38 CC DC        sha256msg1  xmm3,xmm4
  000000000000128D: 0F 38 CB CA        sha256rnds2 xmm1,xmm2,xmm0
  0000000000001291: 66 0F 6F 41 C0     movdqa      xmm0,xmmword ptr [rcx-40h]
  0000000000001296: 66 0F FE C5        paddd       xmm0,xmm5
  000000000000129A: 66 0F 38 00 F7     pshufb      xmm6,xmm7
  000000000000129F: 0F 38 CB D1        sha256rnds2 xmm2,xmm1,xmm0
  00000000000012A3: 66 0F 70 C0 0E     pshufd      xmm0,xmm0,0Eh
  00000000000012A8: 66 0F 6F FE        movdqa      xmm7,xmm6
  00000000000012AC: 66 0F 3A 0F FD 04  palignr     xmm7,xmm5,4
  00000000000012B2: 90                 nop
  00000000000012B3: 66 0F FE DF        paddd       xmm3,xmm7
  00000000000012B7: 0F 38 CC E5        sha256msg1  xmm4,xmm5
  00000000000012BB: 0F 38 CB CA        sha256rnds2 xmm1,xmm2,xmm0
  00000000000012BF: 66 0F 6F 41 E0     movdqa      xmm0,xmmword ptr [rcx-20h]
  00000000000012C4: 66 0F FE C6        paddd       xmm0,xmm6
  00000000000012C8: 0F 38 CD DE        sha256msg2  xmm3,xmm6
  00000000000012CC: 0F 38 CB D1        sha256rnds2 xmm2,xmm1,xmm0
  00000000000012D0: 66 0F 70 C0 0E     pshufd      xmm0,xmm0,0Eh
  00000000000012D5: 66 0F 6F FB        movdqa      xmm7,xmm3
  00000000000012D9: 66 0F 3A 0F FE 04  palignr     xmm7,xmm6,4
  00000000000012DF: 90                 nop
  00000000000012E0: 66 0F FE E7        paddd       xmm4,xmm7
  00000000000012E4: 0F 38 CC EE        sha256msg1  xmm5,xmm6
  00000000000012E8: 0F 38 CB CA        sha256rnds2 xmm1,xmm2,xmm0
  00000000000012EC: 66 0F 6F 01        movdqa      xmm0,xmmword ptr [rcx]
  00000000000012F0: 66 0F FE C3        paddd       xmm0,xmm3
  00000000000012F4: 0F 38 CD E3        sha256msg2  xmm4,xmm3
  00000000000012F8: 0F 38 CB D1        sha256rnds2 xmm2,xmm1,xmm0
  00000000000012FC: 66 0F 70 C0 0E     pshufd      xmm0,xmm0,0Eh
  0000000000001301: 66 0F 6F FC        movdqa      xmm7,xmm4
  0000000000001305: 66 0F 3A 0F FB 04  palignr     xmm7,xmm3,4
  000000000000130B: 90                 nop
  000000000000130C: 66 0F FE EF        paddd       xmm5,xmm7
  0000000000001310: 0F 38 CC F3        sha256msg1  xmm6,xmm3
  0000000000001314: 0F 38 CB CA        sha256rnds2 xmm1,xmm2,xmm0
  0000000000001318: 66 0F 6F 41 20     movdqa      xmm0,xmmword ptr [rcx+20h]
  000000000000131D: 66 0F FE C4        paddd       xmm0,xmm4
  0000000000001321: 0F 38 CD EC        sha256msg2  xmm5,xmm4
  0000000000001325: 0F 38 CB D1        sha256rnds2 xmm2,xmm1,xmm0
  0000000000001329: 66 0F 70 C0 0E     pshufd      xmm0,xmm0,0Eh
  000000000000132E: 66 0F 6F FD        movdqa      xmm7,xmm5
  0000000000001332: 66 0F 3A 0F FC 04  palignr     xmm7,xmm4,4
  0000000000001338: 90                 nop
  0000000000001339: 66 0F FE F7        paddd       xmm6,xmm7
  000000000000133D: 0F 38 CC DC        sha256msg1  xmm3,xmm4
  0000000000001341: 0F 38 CB CA        sha256rnds2 xmm1,xmm2,xmm0
  0000000000001345: 66 0F 6F 41 40     movdqa      xmm0,xmmword ptr [rcx+40h]
  000000000000134A: 66 0F FE C5        paddd       xmm0,xmm5
  000000000000134E: 0F 38 CD F5        sha256msg2  xmm6,xmm5
  0000000000001352: 0F 38 CB D1        sha256rnds2 xmm2,xmm1,xmm0
  0000000000001356: 66 0F 70 C0 0E     pshufd      xmm0,xmm0,0Eh
  000000000000135B: 66 0F 6F FE        movdqa      xmm7,xmm6
  000000000000135F: 66 0F 3A 0F FD 04  palignr     xmm7,xmm5,4
  0000000000001365: 90                 nop
  0000000000001366: 66 0F FE DF        paddd       xmm3,xmm7
  000000000000136A: 0F 38 CC E5        sha256msg1  xmm4,xmm5
  000000000000136E: 0F 38 CB CA        sha256rnds2 xmm1,xmm2,xmm0
  0000000000001372: 66 0F 6F 41 60     movdqa      xmm0,xmmword ptr [rcx+60h]
  0000000000001377: 66 0F FE C6        paddd       xmm0,xmm6
  000000000000137B: 0F 38 CD DE        sha256msg2  xmm3,xmm6
  000000000000137F: 0F 38 CB D1        sha256rnds2 xmm2,xmm1,xmm0
  0000000000001383: 66 0F 70 C0 0E     pshufd      xmm0,xmm0,0Eh
  0000000000001388: 66 0F 6F FB        movdqa      xmm7,xmm3
  000000000000138C: 66 0F 3A 0F FE 04  palignr     xmm7,xmm6,4
  0000000000001392: 90                 nop
  0000000000001393: 66 0F FE E7        paddd       xmm4,xmm7
  0000000000001397: 0F 38 CC EE        sha256msg1  xmm5,xmm6
  000000000000139B: 0F 38 CB CA        sha256rnds2 xmm1,xmm2,xmm0
  000000000000139F: 66 0F 6F 81 80 00  movdqa      xmm0,xmmword ptr [rcx+80h]
                    00 00
  00000000000013A7: 66 0F FE C3        paddd       xmm0,xmm3
  00000000000013AB: 0F 38 CD E3        sha256msg2  xmm4,xmm3
  00000000000013AF: 0F 38 CB D1        sha256rnds2 xmm2,xmm1,xmm0
  00000000000013B3: 66 0F 70 C0 0E     pshufd      xmm0,xmm0,0Eh
  00000000000013B8: 66 0F 6F FC        movdqa      xmm7,xmm4
  00000000000013BC: 66 0F 3A 0F FB 04  palignr     xmm7,xmm3,4
  00000000000013C2: 90                 nop
  00000000000013C3: 66 0F FE EF        paddd       xmm5,xmm7
  00000000000013C7: 0F 38 CC F3        sha256msg1  xmm6,xmm3
  00000000000013CB: 0F 38 CB CA        sha256rnds2 xmm1,xmm2,xmm0
  00000000000013CF: 66 0F 6F 81 A0 00  movdqa      xmm0,xmmword ptr [rcx+0A0h]
                    00 00
  00000000000013D7: 66 0F FE C4        paddd       xmm0,xmm4
  00000000000013DB: 0F 38 CD EC        sha256msg2  xmm5,xmm4
  00000000000013DF: 0F 38 CB D1        sha256rnds2 xmm2,xmm1,xmm0
  00000000000013E3: 66 0F 70 C0 0E     pshufd      xmm0,xmm0,0Eh
  00000000000013E8: 66 0F 6F FD        movdqa      xmm7,xmm5
  00000000000013EC: 66 0F 3A 0F FC 04  palignr     xmm7,xmm4,4
  00000000000013F2: 90                 nop
  00000000000013F3: 66 0F FE F7        paddd       xmm6,xmm7
  00000000000013F7: 0F 38 CC DC        sha256msg1  xmm3,xmm4
  00000000000013FB: 0F 38 CB CA        sha256rnds2 xmm1,xmm2,xmm0
  00000000000013FF: 66 0F 6F 81 C0 00  movdqa      xmm0,xmmword ptr [rcx+0C0h]
                    00 00
  0000000000001407: 66 0F FE C5        paddd       xmm0,xmm5
  000000000000140B: 0F 38 CD F5        sha256msg2  xmm6,xmm5
  000000000000140F: 0F 38 CB D1        sha256rnds2 xmm2,xmm1,xmm0
  0000000000001413: 66 0F 70 C0 0E     pshufd      xmm0,xmm0,0Eh
  0000000000001418: 66 0F 6F FE        movdqa      xmm7,xmm6
  000000000000141C: 66 0F 3A 0F FD 04  palignr     xmm7,xmm5,4
  0000000000001422: 90                 nop
  0000000000001423: 66 0F FE DF        paddd       xmm3,xmm7
  0000000000001427: 0F 38 CC E5        sha256msg1  xmm4,xmm5
  000000000000142B: 0F 38 CB CA        sha256rnds2 xmm1,xmm2,xmm0
  000000000000142F: 66 0F 6F 81 E0 00  movdqa      xmm0,xmmword ptr [rcx+0E0h]
                    00 00
  0000000000001437: 66 0F FE C6        paddd       xmm0,xmm6
  000000000000143B: 0F 38 CD DE        sha256msg2  xmm3,xmm6
  000000000000143F: 0F 38 CB D1        sha256rnds2 xmm2,xmm1,xmm0
  0000000000001443: 66 0F 70 C0 0E     pshufd      xmm0,xmm0,0Eh
  0000000000001448: 66 0F 6F FB        movdqa      xmm7,xmm3
  000000000000144C: 66 0F 3A 0F FE 04  palignr     xmm7,xmm6,4
  0000000000001452: 90                 nop
  0000000000001453: 66 0F FE E7        paddd       xmm4,xmm7
  0000000000001457: 0F 38 CC EE        sha256msg1  xmm5,xmm6
  000000000000145B: 0F 38 CB CA        sha256rnds2 xmm1,xmm2,xmm0
  000000000000145F: 66 0F 6F 81 00 01  movdqa      xmm0,xmmword ptr [rcx+100h]
                    00 00
  0000000000001467: 66 0F FE C3        paddd       xmm0,xmm3
  000000000000146B: 0F 38 CD E3        sha256msg2  xmm4,xmm3
  000000000000146F: 0F 38 CB D1        sha256rnds2 xmm2,xmm1,xmm0
  0000000000001473: 66 0F 70 C0 0E     pshufd      xmm0,xmm0,0Eh
  0000000000001478: 66 0F 6F FC        movdqa      xmm7,xmm4
  000000000000147C: 66 0F 3A 0F FB 04  palignr     xmm7,xmm3,4
  0000000000001482: 90                 nop
  0000000000001483: 66 0F FE EF        paddd       xmm5,xmm7
  0000000000001487: 0F 38 CC F3        sha256msg1  xmm6,xmm3
  000000000000148B: 0F 38 CB CA        sha256rnds2 xmm1,xmm2,xmm0
  000000000000148F: 66 0F 6F 81 20 01  movdqa      xmm0,xmmword ptr [rcx+120h]
                    00 00
  0000000000001497: 66 0F FE C4        paddd       xmm0,xmm4
  000000000000149B: 0F 38 CD EC        sha256msg2  xmm5,xmm4
  000000000000149F: 0F 38 CB D1        sha256rnds2 xmm2,xmm1,xmm0
  00000000000014A3: 66 0F 70 C0 0E     pshufd      xmm0,xmm0,0Eh
  00000000000014A8: 66 0F 6F FD        movdqa      xmm7,xmm5
  00000000000014AC: 66 0F 3A 0F FC 04  palignr     xmm7,xmm4,4
  00000000000014B2: 0F 38 CB CA        sha256rnds2 xmm1,xmm2,xmm0
  00000000000014B6: 66 0F FE F7        paddd       xmm6,xmm7
  00000000000014BA: 66 0F 6F 81 40 01  movdqa      xmm0,xmmword ptr [rcx+140h]
                    00 00
  00000000000014C2: 66 0F FE C5        paddd       xmm0,xmm5
  00000000000014C6: 0F 38 CB D1        sha256rnds2 xmm2,xmm1,xmm0
  00000000000014CA: 66 0F 70 C0 0E     pshufd      xmm0,xmm0,0Eh
  00000000000014CF: 0F 38 CD F5        sha256msg2  xmm6,xmm5
  00000000000014D3: 66 41 0F 6F F8     movdqa      xmm7,xmm8
  00000000000014D8: 0F 38 CB CA        sha256rnds2 xmm1,xmm2,xmm0
  00000000000014DC: 66 0F 6F 81 60 01  movdqa      xmm0,xmmword ptr [rcx+160h]
                    00 00
  00000000000014E4: 66 0F FE C6        paddd       xmm0,xmm6
  00000000000014E8: 90                 nop
  00000000000014E9: 0F 38 CB D1        sha256rnds2 xmm2,xmm1,xmm0
  00000000000014ED: 66 0F 70 C0 0E     pshufd      xmm0,xmm0,0Eh
  00000000000014F2: 48 FF CA           dec         rdx
  00000000000014F5: 90                 nop
  00000000000014F6: 0F 38 CB CA        sha256rnds2 xmm1,xmm2,xmm0
  00000000000014FA: 66 41 0F FE D2     paddd       xmm2,xmm10
  00000000000014FF: 66 41 0F FE C9     paddd       xmm1,xmm9
  0000000000001504: 0F 85 26 FD FF FF  jne         L$oop_shaext
  000000000000150A: 66 0F 70 D2 B1     pshufd      xmm2,xmm2,0B1h
  000000000000150F: 66 0F 70 F9 1B     pshufd      xmm7,xmm1,1Bh
  0000000000001514: 66 0F 70 C9 B1     pshufd      xmm1,xmm1,0B1h
  0000000000001519: 66 0F 6D CA        punpckhqdq  xmm1,xmm2
  000000000000151D: 66 0F 3A 0F D7 08  palignr     xmm2,xmm7,8
  0000000000001523: F3 0F 7F 0F        movdqu      xmmword ptr [rdi],xmm1
  0000000000001527: F3 0F 7F 57 10     movdqu      xmmword ptr [rdi+10h],xmm2
  000000000000152C: 0F 28 70 A8        movaps      xmm6,xmmword ptr [rax-58h]
  0000000000001530: 0F 28 78 B8        movaps      xmm7,xmmword ptr [rax-48h]
  0000000000001534: 44 0F 28 40 C8     movaps      xmm8,xmmword ptr [rax-38h]
  0000000000001539: 44 0F 28 48 D8     movaps      xmm9,xmmword ptr [rax-28h]
  000000000000153E: 44 0F 28 50 E8     movaps      xmm10,xmmword ptr [rax-18h]
  0000000000001543: 48 89 C4           mov         rsp,rax
L$epilogue_shaext:
  0000000000001546: 48 8B 7C 24 08     mov         rdi,qword ptr [rsp+8]
  000000000000154B: 48 8B 74 24 10     mov         rsi,qword ptr [rsp+10h]
  0000000000001550: F3 C3              rep ret
L$SEH_end_sha256_block_data_order_hw:
  0000000000001552: 90                 nop
  0000000000001553: 90                 nop
  0000000000001554: 90                 nop
  0000000000001555: 90                 nop
  0000000000001556: 90                 nop
  0000000000001557: 90                 nop
  0000000000001558: 90                 nop
  0000000000001559: 90                 nop
  000000000000155A: 90                 nop
  000000000000155B: 90                 nop
  000000000000155C: 90                 nop
  000000000000155D: 90                 nop
  000000000000155E: 90                 nop
  000000000000155F: 90                 nop
  0000000000001560: 90                 nop
  0000000000001561: 90                 nop
  0000000000001562: 90                 nop
  0000000000001563: 90                 nop
  0000000000001564: 90                 nop
  0000000000001565: 90                 nop
  0000000000001566: 90                 nop
  0000000000001567: 90                 nop
  0000000000001568: 90                 nop
  0000000000001569: 90                 nop
  000000000000156A: 90                 nop
  000000000000156B: 90                 nop
  000000000000156C: 90                 nop
  000000000000156D: 90                 nop
  000000000000156E: 90                 nop
  000000000000156F: 90                 nop
  0000000000001570: 90                 nop
  0000000000001571: 90                 nop
  0000000000001572: 90                 nop
  0000000000001573: 90                 nop
  0000000000001574: 90                 nop
  0000000000001575: 90                 nop
  0000000000001576: 90                 nop
  0000000000001577: 90                 nop
  0000000000001578: 90                 nop
  0000000000001579: 90                 nop
  000000000000157A: 90                 nop
  000000000000157B: 90                 nop
  000000000000157C: 90                 nop
  000000000000157D: 90                 nop
  000000000000157E: 90                 nop
  000000000000157F: 90                 nop
aws_lc_0_21_2_sha256_block_data_order_ssse3:
  0000000000001580: 48 89 7C 24 08     mov         qword ptr [rsp+8],rdi
  0000000000001585: 48 89 74 24 10     mov         qword ptr [rsp+10h],rsi
  000000000000158A: 48 89 E0           mov         rax,rsp
L$SEH_begin_sha256_block_data_order_ssse3:
  000000000000158D: 48 89 CF           mov         rdi,rcx
  0000000000001590: 48 89 D6           mov         rsi,rdx
  0000000000001593: 4C 89 C2           mov         rdx,r8
  0000000000001596: 48 89 E0           mov         rax,rsp
  0000000000001599: 53                 push        rbx
  000000000000159A: 55                 push        rbp
  000000000000159B: 41 54              push        r12
  000000000000159D: 41 55              push        r13
  000000000000159F: 41 56              push        r14
  00000000000015A1: 41 57              push        r15
  00000000000015A3: 48 C1 E2 04        shl         rdx,4
  00000000000015A7: 48 81 EC A0 00 00  sub         rsp,0A0h
                    00
  00000000000015AE: 48 8D 14 96        lea         rdx,[rsi+rdx*4]
  00000000000015B2: 48 83 E4 C0        and         rsp,0FFFFFFFFFFFFFFC0h
  00000000000015B6: 48 89 7C 24 40     mov         qword ptr [rsp+40h],rdi
  00000000000015BB: 48 89 74 24 48     mov         qword ptr [rsp+48h],rsi
  00000000000015C0: 48 89 54 24 50     mov         qword ptr [rsp+50h],rdx
  00000000000015C5: 48 89 44 24 58     mov         qword ptr [rsp+58h],rax
  00000000000015CA: 0F 29 74 24 60     movaps      xmmword ptr [rsp+60h],xmm6
  00000000000015CF: 0F 29 7C 24 70     movaps      xmmword ptr [rsp+70h],xmm7
  00000000000015D4: 44 0F 29 84 24 80  movaps      xmmword ptr [rsp+80h],xmm8
                    00 00 00
  00000000000015DD: 44 0F 29 8C 24 90  movaps      xmmword ptr [rsp+90h],xmm9
                    00 00 00
L$prologue_ssse3:
  00000000000015E6: 8B 07              mov         eax,dword ptr [rdi]
  00000000000015E8: 8B 5F 04           mov         ebx,dword ptr [rdi+4]
  00000000000015EB: 8B 4F 08           mov         ecx,dword ptr [rdi+8]
  00000000000015EE: 8B 57 0C           mov         edx,dword ptr [rdi+0Ch]
  00000000000015F1: 44 8B 47 10        mov         r8d,dword ptr [rdi+10h]
  00000000000015F5: 44 8B 4F 14        mov         r9d,dword ptr [rdi+14h]
  00000000000015F9: 44 8B 57 18        mov         r10d,dword ptr [rdi+18h]
  00000000000015FD: 44 8B 5F 1C        mov         r11d,dword ptr [rdi+1Ch]
  0000000000001601: E9 0A 00 00 00     jmp         L$loop_ssse3
  0000000000001606: 90                 nop
  0000000000001607: 90                 nop
  0000000000001608: 90                 nop
  0000000000001609: 90                 nop
  000000000000160A: 90                 nop
  000000000000160B: 90                 nop
  000000000000160C: 90                 nop
  000000000000160D: 90                 nop
  000000000000160E: 90                 nop
  000000000000160F: 90                 nop
L$loop_ssse3:
  0000000000001610: 66 0F 6F 3D 00 02  movdqa      xmm7,xmmword ptr [.rdata+200h]
                    00 00
  0000000000001618: F3 0F 6F 06        movdqu      xmm0,xmmword ptr [rsi]
  000000000000161C: F3 0F 6F 4E 10     movdqu      xmm1,xmmword ptr [rsi+10h]
  0000000000001621: F3 0F 6F 56 20     movdqu      xmm2,xmmword ptr [rsi+20h]
  0000000000001626: 66 0F 38 00 C7     pshufb      xmm0,xmm7
  000000000000162B: F3 0F 6F 5E 30     movdqu      xmm3,xmmword ptr [rsi+30h]
  0000000000001630: 48 8D 2D 00 00 00  lea         rbp,[.rdata]
                    00
  0000000000001637: 66 0F 38 00 CF     pshufb      xmm1,xmm7
  000000000000163C: 66 0F 6F 65 00     movdqa      xmm4,xmmword ptr [rbp]
  0000000000001641: 66 0F 6F 6D 20     movdqa      xmm5,xmmword ptr [rbp+20h]
  0000000000001646: 66 0F 38 00 D7     pshufb      xmm2,xmm7
  000000000000164B: 66 0F FE E0        paddd       xmm4,xmm0
  000000000000164F: 66 0F 6F 75 40     movdqa      xmm6,xmmword ptr [rbp+40h]
  0000000000001654: 66 0F 38 00 DF     pshufb      xmm3,xmm7
  0000000000001659: 66 0F 6F 7D 60     movdqa      xmm7,xmmword ptr [rbp+60h]
  000000000000165E: 66 0F FE E9        paddd       xmm5,xmm1
  0000000000001662: 66 0F FE F2        paddd       xmm6,xmm2
  0000000000001666: 66 0F FE FB        paddd       xmm7,xmm3
  000000000000166A: 66 0F 7F 24 24     movdqa      xmmword ptr [rsp],xmm4
  000000000000166F: 41 89 C6           mov         r14d,eax
  0000000000001672: 66 0F 7F 6C 24 10  movdqa      xmmword ptr [rsp+10h],xmm5
  0000000000001678: 89 DF              mov         edi,ebx
  000000000000167A: 66 0F 7F 74 24 20  movdqa      xmmword ptr [rsp+20h],xmm6
  0000000000001680: 31 CF              xor         edi,ecx
  0000000000001682: 66 0F 7F 7C 24 30  movdqa      xmmword ptr [rsp+30h],xmm7
  0000000000001688: 45 89 C5           mov         r13d,r8d
  000000000000168B: E9 00 00 00 00     jmp         L$ssse3_00_47
L$ssse3_00_47:
  0000000000001690: 48 83 ED 80        sub         rbp,0FFFFFFFFFFFFFF80h
  0000000000001694: 41 C1 CD 0E        ror         r13d,0Eh
  0000000000001698: 66 0F 6F E1        movdqa      xmm4,xmm1
  000000000000169C: 44 89 F0           mov         eax,r14d
  000000000000169F: 45 89 CC           mov         r12d,r9d
  00000000000016A2: 66 0F 6F FB        movdqa      xmm7,xmm3
  00000000000016A6: 41 C1 CE 09        ror         r14d,9
  00000000000016AA: 45 31 C5           xor         r13d,r8d
  00000000000016AD: 45 31 D4           xor         r12d,r10d
  00000000000016B0: 41 C1 CD 05        ror         r13d,5
  00000000000016B4: 41 31 C6           xor         r14d,eax
  00000000000016B7: 66 0F 3A 0F E0 04  palignr     xmm4,xmm0,4
  00000000000016BD: 45 21 C4           and         r12d,r8d
  00000000000016C0: 45 31 C5           xor         r13d,r8d
  00000000000016C3: 66 0F 3A 0F FA 04  palignr     xmm7,xmm2,4
  00000000000016C9: 44 03 1C 24        add         r11d,dword ptr [rsp]
  00000000000016CD: 41 89 C7           mov         r15d,eax
  00000000000016D0: 45 31 D4           xor         r12d,r10d
  00000000000016D3: 41 C1 CE 0B        ror         r14d,0Bh
  00000000000016D7: 66 0F 6F EC        movdqa      xmm5,xmm4
  00000000000016DB: 41 31 DF           xor         r15d,ebx
  00000000000016DE: 45 01 E3           add         r11d,r12d
  00000000000016E1: 66 0F 6F F4        movdqa      xmm6,xmm4
  00000000000016E5: 41 C1 CD 06        ror         r13d,6
  00000000000016E9: 44 21 FF           and         edi,r15d
  00000000000016EC: 66 0F 72 D4 03     psrld       xmm4,3
  00000000000016F1: 41 31 C6           xor         r14d,eax
  00000000000016F4: 45 01 EB           add         r11d,r13d
  00000000000016F7: 31 DF              xor         edi,ebx
  00000000000016F9: 66 0F FE C7        paddd       xmm0,xmm7
  00000000000016FD: 41 C1 CE 02        ror         r14d,2
  0000000000001701: 44 01 DA           add         edx,r11d
  0000000000001704: 66 0F 72 D6 07     psrld       xmm6,7
  0000000000001709: 41 01 FB           add         r11d,edi
  000000000000170C: 41 89 D5           mov         r13d,edx
  000000000000170F: 66 0F 70 FB FA     pshufd      xmm7,xmm3,0FAh
  0000000000001714: 45 01 DE           add         r14d,r11d
  0000000000001717: 41 C1 CD 0E        ror         r13d,0Eh
  000000000000171B: 66 0F 72 F5 0E     pslld       xmm5,0Eh
  0000000000001720: 45 89 F3           mov         r11d,r14d
  0000000000001723: 45 89 C4           mov         r12d,r8d
  0000000000001726: 66 0F EF E6        pxor        xmm4,xmm6
  000000000000172A: 41 C1 CE 09        ror         r14d,9
  000000000000172E: 41 31 D5           xor         r13d,edx
  0000000000001731: 45 31 CC           xor         r12d,r9d
  0000000000001734: 41 C1 CD 05        ror         r13d,5
  0000000000001738: 66 0F 72 D6 0B     psrld       xmm6,0Bh
  000000000000173D: 45 31 DE           xor         r14d,r11d
  0000000000001740: 66 0F EF E5        pxor        xmm4,xmm5
  0000000000001744: 41 21 D4           and         r12d,edx
  0000000000001747: 41 31 D5           xor         r13d,edx
  000000000000174A: 66 0F 72 F5 0B     pslld       xmm5,0Bh
  000000000000174F: 44 03 54 24 04     add         r10d,dword ptr [rsp+4]
  0000000000001754: 44 89 DF           mov         edi,r11d
  0000000000001757: 66 0F EF E6        pxor        xmm4,xmm6
  000000000000175B: 45 31 CC           xor         r12d,r9d
  000000000000175E: 41 C1 CE 0B        ror         r14d,0Bh
  0000000000001762: 66 0F 6F F7        movdqa      xmm6,xmm7
  0000000000001766: 31 C7              xor         edi,eax
  0000000000001768: 45 01 E2           add         r10d,r12d
  000000000000176B: 66 0F EF E5        pxor        xmm4,xmm5
  000000000000176F: 41 C1 CD 06        ror         r13d,6
  0000000000001773: 41 21 FF           and         r15d,edi
  0000000000001776: 45 31 DE           xor         r14d,r11d
  0000000000001779: 66 0F 72 D7 0A     psrld       xmm7,0Ah
  000000000000177E: 45 01 EA           add         r10d,r13d
  0000000000001781: 41 31 C7           xor         r15d,eax
  0000000000001784: 66 0F FE C4        paddd       xmm0,xmm4
  0000000000001788: 41 C1 CE 02        ror         r14d,2
  000000000000178C: 44 01 D1           add         ecx,r10d
  000000000000178F: 66 0F 73 D6 11     psrlq       xmm6,11h
  0000000000001794: 45 01 FA           add         r10d,r15d
  0000000000001797: 41 89 CD           mov         r13d,ecx
  000000000000179A: 45 01 D6           add         r14d,r10d
  000000000000179D: 66 0F EF FE        pxor        xmm7,xmm6
  00000000000017A1: 41 C1 CD 0E        ror         r13d,0Eh
  00000000000017A5: 45 89 F2           mov         r10d,r14d
  00000000000017A8: 41 89 D4           mov         r12d,edx
  00000000000017AB: 41 C1 CE 09        ror         r14d,9
  00000000000017AF: 66 0F 73 D6 02     psrlq       xmm6,2
  00000000000017B4: 41 31 CD           xor         r13d,ecx
  00000000000017B7: 45 31 C4           xor         r12d,r8d
  00000000000017BA: 66 0F EF FE        pxor        xmm7,xmm6
  00000000000017BE: 41 C1 CD 05        ror         r13d,5
  00000000000017C2: 45 31 D6           xor         r14d,r10d
  00000000000017C5: 41 21 CC           and         r12d,ecx
  00000000000017C8: 66 0F 70 FF 80     pshufd      xmm7,xmm7,80h
  00000000000017CD: 41 31 CD           xor         r13d,ecx
  00000000000017D0: 44 03 4C 24 08     add         r9d,dword ptr [rsp+8]
  00000000000017D5: 45 89 D7           mov         r15d,r10d
  00000000000017D8: 66 0F 73 DF 08     psrldq      xmm7,8
  00000000000017DD: 45 31 C4           xor         r12d,r8d
  00000000000017E0: 41 C1 CE 0B        ror         r14d,0Bh
  00000000000017E4: 45 31 DF           xor         r15d,r11d
  00000000000017E7: 45 01 E1           add         r9d,r12d
  00000000000017EA: 41 C1 CD 06        ror         r13d,6
  00000000000017EE: 66 0F FE C7        paddd       xmm0,xmm7
  00000000000017F2: 44 21 FF           and         edi,r15d
  00000000000017F5: 45 31 D6           xor         r14d,r10d
  00000000000017F8: 45 01 E9           add         r9d,r13d
  00000000000017FB: 66 0F 70 F8 50     pshufd      xmm7,xmm0,50h
  0000000000001800: 44 31 DF           xor         edi,r11d
  0000000000001803: 41 C1 CE 02        ror         r14d,2
  0000000000001807: 44 01 CB           add         ebx,r9d
  000000000000180A: 66 0F 6F F7        movdqa      xmm6,xmm7
  000000000000180E: 41 01 F9           add         r9d,edi
  0000000000001811: 41 89 DD           mov         r13d,ebx
  0000000000001814: 66 0F 72 D7 0A     psrld       xmm7,0Ah
  0000000000001819: 45 01 CE           add         r14d,r9d
  000000000000181C: 41 C1 CD 0E        ror         r13d,0Eh
  0000000000001820: 66 0F 73 D6 11     psrlq       xmm6,11h
  0000000000001825: 45 89 F1           mov         r9d,r14d
  0000000000001828: 41 89 CC           mov         r12d,ecx
  000000000000182B: 66 0F EF FE        pxor        xmm7,xmm6
  000000000000182F: 41 C1 CE 09        ror         r14d,9
  0000000000001833: 41 31 DD           xor         r13d,ebx
  0000000000001836: 41 31 D4           xor         r12d,edx
  0000000000001839: 41 C1 CD 05        ror         r13d,5
  000000000000183D: 45 31 CE           xor         r14d,r9d
  0000000000001840: 66 0F 73 D6 02     psrlq       xmm6,2
  0000000000001845: 41 21 DC           and         r12d,ebx
  0000000000001848: 41 31 DD           xor         r13d,ebx
  000000000000184B: 44 03 44 24 0C     add         r8d,dword ptr [rsp+0Ch]
  0000000000001850: 66 0F EF FE        pxor        xmm7,xmm6
  0000000000001854: 44 89 CF           mov         edi,r9d
  0000000000001857: 41 31 D4           xor         r12d,edx
  000000000000185A: 41 C1 CE 0B        ror         r14d,0Bh
  000000000000185E: 66 0F 70 FF 08     pshufd      xmm7,xmm7,8
  0000000000001863: 44 31 D7           xor         edi,r10d
  0000000000001866: 45 01 E0           add         r8d,r12d
  0000000000001869: 66 0F 6F 75 00     movdqa      xmm6,xmmword ptr [rbp]
  000000000000186E: 41 C1 CD 06        ror         r13d,6
  0000000000001872: 41 21 FF           and         r15d,edi
  0000000000001875: 66 0F 73 FF 08     pslldq      xmm7,8
  000000000000187A: 45 31 CE           xor         r14d,r9d
  000000000000187D: 45 01 E8           add         r8d,r13d
  0000000000001880: 45 31 D7           xor         r15d,r10d
  0000000000001883: 66 0F FE C7        paddd       xmm0,xmm7
  0000000000001887: 41 C1 CE 02        ror         r14d,2
  000000000000188B: 44 01 C0           add         eax,r8d
  000000000000188E: 45 01 F8           add         r8d,r15d
  0000000000001891: 66 0F FE F0        paddd       xmm6,xmm0
  0000000000001895: 41 89 C5           mov         r13d,eax
  0000000000001898: 45 01 C6           add         r14d,r8d
  000000000000189B: 66 0F 7F 34 24     movdqa      xmmword ptr [rsp],xmm6
  00000000000018A0: 41 C1 CD 0E        ror         r13d,0Eh
  00000000000018A4: 66 0F 6F E2        movdqa      xmm4,xmm2
  00000000000018A8: 45 89 F0           mov         r8d,r14d
  00000000000018AB: 41 89 DC           mov         r12d,ebx
  00000000000018AE: 66 0F 6F F8        movdqa      xmm7,xmm0
  00000000000018B2: 41 C1 CE 09        ror         r14d,9
  00000000000018B6: 41 31 C5           xor         r13d,eax
  00000000000018B9: 41 31 CC           xor         r12d,ecx
  00000000000018BC: 41 C1 CD 05        ror         r13d,5
  00000000000018C0: 45 31 C6           xor         r14d,r8d
  00000000000018C3: 66 0F 3A 0F E1 04  palignr     xmm4,xmm1,4
  00000000000018C9: 41 21 C4           and         r12d,eax
  00000000000018CC: 41 31 C5           xor         r13d,eax
  00000000000018CF: 66 0F 3A 0F FB 04  palignr     xmm7,xmm3,4
  00000000000018D5: 03 54 24 10        add         edx,dword ptr [rsp+10h]
  00000000000018D9: 45 89 C7           mov         r15d,r8d
  00000000000018DC: 41 31 CC           xor         r12d,ecx
  00000000000018DF: 41 C1 CE 0B        ror         r14d,0Bh
  00000000000018E3: 66 0F 6F EC        movdqa      xmm5,xmm4
  00000000000018E7: 45 31 CF           xor         r15d,r9d
  00000000000018EA: 44 01 E2           add         edx,r12d
  00000000000018ED: 66 0F 6F F4        movdqa      xmm6,xmm4
  00000000000018F1: 41 C1 CD 06        ror         r13d,6
  00000000000018F5: 44 21 FF           and         edi,r15d
  00000000000018F8: 66 0F 72 D4 03     psrld       xmm4,3
  00000000000018FD: 45 31 C6           xor         r14d,r8d
  0000000000001900: 44 01 EA           add         edx,r13d
  0000000000001903: 44 31 CF           xor         edi,r9d
  0000000000001906: 66 0F FE CF        paddd       xmm1,xmm7
  000000000000190A: 41 C1 CE 02        ror         r14d,2
  000000000000190E: 41 01 D3           add         r11d,edx
  0000000000001911: 66 0F 72 D6 07     psrld       xmm6,7
  0000000000001916: 01 FA              add         edx,edi
  0000000000001918: 45 89 DD           mov         r13d,r11d
  000000000000191B: 66 0F 70 F8 FA     pshufd      xmm7,xmm0,0FAh
  0000000000001920: 41 01 D6           add         r14d,edx
  0000000000001923: 41 C1 CD 0E        ror         r13d,0Eh
  0000000000001927: 66 0F 72 F5 0E     pslld       xmm5,0Eh
  000000000000192C: 44 89 F2           mov         edx,r14d
  000000000000192F: 41 89 C4           mov         r12d,eax
  0000000000001932: 66 0F EF E6        pxor        xmm4,xmm6
  0000000000001936: 41 C1 CE 09        ror         r14d,9
  000000000000193A: 45 31 DD           xor         r13d,r11d
  000000000000193D: 41 31 DC           xor         r12d,ebx
  0000000000001940: 41 C1 CD 05        ror         r13d,5
  0000000000001944: 66 0F 72 D6 0B     psrld       xmm6,0Bh
  0000000000001949: 41 31 D6           xor         r14d,edx
  000000000000194C: 66 0F EF E5        pxor        xmm4,xmm5
  0000000000001950: 45 21 DC           and         r12d,r11d
  0000000000001953: 45 31 DD           xor         r13d,r11d
  0000000000001956: 66 0F 72 F5 0B     pslld       xmm5,0Bh
  000000000000195B: 03 4C 24 14        add         ecx,dword ptr [rsp+14h]
  000000000000195F: 89 D7              mov         edi,edx
  0000000000001961: 66 0F EF E6        pxor        xmm4,xmm6
  0000000000001965: 41 31 DC           xor         r12d,ebx
  0000000000001968: 41 C1 CE 0B        ror         r14d,0Bh
  000000000000196C: 66 0F 6F F7        movdqa      xmm6,xmm7
  0000000000001970: 44 31 C7           xor         edi,r8d
  0000000000001973: 44 01 E1           add         ecx,r12d
  0000000000001976: 66 0F EF E5        pxor        xmm4,xmm5
  000000000000197A: 41 C1 CD 06        ror         r13d,6
  000000000000197E: 41 21 FF           and         r15d,edi
  0000000000001981: 41 31 D6           xor         r14d,edx
  0000000000001984: 66 0F 72 D7 0A     psrld       xmm7,0Ah
  0000000000001989: 44 01 E9           add         ecx,r13d
  000000000000198C: 45 31 C7           xor         r15d,r8d
  000000000000198F: 66 0F FE CC        paddd       xmm1,xmm4
  0000000000001993: 41 C1 CE 02        ror         r14d,2
  0000000000001997: 41 01 CA           add         r10d,ecx
  000000000000199A: 66 0F 73 D6 11     psrlq       xmm6,11h
  000000000000199F: 44 01 F9           add         ecx,r15d
  00000000000019A2: 45 89 D5           mov         r13d,r10d
  00000000000019A5: 41 01 CE           add         r14d,ecx
  00000000000019A8: 66 0F EF FE        pxor        xmm7,xmm6
  00000000000019AC: 41 C1 CD 0E        ror         r13d,0Eh
  00000000000019B0: 44 89 F1           mov         ecx,r14d
  00000000000019B3: 45 89 DC           mov         r12d,r11d
  00000000000019B6: 41 C1 CE 09        ror         r14d,9
  00000000000019BA: 66 0F 73 D6 02     psrlq       xmm6,2
  00000000000019BF: 45 31 D5           xor         r13d,r10d
  00000000000019C2: 41 31 C4           xor         r12d,eax
  00000000000019C5: 66 0F EF FE        pxor        xmm7,xmm6
  00000000000019C9: 41 C1 CD 05        ror         r13d,5
  00000000000019CD: 41 31 CE           xor         r14d,ecx
  00000000000019D0: 45 21 D4           and         r12d,r10d
  00000000000019D3: 66 0F 70 FF 80     pshufd      xmm7,xmm7,80h
  00000000000019D8: 45 31 D5           xor         r13d,r10d
  00000000000019DB: 03 5C 24 18        add         ebx,dword ptr [rsp+18h]
  00000000000019DF: 41 89 CF           mov         r15d,ecx
  00000000000019E2: 66 0F 73 DF 08     psrldq      xmm7,8
  00000000000019E7: 41 31 C4           xor         r12d,eax
  00000000000019EA: 41 C1 CE 0B        ror         r14d,0Bh
  00000000000019EE: 41 31 D7           xor         r15d,edx
  00000000000019F1: 44 01 E3           add         ebx,r12d
  00000000000019F4: 41 C1 CD 06        ror         r13d,6
  00000000000019F8: 66 0F FE CF        paddd       xmm1,xmm7
  00000000000019FC: 44 21 FF           and         edi,r15d
  00000000000019FF: 41 31 CE           xor         r14d,ecx
  0000000000001A02: 44 01 EB           add         ebx,r13d
  0000000000001A05: 66 0F 70 F9 50     pshufd      xmm7,xmm1,50h
  0000000000001A0A: 31 D7              xor         edi,edx
  0000000000001A0C: 41 C1 CE 02        ror         r14d,2
  0000000000001A10: 41 01 D9           add         r9d,ebx
  0000000000001A13: 66 0F 6F F7        movdqa      xmm6,xmm7
  0000000000001A17: 01 FB              add         ebx,edi
  0000000000001A19: 45 89 CD           mov         r13d,r9d
  0000000000001A1C: 66 0F 72 D7 0A     psrld       xmm7,0Ah
  0000000000001A21: 41 01 DE           add         r14d,ebx
  0000000000001A24: 41 C1 CD 0E        ror         r13d,0Eh
  0000000000001A28: 66 0F 73 D6 11     psrlq       xmm6,11h
  0000000000001A2D: 44 89 F3           mov         ebx,r14d
  0000000000001A30: 45 89 D4           mov         r12d,r10d
  0000000000001A33: 66 0F EF FE        pxor        xmm7,xmm6
  0000000000001A37: 41 C1 CE 09        ror         r14d,9
  0000000000001A3B: 45 31 CD           xor         r13d,r9d
  0000000000001A3E: 45 31 DC           xor         r12d,r11d
  0000000000001A41: 41 C1 CD 05        ror         r13d,5
  0000000000001A45: 41 31 DE           xor         r14d,ebx
  0000000000001A48: 66 0F 73 D6 02     psrlq       xmm6,2
  0000000000001A4D: 45 21 CC           and         r12d,r9d
  0000000000001A50: 45 31 CD           xor         r13d,r9d
  0000000000001A53: 03 44 24 1C        add         eax,dword ptr [rsp+1Ch]
  0000000000001A57: 66 0F EF FE        pxor        xmm7,xmm6
  0000000000001A5B: 89 DF              mov         edi,ebx
  0000000000001A5D: 45 31 DC           xor         r12d,r11d
  0000000000001A60: 41 C1 CE 0B        ror         r14d,0Bh
  0000000000001A64: 66 0F 70 FF 08     pshufd      xmm7,xmm7,8
  0000000000001A69: 31 CF              xor         edi,ecx
  0000000000001A6B: 44 01 E0           add         eax,r12d
  0000000000001A6E: 66 0F 6F 75 20     movdqa      xmm6,xmmword ptr [rbp+20h]
  0000000000001A73: 41 C1 CD 06        ror         r13d,6
  0000000000001A77: 41 21 FF           and         r15d,edi
  0000000000001A7A: 66 0F 73 FF 08     pslldq      xmm7,8
  0000000000001A7F: 41 31 DE           xor         r14d,ebx
  0000000000001A82: 44 01 E8           add         eax,r13d
  0000000000001A85: 41 31 CF           xor         r15d,ecx
  0000000000001A88: 66 0F FE CF        paddd       xmm1,xmm7
  0000000000001A8C: 41 C1 CE 02        ror         r14d,2
  0000000000001A90: 41 01 C0           add         r8d,eax
  0000000000001A93: 44 01 F8           add         eax,r15d
  0000000000001A96: 66 0F FE F1        paddd       xmm6,xmm1
  0000000000001A9A: 45 89 C5           mov         r13d,r8d
  0000000000001A9D: 41 01 C6           add         r14d,eax
  0000000000001AA0: 66 0F 7F 74 24 10  movdqa      xmmword ptr [rsp+10h],xmm6
  0000000000001AA6: 41 C1 CD 0E        ror         r13d,0Eh
  0000000000001AAA: 66 0F 6F E3        movdqa      xmm4,xmm3
  0000000000001AAE: 44 89 F0           mov         eax,r14d
  0000000000001AB1: 45 89 CC           mov         r12d,r9d
  0000000000001AB4: 66 0F 6F F9        movdqa      xmm7,xmm1
  0000000000001AB8: 41 C1 CE 09        ror         r14d,9
  0000000000001ABC: 45 31 C5           xor         r13d,r8d
  0000000000001ABF: 45 31 D4           xor         r12d,r10d
  0000000000001AC2: 41 C1 CD 05        ror         r13d,5
  0000000000001AC6: 41 31 C6           xor         r14d,eax
  0000000000001AC9: 66 0F 3A 0F E2 04  palignr     xmm4,xmm2,4
  0000000000001ACF: 45 21 C4           and         r12d,r8d
  0000000000001AD2: 45 31 C5           xor         r13d,r8d
  0000000000001AD5: 66 0F 3A 0F F8 04  palignr     xmm7,xmm0,4
  0000000000001ADB: 44 03 5C 24 20     add         r11d,dword ptr [rsp+20h]
  0000000000001AE0: 41 89 C7           mov         r15d,eax
  0000000000001AE3: 45 31 D4           xor         r12d,r10d
  0000000000001AE6: 41 C1 CE 0B        ror         r14d,0Bh
  0000000000001AEA: 66 0F 6F EC        movdqa      xmm5,xmm4
  0000000000001AEE: 41 31 DF           xor         r15d,ebx
  0000000000001AF1: 45 01 E3           add         r11d,r12d
  0000000000001AF4: 66 0F 6F F4        movdqa      xmm6,xmm4
  0000000000001AF8: 41 C1 CD 06        ror         r13d,6
  0000000000001AFC: 44 21 FF           and         edi,r15d
  0000000000001AFF: 66 0F 72 D4 03     psrld       xmm4,3
  0000000000001B04: 41 31 C6           xor         r14d,eax
  0000000000001B07: 45 01 EB           add         r11d,r13d
  0000000000001B0A: 31 DF              xor         edi,ebx
  0000000000001B0C: 66 0F FE D7        paddd       xmm2,xmm7
  0000000000001B10: 41 C1 CE 02        ror         r14d,2
  0000000000001B14: 44 01 DA           add         edx,r11d
  0000000000001B17: 66 0F 72 D6 07     psrld       xmm6,7
  0000000000001B1C: 41 01 FB           add         r11d,edi
  0000000000001B1F: 41 89 D5           mov         r13d,edx
  0000000000001B22: 66 0F 70 F9 FA     pshufd      xmm7,xmm1,0FAh
  0000000000001B27: 45 01 DE           add         r14d,r11d
  0000000000001B2A: 41 C1 CD 0E        ror         r13d,0Eh
  0000000000001B2E: 66 0F 72 F5 0E     pslld       xmm5,0Eh
  0000000000001B33: 45 89 F3           mov         r11d,r14d
  0000000000001B36: 45 89 C4           mov         r12d,r8d
  0000000000001B39: 66 0F EF E6        pxor        xmm4,xmm6
  0000000000001B3D: 41 C1 CE 09        ror         r14d,9
  0000000000001B41: 41 31 D5           xor         r13d,edx
  0000000000001B44: 45 31 CC           xor         r12d,r9d
  0000000000001B47: 41 C1 CD 05        ror         r13d,5
  0000000000001B4B: 66 0F 72 D6 0B     psrld       xmm6,0Bh
  0000000000001B50: 45 31 DE           xor         r14d,r11d
  0000000000001B53: 66 0F EF E5        pxor        xmm4,xmm5
  0000000000001B57: 41 21 D4           and         r12d,edx
  0000000000001B5A: 41 31 D5           xor         r13d,edx
  0000000000001B5D: 66 0F 72 F5 0B     pslld       xmm5,0Bh
  0000000000001B62: 44 03 54 24 24     add         r10d,dword ptr [rsp+24h]
  0000000000001B67: 44 89 DF           mov         edi,r11d
  0000000000001B6A: 66 0F EF E6        pxor        xmm4,xmm6
  0000000000001B6E: 45 31 CC           xor         r12d,r9d
  0000000000001B71: 41 C1 CE 0B        ror         r14d,0Bh
  0000000000001B75: 66 0F 6F F7        movdqa      xmm6,xmm7
  0000000000001B79: 31 C7              xor         edi,eax
  0000000000001B7B: 45 01 E2           add         r10d,r12d
  0000000000001B7E: 66 0F EF E5        pxor        xmm4,xmm5
  0000000000001B82: 41 C1 CD 06        ror         r13d,6
  0000000000001B86: 41 21 FF           and         r15d,edi
  0000000000001B89: 45 31 DE           xor         r14d,r11d
  0000000000001B8C: 66 0F 72 D7 0A     psrld       xmm7,0Ah
  0000000000001B91: 45 01 EA           add         r10d,r13d
  0000000000001B94: 41 31 C7           xor         r15d,eax
  0000000000001B97: 66 0F FE D4        paddd       xmm2,xmm4
  0000000000001B9B: 41 C1 CE 02        ror         r14d,2
  0000000000001B9F: 44 01 D1           add         ecx,r10d
  0000000000001BA2: 66 0F 73 D6 11     psrlq       xmm6,11h
  0000000000001BA7: 45 01 FA           add         r10d,r15d
  0000000000001BAA: 41 89 CD           mov         r13d,ecx
  0000000000001BAD: 45 01 D6           add         r14d,r10d
  0000000000001BB0: 66 0F EF FE        pxor        xmm7,xmm6
  0000000000001BB4: 41 C1 CD 0E        ror         r13d,0Eh
  0000000000001BB8: 45 89 F2           mov         r10d,r14d
  0000000000001BBB: 41 89 D4           mov         r12d,edx
  0000000000001BBE: 41 C1 CE 09        ror         r14d,9
  0000000000001BC2: 66 0F 73 D6 02     psrlq       xmm6,2
  0000000000001BC7: 41 31 CD           xor         r13d,ecx
  0000000000001BCA: 45 31 C4           xor         r12d,r8d
  0000000000001BCD: 66 0F EF FE        pxor        xmm7,xmm6
  0000000000001BD1: 41 C1 CD 05        ror         r13d,5
  0000000000001BD5: 45 31 D6           xor         r14d,r10d
  0000000000001BD8: 41 21 CC           and         r12d,ecx
  0000000000001BDB: 66 0F 70 FF 80     pshufd      xmm7,xmm7,80h
  0000000000001BE0: 41 31 CD           xor         r13d,ecx
  0000000000001BE3: 44 03 4C 24 28     add         r9d,dword ptr [rsp+28h]
  0000000000001BE8: 45 89 D7           mov         r15d,r10d
  0000000000001BEB: 66 0F 73 DF 08     psrldq      xmm7,8
  0000000000001BF0: 45 31 C4           xor         r12d,r8d
  0000000000001BF3: 41 C1 CE 0B        ror         r14d,0Bh
  0000000000001BF7: 45 31 DF           xor         r15d,r11d
  0000000000001BFA: 45 01 E1           add         r9d,r12d
  0000000000001BFD: 41 C1 CD 06        ror         r13d,6
  0000000000001C01: 66 0F FE D7        paddd       xmm2,xmm7
  0000000000001C05: 44 21 FF           and         edi,r15d
  0000000000001C08: 45 31 D6           xor         r14d,r10d
  0000000000001C0B: 45 01 E9           add         r9d,r13d
  0000000000001C0E: 66 0F 70 FA 50     pshufd      xmm7,xmm2,50h
  0000000000001C13: 44 31 DF           xor         edi,r11d
  0000000000001C16: 41 C1 CE 02        ror         r14d,2
  0000000000001C1A: 44 01 CB           add         ebx,r9d
  0000000000001C1D: 66 0F 6F F7        movdqa      xmm6,xmm7
  0000000000001C21: 41 01 F9           add         r9d,edi
  0000000000001C24: 41 89 DD           mov         r13d,ebx
  0000000000001C27: 66 0F 72 D7 0A     psrld       xmm7,0Ah
  0000000000001C2C: 45 01 CE           add         r14d,r9d
  0000000000001C2F: 41 C1 CD 0E        ror         r13d,0Eh
  0000000000001C33: 66 0F 73 D6 11     psrlq       xmm6,11h
  0000000000001C38: 45 89 F1           mov         r9d,r14d
  0000000000001C3B: 41 89 CC           mov         r12d,ecx
  0000000000001C3E: 66 0F EF FE        pxor        xmm7,xmm6
  0000000000001C42: 41 C1 CE 09        ror         r14d,9
  0000000000001C46: 41 31 DD           xor         r13d,ebx
  0000000000001C49: 41 31 D4           xor         r12d,edx
  0000000000001C4C: 41 C1 CD 05        ror         r13d,5
  0000000000001C50: 45 31 CE           xor         r14d,r9d
  0000000000001C53: 66 0F 73 D6 02     psrlq       xmm6,2
  0000000000001C58: 41 21 DC           and         r12d,ebx
  0000000000001C5B: 41 31 DD           xor         r13d,ebx
  0000000000001C5E: 44 03 44 24 2C     add         r8d,dword ptr [rsp+2Ch]
  0000000000001C63: 66 0F EF FE        pxor        xmm7,xmm6
  0000000000001C67: 44 89 CF           mov         edi,r9d
  0000000000001C6A: 41 31 D4           xor         r12d,edx
  0000000000001C6D: 41 C1 CE 0B        ror         r14d,0Bh
  0000000000001C71: 66 0F 70 FF 08     pshufd      xmm7,xmm7,8
  0000000000001C76: 44 31 D7           xor         edi,r10d
  0000000000001C79: 45 01 E0           add         r8d,r12d
  0000000000001C7C: 66 0F 6F 75 40     movdqa      xmm6,xmmword ptr [rbp+40h]
  0000000000001C81: 41 C1 CD 06        ror         r13d,6
  0000000000001C85: 41 21 FF           and         r15d,edi
  0000000000001C88: 66 0F 73 FF 08     pslldq      xmm7,8
  0000000000001C8D: 45 31 CE           xor         r14d,r9d
  0000000000001C90: 45 01 E8           add         r8d,r13d
  0000000000001C93: 45 31 D7           xor         r15d,r10d
  0000000000001C96: 66 0F FE D7        paddd       xmm2,xmm7
  0000000000001C9A: 41 C1 CE 02        ror         r14d,2
  0000000000001C9E: 44 01 C0           add         eax,r8d
  0000000000001CA1: 45 01 F8           add         r8d,r15d
  0000000000001CA4: 66 0F FE F2        paddd       xmm6,xmm2
  0000000000001CA8: 41 89 C5           mov         r13d,eax
  0000000000001CAB: 45 01 C6           add         r14d,r8d
  0000000000001CAE: 66 0F 7F 74 24 20  movdqa      xmmword ptr [rsp+20h],xmm6
  0000000000001CB4: 41 C1 CD 0E        ror         r13d,0Eh
  0000000000001CB8: 66 0F 6F E0        movdqa      xmm4,xmm0
  0000000000001CBC: 45 89 F0           mov         r8d,r14d
  0000000000001CBF: 41 89 DC           mov         r12d,ebx
  0000000000001CC2: 66 0F 6F FA        movdqa      xmm7,xmm2
  0000000000001CC6: 41 C1 CE 09        ror         r14d,9
  0000000000001CCA: 41 31 C5           xor         r13d,eax
  0000000000001CCD: 41 31 CC           xor         r12d,ecx
  0000000000001CD0: 41 C1 CD 05        ror         r13d,5
  0000000000001CD4: 45 31 C6           xor         r14d,r8d
  0000000000001CD7: 66 0F 3A 0F E3 04  palignr     xmm4,xmm3,4
  0000000000001CDD: 41 21 C4           and         r12d,eax
  0000000000001CE0: 41 31 C5           xor         r13d,eax
  0000000000001CE3: 66 0F 3A 0F F9 04  palignr     xmm7,xmm1,4
  0000000000001CE9: 03 54 24 30        add         edx,dword ptr [rsp+30h]
  0000000000001CED: 45 89 C7           mov         r15d,r8d
  0000000000001CF0: 41 31 CC           xor         r12d,ecx
  0000000000001CF3: 41 C1 CE 0B        ror         r14d,0Bh
  0000000000001CF7: 66 0F 6F EC        movdqa      xmm5,xmm4
  0000000000001CFB: 45 31 CF           xor         r15d,r9d
  0000000000001CFE: 44 01 E2           add         edx,r12d
  0000000000001D01: 66 0F 6F F4        movdqa      xmm6,xmm4
  0000000000001D05: 41 C1 CD 06        ror         r13d,6
  0000000000001D09: 44 21 FF           and         edi,r15d
  0000000000001D0C: 66 0F 72 D4 03     psrld       xmm4,3
  0000000000001D11: 45 31 C6           xor         r14d,r8d
  0000000000001D14: 44 01 EA           add         edx,r13d
  0000000000001D17: 44 31 CF           xor         edi,r9d
  0000000000001D1A: 66 0F FE DF        paddd       xmm3,xmm7
  0000000000001D1E: 41 C1 CE 02        ror         r14d,2
  0000000000001D22: 41 01 D3           add         r11d,edx
  0000000000001D25: 66 0F 72 D6 07     psrld       xmm6,7
  0000000000001D2A: 01 FA              add         edx,edi
  0000000000001D2C: 45 89 DD           mov         r13d,r11d
  0000000000001D2F: 66 0F 70 FA FA     pshufd      xmm7,xmm2,0FAh
  0000000000001D34: 41 01 D6           add         r14d,edx
  0000000000001D37: 41 C1 CD 0E        ror         r13d,0Eh
  0000000000001D3B: 66 0F 72 F5 0E     pslld       xmm5,0Eh
  0000000000001D40: 44 89 F2           mov         edx,r14d
  0000000000001D43: 41 89 C4           mov         r12d,eax
  0000000000001D46: 66 0F EF E6        pxor        xmm4,xmm6
  0000000000001D4A: 41 C1 CE 09        ror         r14d,9
  0000000000001D4E: 45 31 DD           xor         r13d,r11d
  0000000000001D51: 41 31 DC           xor         r12d,ebx
  0000000000001D54: 41 C1 CD 05        ror         r13d,5
  0000000000001D58: 66 0F 72 D6 0B     psrld       xmm6,0Bh
  0000000000001D5D: 41 31 D6           xor         r14d,edx
  0000000000001D60: 66 0F EF E5        pxor        xmm4,xmm5
  0000000000001D64: 45 21 DC           and         r12d,r11d
  0000000000001D67: 45 31 DD           xor         r13d,r11d
  0000000000001D6A: 66 0F 72 F5 0B     pslld       xmm5,0Bh
  0000000000001D6F: 03 4C 24 34        add         ecx,dword ptr [rsp+34h]
  0000000000001D73: 89 D7              mov         edi,edx
  0000000000001D75: 66 0F EF E6        pxor        xmm4,xmm6
  0000000000001D79: 41 31 DC           xor         r12d,ebx
  0000000000001D7C: 41 C1 CE 0B        ror         r14d,0Bh
  0000000000001D80: 66 0F 6F F7        movdqa      xmm6,xmm7
  0000000000001D84: 44 31 C7           xor         edi,r8d
  0000000000001D87: 44 01 E1           add         ecx,r12d
  0000000000001D8A: 66 0F EF E5        pxor        xmm4,xmm5
  0000000000001D8E: 41 C1 CD 06        ror         r13d,6
  0000000000001D92: 41 21 FF           and         r15d,edi
  0000000000001D95: 41 31 D6           xor         r14d,edx
  0000000000001D98: 66 0F 72 D7 0A     psrld       xmm7,0Ah
  0000000000001D9D: 44 01 E9           add         ecx,r13d
  0000000000001DA0: 45 31 C7           xor         r15d,r8d
  0000000000001DA3: 66 0F FE DC        paddd       xmm3,xmm4
  0000000000001DA7: 41 C1 CE 02        ror         r14d,2
  0000000000001DAB: 41 01 CA           add         r10d,ecx
  0000000000001DAE: 66 0F 73 D6 11     psrlq       xmm6,11h
  0000000000001DB3: 44 01 F9           add         ecx,r15d
  0000000000001DB6: 45 89 D5           mov         r13d,r10d
  0000000000001DB9: 41 01 CE           add         r14d,ecx
  0000000000001DBC: 66 0F EF FE        pxor        xmm7,xmm6
  0000000000001DC0: 41 C1 CD 0E        ror         r13d,0Eh
  0000000000001DC4: 44 89 F1           mov         ecx,r14d
  0000000000001DC7: 45 89 DC           mov         r12d,r11d
  0000000000001DCA: 41 C1 CE 09        ror         r14d,9
  0000000000001DCE: 66 0F 73 D6 02     psrlq       xmm6,2
  0000000000001DD3: 45 31 D5           xor         r13d,r10d
  0000000000001DD6: 41 31 C4           xor         r12d,eax
  0000000000001DD9: 66 0F EF FE        pxor        xmm7,xmm6
  0000000000001DDD: 41 C1 CD 05        ror         r13d,5
  0000000000001DE1: 41 31 CE           xor         r14d,ecx
  0000000000001DE4: 45 21 D4           and         r12d,r10d
  0000000000001DE7: 66 0F 70 FF 80     pshufd      xmm7,xmm7,80h
  0000000000001DEC: 45 31 D5           xor         r13d,r10d
  0000000000001DEF: 03 5C 24 38        add         ebx,dword ptr [rsp+38h]
  0000000000001DF3: 41 89 CF           mov         r15d,ecx
  0000000000001DF6: 66 0F 73 DF 08     psrldq      xmm7,8
  0000000000001DFB: 41 31 C4           xor         r12d,eax
  0000000000001DFE: 41 C1 CE 0B        ror         r14d,0Bh
  0000000000001E02: 41 31 D7           xor         r15d,edx
  0000000000001E05: 44 01 E3           add         ebx,r12d
  0000000000001E08: 41 C1 CD 06        ror         r13d,6
  0000000000001E0C: 66 0F FE DF        paddd       xmm3,xmm7
  0000000000001E10: 44 21 FF           and         edi,r15d
  0000000000001E13: 41 31 CE           xor         r14d,ecx
  0000000000001E16: 44 01 EB           add         ebx,r13d
  0000000000001E19: 66 0F 70 FB 50     pshufd      xmm7,xmm3,50h
  0000000000001E1E: 31 D7              xor         edi,edx
  0000000000001E20: 41 C1 CE 02        ror         r14d,2
  0000000000001E24: 41 01 D9           add         r9d,ebx
  0000000000001E27: 66 0F 6F F7        movdqa      xmm6,xmm7
  0000000000001E2B: 01 FB              add         ebx,edi
  0000000000001E2D: 45 89 CD           mov         r13d,r9d
  0000000000001E30: 66 0F 72 D7 0A     psrld       xmm7,0Ah
  0000000000001E35: 41 01 DE           add         r14d,ebx
  0000000000001E38: 41 C1 CD 0E        ror         r13d,0Eh
  0000000000001E3C: 66 0F 73 D6 11     psrlq       xmm6,11h
  0000000000001E41: 44 89 F3           mov         ebx,r14d
  0000000000001E44: 45 89 D4           mov         r12d,r10d
  0000000000001E47: 66 0F EF FE        pxor        xmm7,xmm6
  0000000000001E4B: 41 C1 CE 09        ror         r14d,9
  0000000000001E4F: 45 31 CD           xor         r13d,r9d
  0000000000001E52: 45 31 DC           xor         r12d,r11d
  0000000000001E55: 41 C1 CD 05        ror         r13d,5
  0000000000001E59: 41 31 DE           xor         r14d,ebx
  0000000000001E5C: 66 0F 73 D6 02     psrlq       xmm6,2
  0000000000001E61: 45 21 CC           and         r12d,r9d
  0000000000001E64: 45 31 CD           xor         r13d,r9d
  0000000000001E67: 03 44 24 3C        add         eax,dword ptr [rsp+3Ch]
  0000000000001E6B: 66 0F EF FE        pxor        xmm7,xmm6
  0000000000001E6F: 89 DF              mov         edi,ebx
  0000000000001E71: 45 31 DC           xor         r12d,r11d
  0000000000001E74: 41 C1 CE 0B        ror         r14d,0Bh
  0000000000001E78: 66 0F 70 FF 08     pshufd      xmm7,xmm7,8
  0000000000001E7D: 31 CF              xor         edi,ecx
  0000000000001E7F: 44 01 E0           add         eax,r12d
  0000000000001E82: 66 0F 6F 75 60     movdqa      xmm6,xmmword ptr [rbp+60h]
  0000000000001E87: 41 C1 CD 06        ror         r13d,6
  0000000000001E8B: 41 21 FF           and         r15d,edi
  0000000000001E8E: 66 0F 73 FF 08     pslldq      xmm7,8
  0000000000001E93: 41 31 DE           xor         r14d,ebx
  0000000000001E96: 44 01 E8           add         eax,r13d
  0000000000001E99: 41 31 CF           xor         r15d,ecx
  0000000000001E9C: 66 0F FE DF        paddd       xmm3,xmm7
  0000000000001EA0: 41 C1 CE 02        ror         r14d,2
  0000000000001EA4: 41 01 C0           add         r8d,eax
  0000000000001EA7: 44 01 F8           add         eax,r15d
  0000000000001EAA: 66 0F FE F3        paddd       xmm6,xmm3
  0000000000001EAE: 45 89 C5           mov         r13d,r8d
  0000000000001EB1: 41 01 C6           add         r14d,eax
  0000000000001EB4: 66 0F 7F 74 24 30  movdqa      xmmword ptr [rsp+30h],xmm6
  0000000000001EBA: 80 BD 83 00 00 00  cmp         byte ptr [rbp+83h],0
                    00
  0000000000001EC1: 0F 85 C9 F7 FF FF  jne         L$ssse3_00_47
  0000000000001EC7: 41 C1 CD 0E        ror         r13d,0Eh
  0000000000001ECB: 44 89 F0           mov         eax,r14d
  0000000000001ECE: 45 89 CC           mov         r12d,r9d
  0000000000001ED1: 41 C1 CE 09        ror         r14d,9
  0000000000001ED5: 45 31 C5           xor         r13d,r8d
  0000000000001ED8: 45 31 D4           xor         r12d,r10d
  0000000000001EDB: 41 C1 CD 05        ror         r13d,5
  0000000000001EDF: 41 31 C6           xor         r14d,eax
  0000000000001EE2: 45 21 C4           and         r12d,r8d
  0000000000001EE5: 45 31 C5           xor         r13d,r8d
  0000000000001EE8: 44 03 1C 24        add         r11d,dword ptr [rsp]
  0000000000001EEC: 41 89 C7           mov         r15d,eax
  0000000000001EEF: 45 31 D4           xor         r12d,r10d
  0000000000001EF2: 41 C1 CE 0B        ror         r14d,0Bh
  0000000000001EF6: 41 31 DF           xor         r15d,ebx
  0000000000001EF9: 45 01 E3           add         r11d,r12d
  0000000000001EFC: 41 C1 CD 06        ror         r13d,6
  0000000000001F00: 44 21 FF           and         edi,r15d
  0000000000001F03: 41 31 C6           xor         r14d,eax
  0000000000001F06: 45 01 EB           add         r11d,r13d
  0000000000001F09: 31 DF              xor         edi,ebx
  0000000000001F0B: 41 C1 CE 02        ror         r14d,2
  0000000000001F0F: 44 01 DA           add         edx,r11d
  0000000000001F12: 41 01 FB           add         r11d,edi
  0000000000001F15: 41 89 D5           mov         r13d,edx
  0000000000001F18: 45 01 DE           add         r14d,r11d
  0000000000001F1B: 41 C1 CD 0E        ror         r13d,0Eh
  0000000000001F1F: 45 89 F3           mov         r11d,r14d
  0000000000001F22: 45 89 C4           mov         r12d,r8d
  0000000000001F25: 41 C1 CE 09        ror         r14d,9
  0000000000001F29: 41 31 D5           xor         r13d,edx
  0000000000001F2C: 45 31 CC           xor         r12d,r9d
  0000000000001F2F: 41 C1 CD 05        ror         r13d,5
  0000000000001F33: 45 31 DE           xor         r14d,r11d
  0000000000001F36: 41 21 D4           and         r12d,edx
  0000000000001F39: 41 31 D5           xor         r13d,edx
  0000000000001F3C: 44 03 54 24 04     add         r10d,dword ptr [rsp+4]
  0000000000001F41: 44 89 DF           mov         edi,r11d
  0000000000001F44: 45 31 CC           xor         r12d,r9d
  0000000000001F47: 41 C1 CE 0B        ror         r14d,0Bh
  0000000000001F4B: 31 C7              xor         edi,eax
  0000000000001F4D: 45 01 E2           add         r10d,r12d
  0000000000001F50: 41 C1 CD 06        ror         r13d,6
  0000000000001F54: 41 21 FF           and         r15d,edi
  0000000000001F57: 45 31 DE           xor         r14d,r11d
  0000000000001F5A: 45 01 EA           add         r10d,r13d
  0000000000001F5D: 41 31 C7           xor         r15d,eax
  0000000000001F60: 41 C1 CE 02        ror         r14d,2
  0000000000001F64: 44 01 D1           add         ecx,r10d
  0000000000001F67: 45 01 FA           add         r10d,r15d
  0000000000001F6A: 41 89 CD           mov         r13d,ecx
  0000000000001F6D: 45 01 D6           add         r14d,r10d
  0000000000001F70: 41 C1 CD 0E        ror         r13d,0Eh
  0000000000001F74: 45 89 F2           mov         r10d,r14d
  0000000000001F77: 41 89 D4           mov         r12d,edx
  0000000000001F7A: 41 C1 CE 09        ror         r14d,9
  0000000000001F7E: 41 31 CD           xor         r13d,ecx
  0000000000001F81: 45 31 C4           xor         r12d,r8d
  0000000000001F84: 41 C1 CD 05        ror         r13d,5
  0000000000001F88: 45 31 D6           xor         r14d,r10d
  0000000000001F8B: 41 21 CC           and         r12d,ecx
  0000000000001F8E: 41 31 CD           xor         r13d,ecx
  0000000000001F91: 44 03 4C 24 08     add         r9d,dword ptr [rsp+8]
  0000000000001F96: 45 89 D7           mov         r15d,r10d
  0000000000001F99: 45 31 C4           xor         r12d,r8d
  0000000000001F9C: 41 C1 CE 0B        ror         r14d,0Bh
  0000000000001FA0: 45 31 DF           xor         r15d,r11d
  0000000000001FA3: 45 01 E1           add         r9d,r12d
  0000000000001FA6: 41 C1 CD 06        ror         r13d,6
  0000000000001FAA: 44 21 FF           and         edi,r15d
  0000000000001FAD: 45 31 D6           xor         r14d,r10d
  0000000000001FB0: 45 01 E9           add         r9d,r13d
  0000000000001FB3: 44 31 DF           xor         edi,r11d
  0000000000001FB6: 41 C1 CE 02        ror         r14d,2
  0000000000001FBA: 44 01 CB           add         ebx,r9d
  0000000000001FBD: 41 01 F9           add         r9d,edi
  0000000000001FC0: 41 89 DD           mov         r13d,ebx
  0000000000001FC3: 45 01 CE           add         r14d,r9d
  0000000000001FC6: 41 C1 CD 0E        ror         r13d,0Eh
  0000000000001FCA: 45 89 F1           mov         r9d,r14d
  0000000000001FCD: 41 89 CC           mov         r12d,ecx
  0000000000001FD0: 41 C1 CE 09        ror         r14d,9
  0000000000001FD4: 41 31 DD           xor         r13d,ebx
  0000000000001FD7: 41 31 D4           xor         r12d,edx
  0000000000001FDA: 41 C1 CD 05        ror         r13d,5
  0000000000001FDE: 45 31 CE           xor         r14d,r9d
  0000000000001FE1: 41 21 DC           and         r12d,ebx
  0000000000001FE4: 41 31 DD           xor         r13d,ebx
  0000000000001FE7: 44 03 44 24 0C     add         r8d,dword ptr [rsp+0Ch]
  0000000000001FEC: 44 89 CF           mov         edi,r9d
  0000000000001FEF: 41 31 D4           xor         r12d,edx
  0000000000001FF2: 41 C1 CE 0B        ror         r14d,0Bh
  0000000000001FF6: 44 31 D7           xor         edi,r10d
  0000000000001FF9: 45 01 E0           add         r8d,r12d
  0000000000001FFC: 41 C1 CD 06        ror         r13d,6
  0000000000002000: 41 21 FF           and         r15d,edi
  0000000000002003: 45 31 CE           xor         r14d,r9d
  0000000000002006: 45 01 E8           add         r8d,r13d
  0000000000002009: 45 31 D7           xor         r15d,r10d
  000000000000200C: 41 C1 CE 02        ror         r14d,2
  0000000000002010: 44 01 C0           add         eax,r8d
  0000000000002013: 45 01 F8           add         r8d,r15d
  0000000000002016: 41 89 C5           mov         r13d,eax
  0000000000002019: 45 01 C6           add         r14d,r8d
  000000000000201C: 41 C1 CD 0E        ror         r13d,0Eh
  0000000000002020: 45 89 F0           mov         r8d,r14d
  0000000000002023: 41 89 DC           mov         r12d,ebx
  0000000000002026: 41 C1 CE 09        ror         r14d,9
  000000000000202A: 41 31 C5           xor         r13d,eax
  000000000000202D: 41 31 CC           xor         r12d,ecx
  0000000000002030: 41 C1 CD 05        ror         r13d,5
  0000000000002034: 45 31 C6           xor         r14d,r8d
  0000000000002037: 41 21 C4           and         r12d,eax
  000000000000203A: 41 31 C5           xor         r13d,eax
  000000000000203D: 03 54 24 10        add         edx,dword ptr [rsp+10h]
  0000000000002041: 45 89 C7           mov         r15d,r8d
  0000000000002044: 41 31 CC           xor         r12d,ecx
  0000000000002047: 41 C1 CE 0B        ror         r14d,0Bh
  000000000000204B: 45 31 CF           xor         r15d,r9d
  000000000000204E: 44 01 E2           add         edx,r12d
  0000000000002051: 41 C1 CD 06        ror         r13d,6
  0000000000002055: 44 21 FF           and         edi,r15d
  0000000000002058: 45 31 C6           xor         r14d,r8d
  000000000000205B: 44 01 EA           add         edx,r13d
  000000000000205E: 44 31 CF           xor         edi,r9d
  0000000000002061: 41 C1 CE 02        ror         r14d,2
  0000000000002065: 41 01 D3           add         r11d,edx
  0000000000002068: 01 FA              add         edx,edi
  000000000000206A: 45 89 DD           mov         r13d,r11d
  000000000000206D: 41 01 D6           add         r14d,edx
  0000000000002070: 41 C1 CD 0E        ror         r13d,0Eh
  0000000000002074: 44 89 F2           mov         edx,r14d
  0000000000002077: 41 89 C4           mov         r12d,eax
  000000000000207A: 41 C1 CE 09        ror         r14d,9
  000000000000207E: 45 31 DD           xor         r13d,r11d
  0000000000002081: 41 31 DC           xor         r12d,ebx
  0000000000002084: 41 C1 CD 05        ror         r13d,5
  0000000000002088: 41 31 D6           xor         r14d,edx
  000000000000208B: 45 21 DC           and         r12d,r11d
  000000000000208E: 45 31 DD           xor         r13d,r11d
  0000000000002091: 03 4C 24 14        add         ecx,dword ptr [rsp+14h]
  0000000000002095: 89 D7              mov         edi,edx
  0000000000002097: 41 31 DC           xor         r12d,ebx
  000000000000209A: 41 C1 CE 0B        ror         r14d,0Bh
  000000000000209E: 44 31 C7           xor         edi,r8d
  00000000000020A1: 44 01 E1           add         ecx,r12d
  00000000000020A4: 41 C1 CD 06        ror         r13d,6
  00000000000020A8: 41 21 FF           and         r15d,edi
  00000000000020AB: 41 31 D6           xor         r14d,edx
  00000000000020AE: 44 01 E9           add         ecx,r13d
  00000000000020B1: 45 31 C7           xor         r15d,r8d
  00000000000020B4: 41 C1 CE 02        ror         r14d,2
  00000000000020B8: 41 01 CA           add         r10d,ecx
  00000000000020BB: 44 01 F9           add         ecx,r15d
  00000000000020BE: 45 89 D5           mov         r13d,r10d
  00000000000020C1: 41 01 CE           add         r14d,ecx
  00000000000020C4: 41 C1 CD 0E        ror         r13d,0Eh
  00000000000020C8: 44 89 F1           mov         ecx,r14d
  00000000000020CB: 45 89 DC           mov         r12d,r11d
  00000000000020CE: 41 C1 CE 09        ror         r14d,9
  00000000000020D2: 45 31 D5           xor         r13d,r10d
  00000000000020D5: 41 31 C4           xor         r12d,eax
  00000000000020D8: 41 C1 CD 05        ror         r13d,5
  00000000000020DC: 41 31 CE           xor         r14d,ecx
  00000000000020DF: 45 21 D4           and         r12d,r10d
  00000000000020E2: 45 31 D5           xor         r13d,r10d
  00000000000020E5: 03 5C 24 18        add         ebx,dword ptr [rsp+18h]
  00000000000020E9: 41 89 CF           mov         r15d,ecx
  00000000000020EC: 41 31 C4           xor         r12d,eax
  00000000000020EF: 41 C1 CE 0B        ror         r14d,0Bh
  00000000000020F3: 41 31 D7           xor         r15d,edx
  00000000000020F6: 44 01 E3           add         ebx,r12d
  00000000000020F9: 41 C1 CD 06        ror         r13d,6
  00000000000020FD: 44 21 FF           and         edi,r15d
  0000000000002100: 41 31 CE           xor         r14d,ecx
  0000000000002103: 44 01 EB           add         ebx,r13d
  0000000000002106: 31 D7              xor         edi,edx
  0000000000002108: 41 C1 CE 02        ror         r14d,2
  000000000000210C: 41 01 D9           add         r9d,ebx
  000000000000210F: 01 FB              add         ebx,edi
  0000000000002111: 45 89 CD           mov         r13d,r9d
  0000000000002114: 41 01 DE           add         r14d,ebx
  0000000000002117: 41 C1 CD 0E        ror         r13d,0Eh
  000000000000211B: 44 89 F3           mov         ebx,r14d
  000000000000211E: 45 89 D4           mov         r12d,r10d
  0000000000002121: 41 C1 CE 09        ror         r14d,9
  0000000000002125: 45 31 CD           xor         r13d,r9d
  0000000000002128: 45 31 DC           xor         r12d,r11d
  000000000000212B: 41 C1 CD 05        ror         r13d,5
  000000000000212F: 41 31 DE           xor         r14d,ebx
  0000000000002132: 45 21 CC           and         r12d,r9d
  0000000000002135: 45 31 CD           xor         r13d,r9d
  0000000000002138: 03 44 24 1C        add         eax,dword ptr [rsp+1Ch]
  000000000000213C: 89 DF              mov         edi,ebx
  000000000000213E: 45 31 DC           xor         r12d,r11d
  0000000000002141: 41 C1 CE 0B        ror         r14d,0Bh
  0000000000002145: 31 CF              xor         edi,ecx
  0000000000002147: 44 01 E0           add         eax,r12d
  000000000000214A: 41 C1 CD 06        ror         r13d,6
  000000000000214E: 41 21 FF           and         r15d,edi
  0000000000002151: 41 31 DE           xor         r14d,ebx
  0000000000002154: 44 01 E8           add         eax,r13d
  0000000000002157: 41 31 CF           xor         r15d,ecx
  000000000000215A: 41 C1 CE 02        ror         r14d,2
  000000000000215E: 41 01 C0           add         r8d,eax
  0000000000002161: 44 01 F8           add         eax,r15d
  0000000000002164: 45 89 C5           mov         r13d,r8d
  0000000000002167: 41 01 C6           add         r14d,eax
  000000000000216A: 41 C1 CD 0E        ror         r13d,0Eh
  000000000000216E: 44 89 F0           mov         eax,r14d
  0000000000002171: 45 89 CC           mov         r12d,r9d
  0000000000002174: 41 C1 CE 09        ror         r14d,9
  0000000000002178: 45 31 C5           xor         r13d,r8d
  000000000000217B: 45 31 D4           xor         r12d,r10d
  000000000000217E: 41 C1 CD 05        ror         r13d,5
  0000000000002182: 41 31 C6           xor         r14d,eax
  0000000000002185: 45 21 C4           and         r12d,r8d
  0000000000002188: 45 31 C5           xor         r13d,r8d
  000000000000218B: 44 03 5C 24 20     add         r11d,dword ptr [rsp+20h]
  0000000000002190: 41 89 C7           mov         r15d,eax
  0000000000002193: 45 31 D4           xor         r12d,r10d
  0000000000002196: 41 C1 CE 0B        ror         r14d,0Bh
  000000000000219A: 41 31 DF           xor         r15d,ebx
  000000000000219D: 45 01 E3           add         r11d,r12d
  00000000000021A0: 41 C1 CD 06        ror         r13d,6
  00000000000021A4: 44 21 FF           and         edi,r15d
  00000000000021A7: 41 31 C6           xor         r14d,eax
  00000000000021AA: 45 01 EB           add         r11d,r13d
  00000000000021AD: 31 DF              xor         edi,ebx
  00000000000021AF: 41 C1 CE 02        ror         r14d,2
  00000000000021B3: 44 01 DA           add         edx,r11d
  00000000000021B6: 41 01 FB           add         r11d,edi
  00000000000021B9: 41 89 D5           mov         r13d,edx
  00000000000021BC: 45 01 DE           add         r14d,r11d
  00000000000021BF: 41 C1 CD 0E        ror         r13d,0Eh
  00000000000021C3: 45 89 F3           mov         r11d,r14d
  00000000000021C6: 45 89 C4           mov         r12d,r8d
  00000000000021C9: 41 C1 CE 09        ror         r14d,9
  00000000000021CD: 41 31 D5           xor         r13d,edx
  00000000000021D0: 45 31 CC           xor         r12d,r9d
  00000000000021D3: 41 C1 CD 05        ror         r13d,5
  00000000000021D7: 45 31 DE           xor         r14d,r11d
  00000000000021DA: 41 21 D4           and         r12d,edx
  00000000000021DD: 41 31 D5           xor         r13d,edx
  00000000000021E0: 44 03 54 24 24     add         r10d,dword ptr [rsp+24h]
  00000000000021E5: 44 89 DF           mov         edi,r11d
  00000000000021E8: 45 31 CC           xor         r12d,r9d
  00000000000021EB: 41 C1 CE 0B        ror         r14d,0Bh
  00000000000021EF: 31 C7              xor         edi,eax
  00000000000021F1: 45 01 E2           add         r10d,r12d
  00000000000021F4: 41 C1 CD 06        ror         r13d,6
  00000000000021F8: 41 21 FF           and         r15d,edi
  00000000000021FB: 45 31 DE           xor         r14d,r11d
  00000000000021FE: 45 01 EA           add         r10d,r13d
  0000000000002201: 41 31 C7           xor         r15d,eax
  0000000000002204: 41 C1 CE 02        ror         r14d,2
  0000000000002208: 44 01 D1           add         ecx,r10d
  000000000000220B: 45 01 FA           add         r10d,r15d
  000000000000220E: 41 89 CD           mov         r13d,ecx
  0000000000002211: 45 01 D6           add         r14d,r10d
  0000000000002214: 41 C1 CD 0E        ror         r13d,0Eh
  0000000000002218: 45 89 F2           mov         r10d,r14d
  000000000000221B: 41 89 D4           mov         r12d,edx
  000000000000221E: 41 C1 CE 09        ror         r14d,9
  0000000000002222: 41 31 CD           xor         r13d,ecx
  0000000000002225: 45 31 C4           xor         r12d,r8d
  0000000000002228: 41 C1 CD 05        ror         r13d,5
  000000000000222C: 45 31 D6           xor         r14d,r10d
  000000000000222F: 41 21 CC           and         r12d,ecx
  0000000000002232: 41 31 CD           xor         r13d,ecx
  0000000000002235: 44 03 4C 24 28     add         r9d,dword ptr [rsp+28h]
  000000000000223A: 45 89 D7           mov         r15d,r10d
  000000000000223D: 45 31 C4           xor         r12d,r8d
  0000000000002240: 41 C1 CE 0B        ror         r14d,0Bh
  0000000000002244: 45 31 DF           xor         r15d,r11d
  0000000000002247: 45 01 E1           add         r9d,r12d
  000000000000224A: 41 C1 CD 06        ror         r13d,6
  000000000000224E: 44 21 FF           and         edi,r15d
  0000000000002251: 45 31 D6           xor         r14d,r10d
  0000000000002254: 45 01 E9           add         r9d,r13d
  0000000000002257: 44 31 DF           xor         edi,r11d
  000000000000225A: 41 C1 CE 02        ror         r14d,2
  000000000000225E: 44 01 CB           add         ebx,r9d
  0000000000002261: 41 01 F9           add         r9d,edi
  0000000000002264: 41 89 DD           mov         r13d,ebx
  0000000000002267: 45 01 CE           add         r14d,r9d
  000000000000226A: 41 C1 CD 0E        ror         r13d,0Eh
  000000000000226E: 45 89 F1           mov         r9d,r14d
  0000000000002271: 41 89 CC           mov         r12d,ecx
  0000000000002274: 41 C1 CE 09        ror         r14d,9
  0000000000002278: 41 31 DD           xor         r13d,ebx
  000000000000227B: 41 31 D4           xor         r12d,edx
  000000000000227E: 41 C1 CD 05        ror         r13d,5
  0000000000002282: 45 31 CE           xor         r14d,r9d
  0000000000002285: 41 21 DC           and         r12d,ebx
  0000000000002288: 41 31 DD           xor         r13d,ebx
  000000000000228B: 44 03 44 24 2C     add         r8d,dword ptr [rsp+2Ch]
  0000000000002290: 44 89 CF           mov         edi,r9d
  0000000000002293: 41 31 D4           xor         r12d,edx
  0000000000002296: 41 C1 CE 0B        ror         r14d,0Bh
  000000000000229A: 44 31 D7           xor         edi,r10d
  000000000000229D: 45 01 E0           add         r8d,r12d
  00000000000022A0: 41 C1 CD 06        ror         r13d,6
  00000000000022A4: 41 21 FF           and         r15d,edi
  00000000000022A7: 45 31 CE           xor         r14d,r9d
  00000000000022AA: 45 01 E8           add         r8d,r13d
  00000000000022AD: 45 31 D7           xor         r15d,r10d
  00000000000022B0: 41 C1 CE 02        ror         r14d,2
  00000000000022B4: 44 01 C0           add         eax,r8d
  00000000000022B7: 45 01 F8           add         r8d,r15d
  00000000000022BA: 41 89 C5           mov         r13d,eax
  00000000000022BD: 45 01 C6           add         r14d,r8d
  00000000000022C0: 41 C1 CD 0E        ror         r13d,0Eh
  00000000000022C4: 45 89 F0           mov         r8d,r14d
  00000000000022C7: 41 89 DC           mov         r12d,ebx
  00000000000022CA: 41 C1 CE 09        ror         r14d,9
  00000000000022CE: 41 31 C5           xor         r13d,eax
  00000000000022D1: 41 31 CC           xor         r12d,ecx
  00000000000022D4: 41 C1 CD 05        ror         r13d,5
  00000000000022D8: 45 31 C6           xor         r14d,r8d
  00000000000022DB: 41 21 C4           and         r12d,eax
  00000000000022DE: 41 31 C5           xor         r13d,eax
  00000000000022E1: 03 54 24 30        add         edx,dword ptr [rsp+30h]
  00000000000022E5: 45 89 C7           mov         r15d,r8d
  00000000000022E8: 41 31 CC           xor         r12d,ecx
  00000000000022EB: 41 C1 CE 0B        ror         r14d,0Bh
  00000000000022EF: 45 31 CF           xor         r15d,r9d
  00000000000022F2: 44 01 E2           add         edx,r12d
  00000000000022F5: 41 C1 CD 06        ror         r13d,6
  00000000000022F9: 44 21 FF           and         edi,r15d
  00000000000022FC: 45 31 C6           xor         r14d,r8d
  00000000000022FF: 44 01 EA           add         edx,r13d
  0000000000002302: 44 31 CF           xor         edi,r9d
  0000000000002305: 41 C1 CE 02        ror         r14d,2
  0000000000002309: 41 01 D3           add         r11d,edx
  000000000000230C: 01 FA              add         edx,edi
  000000000000230E: 45 89 DD           mov         r13d,r11d
  0000000000002311: 41 01 D6           add         r14d,edx
  0000000000002314: 41 C1 CD 0E        ror         r13d,0Eh
  0000000000002318: 44 89 F2           mov         edx,r14d
  000000000000231B: 41 89 C4           mov         r12d,eax
  000000000000231E: 41 C1 CE 09        ror         r14d,9
  0000000000002322: 45 31 DD           xor         r13d,r11d
  0000000000002325: 41 31 DC           xor         r12d,ebx
  0000000000002328: 41 C1 CD 05        ror         r13d,5
  000000000000232C: 41 31 D6           xor         r14d,edx
  000000000000232F: 45 21 DC           and         r12d,r11d
  0000000000002332: 45 31 DD           xor         r13d,r11d
  0000000000002335: 03 4C 24 34        add         ecx,dword ptr [rsp+34h]
  0000000000002339: 89 D7              mov         edi,edx
  000000000000233B: 41 31 DC           xor         r12d,ebx
  000000000000233E: 41 C1 CE 0B        ror         r14d,0Bh
  0000000000002342: 44 31 C7           xor         edi,r8d
  0000000000002345: 44 01 E1           add         ecx,r12d
  0000000000002348: 41 C1 CD 06        ror         r13d,6
  000000000000234C: 41 21 FF           and         r15d,edi
  000000000000234F: 41 31 D6           xor         r14d,edx
  0000000000002352: 44 01 E9           add         ecx,r13d
  0000000000002355: 45 31 C7           xor         r15d,r8d
  0000000000002358: 41 C1 CE 02        ror         r14d,2
  000000000000235C: 41 01 CA           add         r10d,ecx
  000000000000235F: 44 01 F9           add         ecx,r15d
  0000000000002362: 45 89 D5           mov         r13d,r10d
  0000000000002365: 41 01 CE           add         r14d,ecx
  0000000000002368: 41 C1 CD 0E        ror         r13d,0Eh
  000000000000236C: 44 89 F1           mov         ecx,r14d
  000000000000236F: 45 89 DC           mov         r12d,r11d
  0000000000002372: 41 C1 CE 09        ror         r14d,9
  0000000000002376: 45 31 D5           xor         r13d,r10d
  0000000000002379: 41 31 C4           xor         r12d,eax
  000000000000237C: 41 C1 CD 05        ror         r13d,5
  0000000000002380: 41 31 CE           xor         r14d,ecx
  0000000000002383: 45 21 D4           and         r12d,r10d
  0000000000002386: 45 31 D5           xor         r13d,r10d
  0000000000002389: 03 5C 24 38        add         ebx,dword ptr [rsp+38h]
  000000000000238D: 41 89 CF           mov         r15d,ecx
  0000000000002390: 41 31 C4           xor         r12d,eax
  0000000000002393: 41 C1 CE 0B        ror         r14d,0Bh
  0000000000002397: 41 31 D7           xor         r15d,edx
  000000000000239A: 44 01 E3           add         ebx,r12d
  000000000000239D: 41 C1 CD 06        ror         r13d,6
  00000000000023A1: 44 21 FF           and         edi,r15d
  00000000000023A4: 41 31 CE           xor         r14d,ecx
  00000000000023A7: 44 01 EB           add         ebx,r13d
  00000000000023AA: 31 D7              xor         edi,edx
  00000000000023AC: 41 C1 CE 02        ror         r14d,2
  00000000000023B0: 41 01 D9           add         r9d,ebx
  00000000000023B3: 01 FB              add         ebx,edi
  00000000000023B5: 45 89 CD           mov         r13d,r9d
  00000000000023B8: 41 01 DE           add         r14d,ebx
  00000000000023BB: 41 C1 CD 0E        ror         r13d,0Eh
  00000000000023BF: 44 89 F3           mov         ebx,r14d
  00000000000023C2: 45 89 D4           mov         r12d,r10d
  00000000000023C5: 41 C1 CE 09        ror         r14d,9
  00000000000023C9: 45 31 CD           xor         r13d,r9d
  00000000000023CC: 45 31 DC           xor         r12d,r11d
  00000000000023CF: 41 C1 CD 05        ror         r13d,5
  00000000000023D3: 41 31 DE           xor         r14d,ebx
  00000000000023D6: 45 21 CC           and         r12d,r9d
  00000000000023D9: 45 31 CD           xor         r13d,r9d
  00000000000023DC: 03 44 24 3C        add         eax,dword ptr [rsp+3Ch]
  00000000000023E0: 89 DF              mov         edi,ebx
  00000000000023E2: 45 31 DC           xor         r12d,r11d
  00000000000023E5: 41 C1 CE 0B        ror         r14d,0Bh
  00000000000023E9: 31 CF              xor         edi,ecx
  00000000000023EB: 44 01 E0           add         eax,r12d
  00000000000023EE: 41 C1 CD 06        ror         r13d,6
  00000000000023F2: 41 21 FF           and         r15d,edi
  00000000000023F5: 41 31 DE           xor         r14d,ebx
  00000000000023F8: 44 01 E8           add         eax,r13d
  00000000000023FB: 41 31 CF           xor         r15d,ecx
  00000000000023FE: 41 C1 CE 02        ror         r14d,2
  0000000000002402: 41 01 C0           add         r8d,eax
  0000000000002405: 44 01 F8           add         eax,r15d
  0000000000002408: 45 89 C5           mov         r13d,r8d
  000000000000240B: 41 01 C6           add         r14d,eax
  000000000000240E: 48 8B 7C 24 40     mov         rdi,qword ptr [rsp+40h]
  0000000000002413: 44 89 F0           mov         eax,r14d
  0000000000002416: 03 07              add         eax,dword ptr [rdi]
  0000000000002418: 48 8D 76 40        lea         rsi,[rsi+40h]
  000000000000241C: 03 5F 04           add         ebx,dword ptr [rdi+4]
  000000000000241F: 03 4F 08           add         ecx,dword ptr [rdi+8]
  0000000000002422: 03 57 0C           add         edx,dword ptr [rdi+0Ch]
  0000000000002425: 44 03 47 10        add         r8d,dword ptr [rdi+10h]
  0000000000002429: 44 03 4F 14        add         r9d,dword ptr [rdi+14h]
  000000000000242D: 44 03 57 18        add         r10d,dword ptr [rdi+18h]
  0000000000002431: 44 03 5F 1C        add         r11d,dword ptr [rdi+1Ch]
  0000000000002435: 48 3B 74 24 50     cmp         rsi,qword ptr [rsp+50h]
  000000000000243A: 89 07              mov         dword ptr [rdi],eax
  000000000000243C: 89 5F 04           mov         dword ptr [rdi+4],ebx
  000000000000243F: 89 4F 08           mov         dword ptr [rdi+8],ecx
  0000000000002442: 89 57 0C           mov         dword ptr [rdi+0Ch],edx
  0000000000002445: 44 89 47 10        mov         dword ptr [rdi+10h],r8d
  0000000000002449: 44 89 4F 14        mov         dword ptr [rdi+14h],r9d
  000000000000244D: 44 89 57 18        mov         dword ptr [rdi+18h],r10d
  0000000000002451: 44 89 5F 1C        mov         dword ptr [rdi+1Ch],r11d
  0000000000002455: 0F 82 B5 F1 FF FF  jb          L$loop_ssse3
  000000000000245B: 48 8B 74 24 58     mov         rsi,qword ptr [rsp+58h]
  0000000000002460: 0F 28 74 24 60     movaps      xmm6,xmmword ptr [rsp+60h]
  0000000000002465: 0F 28 7C 24 70     movaps      xmm7,xmmword ptr [rsp+70h]
  000000000000246A: 44 0F 28 84 24 80  movaps      xmm8,xmmword ptr [rsp+80h]
                    00 00 00
  0000000000002473: 44 0F 28 8C 24 90  movaps      xmm9,xmmword ptr [rsp+90h]
                    00 00 00
  000000000000247C: 4C 8B 7E D0        mov         r15,qword ptr [rsi-30h]
  0000000000002480: 4C 8B 76 D8        mov         r14,qword ptr [rsi-28h]
  0000000000002484: 4C 8B 6E E0        mov         r13,qword ptr [rsi-20h]
  0000000000002488: 4C 8B 66 E8        mov         r12,qword ptr [rsi-18h]
  000000000000248C: 48 8B 6E F0        mov         rbp,qword ptr [rsi-10h]
  0000000000002490: 48 8B 5E F8        mov         rbx,qword ptr [rsi-8]
  0000000000002494: 48 8D 26           lea         rsp,[rsi]
L$epilogue_ssse3:
  0000000000002497: 48 8B 7C 24 08     mov         rdi,qword ptr [rsp+8]
  000000000000249C: 48 8B 74 24 10     mov         rsi,qword ptr [rsp+10h]
  00000000000024A1: F3 C3              rep ret
L$SEH_end_sha256_block_data_order_ssse3:
  00000000000024A3: 90                 nop
  00000000000024A4: 90                 nop
  00000000000024A5: 90                 nop
  00000000000024A6: 90                 nop
  00000000000024A7: 90                 nop
  00000000000024A8: 90                 nop
  00000000000024A9: 90                 nop
  00000000000024AA: 90                 nop
  00000000000024AB: 90                 nop
  00000000000024AC: 90                 nop
  00000000000024AD: 90                 nop
  00000000000024AE: 90                 nop
  00000000000024AF: 90                 nop
  00000000000024B0: 90                 nop
  00000000000024B1: 90                 nop
  00000000000024B2: 90                 nop
  00000000000024B3: 90                 nop
  00000000000024B4: 90                 nop
  00000000000024B5: 90                 nop
  00000000000024B6: 90                 nop
  00000000000024B7: 90                 nop
  00000000000024B8: 90                 nop
  00000000000024B9: 90                 nop
  00000000000024BA: 90                 nop
  00000000000024BB: 90                 nop
  00000000000024BC: 90                 nop
  00000000000024BD: 90                 nop
  00000000000024BE: 90                 nop
  00000000000024BF: 90                 nop
aws_lc_0_21_2_sha256_block_data_order_avx:
  00000000000024C0: 48 89 7C 24 08     mov         qword ptr [rsp+8],rdi
  00000000000024C5: 48 89 74 24 10     mov         qword ptr [rsp+10h],rsi
  00000000000024CA: 48 89 E0           mov         rax,rsp
L$SEH_begin_sha256_block_data_order_avx:
  00000000000024CD: 48 89 CF           mov         rdi,rcx
  00000000000024D0: 48 89 D6           mov         rsi,rdx
  00000000000024D3: 4C 89 C2           mov         rdx,r8
  00000000000024D6: 48 89 E0           mov         rax,rsp
  00000000000024D9: 53                 push        rbx
  00000000000024DA: 55                 push        rbp
  00000000000024DB: 41 54              push        r12
  00000000000024DD: 41 55              push        r13
  00000000000024DF: 41 56              push        r14
  00000000000024E1: 41 57              push        r15
  00000000000024E3: 48 C1 E2 04        shl         rdx,4
  00000000000024E7: 48 81 EC A0 00 00  sub         rsp,0A0h
                    00
  00000000000024EE: 48 8D 14 96        lea         rdx,[rsi+rdx*4]
  00000000000024F2: 48 83 E4 C0        and         rsp,0FFFFFFFFFFFFFFC0h
  00000000000024F6: 48 89 7C 24 40     mov         qword ptr [rsp+40h],rdi
  00000000000024FB: 48 89 74 24 48     mov         qword ptr [rsp+48h],rsi
  0000000000002500: 48 89 54 24 50     mov         qword ptr [rsp+50h],rdx
  0000000000002505: 48 89 44 24 58     mov         qword ptr [rsp+58h],rax
  000000000000250A: 0F 29 74 24 60     movaps      xmmword ptr [rsp+60h],xmm6
  000000000000250F: 0F 29 7C 24 70     movaps      xmmword ptr [rsp+70h],xmm7
  0000000000002514: 44 0F 29 84 24 80  movaps      xmmword ptr [rsp+80h],xmm8
                    00 00 00
  000000000000251D: 44 0F 29 8C 24 90  movaps      xmmword ptr [rsp+90h],xmm9
                    00 00 00
L$prologue_avx:
  0000000000002526: C5 F8 77           vzeroupper
  0000000000002529: 8B 07              mov         eax,dword ptr [rdi]
  000000000000252B: 8B 5F 04           mov         ebx,dword ptr [rdi+4]
  000000000000252E: 8B 4F 08           mov         ecx,dword ptr [rdi+8]
  0000000000002531: 8B 57 0C           mov         edx,dword ptr [rdi+0Ch]
  0000000000002534: 44 8B 47 10        mov         r8d,dword ptr [rdi+10h]
  0000000000002538: 44 8B 4F 14        mov         r9d,dword ptr [rdi+14h]
  000000000000253C: 44 8B 57 18        mov         r10d,dword ptr [rdi+18h]
  0000000000002540: 44 8B 5F 1C        mov         r11d,dword ptr [rdi+1Ch]
  0000000000002544: C5 79 6F 05 20 02  vmovdqa     xmm8,xmmword ptr [.rdata+220h]
                    00 00
  000000000000254C: C5 79 6F 0D 40 02  vmovdqa     xmm9,xmmword ptr [.rdata+240h]
                    00 00
  0000000000002554: E9 07 00 00 00     jmp         L$loop_avx
  0000000000002559: 90                 nop
  000000000000255A: 90                 nop
  000000000000255B: 90                 nop
  000000000000255C: 90                 nop
  000000000000255D: 90                 nop
  000000000000255E: 90                 nop
  000000000000255F: 90                 nop
L$loop_avx:
  0000000000002560: C5 F9 6F 3D 00 02  vmovdqa     xmm7,xmmword ptr [.rdata+200h]
                    00 00
  0000000000002568: C5 FA 6F 06        vmovdqu     xmm0,xmmword ptr [rsi]
  000000000000256C: C5 FA 6F 4E 10     vmovdqu     xmm1,xmmword ptr [rsi+10h]
  0000000000002571: C5 FA 6F 56 20     vmovdqu     xmm2,xmmword ptr [rsi+20h]
  0000000000002576: C5 FA 6F 5E 30     vmovdqu     xmm3,xmmword ptr [rsi+30h]
  000000000000257B: C4 E2 79 00 C7     vpshufb     xmm0,xmm0,xmm7
  0000000000002580: 48 8D 2D 00 00 00  lea         rbp,[.rdata]
                    00
  0000000000002587: C4 E2 71 00 CF     vpshufb     xmm1,xmm1,xmm7
  000000000000258C: C4 E2 69 00 D7     vpshufb     xmm2,xmm2,xmm7
  0000000000002591: C5 F9 FE 65 00     vpaddd      xmm4,xmm0,xmmword ptr [rbp]
  0000000000002596: C4 E2 61 00 DF     vpshufb     xmm3,xmm3,xmm7
  000000000000259B: C5 F1 FE 6D 20     vpaddd      xmm5,xmm1,xmmword ptr [rbp+20h]
  00000000000025A0: C5 E9 FE 75 40     vpaddd      xmm6,xmm2,xmmword ptr [rbp+40h]
  00000000000025A5: C5 E1 FE 7D 60     vpaddd      xmm7,xmm3,xmmword ptr [rbp+60h]
  00000000000025AA: C5 F9 7F 24 24     vmovdqa     xmmword ptr [rsp],xmm4
  00000000000025AF: 41 89 C6           mov         r14d,eax
  00000000000025B2: C5 F9 7F 6C 24 10  vmovdqa     xmmword ptr [rsp+10h],xmm5
  00000000000025B8: 89 DF              mov         edi,ebx
  00000000000025BA: C5 F9 7F 74 24 20  vmovdqa     xmmword ptr [rsp+20h],xmm6
  00000000000025C0: 31 CF              xor         edi,ecx
  00000000000025C2: C5 F9 7F 7C 24 30  vmovdqa     xmmword ptr [rsp+30h],xmm7
  00000000000025C8: 45 89 C5           mov         r13d,r8d
  00000000000025CB: E9 00 00 00 00     jmp         L$avx_00_47
L$avx_00_47:
  00000000000025D0: 48 83 ED 80        sub         rbp,0FFFFFFFFFFFFFF80h
  00000000000025D4: C4 E3 71 0F E0 04  vpalignr    xmm4,xmm1,xmm0,4
  00000000000025DA: 45 0F AC ED 0E     shrd        r13d,r13d,0Eh
  00000000000025DF: 44 89 F0           mov         eax,r14d
  00000000000025E2: 45 89 CC           mov         r12d,r9d
  00000000000025E5: C4 E3 61 0F FA 04  vpalignr    xmm7,xmm3,xmm2,4
  00000000000025EB: 45 0F AC F6 09     shrd        r14d,r14d,9
  00000000000025F0: 45 31 C5           xor         r13d,r8d
  00000000000025F3: 45 31 D4           xor         r12d,r10d
  00000000000025F6: C5 C9 72 D4 07     vpsrld      xmm6,xmm4,7
  00000000000025FB: 45 0F AC ED 05     shrd        r13d,r13d,5
  0000000000002600: 41 31 C6           xor         r14d,eax
  0000000000002603: 45 21 C4           and         r12d,r8d
  0000000000002606: C5 F9 FE C7        vpaddd      xmm0,xmm0,xmm7
  000000000000260A: 45 31 C5           xor         r13d,r8d
  000000000000260D: 44 03 1C 24        add         r11d,dword ptr [rsp]
  0000000000002611: 41 89 C7           mov         r15d,eax
  0000000000002614: C5 C1 72 D4 03     vpsrld      xmm7,xmm4,3
  0000000000002619: 45 31 D4           xor         r12d,r10d
  000000000000261C: 45 0F AC F6 0B     shrd        r14d,r14d,0Bh
  0000000000002621: 41 31 DF           xor         r15d,ebx
  0000000000002624: C5 D1 72 F4 0E     vpslld      xmm5,xmm4,0Eh
  0000000000002629: 45 01 E3           add         r11d,r12d
  000000000000262C: 45 0F AC ED 06     shrd        r13d,r13d,6
  0000000000002631: 44 21 FF           and         edi,r15d
  0000000000002634: C5 C1 EF E6        vpxor       xmm4,xmm7,xmm6
  0000000000002638: 41 31 C6           xor         r14d,eax
  000000000000263B: 45 01 EB           add         r11d,r13d
  000000000000263E: 31 DF              xor         edi,ebx
  0000000000002640: C5 F9 70 FB FA     vpshufd     xmm7,xmm3,0FAh
  0000000000002645: 45 0F AC F6 02     shrd        r14d,r14d,2
  000000000000264A: 44 01 DA           add         edx,r11d
  000000000000264D: 41 01 FB           add         r11d,edi
  0000000000002650: C5 C9 72 D6 0B     vpsrld      xmm6,xmm6,0Bh
  0000000000002655: 41 89 D5           mov         r13d,edx
  0000000000002658: 45 01 DE           add         r14d,r11d
  000000000000265B: 45 0F AC ED 0E     shrd        r13d,r13d,0Eh
  0000000000002660: C5 D9 EF E5        vpxor       xmm4,xmm4,xmm5
  0000000000002664: 45 89 F3           mov         r11d,r14d
  0000000000002667: 45 89 C4           mov         r12d,r8d
  000000000000266A: 45 0F AC F6 09     shrd        r14d,r14d,9
  000000000000266F: C5 D1 72 F5 0B     vpslld      xmm5,xmm5,0Bh
  0000000000002674: 41 31 D5           xor         r13d,edx
  0000000000002677: 45 31 CC           xor         r12d,r9d
  000000000000267A: 45 0F AC ED 05     shrd        r13d,r13d,5
  000000000000267F: C5 D9 EF E6        vpxor       xmm4,xmm4,xmm6
  0000000000002683: 45 31 DE           xor         r14d,r11d
  0000000000002686: 41 21 D4           and         r12d,edx
  0000000000002689: 41 31 D5           xor         r13d,edx
  000000000000268C: C5 C9 72 D7 0A     vpsrld      xmm6,xmm7,0Ah
  0000000000002691: 44 03 54 24 04     add         r10d,dword ptr [rsp+4]
  0000000000002696: 44 89 DF           mov         edi,r11d
  0000000000002699: 45 31 CC           xor         r12d,r9d
  000000000000269C: C5 D9 EF E5        vpxor       xmm4,xmm4,xmm5
  00000000000026A0: 45 0F AC F6 0B     shrd        r14d,r14d,0Bh
  00000000000026A5: 31 C7              xor         edi,eax
  00000000000026A7: 45 01 E2           add         r10d,r12d
  00000000000026AA: C5 C1 73 D7 11     vpsrlq      xmm7,xmm7,11h
  00000000000026AF: 45 0F AC ED 06     shrd        r13d,r13d,6
  00000000000026B4: 41 21 FF           and         r15d,edi
  00000000000026B7: 45 31 DE           xor         r14d,r11d
  00000000000026BA: C5 F9 FE C4        vpaddd      xmm0,xmm0,xmm4
  00000000000026BE: 45 01 EA           add         r10d,r13d
  00000000000026C1: 41 31 C7           xor         r15d,eax
  00000000000026C4: 45 0F AC F6 02     shrd        r14d,r14d,2
  00000000000026C9: C5 C9 EF F7        vpxor       xmm6,xmm6,xmm7
  00000000000026CD: 44 01 D1           add         ecx,r10d
  00000000000026D0: 45 01 FA           add         r10d,r15d
  00000000000026D3: 41 89 CD           mov         r13d,ecx
  00000000000026D6: C5 C1 73 D7 02     vpsrlq      xmm7,xmm7,2
  00000000000026DB: 45 01 D6           add         r14d,r10d
  00000000000026DE: 45 0F AC ED 0E     shrd        r13d,r13d,0Eh
  00000000000026E3: 45 89 F2           mov         r10d,r14d
  00000000000026E6: C5 C9 EF F7        vpxor       xmm6,xmm6,xmm7
  00000000000026EA: 41 89 D4           mov         r12d,edx
  00000000000026ED: 45 0F AC F6 09     shrd        r14d,r14d,9
  00000000000026F2: 41 31 CD           xor         r13d,ecx
  00000000000026F5: C4 C2 49 00 F0     vpshufb     xmm6,xmm6,xmm8
  00000000000026FA: 45 31 C4           xor         r12d,r8d
  00000000000026FD: 45 0F AC ED 05     shrd        r13d,r13d,5
  0000000000002702: 45 31 D6           xor         r14d,r10d
  0000000000002705: C5 F9 FE C6        vpaddd      xmm0,xmm0,xmm6
  0000000000002709: 41 21 CC           and         r12d,ecx
  000000000000270C: 41 31 CD           xor         r13d,ecx
  000000000000270F: 44 03 4C 24 08     add         r9d,dword ptr [rsp+8]
  0000000000002714: C5 F9 70 F8 50     vpshufd     xmm7,xmm0,50h
  0000000000002719: 45 89 D7           mov         r15d,r10d
  000000000000271C: 45 31 C4           xor         r12d,r8d
  000000000000271F: 45 0F AC F6 0B     shrd        r14d,r14d,0Bh
  0000000000002724: C5 C9 72 D7 0A     vpsrld      xmm6,xmm7,0Ah
  0000000000002729: 45 31 DF           xor         r15d,r11d
  000000000000272C: 45 01 E1           add         r9d,r12d
  000000000000272F: 45 0F AC ED 06     shrd        r13d,r13d,6
  0000000000002734: C5 C1 73 D7 11     vpsrlq      xmm7,xmm7,11h
  0000000000002739: 44 21 FF           and         edi,r15d
  000000000000273C: 45 31 D6           xor         r14d,r10d
  000000000000273F: 45 01 E9           add         r9d,r13d
  0000000000002742: C5 C9 EF F7        vpxor       xmm6,xmm6,xmm7
  0000000000002746: 44 31 DF           xor         edi,r11d
  0000000000002749: 45 0F AC F6 02     shrd        r14d,r14d,2
  000000000000274E: 44 01 CB           add         ebx,r9d
  0000000000002751: C5 C1 73 D7 02     vpsrlq      xmm7,xmm7,2
  0000000000002756: 41 01 F9           add         r9d,edi
  0000000000002759: 41 89 DD           mov         r13d,ebx
  000000000000275C: 45 01 CE           add         r14d,r9d
  000000000000275F: C5 C9 EF F7        vpxor       xmm6,xmm6,xmm7
  0000000000002763: 45 0F AC ED 0E     shrd        r13d,r13d,0Eh
  0000000000002768: 45 89 F1           mov         r9d,r14d
  000000000000276B: 41 89 CC           mov         r12d,ecx
  000000000000276E: C4 C2 49 00 F1     vpshufb     xmm6,xmm6,xmm9
  0000000000002773: 45 0F AC F6 09     shrd        r14d,r14d,9
  0000000000002778: 41 31 DD           xor         r13d,ebx
  000000000000277B: 41 31 D4           xor         r12d,edx
  000000000000277E: C5 F9 FE C6        vpaddd      xmm0,xmm0,xmm6
  0000000000002782: 45 0F AC ED 05     shrd        r13d,r13d,5
  0000000000002787: 45 31 CE           xor         r14d,r9d
  000000000000278A: 41 21 DC           and         r12d,ebx
  000000000000278D: C5 F9 FE 75 00     vpaddd      xmm6,xmm0,xmmword ptr [rbp]
  0000000000002792: 41 31 DD           xor         r13d,ebx
  0000000000002795: 44 03 44 24 0C     add         r8d,dword ptr [rsp+0Ch]
  000000000000279A: 44 89 CF           mov         edi,r9d
  000000000000279D: 41 31 D4           xor         r12d,edx
  00000000000027A0: 45 0F AC F6 0B     shrd        r14d,r14d,0Bh
  00000000000027A5: 44 31 D7           xor         edi,r10d
  00000000000027A8: 45 01 E0           add         r8d,r12d
  00000000000027AB: 45 0F AC ED 06     shrd        r13d,r13d,6
  00000000000027B0: 41 21 FF           and         r15d,edi
  00000000000027B3: 45 31 CE           xor         r14d,r9d
  00000000000027B6: 45 01 E8           add         r8d,r13d
  00000000000027B9: 45 31 D7           xor         r15d,r10d
  00000000000027BC: 45 0F AC F6 02     shrd        r14d,r14d,2
  00000000000027C1: 44 01 C0           add         eax,r8d
  00000000000027C4: 45 01 F8           add         r8d,r15d
  00000000000027C7: 41 89 C5           mov         r13d,eax
  00000000000027CA: 45 01 C6           add         r14d,r8d
  00000000000027CD: C5 F9 7F 34 24     vmovdqa     xmmword ptr [rsp],xmm6
  00000000000027D2: C4 E3 69 0F E1 04  vpalignr    xmm4,xmm2,xmm1,4
  00000000000027D8: 45 0F AC ED 0E     shrd        r13d,r13d,0Eh
  00000000000027DD: 45 89 F0           mov         r8d,r14d
  00000000000027E0: 41 89 DC           mov         r12d,ebx
  00000000000027E3: C4 E3 79 0F FB 04  vpalignr    xmm7,xmm0,xmm3,4
  00000000000027E9: 45 0F AC F6 09     shrd        r14d,r14d,9
  00000000000027EE: 41 31 C5           xor         r13d,eax
  00000000000027F1: 41 31 CC           xor         r12d,ecx
  00000000000027F4: C5 C9 72 D4 07     vpsrld      xmm6,xmm4,7
  00000000000027F9: 45 0F AC ED 05     shrd        r13d,r13d,5
  00000000000027FE: 45 31 C6           xor         r14d,r8d
  0000000000002801: 41 21 C4           and         r12d,eax
  0000000000002804: C5 F1 FE CF        vpaddd      xmm1,xmm1,xmm7
  0000000000002808: 41 31 C5           xor         r13d,eax
  000000000000280B: 03 54 24 10        add         edx,dword ptr [rsp+10h]
  000000000000280F: 45 89 C7           mov         r15d,r8d
  0000000000002812: C5 C1 72 D4 03     vpsrld      xmm7,xmm4,3
  0000000000002817: 41 31 CC           xor         r12d,ecx
  000000000000281A: 45 0F AC F6 0B     shrd        r14d,r14d,0Bh
  000000000000281F: 45 31 CF           xor         r15d,r9d
  0000000000002822: C5 D1 72 F4 0E     vpslld      xmm5,xmm4,0Eh
  0000000000002827: 44 01 E2           add         edx,r12d
  000000000000282A: 45 0F AC ED 06     shrd        r13d,r13d,6
  000000000000282F: 44 21 FF           and         edi,r15d
  0000000000002832: C5 C1 EF E6        vpxor       xmm4,xmm7,xmm6
  0000000000002836: 45 31 C6           xor         r14d,r8d
  0000000000002839: 44 01 EA           add         edx,r13d
  000000000000283C: 44 31 CF           xor         edi,r9d
  000000000000283F: C5 F9 70 F8 FA     vpshufd     xmm7,xmm0,0FAh
  0000000000002844: 45 0F AC F6 02     shrd        r14d,r14d,2
  0000000000002849: 41 01 D3           add         r11d,edx
  000000000000284C: 01 FA              add         edx,edi
  000000000000284E: C5 C9 72 D6 0B     vpsrld      xmm6,xmm6,0Bh
  0000000000002853: 45 89 DD           mov         r13d,r11d
  0000000000002856: 41 01 D6           add         r14d,edx
  0000000000002859: 45 0F AC ED 0E     shrd        r13d,r13d,0Eh
  000000000000285E: C5 D9 EF E5        vpxor       xmm4,xmm4,xmm5
  0000000000002862: 44 89 F2           mov         edx,r14d
  0000000000002865: 41 89 C4           mov         r12d,eax
  0000000000002868: 45 0F AC F6 09     shrd        r14d,r14d,9
  000000000000286D: C5 D1 72 F5 0B     vpslld      xmm5,xmm5,0Bh
  0000000000002872: 45 31 DD           xor         r13d,r11d
  0000000000002875: 41 31 DC           xor         r12d,ebx
  0000000000002878: 45 0F AC ED 05     shrd        r13d,r13d,5
  000000000000287D: C5 D9 EF E6        vpxor       xmm4,xmm4,xmm6
  0000000000002881: 41 31 D6           xor         r14d,edx
  0000000000002884: 45 21 DC           and         r12d,r11d
  0000000000002887: 45 31 DD           xor         r13d,r11d
  000000000000288A: C5 C9 72 D7 0A     vpsrld      xmm6,xmm7,0Ah
  000000000000288F: 03 4C 24 14        add         ecx,dword ptr [rsp+14h]
  0000000000002893: 89 D7              mov         edi,edx
  0000000000002895: 41 31 DC           xor         r12d,ebx
  0000000000002898: C5 D9 EF E5        vpxor       xmm4,xmm4,xmm5
  000000000000289C: 45 0F AC F6 0B     shrd        r14d,r14d,0Bh
  00000000000028A1: 44 31 C7           xor         edi,r8d
  00000000000028A4: 44 01 E1           add         ecx,r12d
  00000000000028A7: C5 C1 73 D7 11     vpsrlq      xmm7,xmm7,11h
  00000000000028AC: 45 0F AC ED 06     shrd        r13d,r13d,6
  00000000000028B1: 41 21 FF           and         r15d,edi
  00000000000028B4: 41 31 D6           xor         r14d,edx
  00000000000028B7: C5 F1 FE CC        vpaddd      xmm1,xmm1,xmm4
  00000000000028BB: 44 01 E9           add         ecx,r13d
  00000000000028BE: 45 31 C7           xor         r15d,r8d
  00000000000028C1: 45 0F AC F6 02     shrd        r14d,r14d,2
  00000000000028C6: C5 C9 EF F7        vpxor       xmm6,xmm6,xmm7
  00000000000028CA: 41 01 CA           add         r10d,ecx
  00000000000028CD: 44 01 F9           add         ecx,r15d
  00000000000028D0: 45 89 D5           mov         r13d,r10d
  00000000000028D3: C5 C1 73 D7 02     vpsrlq      xmm7,xmm7,2
  00000000000028D8: 41 01 CE           add         r14d,ecx
  00000000000028DB: 45 0F AC ED 0E     shrd        r13d,r13d,0Eh
  00000000000028E0: 44 89 F1           mov         ecx,r14d
  00000000000028E3: C5 C9 EF F7        vpxor       xmm6,xmm6,xmm7
  00000000000028E7: 45 89 DC           mov         r12d,r11d
  00000000000028EA: 45 0F AC F6 09     shrd        r14d,r14d,9
  00000000000028EF: 45 31 D5           xor         r13d,r10d
  00000000000028F2: C4 C2 49 00 F0     vpshufb     xmm6,xmm6,xmm8
  00000000000028F7: 41 31 C4           xor         r12d,eax
  00000000000028FA: 45 0F AC ED 05     shrd        r13d,r13d,5
  00000000000028FF: 41 31 CE           xor         r14d,ecx
  0000000000002902: C5 F1 FE CE        vpaddd      xmm1,xmm1,xmm6
  0000000000002906: 45 21 D4           and         r12d,r10d
  0000000000002909: 45 31 D5           xor         r13d,r10d
  000000000000290C: 03 5C 24 18        add         ebx,dword ptr [rsp+18h]
  0000000000002910: C5 F9 70 F9 50     vpshufd     xmm7,xmm1,50h
  0000000000002915: 41 89 CF           mov         r15d,ecx
  0000000000002918: 41 31 C4           xor         r12d,eax
  000000000000291B: 45 0F AC F6 0B     shrd        r14d,r14d,0Bh
  0000000000002920: C5 C9 72 D7 0A     vpsrld      xmm6,xmm7,0Ah
  0000000000002925: 41 31 D7           xor         r15d,edx
  0000000000002928: 44 01 E3           add         ebx,r12d
  000000000000292B: 45 0F AC ED 06     shrd        r13d,r13d,6
  0000000000002930: C5 C1 73 D7 11     vpsrlq      xmm7,xmm7,11h
  0000000000002935: 44 21 FF           and         edi,r15d
  0000000000002938: 41 31 CE           xor         r14d,ecx
  000000000000293B: 44 01 EB           add         ebx,r13d
  000000000000293E: C5 C9 EF F7        vpxor       xmm6,xmm6,xmm7
  0000000000002942: 31 D7              xor         edi,edx
  0000000000002944: 45 0F AC F6 02     shrd        r14d,r14d,2
  0000000000002949: 41 01 D9           add         r9d,ebx
  000000000000294C: C5 C1 73 D7 02     vpsrlq      xmm7,xmm7,2
  0000000000002951: 01 FB              add         ebx,edi
  0000000000002953: 45 89 CD           mov         r13d,r9d
  0000000000002956: 41 01 DE           add         r14d,ebx
  0000000000002959: C5 C9 EF F7        vpxor       xmm6,xmm6,xmm7
  000000000000295D: 45 0F AC ED 0E     shrd        r13d,r13d,0Eh
  0000000000002962: 44 89 F3           mov         ebx,r14d
  0000000000002965: 45 89 D4           mov         r12d,r10d
  0000000000002968: C4 C2 49 00 F1     vpshufb     xmm6,xmm6,xmm9
  000000000000296D: 45 0F AC F6 09     shrd        r14d,r14d,9
  0000000000002972: 45 31 CD           xor         r13d,r9d
  0000000000002975: 45 31 DC           xor         r12d,r11d
  0000000000002978: C5 F1 FE CE        vpaddd      xmm1,xmm1,xmm6
  000000000000297C: 45 0F AC ED 05     shrd        r13d,r13d,5
  0000000000002981: 41 31 DE           xor         r14d,ebx
  0000000000002984: 45 21 CC           and         r12d,r9d
  0000000000002987: C5 F1 FE 75 20     vpaddd      xmm6,xmm1,xmmword ptr [rbp+20h]
  000000000000298C: 45 31 CD           xor         r13d,r9d
  000000000000298F: 03 44 24 1C        add         eax,dword ptr [rsp+1Ch]
  0000000000002993: 89 DF              mov         edi,ebx
  0000000000002995: 45 31 DC           xor         r12d,r11d
  0000000000002998: 45 0F AC F6 0B     shrd        r14d,r14d,0Bh
  000000000000299D: 31 CF              xor         edi,ecx
  000000000000299F: 44 01 E0           add         eax,r12d
  00000000000029A2: 45 0F AC ED 06     shrd        r13d,r13d,6
  00000000000029A7: 41 21 FF           and         r15d,edi
  00000000000029AA: 41 31 DE           xor         r14d,ebx
  00000000000029AD: 44 01 E8           add         eax,r13d
  00000000000029B0: 41 31 CF           xor         r15d,ecx
  00000000000029B3: 45 0F AC F6 02     shrd        r14d,r14d,2
  00000000000029B8: 41 01 C0           add         r8d,eax
  00000000000029BB: 44 01 F8           add         eax,r15d
  00000000000029BE: 45 89 C5           mov         r13d,r8d
  00000000000029C1: 41 01 C6           add         r14d,eax
  00000000000029C4: C5 F9 7F 74 24 10  vmovdqa     xmmword ptr [rsp+10h],xmm6
  00000000000029CA: C4 E3 61 0F E2 04  vpalignr    xmm4,xmm3,xmm2,4
  00000000000029D0: 45 0F AC ED 0E     shrd        r13d,r13d,0Eh
  00000000000029D5: 44 89 F0           mov         eax,r14d
  00000000000029D8: 45 89 CC           mov         r12d,r9d
  00000000000029DB: C4 E3 71 0F F8 04  vpalignr    xmm7,xmm1,xmm0,4
  00000000000029E1: 45 0F AC F6 09     shrd        r14d,r14d,9
  00000000000029E6: 45 31 C5           xor         r13d,r8d
  00000000000029E9: 45 31 D4           xor         r12d,r10d
  00000000000029EC: C5 C9 72 D4 07     vpsrld      xmm6,xmm4,7
  00000000000029F1: 45 0F AC ED 05     shrd        r13d,r13d,5
  00000000000029F6: 41 31 C6           xor         r14d,eax
  00000000000029F9: 45 21 C4           and         r12d,r8d
  00000000000029FC: C5 E9 FE D7        vpaddd      xmm2,xmm2,xmm7
  0000000000002A00: 45 31 C5           xor         r13d,r8d
  0000000000002A03: 44 03 5C 24 20     add         r11d,dword ptr [rsp+20h]
  0000000000002A08: 41 89 C7           mov         r15d,eax
  0000000000002A0B: C5 C1 72 D4 03     vpsrld      xmm7,xmm4,3
  0000000000002A10: 45 31 D4           xor         r12d,r10d
  0000000000002A13: 45 0F AC F6 0B     shrd        r14d,r14d,0Bh
  0000000000002A18: 41 31 DF           xor         r15d,ebx
  0000000000002A1B: C5 D1 72 F4 0E     vpslld      xmm5,xmm4,0Eh
  0000000000002A20: 45 01 E3           add         r11d,r12d
  0000000000002A23: 45 0F AC ED 06     shrd        r13d,r13d,6
  0000000000002A28: 44 21 FF           and         edi,r15d
  0000000000002A2B: C5 C1 EF E6        vpxor       xmm4,xmm7,xmm6
  0000000000002A2F: 41 31 C6           xor         r14d,eax
  0000000000002A32: 45 01 EB           add         r11d,r13d
  0000000000002A35: 31 DF              xor         edi,ebx
  0000000000002A37: C5 F9 70 F9 FA     vpshufd     xmm7,xmm1,0FAh
  0000000000002A3C: 45 0F AC F6 02     shrd        r14d,r14d,2
  0000000000002A41: 44 01 DA           add         edx,r11d
  0000000000002A44: 41 01 FB           add         r11d,edi
  0000000000002A47: C5 C9 72 D6 0B     vpsrld      xmm6,xmm6,0Bh
  0000000000002A4C: 41 89 D5           mov         r13d,edx
  0000000000002A4F: 45 01 DE           add         r14d,r11d
  0000000000002A52: 45 0F AC ED 0E     shrd        r13d,r13d,0Eh
  0000000000002A57: C5 D9 EF E5        vpxor       xmm4,xmm4,xmm5
  0000000000002A5B: 45 89 F3           mov         r11d,r14d
  0000000000002A5E: 45 89 C4           mov         r12d,r8d
  0000000000002A61: 45 0F AC F6 09     shrd        r14d,r14d,9
  0000000000002A66: C5 D1 72 F5 0B     vpslld      xmm5,xmm5,0Bh
  0000000000002A6B: 41 31 D5           xor         r13d,edx
  0000000000002A6E: 45 31 CC           xor         r12d,r9d
  0000000000002A71: 45 0F AC ED 05     shrd        r13d,r13d,5
  0000000000002A76: C5 D9 EF E6        vpxor       xmm4,xmm4,xmm6
  0000000000002A7A: 45 31 DE           xor         r14d,r11d
  0000000000002A7D: 41 21 D4           and         r12d,edx
  0000000000002A80: 41 31 D5           xor         r13d,edx
  0000000000002A83: C5 C9 72 D7 0A     vpsrld      xmm6,xmm7,0Ah
  0000000000002A88: 44 03 54 24 24     add         r10d,dword ptr [rsp+24h]
  0000000000002A8D: 44 89 DF           mov         edi,r11d
  0000000000002A90: 45 31 CC           xor         r12d,r9d
  0000000000002A93: C5 D9 EF E5        vpxor       xmm4,xmm4,xmm5
  0000000000002A97: 45 0F AC F6 0B     shrd        r14d,r14d,0Bh
  0000000000002A9C: 31 C7              xor         edi,eax
  0000000000002A9E: 45 01 E2           add         r10d,r12d
  0000000000002AA1: C5 C1 73 D7 11     vpsrlq      xmm7,xmm7,11h
  0000000000002AA6: 45 0F AC ED 06     shrd        r13d,r13d,6
  0000000000002AAB: 41 21 FF           and         r15d,edi
  0000000000002AAE: 45 31 DE           xor         r14d,r11d
  0000000000002AB1: C5 E9 FE D4        vpaddd      xmm2,xmm2,xmm4
  0000000000002AB5: 45 01 EA           add         r10d,r13d
  0000000000002AB8: 41 31 C7           xor         r15d,eax
  0000000000002ABB: 45 0F AC F6 02     shrd        r14d,r14d,2
  0000000000002AC0: C5 C9 EF F7        vpxor       xmm6,xmm6,xmm7
  0000000000002AC4: 44 01 D1           add         ecx,r10d
  0000000000002AC7: 45 01 FA           add         r10d,r15d
  0000000000002ACA: 41 89 CD           mov         r13d,ecx
  0000000000002ACD: C5 C1 73 D7 02     vpsrlq      xmm7,xmm7,2
  0000000000002AD2: 45 01 D6           add         r14d,r10d
  0000000000002AD5: 45 0F AC ED 0E     shrd        r13d,r13d,0Eh
  0000000000002ADA: 45 89 F2           mov         r10d,r14d
  0000000000002ADD: C5 C9 EF F7        vpxor       xmm6,xmm6,xmm7
  0000000000002AE1: 41 89 D4           mov         r12d,edx
  0000000000002AE4: 45 0F AC F6 09     shrd        r14d,r14d,9
  0000000000002AE9: 41 31 CD           xor         r13d,ecx
  0000000000002AEC: C4 C2 49 00 F0     vpshufb     xmm6,xmm6,xmm8
  0000000000002AF1: 45 31 C4           xor         r12d,r8d
  0000000000002AF4: 45 0F AC ED 05     shrd        r13d,r13d,5
  0000000000002AF9: 45 31 D6           xor         r14d,r10d
  0000000000002AFC: C5 E9 FE D6        vpaddd      xmm2,xmm2,xmm6
  0000000000002B00: 41 21 CC           and         r12d,ecx
  0000000000002B03: 41 31 CD           xor         r13d,ecx
  0000000000002B06: 44 03 4C 24 28     add         r9d,dword ptr [rsp+28h]
  0000000000002B0B: C5 F9 70 FA 50     vpshufd     xmm7,xmm2,50h
  0000000000002B10: 45 89 D7           mov         r15d,r10d
  0000000000002B13: 45 31 C4           xor         r12d,r8d
  0000000000002B16: 45 0F AC F6 0B     shrd        r14d,r14d,0Bh
  0000000000002B1B: C5 C9 72 D7 0A     vpsrld      xmm6,xmm7,0Ah
  0000000000002B20: 45 31 DF           xor         r15d,r11d
  0000000000002B23: 45 01 E1           add         r9d,r12d
  0000000000002B26: 45 0F AC ED 06     shrd        r13d,r13d,6
  0000000000002B2B: C5 C1 73 D7 11     vpsrlq      xmm7,xmm7,11h
  0000000000002B30: 44 21 FF           and         edi,r15d
  0000000000002B33: 45 31 D6           xor         r14d,r10d
  0000000000002B36: 45 01 E9           add         r9d,r13d
  0000000000002B39: C5 C9 EF F7        vpxor       xmm6,xmm6,xmm7
  0000000000002B3D: 44 31 DF           xor         edi,r11d
  0000000000002B40: 45 0F AC F6 02     shrd        r14d,r14d,2
  0000000000002B45: 44 01 CB           add         ebx,r9d
  0000000000002B48: C5 C1 73 D7 02     vpsrlq      xmm7,xmm7,2
  0000000000002B4D: 41 01 F9           add         r9d,edi
  0000000000002B50: 41 89 DD           mov         r13d,ebx
  0000000000002B53: 45 01 CE           add         r14d,r9d
  0000000000002B56: C5 C9 EF F7        vpxor       xmm6,xmm6,xmm7
  0000000000002B5A: 45 0F AC ED 0E     shrd        r13d,r13d,0Eh
  0000000000002B5F: 45 89 F1           mov         r9d,r14d
  0000000000002B62: 41 89 CC           mov         r12d,ecx
  0000000000002B65: C4 C2 49 00 F1     vpshufb     xmm6,xmm6,xmm9
  0000000000002B6A: 45 0F AC F6 09     shrd        r14d,r14d,9
  0000000000002B6F: 41 31 DD           xor         r13d,ebx
  0000000000002B72: 41 31 D4           xor         r12d,edx
  0000000000002B75: C5 E9 FE D6        vpaddd      xmm2,xmm2,xmm6
  0000000000002B79: 45 0F AC ED 05     shrd        r13d,r13d,5
  0000000000002B7E: 45 31 CE           xor         r14d,r9d
  0000000000002B81: 41 21 DC           and         r12d,ebx
  0000000000002B84: C5 E9 FE 75 40     vpaddd      xmm6,xmm2,xmmword ptr [rbp+40h]
  0000000000002B89: 41 31 DD           xor         r13d,ebx
  0000000000002B8C: 44 03 44 24 2C     add         r8d,dword ptr [rsp+2Ch]
  0000000000002B91: 44 89 CF           mov         edi,r9d
  0000000000002B94: 41 31 D4           xor         r12d,edx
  0000000000002B97: 45 0F AC F6 0B     shrd        r14d,r14d,0Bh
  0000000000002B9C: 44 31 D7           xor         edi,r10d
  0000000000002B9F: 45 01 E0           add         r8d,r12d
  0000000000002BA2: 45 0F AC ED 06     shrd        r13d,r13d,6
  0000000000002BA7: 41 21 FF           and         r15d,edi
  0000000000002BAA: 45 31 CE           xor         r14d,r9d
  0000000000002BAD: 45 01 E8           add         r8d,r13d
  0000000000002BB0: 45 31 D7           xor         r15d,r10d
  0000000000002BB3: 45 0F AC F6 02     shrd        r14d,r14d,2
  0000000000002BB8: 44 01 C0           add         eax,r8d
  0000000000002BBB: 45 01 F8           add         r8d,r15d
  0000000000002BBE: 41 89 C5           mov         r13d,eax
  0000000000002BC1: 45 01 C6           add         r14d,r8d
  0000000000002BC4: C5 F9 7F 74 24 20  vmovdqa     xmmword ptr [rsp+20h],xmm6
  0000000000002BCA: C4 E3 79 0F E3 04  vpalignr    xmm4,xmm0,xmm3,4
  0000000000002BD0: 45 0F AC ED 0E     shrd        r13d,r13d,0Eh
  0000000000002BD5: 45 89 F0           mov         r8d,r14d
  0000000000002BD8: 41 89 DC           mov         r12d,ebx
  0000000000002BDB: C4 E3 69 0F F9 04  vpalignr    xmm7,xmm2,xmm1,4
  0000000000002BE1: 45 0F AC F6 09     shrd        r14d,r14d,9
  0000000000002BE6: 41 31 C5           xor         r13d,eax
  0000000000002BE9: 41 31 CC           xor         r12d,ecx
  0000000000002BEC: C5 C9 72 D4 07     vpsrld      xmm6,xmm4,7
  0000000000002BF1: 45 0F AC ED 05     shrd        r13d,r13d,5
  0000000000002BF6: 45 31 C6           xor         r14d,r8d
  0000000000002BF9: 41 21 C4           and         r12d,eax
  0000000000002BFC: C5 E1 FE DF        vpaddd      xmm3,xmm3,xmm7
  0000000000002C00: 41 31 C5           xor         r13d,eax
  0000000000002C03: 03 54 24 30        add         edx,dword ptr [rsp+30h]
  0000000000002C07: 45 89 C7           mov         r15d,r8d
  0000000000002C0A: C5 C1 72 D4 03     vpsrld      xmm7,xmm4,3
  0000000000002C0F: 41 31 CC           xor         r12d,ecx
  0000000000002C12: 45 0F AC F6 0B     shrd        r14d,r14d,0Bh
  0000000000002C17: 45 31 CF           xor         r15d,r9d
  0000000000002C1A: C5 D1 72 F4 0E     vpslld      xmm5,xmm4,0Eh
  0000000000002C1F: 44 01 E2           add         edx,r12d
  0000000000002C22: 45 0F AC ED 06     shrd        r13d,r13d,6
  0000000000002C27: 44 21 FF           and         edi,r15d
  0000000000002C2A: C5 C1 EF E6        vpxor       xmm4,xmm7,xmm6
  0000000000002C2E: 45 31 C6           xor         r14d,r8d
  0000000000002C31: 44 01 EA           add         edx,r13d
  0000000000002C34: 44 31 CF           xor         edi,r9d
  0000000000002C37: C5 F9 70 FA FA     vpshufd     xmm7,xmm2,0FAh
  0000000000002C3C: 45 0F AC F6 02     shrd        r14d,r14d,2
  0000000000002C41: 41 01 D3           add         r11d,edx
  0000000000002C44: 01 FA              add         edx,edi
  0000000000002C46: C5 C9 72 D6 0B     vpsrld      xmm6,xmm6,0Bh
  0000000000002C4B: 45 89 DD           mov         r13d,r11d
  0000000000002C4E: 41 01 D6           add         r14d,edx
  0000000000002C51: 45 0F AC ED 0E     shrd        r13d,r13d,0Eh
  0000000000002C56: C5 D9 EF E5        vpxor       xmm4,xmm4,xmm5
  0000000000002C5A: 44 89 F2           mov         edx,r14d
  0000000000002C5D: 41 89 C4           mov         r12d,eax
  0000000000002C60: 45 0F AC F6 09     shrd        r14d,r14d,9
  0000000000002C65: C5 D1 72 F5 0B     vpslld      xmm5,xmm5,0Bh
  0000000000002C6A: 45 31 DD           xor         r13d,r11d
  0000000000002C6D: 41 31 DC           xor         r12d,ebx
  0000000000002C70: 45 0F AC ED 05     shrd        r13d,r13d,5
  0000000000002C75: C5 D9 EF E6        vpxor       xmm4,xmm4,xmm6
  0000000000002C79: 41 31 D6           xor         r14d,edx
  0000000000002C7C: 45 21 DC           and         r12d,r11d
  0000000000002C7F: 45 31 DD           xor         r13d,r11d
  0000000000002C82: C5 C9 72 D7 0A     vpsrld      xmm6,xmm7,0Ah
  0000000000002C87: 03 4C 24 34        add         ecx,dword ptr [rsp+34h]
  0000000000002C8B: 89 D7              mov         edi,edx
  0000000000002C8D: 41 31 DC           xor         r12d,ebx
  0000000000002C90: C5 D9 EF E5        vpxor       xmm4,xmm4,xmm5
  0000000000002C94: 45 0F AC F6 0B     shrd        r14d,r14d,0Bh
  0000000000002C99: 44 31 C7           xor         edi,r8d
  0000000000002C9C: 44 01 E1           add         ecx,r12d
  0000000000002C9F: C5 C1 73 D7 11     vpsrlq      xmm7,xmm7,11h
  0000000000002CA4: 45 0F AC ED 06     shrd        r13d,r13d,6
  0000000000002CA9: 41 21 FF           and         r15d,edi
  0000000000002CAC: 41 31 D6           xor         r14d,edx
  0000000000002CAF: C5 E1 FE DC        vpaddd      xmm3,xmm3,xmm4
  0000000000002CB3: 44 01 E9           add         ecx,r13d
  0000000000002CB6: 45 31 C7           xor         r15d,r8d
  0000000000002CB9: 45 0F AC F6 02     shrd        r14d,r14d,2
  0000000000002CBE: C5 C9 EF F7        vpxor       xmm6,xmm6,xmm7
  0000000000002CC2: 41 01 CA           add         r10d,ecx
  0000000000002CC5: 44 01 F9           add         ecx,r15d
  0000000000002CC8: 45 89 D5           mov         r13d,r10d
  0000000000002CCB: C5 C1 73 D7 02     vpsrlq      xmm7,xmm7,2
  0000000000002CD0: 41 01 CE           add         r14d,ecx
  0000000000002CD3: 45 0F AC ED 0E     shrd        r13d,r13d,0Eh
  0000000000002CD8: 44 89 F1           mov         ecx,r14d
  0000000000002CDB: C5 C9 EF F7        vpxor       xmm6,xmm6,xmm7
  0000000000002CDF: 45 89 DC           mov         r12d,r11d
  0000000000002CE2: 45 0F AC F6 09     shrd        r14d,r14d,9
  0000000000002CE7: 45 31 D5           xor         r13d,r10d
  0000000000002CEA: C4 C2 49 00 F0     vpshufb     xmm6,xmm6,xmm8
  0000000000002CEF: 41 31 C4           xor         r12d,eax
  0000000000002CF2: 45 0F AC ED 05     shrd        r13d,r13d,5
  0000000000002CF7: 41 31 CE           xor         r14d,ecx
  0000000000002CFA: C5 E1 FE DE        vpaddd      xmm3,xmm3,xmm6
  0000000000002CFE: 45 21 D4           and         r12d,r10d
  0000000000002D01: 45 31 D5           xor         r13d,r10d
  0000000000002D04: 03 5C 24 38        add         ebx,dword ptr [rsp+38h]
  0000000000002D08: C5 F9 70 FB 50     vpshufd     xmm7,xmm3,50h
  0000000000002D0D: 41 89 CF           mov         r15d,ecx
  0000000000002D10: 41 31 C4           xor         r12d,eax
  0000000000002D13: 45 0F AC F6 0B     shrd        r14d,r14d,0Bh
  0000000000002D18: C5 C9 72 D7 0A     vpsrld      xmm6,xmm7,0Ah
  0000000000002D1D: 41 31 D7           xor         r15d,edx
  0000000000002D20: 44 01 E3           add         ebx,r12d
  0000000000002D23: 45 0F AC ED 06     shrd        r13d,r13d,6
  0000000000002D28: C5 C1 73 D7 11     vpsrlq      xmm7,xmm7,11h
  0000000000002D2D: 44 21 FF           and         edi,r15d
  0000000000002D30: 41 31 CE           xor         r14d,ecx
  0000000000002D33: 44 01 EB           add         ebx,r13d
  0000000000002D36: C5 C9 EF F7        vpxor       xmm6,xmm6,xmm7
  0000000000002D3A: 31 D7              xor         edi,edx
  0000000000002D3C: 45 0F AC F6 02     shrd        r14d,r14d,2
  0000000000002D41: 41 01 D9           add         r9d,ebx
  0000000000002D44: C5 C1 73 D7 02     vpsrlq      xmm7,xmm7,2
  0000000000002D49: 01 FB              add         ebx,edi
  0000000000002D4B: 45 89 CD           mov         r13d,r9d
  0000000000002D4E: 41 01 DE           add         r14d,ebx
  0000000000002D51: C5 C9 EF F7        vpxor       xmm6,xmm6,xmm7
  0000000000002D55: 45 0F AC ED 0E     shrd        r13d,r13d,0Eh
  0000000000002D5A: 44 89 F3           mov         ebx,r14d
  0000000000002D5D: 45 89 D4           mov         r12d,r10d
  0000000000002D60: C4 C2 49 00 F1     vpshufb     xmm6,xmm6,xmm9
  0000000000002D65: 45 0F AC F6 09     shrd        r14d,r14d,9
  0000000000002D6A: 45 31 CD           xor         r13d,r9d
  0000000000002D6D: 45 31 DC           xor         r12d,r11d
  0000000000002D70: C5 E1 FE DE        vpaddd      xmm3,xmm3,xmm6
  0000000000002D74: 45 0F AC ED 05     shrd        r13d,r13d,5
  0000000000002D79: 41 31 DE           xor         r14d,ebx
  0000000000002D7C: 45 21 CC           and         r12d,r9d
  0000000000002D7F: C5 E1 FE 75 60     vpaddd      xmm6,xmm3,xmmword ptr [rbp+60h]
  0000000000002D84: 45 31 CD           xor         r13d,r9d
  0000000000002D87: 03 44 24 3C        add         eax,dword ptr [rsp+3Ch]
  0000000000002D8B: 89 DF              mov         edi,ebx
  0000000000002D8D: 45 31 DC           xor         r12d,r11d
  0000000000002D90: 45 0F AC F6 0B     shrd        r14d,r14d,0Bh
  0000000000002D95: 31 CF              xor         edi,ecx
  0000000000002D97: 44 01 E0           add         eax,r12d
  0000000000002D9A: 45 0F AC ED 06     shrd        r13d,r13d,6
  0000000000002D9F: 41 21 FF           and         r15d,edi
  0000000000002DA2: 41 31 DE           xor         r14d,ebx
  0000000000002DA5: 44 01 E8           add         eax,r13d
  0000000000002DA8: 41 31 CF           xor         r15d,ecx
  0000000000002DAB: 45 0F AC F6 02     shrd        r14d,r14d,2
  0000000000002DB0: 41 01 C0           add         r8d,eax
  0000000000002DB3: 44 01 F8           add         eax,r15d
  0000000000002DB6: 45 89 C5           mov         r13d,r8d
  0000000000002DB9: 41 01 C6           add         r14d,eax
  0000000000002DBC: C5 F9 7F 74 24 30  vmovdqa     xmmword ptr [rsp+30h],xmm6
  0000000000002DC2: 80 BD 83 00 00 00  cmp         byte ptr [rbp+83h],0
                    00
  0000000000002DC9: 0F 85 01 F8 FF FF  jne         L$avx_00_47
  0000000000002DCF: 45 0F AC ED 0E     shrd        r13d,r13d,0Eh
  0000000000002DD4: 44 89 F0           mov         eax,r14d
  0000000000002DD7: 45 89 CC           mov         r12d,r9d
  0000000000002DDA: 45 0F AC F6 09     shrd        r14d,r14d,9
  0000000000002DDF: 45 31 C5           xor         r13d,r8d
  0000000000002DE2: 45 31 D4           xor         r12d,r10d
  0000000000002DE5: 45 0F AC ED 05     shrd        r13d,r13d,5
  0000000000002DEA: 41 31 C6           xor         r14d,eax
  0000000000002DED: 45 21 C4           and         r12d,r8d
  0000000000002DF0: 45 31 C5           xor         r13d,r8d
  0000000000002DF3: 44 03 1C 24        add         r11d,dword ptr [rsp]
  0000000000002DF7: 41 89 C7           mov         r15d,eax
  0000000000002DFA: 45 31 D4           xor         r12d,r10d
  0000000000002DFD: 45 0F AC F6 0B     shrd        r14d,r14d,0Bh
  0000000000002E02: 41 31 DF           xor         r15d,ebx
  0000000000002E05: 45 01 E3           add         r11d,r12d
  0000000000002E08: 45 0F AC ED 06     shrd        r13d,r13d,6
  0000000000002E0D: 44 21 FF           and         edi,r15d
  0000000000002E10: 41 31 C6           xor         r14d,eax
  0000000000002E13: 45 01 EB           add         r11d,r13d
  0000000000002E16: 31 DF              xor         edi,ebx
  0000000000002E18: 45 0F AC F6 02     shrd        r14d,r14d,2
  0000000000002E1D: 44 01 DA           add         edx,r11d
  0000000000002E20: 41 01 FB           add         r11d,edi
  0000000000002E23: 41 89 D5           mov         r13d,edx
  0000000000002E26: 45 01 DE           add         r14d,r11d
  0000000000002E29: 45 0F AC ED 0E     shrd        r13d,r13d,0Eh
  0000000000002E2E: 45 89 F3           mov         r11d,r14d
  0000000000002E31: 45 89 C4           mov         r12d,r8d
  0000000000002E34: 45 0F AC F6 09     shrd        r14d,r14d,9
  0000000000002E39: 41 31 D5           xor         r13d,edx
  0000000000002E3C: 45 31 CC           xor         r12d,r9d
  0000000000002E3F: 45 0F AC ED 05     shrd        r13d,r13d,5
  0000000000002E44: 45 31 DE           xor         r14d,r11d
  0000000000002E47: 41 21 D4           and         r12d,edx
  0000000000002E4A: 41 31 D5           xor         r13d,edx
  0000000000002E4D: 44 03 54 24 04     add         r10d,dword ptr [rsp+4]
  0000000000002E52: 44 89 DF           mov         edi,r11d
  0000000000002E55: 45 31 CC           xor         r12d,r9d
  0000000000002E58: 45 0F AC F6 0B     shrd        r14d,r14d,0Bh
  0000000000002E5D: 31 C7              xor         edi,eax
  0000000000002E5F: 45 01 E2           add         r10d,r12d
  0000000000002E62: 45 0F AC ED 06     shrd        r13d,r13d,6
  0000000000002E67: 41 21 FF           and         r15d,edi
  0000000000002E6A: 45 31 DE           xor         r14d,r11d
  0000000000002E6D: 45 01 EA           add         r10d,r13d
  0000000000002E70: 41 31 C7           xor         r15d,eax
  0000000000002E73: 45 0F AC F6 02     shrd        r14d,r14d,2
  0000000000002E78: 44 01 D1           add         ecx,r10d
  0000000000002E7B: 45 01 FA           add         r10d,r15d
  0000000000002E7E: 41 89 CD           mov         r13d,ecx
  0000000000002E81: 45 01 D6           add         r14d,r10d
  0000000000002E84: 45 0F AC ED 0E     shrd        r13d,r13d,0Eh
  0000000000002E89: 45 89 F2           mov         r10d,r14d
  0000000000002E8C: 41 89 D4           mov         r12d,edx
  0000000000002E8F: 45 0F AC F6 09     shrd        r14d,r14d,9
  0000000000002E94: 41 31 CD           xor         r13d,ecx
  0000000000002E97: 45 31 C4           xor         r12d,r8d
  0000000000002E9A: 45 0F AC ED 05     shrd        r13d,r13d,5
  0000000000002E9F: 45 31 D6           xor         r14d,r10d
  0000000000002EA2: 41 21 CC           and         r12d,ecx
  0000000000002EA5: 41 31 CD           xor         r13d,ecx
  0000000000002EA8: 44 03 4C 24 08     add         r9d,dword ptr [rsp+8]
  0000000000002EAD: 45 89 D7           mov         r15d,r10d
  0000000000002EB0: 45 31 C4           xor         r12d,r8d
  0000000000002EB3: 45 0F AC F6 0B     shrd        r14d,r14d,0Bh
  0000000000002EB8: 45 31 DF           xor         r15d,r11d
  0000000000002EBB: 45 01 E1           add         r9d,r12d
  0000000000002EBE: 45 0F AC ED 06     shrd        r13d,r13d,6
  0000000000002EC3: 44 21 FF           and         edi,r15d
  0000000000002EC6: 45 31 D6           xor         r14d,r10d
  0000000000002EC9: 45 01 E9           add         r9d,r13d
  0000000000002ECC: 44 31 DF           xor         edi,r11d
  0000000000002ECF: 45 0F AC F6 02     shrd        r14d,r14d,2
  0000000000002ED4: 44 01 CB           add         ebx,r9d
  0000000000002ED7: 41 01 F9           add         r9d,edi
  0000000000002EDA: 41 89 DD           mov         r13d,ebx
  0000000000002EDD: 45 01 CE           add         r14d,r9d
  0000000000002EE0: 45 0F AC ED 0E     shrd        r13d,r13d,0Eh
  0000000000002EE5: 45 89 F1           mov         r9d,r14d
  0000000000002EE8: 41 89 CC           mov         r12d,ecx
  0000000000002EEB: 45 0F AC F6 09     shrd        r14d,r14d,9
  0000000000002EF0: 41 31 DD           xor         r13d,ebx
  0000000000002EF3: 41 31 D4           xor         r12d,edx
  0000000000002EF6: 45 0F AC ED 05     shrd        r13d,r13d,5
  0000000000002EFB: 45 31 CE           xor         r14d,r9d
  0000000000002EFE: 41 21 DC           and         r12d,ebx
  0000000000002F01: 41 31 DD           xor         r13d,ebx
  0000000000002F04: 44 03 44 24 0C     add         r8d,dword ptr [rsp+0Ch]
  0000000000002F09: 44 89 CF           mov         edi,r9d
  0000000000002F0C: 41 31 D4           xor         r12d,edx
  0000000000002F0F: 45 0F AC F6 0B     shrd        r14d,r14d,0Bh
  0000000000002F14: 44 31 D7           xor         edi,r10d
  0000000000002F17: 45 01 E0           add         r8d,r12d
  0000000000002F1A: 45 0F AC ED 06     shrd        r13d,r13d,6
  0000000000002F1F: 41 21 FF           and         r15d,edi
  0000000000002F22: 45 31 CE           xor         r14d,r9d
  0000000000002F25: 45 01 E8           add         r8d,r13d
  0000000000002F28: 45 31 D7           xor         r15d,r10d
  0000000000002F2B: 45 0F AC F6 02     shrd        r14d,r14d,2
  0000000000002F30: 44 01 C0           add         eax,r8d
  0000000000002F33: 45 01 F8           add         r8d,r15d
  0000000000002F36: 41 89 C5           mov         r13d,eax
  0000000000002F39: 45 01 C6           add         r14d,r8d
  0000000000002F3C: 45 0F AC ED 0E     shrd        r13d,r13d,0Eh
  0000000000002F41: 45 89 F0           mov         r8d,r14d
  0000000000002F44: 41 89 DC           mov         r12d,ebx
  0000000000002F47: 45 0F AC F6 09     shrd        r14d,r14d,9
  0000000000002F4C: 41 31 C5           xor         r13d,eax
  0000000000002F4F: 41 31 CC           xor         r12d,ecx
  0000000000002F52: 45 0F AC ED 05     shrd        r13d,r13d,5
  0000000000002F57: 45 31 C6           xor         r14d,r8d
  0000000000002F5A: 41 21 C4           and         r12d,eax
  0000000000002F5D: 41 31 C5           xor         r13d,eax
  0000000000002F60: 03 54 24 10        add         edx,dword ptr [rsp+10h]
  0000000000002F64: 45 89 C7           mov         r15d,r8d
  0000000000002F67: 41 31 CC           xor         r12d,ecx
  0000000000002F6A: 45 0F AC F6 0B     shrd        r14d,r14d,0Bh
  0000000000002F6F: 45 31 CF           xor         r15d,r9d
  0000000000002F72: 44 01 E2           add         edx,r12d
  0000000000002F75: 45 0F AC ED 06     shrd        r13d,r13d,6
  0000000000002F7A: 44 21 FF           and         edi,r15d
  0000000000002F7D: 45 31 C6           xor         r14d,r8d
  0000000000002F80: 44 01 EA           add         edx,r13d
  0000000000002F83: 44 31 CF           xor         edi,r9d
  0000000000002F86: 45 0F AC F6 02     shrd        r14d,r14d,2
  0000000000002F8B: 41 01 D3           add         r11d,edx
  0000000000002F8E: 01 FA              add         edx,edi
  0000000000002F90: 45 89 DD           mov         r13d,r11d
  0000000000002F93: 41 01 D6           add         r14d,edx
  0000000000002F96: 45 0F AC ED 0E     shrd        r13d,r13d,0Eh
  0000000000002F9B: 44 89 F2           mov         edx,r14d
  0000000000002F9E: 41 89 C4           mov         r12d,eax
  0000000000002FA1: 45 0F AC F6 09     shrd        r14d,r14d,9
  0000000000002FA6: 45 31 DD           xor         r13d,r11d
  0000000000002FA9: 41 31 DC           xor         r12d,ebx
  0000000000002FAC: 45 0F AC ED 05     shrd        r13d,r13d,5
  0000000000002FB1: 41 31 D6           xor         r14d,edx
  0000000000002FB4: 45 21 DC           and         r12d,r11d
  0000000000002FB7: 45 31 DD           xor         r13d,r11d
  0000000000002FBA: 03 4C 24 14        add         ecx,dword ptr [rsp+14h]
  0000000000002FBE: 89 D7              mov         edi,edx
  0000000000002FC0: 41 31 DC           xor         r12d,ebx
  0000000000002FC3: 45 0F AC F6 0B     shrd        r14d,r14d,0Bh
  0000000000002FC8: 44 31 C7           xor         edi,r8d
  0000000000002FCB: 44 01 E1           add         ecx,r12d
  0000000000002FCE: 45 0F AC ED 06     shrd        r13d,r13d,6
  0000000000002FD3: 41 21 FF           and         r15d,edi
  0000000000002FD6: 41 31 D6           xor         r14d,edx
  0000000000002FD9: 44 01 E9           add         ecx,r13d
  0000000000002FDC: 45 31 C7           xor         r15d,r8d
  0000000000002FDF: 45 0F AC F6 02     shrd        r14d,r14d,2
  0000000000002FE4: 41 01 CA           add         r10d,ecx
  0000000000002FE7: 44 01 F9           add         ecx,r15d
  0000000000002FEA: 45 89 D5           mov         r13d,r10d
  0000000000002FED: 41 01 CE           add         r14d,ecx
  0000000000002FF0: 45 0F AC ED 0E     shrd        r13d,r13d,0Eh
  0000000000002FF5: 44 89 F1           mov         ecx,r14d
  0000000000002FF8: 45 89 DC           mov         r12d,r11d
  0000000000002FFB: 45 0F AC F6 09     shrd        r14d,r14d,9
  0000000000003000: 45 31 D5           xor         r13d,r10d
  0000000000003003: 41 31 C4           xor         r12d,eax
  0000000000003006: 45 0F AC ED 05     shrd        r13d,r13d,5
  000000000000300B: 41 31 CE           xor         r14d,ecx
  000000000000300E: 45 21 D4           and         r12d,r10d
  0000000000003011: 45 31 D5           xor         r13d,r10d
  0000000000003014: 03 5C 24 18        add         ebx,dword ptr [rsp+18h]
  0000000000003018: 41 89 CF           mov         r15d,ecx
  000000000000301B: 41 31 C4           xor         r12d,eax
  000000000000301E: 45 0F AC F6 0B     shrd        r14d,r14d,0Bh
  0000000000003023: 41 31 D7           xor         r15d,edx
  0000000000003026: 44 01 E3           add         ebx,r12d
  0000000000003029: 45 0F AC ED 06     shrd        r13d,r13d,6
  000000000000302E: 44 21 FF           and         edi,r15d
  0000000000003031: 41 31 CE           xor         r14d,ecx
  0000000000003034: 44 01 EB           add         ebx,r13d
  0000000000003037: 31 D7              xor         edi,edx
  0000000000003039: 45 0F AC F6 02     shrd        r14d,r14d,2
  000000000000303E: 41 01 D9           add         r9d,ebx
  0000000000003041: 01 FB              add         ebx,edi
  0000000000003043: 45 89 CD           mov         r13d,r9d
  0000000000003046: 41 01 DE           add         r14d,ebx
  0000000000003049: 45 0F AC ED 0E     shrd        r13d,r13d,0Eh
  000000000000304E: 44 89 F3           mov         ebx,r14d
  0000000000003051: 45 89 D4           mov         r12d,r10d
  0000000000003054: 45 0F AC F6 09     shrd        r14d,r14d,9
  0000000000003059: 45 31 CD           xor         r13d,r9d
  000000000000305C: 45 31 DC           xor         r12d,r11d
  000000000000305F: 45 0F AC ED 05     shrd        r13d,r13d,5
  0000000000003064: 41 31 DE           xor         r14d,ebx
  0000000000003067: 45 21 CC           and         r12d,r9d
  000000000000306A: 45 31 CD           xor         r13d,r9d
  000000000000306D: 03 44 24 1C        add         eax,dword ptr [rsp+1Ch]
  0000000000003071: 89 DF              mov         edi,ebx
  0000000000003073: 45 31 DC           xor         r12d,r11d
  0000000000003076: 45 0F AC F6 0B     shrd        r14d,r14d,0Bh
  000000000000307B: 31 CF              xor         edi,ecx
  000000000000307D: 44 01 E0           add         eax,r12d
  0000000000003080: 45 0F AC ED 06     shrd        r13d,r13d,6
  0000000000003085: 41 21 FF           and         r15d,edi
  0000000000003088: 41 31 DE           xor         r14d,ebx
  000000000000308B: 44 01 E8           add         eax,r13d
  000000000000308E: 41 31 CF           xor         r15d,ecx
  0000000000003091: 45 0F AC F6 02     shrd        r14d,r14d,2
  0000000000003096: 41 01 C0           add         r8d,eax
  0000000000003099: 44 01 F8           add         eax,r15d
  000000000000309C: 45 89 C5           mov         r13d,r8d
  000000000000309F: 41 01 C6           add         r14d,eax
  00000000000030A2: 45 0F AC ED 0E     shrd        r13d,r13d,0Eh
  00000000000030A7: 44 89 F0           mov         eax,r14d
  00000000000030AA: 45 89 CC           mov         r12d,r9d
  00000000000030AD: 45 0F AC F6 09     shrd        r14d,r14d,9
  00000000000030B2: 45 31 C5           xor         r13d,r8d
  00000000000030B5: 45 31 D4           xor         r12d,r10d
  00000000000030B8: 45 0F AC ED 05     shrd        r13d,r13d,5
  00000000000030BD: 41 31 C6           xor         r14d,eax
  00000000000030C0: 45 21 C4           and         r12d,r8d
  00000000000030C3: 45 31 C5           xor         r13d,r8d
  00000000000030C6: 44 03 5C 24 20     add         r11d,dword ptr [rsp+20h]
  00000000000030CB: 41 89 C7           mov         r15d,eax
  00000000000030CE: 45 31 D4           xor         r12d,r10d
  00000000000030D1: 45 0F AC F6 0B     shrd        r14d,r14d,0Bh
  00000000000030D6: 41 31 DF           xor         r15d,ebx
  00000000000030D9: 45 01 E3           add         r11d,r12d
  00000000000030DC: 45 0F AC ED 06     shrd        r13d,r13d,6
  00000000000030E1: 44 21 FF           and         edi,r15d
  00000000000030E4: 41 31 C6           xor         r14d,eax
  00000000000030E7: 45 01 EB           add         r11d,r13d
  00000000000030EA: 31 DF              xor         edi,ebx
  00000000000030EC: 45 0F AC F6 02     shrd        r14d,r14d,2
  00000000000030F1: 44 01 DA           add         edx,r11d
  00000000000030F4: 41 01 FB           add         r11d,edi
  00000000000030F7: 41 89 D5           mov         r13d,edx
  00000000000030FA: 45 01 DE           add         r14d,r11d
  00000000000030FD: 45 0F AC ED 0E     shrd        r13d,r13d,0Eh
  0000000000003102: 45 89 F3           mov         r11d,r14d
  0000000000003105: 45 89 C4           mov         r12d,r8d
  0000000000003108: 45 0F AC F6 09     shrd        r14d,r14d,9
  000000000000310D: 41 31 D5           xor         r13d,edx
  0000000000003110: 45 31 CC           xor         r12d,r9d
  0000000000003113: 45 0F AC ED 05     shrd        r13d,r13d,5
  0000000000003118: 45 31 DE           xor         r14d,r11d
  000000000000311B: 41 21 D4           and         r12d,edx
  000000000000311E: 41 31 D5           xor         r13d,edx
  0000000000003121: 44 03 54 24 24     add         r10d,dword ptr [rsp+24h]
  0000000000003126: 44 89 DF           mov         edi,r11d
  0000000000003129: 45 31 CC           xor         r12d,r9d
  000000000000312C: 45 0F AC F6 0B     shrd        r14d,r14d,0Bh
  0000000000003131: 31 C7              xor         edi,eax
  0000000000003133: 45 01 E2           add         r10d,r12d
  0000000000003136: 45 0F AC ED 06     shrd        r13d,r13d,6
  000000000000313B: 41 21 FF           and         r15d,edi
  000000000000313E: 45 31 DE           xor         r14d,r11d
  0000000000003141: 45 01 EA           add         r10d,r13d
  0000000000003144: 41 31 C7           xor         r15d,eax
  0000000000003147: 45 0F AC F6 02     shrd        r14d,r14d,2
  000000000000314C: 44 01 D1           add         ecx,r10d
  000000000000314F: 45 01 FA           add         r10d,r15d
  0000000000003152: 41 89 CD           mov         r13d,ecx
  0000000000003155: 45 01 D6           add         r14d,r10d
  0000000000003158: 45 0F AC ED 0E     shrd        r13d,r13d,0Eh
  000000000000315D: 45 89 F2           mov         r10d,r14d
  0000000000003160: 41 89 D4           mov         r12d,edx
  0000000000003163: 45 0F AC F6 09     shrd        r14d,r14d,9
  0000000000003168: 41 31 CD           xor         r13d,ecx
  000000000000316B: 45 31 C4           xor         r12d,r8d
  000000000000316E: 45 0F AC ED 05     shrd        r13d,r13d,5
  0000000000003173: 45 31 D6           xor         r14d,r10d
  0000000000003176: 41 21 CC           and         r12d,ecx
  0000000000003179: 41 31 CD           xor         r13d,ecx
  000000000000317C: 44 03 4C 24 28     add         r9d,dword ptr [rsp+28h]
  0000000000003181: 45 89 D7           mov         r15d,r10d
  0000000000003184: 45 31 C4           xor         r12d,r8d
  0000000000003187: 45 0F AC F6 0B     shrd        r14d,r14d,0Bh
  000000000000318C: 45 31 DF           xor         r15d,r11d
  000000000000318F: 45 01 E1           add         r9d,r12d
  0000000000003192: 45 0F AC ED 06     shrd        r13d,r13d,6
  0000000000003197: 44 21 FF           and         edi,r15d
  000000000000319A: 45 31 D6           xor         r14d,r10d
  000000000000319D: 45 01 E9           add         r9d,r13d
  00000000000031A0: 44 31 DF           xor         edi,r11d
  00000000000031A3: 45 0F AC F6 02     shrd        r14d,r14d,2
  00000000000031A8: 44 01 CB           add         ebx,r9d
  00000000000031AB: 41 01 F9           add         r9d,edi
  00000000000031AE: 41 89 DD           mov         r13d,ebx
  00000000000031B1: 45 01 CE           add         r14d,r9d
  00000000000031B4: 45 0F AC ED 0E     shrd        r13d,r13d,0Eh
  00000000000031B9: 45 89 F1           mov         r9d,r14d
  00000000000031BC: 41 89 CC           mov         r12d,ecx
  00000000000031BF: 45 0F AC F6 09     shrd        r14d,r14d,9
  00000000000031C4: 41 31 DD           xor         r13d,ebx
  00000000000031C7: 41 31 D4           xor         r12d,edx
  00000000000031CA: 45 0F AC ED 05     shrd        r13d,r13d,5
  00000000000031CF: 45 31 CE           xor         r14d,r9d
  00000000000031D2: 41 21 DC           and         r12d,ebx
  00000000000031D5: 41 31 DD           xor         r13d,ebx
  00000000000031D8: 44 03 44 24 2C     add         r8d,dword ptr [rsp+2Ch]
  00000000000031DD: 44 89 CF           mov         edi,r9d
  00000000000031E0: 41 31 D4           xor         r12d,edx
  00000000000031E3: 45 0F AC F6 0B     shrd        r14d,r14d,0Bh
  00000000000031E8: 44 31 D7           xor         edi,r10d
  00000000000031EB: 45 01 E0           add         r8d,r12d
  00000000000031EE: 45 0F AC ED 06     shrd        r13d,r13d,6
  00000000000031F3: 41 21 FF           and         r15d,edi
  00000000000031F6: 45 31 CE           xor         r14d,r9d
  00000000000031F9: 45 01 E8           add         r8d,r13d
  00000000000031FC: 45 31 D7           xor         r15d,r10d
  00000000000031FF: 45 0F AC F6 02     shrd        r14d,r14d,2
  0000000000003204: 44 01 C0           add         eax,r8d
  0000000000003207: 45 01 F8           add         r8d,r15d
  000000000000320A: 41 89 C5           mov         r13d,eax
  000000000000320D: 45 01 C6           add         r14d,r8d
  0000000000003210: 45 0F AC ED 0E     shrd        r13d,r13d,0Eh
  0000000000003215: 45 89 F0           mov         r8d,r14d
  0000000000003218: 41 89 DC           mov         r12d,ebx
  000000000000321B: 45 0F AC F6 09     shrd        r14d,r14d,9
  0000000000003220: 41 31 C5           xor         r13d,eax
  0000000000003223: 41 31 CC           xor         r12d,ecx
  0000000000003226: 45 0F AC ED 05     shrd        r13d,r13d,5
  000000000000322B: 45 31 C6           xor         r14d,r8d
  000000000000322E: 41 21 C4           and         r12d,eax
  0000000000003231: 41 31 C5           xor         r13d,eax
  0000000000003234: 03 54 24 30        add         edx,dword ptr [rsp+30h]
  0000000000003238: 45 89 C7           mov         r15d,r8d
  000000000000323B: 41 31 CC           xor         r12d,ecx
  000000000000323E: 45 0F AC F6 0B     shrd        r14d,r14d,0Bh
  0000000000003243: 45 31 CF           xor         r15d,r9d
  0000000000003246: 44 01 E2           add         edx,r12d
  0000000000003249: 45 0F AC ED 06     shrd        r13d,r13d,6
  000000000000324E: 44 21 FF           and         edi,r15d
  0000000000003251: 45 31 C6           xor         r14d,r8d
  0000000000003254: 44 01 EA           add         edx,r13d
  0000000000003257: 44 31 CF           xor         edi,r9d
  000000000000325A: 45 0F AC F6 02     shrd        r14d,r14d,2
  000000000000325F: 41 01 D3           add         r11d,edx
  0000000000003262: 01 FA              add         edx,edi
  0000000000003264: 45 89 DD           mov         r13d,r11d
  0000000000003267: 41 01 D6           add         r14d,edx
  000000000000326A: 45 0F AC ED 0E     shrd        r13d,r13d,0Eh
  000000000000326F: 44 89 F2           mov         edx,r14d
  0000000000003272: 41 89 C4           mov         r12d,eax
  0000000000003275: 45 0F AC F6 09     shrd        r14d,r14d,9
  000000000000327A: 45 31 DD           xor         r13d,r11d
  000000000000327D: 41 31 DC           xor         r12d,ebx
  0000000000003280: 45 0F AC ED 05     shrd        r13d,r13d,5
  0000000000003285: 41 31 D6           xor         r14d,edx
  0000000000003288: 45 21 DC           and         r12d,r11d
  000000000000328B: 45 31 DD           xor         r13d,r11d
  000000000000328E: 03 4C 24 34        add         ecx,dword ptr [rsp+34h]
  0000000000003292: 89 D7              mov         edi,edx
  0000000000003294: 41 31 DC           xor         r12d,ebx
  0000000000003297: 45 0F AC F6 0B     shrd        r14d,r14d,0Bh
  000000000000329C: 44 31 C7           xor         edi,r8d
  000000000000329F: 44 01 E1           add         ecx,r12d
  00000000000032A2: 45 0F AC ED 06     shrd        r13d,r13d,6
  00000000000032A7: 41 21 FF           and         r15d,edi
  00000000000032AA: 41 31 D6           xor         r14d,edx
  00000000000032AD: 44 01 E9           add         ecx,r13d
  00000000000032B0: 45 31 C7           xor         r15d,r8d
  00000000000032B3: 45 0F AC F6 02     shrd        r14d,r14d,2
  00000000000032B8: 41 01 CA           add         r10d,ecx
  00000000000032BB: 44 01 F9           add         ecx,r15d
  00000000000032BE: 45 89 D5           mov         r13d,r10d
  00000000000032C1: 41 01 CE           add         r14d,ecx
  00000000000032C4: 45 0F AC ED 0E     shrd        r13d,r13d,0Eh
  00000000000032C9: 44 89 F1           mov         ecx,r14d
  00000000000032CC: 45 89 DC           mov         r12d,r11d
  00000000000032CF: 45 0F AC F6 09     shrd        r14d,r14d,9
  00000000000032D4: 45 31 D5           xor         r13d,r10d
  00000000000032D7: 41 31 C4           xor         r12d,eax
  00000000000032DA: 45 0F AC ED 05     shrd        r13d,r13d,5
  00000000000032DF: 41 31 CE           xor         r14d,ecx
  00000000000032E2: 45 21 D4           and         r12d,r10d
  00000000000032E5: 45 31 D5           xor         r13d,r10d
  00000000000032E8: 03 5C 24 38        add         ebx,dword ptr [rsp+38h]
  00000000000032EC: 41 89 CF           mov         r15d,ecx
  00000000000032EF: 41 31 C4           xor         r12d,eax
  00000000000032F2: 45 0F AC F6 0B     shrd        r14d,r14d,0Bh
  00000000000032F7: 41 31 D7           xor         r15d,edx
  00000000000032FA: 44 01 E3           add         ebx,r12d
  00000000000032FD: 45 0F AC ED 06     shrd        r13d,r13d,6
  0000000000003302: 44 21 FF           and         edi,r15d
  0000000000003305: 41 31 CE           xor         r14d,ecx
  0000000000003308: 44 01 EB           add         ebx,r13d
  000000000000330B: 31 D7              xor         edi,edx
  000000000000330D: 45 0F AC F6 02     shrd        r14d,r14d,2
  0000000000003312: 41 01 D9           add         r9d,ebx
  0000000000003315: 01 FB              add         ebx,edi
  0000000000003317: 45 89 CD           mov         r13d,r9d
  000000000000331A: 41 01 DE           add         r14d,ebx
  000000000000331D: 45 0F AC ED 0E     shrd        r13d,r13d,0Eh
  0000000000003322: 44 89 F3           mov         ebx,r14d
  0000000000003325: 45 89 D4           mov         r12d,r10d
  0000000000003328: 45 0F AC F6 09     shrd        r14d,r14d,9
  000000000000332D: 45 31 CD           xor         r13d,r9d
  0000000000003330: 45 31 DC           xor         r12d,r11d
  0000000000003333: 45 0F AC ED 05     shrd        r13d,r13d,5
  0000000000003338: 41 31 DE           xor         r14d,ebx
  000000000000333B: 45 21 CC           and         r12d,r9d
  000000000000333E: 45 31 CD           xor         r13d,r9d
  0000000000003341: 03 44 24 3C        add         eax,dword ptr [rsp+3Ch]
  0000000000003345: 89 DF              mov         edi,ebx
  0000000000003347: 45 31 DC           xor         r12d,r11d
  000000000000334A: 45 0F AC F6 0B     shrd        r14d,r14d,0Bh
  000000000000334F: 31 CF              xor         edi,ecx
  0000000000003351: 44 01 E0           add         eax,r12d
  0000000000003354: 45 0F AC ED 06     shrd        r13d,r13d,6
  0000000000003359: 41 21 FF           and         r15d,edi
  000000000000335C: 41 31 DE           xor         r14d,ebx
  000000000000335F: 44 01 E8           add         eax,r13d
  0000000000003362: 41 31 CF           xor         r15d,ecx
  0000000000003365: 45 0F AC F6 02     shrd        r14d,r14d,2
  000000000000336A: 41 01 C0           add         r8d,eax
  000000000000336D: 44 01 F8           add         eax,r15d
  0000000000003370: 45 89 C5           mov         r13d,r8d
  0000000000003373: 41 01 C6           add         r14d,eax
  0000000000003376: 48 8B 7C 24 40     mov         rdi,qword ptr [rsp+40h]
  000000000000337B: 44 89 F0           mov         eax,r14d
  000000000000337E: 03 07              add         eax,dword ptr [rdi]
  0000000000003380: 48 8D 76 40        lea         rsi,[rsi+40h]
  0000000000003384: 03 5F 04           add         ebx,dword ptr [rdi+4]
  0000000000003387: 03 4F 08           add         ecx,dword ptr [rdi+8]
  000000000000338A: 03 57 0C           add         edx,dword ptr [rdi+0Ch]
  000000000000338D: 44 03 47 10        add         r8d,dword ptr [rdi+10h]
  0000000000003391: 44 03 4F 14        add         r9d,dword ptr [rdi+14h]
  0000000000003395: 44 03 57 18        add         r10d,dword ptr [rdi+18h]
  0000000000003399: 44 03 5F 1C        add         r11d,dword ptr [rdi+1Ch]
  000000000000339D: 48 3B 74 24 50     cmp         rsi,qword ptr [rsp+50h]
  00000000000033A2: 89 07              mov         dword ptr [rdi],eax
  00000000000033A4: 89 5F 04           mov         dword ptr [rdi+4],ebx
  00000000000033A7: 89 4F 08           mov         dword ptr [rdi+8],ecx
  00000000000033AA: 89 57 0C           mov         dword ptr [rdi+0Ch],edx
  00000000000033AD: 44 89 47 10        mov         dword ptr [rdi+10h],r8d
  00000000000033B1: 44 89 4F 14        mov         dword ptr [rdi+14h],r9d
  00000000000033B5: 44 89 57 18        mov         dword ptr [rdi+18h],r10d
  00000000000033B9: 44 89 5F 1C        mov         dword ptr [rdi+1Ch],r11d
  00000000000033BD: 0F 82 9D F1 FF FF  jb          L$loop_avx
  00000000000033C3: 48 8B 74 24 58     mov         rsi,qword ptr [rsp+58h]
  00000000000033C8: C5 F8 77           vzeroupper
  00000000000033CB: 0F 28 74 24 60     movaps      xmm6,xmmword ptr [rsp+60h]
  00000000000033D0: 0F 28 7C 24 70     movaps      xmm7,xmmword ptr [rsp+70h]
  00000000000033D5: 44 0F 28 84 24 80  movaps      xmm8,xmmword ptr [rsp+80h]
                    00 00 00
  00000000000033DE: 44 0F 28 8C 24 90  movaps      xmm9,xmmword ptr [rsp+90h]
                    00 00 00
  00000000000033E7: 4C 8B 7E D0        mov         r15,qword ptr [rsi-30h]
  00000000000033EB: 4C 8B 76 D8        mov         r14,qword ptr [rsi-28h]
  00000000000033EF: 4C 8B 6E E0        mov         r13,qword ptr [rsi-20h]
  00000000000033F3: 4C 8B 66 E8        mov         r12,qword ptr [rsi-18h]
  00000000000033F7: 48 8B 6E F0        mov         rbp,qword ptr [rsi-10h]
  00000000000033FB: 48 8B 5E F8        mov         rbx,qword ptr [rsi-8]
  00000000000033FF: 48 8D 26           lea         rsp,[rsi]
L$epilogue_avx:
  0000000000003402: 48 8B 7C 24 08     mov         rdi,qword ptr [rsp+8]
  0000000000003407: 48 8B 74 24 10     mov         rsi,qword ptr [rsp+10h]
  000000000000340C: F3 C3              rep ret
L$SEH_end_sha256_block_data_order_avx:
  000000000000340E: 90                 nop
  000000000000340F: 90                 nop
se_handler:
  0000000000003410: 56                 push        rsi
  0000000000003411: 57                 push        rdi
  0000000000003412: 53                 push        rbx
  0000000000003413: 55                 push        rbp
  0000000000003414: 41 54              push        r12
  0000000000003416: 41 55              push        r13
  0000000000003418: 41 56              push        r14
  000000000000341A: 41 57              push        r15
  000000000000341C: 9C                 pushfq
  000000000000341D: 48 83 EC 40        sub         rsp,40h
  0000000000003421: 49 8B 40 78        mov         rax,qword ptr [r8+78h]
  0000000000003425: 49 8B 98 F8 00 00  mov         rbx,qword ptr [r8+0F8h]
                    00
  000000000000342C: 49 8B 71 08        mov         rsi,qword ptr [r9+8]
  0000000000003430: 4D 8B 59 38        mov         r11,qword ptr [r9+38h]
  0000000000003434: 45 8B 13           mov         r10d,dword ptr [r11]
  0000000000003437: 4E 8D 14 16        lea         r10,[rsi+r10]
  000000000000343B: 4C 39 D3           cmp         rbx,r10
  000000000000343E: 0F 82 85 00 00 00  jb          L$in_prologue
  0000000000003444: 49 8B 80 98 00 00  mov         rax,qword ptr [r8+98h]
                    00
  000000000000344B: 45 8B 53 04        mov         r10d,dword ptr [r11+4]
  000000000000344F: 4E 8D 14 16        lea         r10,[rsi+r10]
  0000000000003453: 4C 39 D3           cmp         rbx,r10
  0000000000003456: 0F 83 6D 00 00 00  jae         L$in_prologue
  000000000000345C: 48 89 C6           mov         rsi,rax
  000000000000345F: 48 8B 40 58        mov         rax,qword ptr [rax+58h]
  0000000000003463: 48 8B 58 F8        mov         rbx,qword ptr [rax-8]
  0000000000003467: 48 8B 68 F0        mov         rbp,qword ptr [rax-10h]
  000000000000346B: 4C 8B 60 E8        mov         r12,qword ptr [rax-18h]
  000000000000346F: 4C 8B 68 E0        mov         r13,qword ptr [rax-20h]
  0000000000003473: 4C 8B 70 D8        mov         r14,qword ptr [rax-28h]
  0000000000003477: 4C 8B 78 D0        mov         r15,qword ptr [rax-30h]
  000000000000347B: 49 89 98 90 00 00  mov         qword ptr [r8+90h],rbx
                    00
  0000000000003482: 49 89 A8 A0 00 00  mov         qword ptr [r8+0A0h],rbp
                    00
  0000000000003489: 4D 89 A0 D8 00 00  mov         qword ptr [r8+0D8h],r12
                    00
  0000000000003490: 4D 89 A8 E0 00 00  mov         qword ptr [r8+0E0h],r13
                    00
  0000000000003497: 4D 89 B0 E8 00 00  mov         qword ptr [r8+0E8h],r14
                    00
  000000000000349E: 4D 89 B8 F0 00 00  mov         qword ptr [r8+0F0h],r15
                    00
  00000000000034A5: 4C 8D 15 EE DC FF  lea         r10,[L$epilogue]
                    FF
  00000000000034AC: 4C 39 D3           cmp         rbx,r10
  00000000000034AF: 0F 82 14 00 00 00  jb          L$in_prologue
  00000000000034B5: 48 8D 76 60        lea         rsi,[rsi+60h]
  00000000000034B9: 49 8D B8 00 02 00  lea         rdi,[r8+200h]
                    00
  00000000000034C0: B9 08 00 00 00     mov         ecx,8
  00000000000034C5: FC                 cld
  00000000000034C6: F3 48 A5           rep movs    qword ptr [rdi],qword ptr [rsi]
L$in_prologue:
  00000000000034C9: 48 8B 78 08        mov         rdi,qword ptr [rax+8]
  00000000000034CD: 48 8B 70 10        mov         rsi,qword ptr [rax+10h]
  00000000000034D1: 49 89 80 98 00 00  mov         qword ptr [r8+98h],rax
                    00
  00000000000034D8: 49 89 B0 A8 00 00  mov         qword ptr [r8+0A8h],rsi
                    00
  00000000000034DF: 49 89 B8 B0 00 00  mov         qword ptr [r8+0B0h],rdi
                    00
  00000000000034E6: 49 8B 79 28        mov         rdi,qword ptr [r9+28h]
  00000000000034EA: 4C 89 C6           mov         rsi,r8
  00000000000034ED: B9 9A 00 00 00     mov         ecx,9Ah
  00000000000034F2: FC                 cld
  00000000000034F3: F3 48 A5           rep movs    qword ptr [rdi],qword ptr [rsi]
  00000000000034F6: 4C 89 CE           mov         rsi,r9
  00000000000034F9: 48 31 C9           xor         rcx,rcx
  00000000000034FC: 48 8B 56 08        mov         rdx,qword ptr [rsi+8]
  0000000000003500: 4C 8B 06           mov         r8,qword ptr [rsi]
  0000000000003503: 4C 8B 4E 10        mov         r9,qword ptr [rsi+10h]
  0000000000003507: 4C 8B 56 28        mov         r10,qword ptr [rsi+28h]
  000000000000350B: 4C 8D 5E 38        lea         r11,[rsi+38h]
  000000000000350F: 4C 8D 66 18        lea         r12,[rsi+18h]
  0000000000003513: 4C 89 54 24 20     mov         qword ptr [rsp+20h],r10
  0000000000003518: 4C 89 5C 24 28     mov         qword ptr [rsp+28h],r11
  000000000000351D: 4C 89 64 24 30     mov         qword ptr [rsp+30h],r12
  0000000000003522: 48 89 4C 24 38     mov         qword ptr [rsp+38h],rcx
  0000000000003527: FF 15 00 00 00 00  call        qword ptr [__imp_RtlVirtualUnwind]
  000000000000352D: B8 01 00 00 00     mov         eax,1
  0000000000003532: 48 83 C4 40        add         rsp,40h
  0000000000003536: 9D                 popfq
  0000000000003537: 41 5F              pop         r15
  0000000000003539: 41 5E              pop         r14
  000000000000353B: 41 5D              pop         r13
  000000000000353D: 41 5C              pop         r12
  000000000000353F: 5D                 pop         rbp
  0000000000003540: 5B                 pop         rbx
  0000000000003541: 5F                 pop         rdi
  0000000000003542: 5E                 pop         rsi
  0000000000003543: F3 C3              rep ret
  0000000000003545: 90                 nop
  0000000000003546: 90                 nop
  0000000000003547: 90                 nop
  0000000000003548: 90                 nop
  0000000000003549: 90                 nop
  000000000000354A: 90                 nop
  000000000000354B: 90                 nop
  000000000000354C: 90                 nop
  000000000000354D: 90                 nop
  000000000000354E: 90                 nop
  000000000000354F: 90                 nop
shaext_handler:
  0000000000003550: 56                 push        rsi
  0000000000003551: 57                 push        rdi
  0000000000003552: 53                 push        rbx
  0000000000003553: 55                 push        rbp
  0000000000003554: 41 54              push        r12
  0000000000003556: 41 55              push        r13
  0000000000003558: 41 56              push        r14
  000000000000355A: 41 57              push        r15
  000000000000355C: 9C                 pushfq
  000000000000355D: 48 83 EC 40        sub         rsp,40h
  0000000000003561: 49 8B 40 78        mov         rax,qword ptr [r8+78h]
  0000000000003565: 49 8B 98 F8 00 00  mov         rbx,qword ptr [r8+0F8h]
                    00
  000000000000356C: 4C 8D 15 7F DC FF  lea         r10,[L$prologue_shaext]
                    FF
  0000000000003573: 4C 39 D3           cmp         rbx,r10
  0000000000003576: 0F 82 4D FF FF FF  jb          L$in_prologue
  000000000000357C: 4C 8D 15 C3 DF FF  lea         r10,[L$epilogue_shaext]
                    FF
  0000000000003583: 4C 39 D3           cmp         rbx,r10
  0000000000003586: 0F 83 3D FF FF FF  jae         L$in_prologue
  000000000000358C: 48 8D 70 A8        lea         rsi,[rax-58h]
  0000000000003590: 49 8D B8 00 02 00  lea         rdi,[r8+200h]
                    00
  0000000000003597: B9 0A 00 00 00     mov         ecx,0Ah
  000000000000359C: FC                 cld
  000000000000359D: F3 48 A5           rep movs    qword ptr [rdi],qword ptr [rsi]
  00000000000035A0: E9 24 FF FF FF     jmp         L$in_prologue

  Summary

          1C .debug$T
          30 .pdata
         2A5 .rdata
        35A5 .text
          38 .xdata
