Copyright (C) Microsoft Corporation.  All rights reserved.


Dump of file sha512-x86_64.obj

File Type: COFF OBJECT

aws_lc_0_21_0_sha512_block_data_order_nohw:
  0000000000000000: 48 89 7C 24 08     mov         qword ptr [rsp+8],rdi
  0000000000000005: 48 89 74 24 10     mov         qword ptr [rsp+10h],rsi
  000000000000000A: 48 89 E0           mov         rax,rsp
L$SEH_begin_sha512_block_data_order_nohw:
  000000000000000D: 48 89 CF           mov         rdi,rcx
  0000000000000010: 48 89 D6           mov         rsi,rdx
  0000000000000013: 4C 89 C2           mov         rdx,r8
  0000000000000016: 48 89 E0           mov         rax,rsp
  0000000000000019: 53                 push        rbx
  000000000000001A: 55                 push        rbp
  000000000000001B: 41 54              push        r12
  000000000000001D: 41 55              push        r13
  000000000000001F: 41 56              push        r14
  0000000000000021: 41 57              push        r15
  0000000000000023: 48 C1 E2 04        shl         rdx,4
  0000000000000027: 48 81 EC A0 00 00  sub         rsp,0A0h
                    00
  000000000000002E: 48 8D 14 D6        lea         rdx,[rsi+rdx*8]
  0000000000000032: 48 83 E4 C0        and         rsp,0FFFFFFFFFFFFFFC0h
  0000000000000036: 48 89 BC 24 80 00  mov         qword ptr [rsp+80h],rdi
                    00 00
  000000000000003E: 48 89 B4 24 88 00  mov         qword ptr [rsp+88h],rsi
                    00 00
  0000000000000046: 48 89 94 24 90 00  mov         qword ptr [rsp+90h],rdx
                    00 00
  000000000000004E: 48 89 84 24 98 00  mov         qword ptr [rsp+98h],rax
                    00 00
L$prologue:
  0000000000000056: 48 8B 07           mov         rax,qword ptr [rdi]
  0000000000000059: 48 8B 5F 08        mov         rbx,qword ptr [rdi+8]
  000000000000005D: 48 8B 4F 10        mov         rcx,qword ptr [rdi+10h]
  0000000000000061: 48 8B 57 18        mov         rdx,qword ptr [rdi+18h]
  0000000000000065: 4C 8B 47 20        mov         r8,qword ptr [rdi+20h]
  0000000000000069: 4C 8B 4F 28        mov         r9,qword ptr [rdi+28h]
  000000000000006D: 4C 8B 57 30        mov         r10,qword ptr [rdi+30h]
  0000000000000071: 4C 8B 5F 38        mov         r11,qword ptr [rdi+38h]
  0000000000000075: E9 06 00 00 00     jmp         L$loop
  000000000000007A: 90                 nop
  000000000000007B: 90                 nop
  000000000000007C: 90                 nop
  000000000000007D: 90                 nop
  000000000000007E: 90                 nop
  000000000000007F: 90                 nop
L$loop:
  0000000000000080: 48 89 DF           mov         rdi,rbx
  0000000000000083: 48 8D 2D 00 00 00  lea         rbp,[.rdata]
                    00
  000000000000008A: 48 31 CF           xor         rdi,rcx
  000000000000008D: 4C 8B 26           mov         r12,qword ptr [rsi]
  0000000000000090: 4D 89 C5           mov         r13,r8
  0000000000000093: 49 89 C6           mov         r14,rax
  0000000000000096: 49 0F CC           bswap       r12
  0000000000000099: 49 C1 CD 17        ror         r13,17h
  000000000000009D: 4D 89 CF           mov         r15,r9
  00000000000000A0: 4D 31 C5           xor         r13,r8
  00000000000000A3: 49 C1 CE 05        ror         r14,5
  00000000000000A7: 4D 31 D7           xor         r15,r10
  00000000000000AA: 4C 89 24 24        mov         qword ptr [rsp],r12
  00000000000000AE: 49 31 C6           xor         r14,rax
  00000000000000B1: 4D 21 C7           and         r15,r8
  00000000000000B4: 49 C1 CD 04        ror         r13,4
  00000000000000B8: 4D 01 DC           add         r12,r11
  00000000000000BB: 4D 31 D7           xor         r15,r10
  00000000000000BE: 49 C1 CE 06        ror         r14,6
  00000000000000C2: 4D 31 C5           xor         r13,r8
  00000000000000C5: 4D 01 FC           add         r12,r15
  00000000000000C8: 49 89 C7           mov         r15,rax
  00000000000000CB: 4C 03 65 00        add         r12,qword ptr [rbp]
  00000000000000CF: 49 31 C6           xor         r14,rax
  00000000000000D2: 49 31 DF           xor         r15,rbx
  00000000000000D5: 49 C1 CD 0E        ror         r13,0Eh
  00000000000000D9: 49 89 DB           mov         r11,rbx
  00000000000000DC: 4C 21 FF           and         rdi,r15
  00000000000000DF: 49 C1 CE 1C        ror         r14,1Ch
  00000000000000E3: 4D 01 EC           add         r12,r13
  00000000000000E6: 49 31 FB           xor         r11,rdi
  00000000000000E9: 4C 01 E2           add         rdx,r12
  00000000000000EC: 4D 01 E3           add         r11,r12
  00000000000000EF: 48 8D 6D 08        lea         rbp,[rbp+8]
  00000000000000F3: 4D 01 F3           add         r11,r14
  00000000000000F6: 4C 8B 66 08        mov         r12,qword ptr [rsi+8]
  00000000000000FA: 49 89 D5           mov         r13,rdx
  00000000000000FD: 4D 89 DE           mov         r14,r11
  0000000000000100: 49 0F CC           bswap       r12
  0000000000000103: 49 C1 CD 17        ror         r13,17h
  0000000000000107: 4C 89 C7           mov         rdi,r8
  000000000000010A: 49 31 D5           xor         r13,rdx
  000000000000010D: 49 C1 CE 05        ror         r14,5
  0000000000000111: 4C 31 CF           xor         rdi,r9
  0000000000000114: 4C 89 64 24 08     mov         qword ptr [rsp+8],r12
  0000000000000119: 4D 31 DE           xor         r14,r11
  000000000000011C: 48 21 D7           and         rdi,rdx
  000000000000011F: 49 C1 CD 04        ror         r13,4
  0000000000000123: 4D 01 D4           add         r12,r10
  0000000000000126: 4C 31 CF           xor         rdi,r9
  0000000000000129: 49 C1 CE 06        ror         r14,6
  000000000000012D: 49 31 D5           xor         r13,rdx
  0000000000000130: 49 01 FC           add         r12,rdi
  0000000000000133: 4C 89 DF           mov         rdi,r11
  0000000000000136: 4C 03 65 00        add         r12,qword ptr [rbp]
  000000000000013A: 4D 31 DE           xor         r14,r11
  000000000000013D: 48 31 C7           xor         rdi,rax
  0000000000000140: 49 C1 CD 0E        ror         r13,0Eh
  0000000000000144: 49 89 C2           mov         r10,rax
  0000000000000147: 49 21 FF           and         r15,rdi
  000000000000014A: 49 C1 CE 1C        ror         r14,1Ch
  000000000000014E: 4D 01 EC           add         r12,r13
  0000000000000151: 4D 31 FA           xor         r10,r15
  0000000000000154: 4C 01 E1           add         rcx,r12
  0000000000000157: 4D 01 E2           add         r10,r12
  000000000000015A: 48 8D 6D 18        lea         rbp,[rbp+18h]
  000000000000015E: 4D 01 F2           add         r10,r14
  0000000000000161: 4C 8B 66 10        mov         r12,qword ptr [rsi+10h]
  0000000000000165: 49 89 CD           mov         r13,rcx
  0000000000000168: 4D 89 D6           mov         r14,r10
  000000000000016B: 49 0F CC           bswap       r12
  000000000000016E: 49 C1 CD 17        ror         r13,17h
  0000000000000172: 49 89 D7           mov         r15,rdx
  0000000000000175: 49 31 CD           xor         r13,rcx
  0000000000000178: 49 C1 CE 05        ror         r14,5
  000000000000017C: 4D 31 C7           xor         r15,r8
  000000000000017F: 4C 89 64 24 10     mov         qword ptr [rsp+10h],r12
  0000000000000184: 4D 31 D6           xor         r14,r10
  0000000000000187: 49 21 CF           and         r15,rcx
  000000000000018A: 49 C1 CD 04        ror         r13,4
  000000000000018E: 4D 01 CC           add         r12,r9
  0000000000000191: 4D 31 C7           xor         r15,r8
  0000000000000194: 49 C1 CE 06        ror         r14,6
  0000000000000198: 49 31 CD           xor         r13,rcx
  000000000000019B: 4D 01 FC           add         r12,r15
  000000000000019E: 4D 89 D7           mov         r15,r10
  00000000000001A1: 4C 03 65 00        add         r12,qword ptr [rbp]
  00000000000001A5: 4D 31 D6           xor         r14,r10
  00000000000001A8: 4D 31 DF           xor         r15,r11
  00000000000001AB: 49 C1 CD 0E        ror         r13,0Eh
  00000000000001AF: 4D 89 D9           mov         r9,r11
  00000000000001B2: 4C 21 FF           and         rdi,r15
  00000000000001B5: 49 C1 CE 1C        ror         r14,1Ch
  00000000000001B9: 4D 01 EC           add         r12,r13
  00000000000001BC: 49 31 F9           xor         r9,rdi
  00000000000001BF: 4C 01 E3           add         rbx,r12
  00000000000001C2: 4D 01 E1           add         r9,r12
  00000000000001C5: 48 8D 6D 08        lea         rbp,[rbp+8]
  00000000000001C9: 4D 01 F1           add         r9,r14
  00000000000001CC: 4C 8B 66 18        mov         r12,qword ptr [rsi+18h]
  00000000000001D0: 49 89 DD           mov         r13,rbx
  00000000000001D3: 4D 89 CE           mov         r14,r9
  00000000000001D6: 49 0F CC           bswap       r12
  00000000000001D9: 49 C1 CD 17        ror         r13,17h
  00000000000001DD: 48 89 CF           mov         rdi,rcx
  00000000000001E0: 49 31 DD           xor         r13,rbx
  00000000000001E3: 49 C1 CE 05        ror         r14,5
  00000000000001E7: 48 31 D7           xor         rdi,rdx
  00000000000001EA: 4C 89 64 24 18     mov         qword ptr [rsp+18h],r12
  00000000000001EF: 4D 31 CE           xor         r14,r9
  00000000000001F2: 48 21 DF           and         rdi,rbx
  00000000000001F5: 49 C1 CD 04        ror         r13,4
  00000000000001F9: 4D 01 C4           add         r12,r8
  00000000000001FC: 48 31 D7           xor         rdi,rdx
  00000000000001FF: 49 C1 CE 06        ror         r14,6
  0000000000000203: 49 31 DD           xor         r13,rbx
  0000000000000206: 49 01 FC           add         r12,rdi
  0000000000000209: 4C 89 CF           mov         rdi,r9
  000000000000020C: 4C 03 65 00        add         r12,qword ptr [rbp]
  0000000000000210: 4D 31 CE           xor         r14,r9
  0000000000000213: 4C 31 D7           xor         rdi,r10
  0000000000000216: 49 C1 CD 0E        ror         r13,0Eh
  000000000000021A: 4D 89 D0           mov         r8,r10
  000000000000021D: 49 21 FF           and         r15,rdi
  0000000000000220: 49 C1 CE 1C        ror         r14,1Ch
  0000000000000224: 4D 01 EC           add         r12,r13
  0000000000000227: 4D 31 F8           xor         r8,r15
  000000000000022A: 4C 01 E0           add         rax,r12
  000000000000022D: 4D 01 E0           add         r8,r12
  0000000000000230: 48 8D 6D 18        lea         rbp,[rbp+18h]
  0000000000000234: 4D 01 F0           add         r8,r14
  0000000000000237: 4C 8B 66 20        mov         r12,qword ptr [rsi+20h]
  000000000000023B: 49 89 C5           mov         r13,rax
  000000000000023E: 4D 89 C6           mov         r14,r8
  0000000000000241: 49 0F CC           bswap       r12
  0000000000000244: 49 C1 CD 17        ror         r13,17h
  0000000000000248: 49 89 DF           mov         r15,rbx
  000000000000024B: 49 31 C5           xor         r13,rax
  000000000000024E: 49 C1 CE 05        ror         r14,5
  0000000000000252: 49 31 CF           xor         r15,rcx
  0000000000000255: 4C 89 64 24 20     mov         qword ptr [rsp+20h],r12
  000000000000025A: 4D 31 C6           xor         r14,r8
  000000000000025D: 49 21 C7           and         r15,rax
  0000000000000260: 49 C1 CD 04        ror         r13,4
  0000000000000264: 49 01 D4           add         r12,rdx
  0000000000000267: 49 31 CF           xor         r15,rcx
  000000000000026A: 49 C1 CE 06        ror         r14,6
  000000000000026E: 49 31 C5           xor         r13,rax
  0000000000000271: 4D 01 FC           add         r12,r15
  0000000000000274: 4D 89 C7           mov         r15,r8
  0000000000000277: 4C 03 65 00        add         r12,qword ptr [rbp]
  000000000000027B: 4D 31 C6           xor         r14,r8
  000000000000027E: 4D 31 CF           xor         r15,r9
  0000000000000281: 49 C1 CD 0E        ror         r13,0Eh
  0000000000000285: 4C 89 CA           mov         rdx,r9
  0000000000000288: 4C 21 FF           and         rdi,r15
  000000000000028B: 49 C1 CE 1C        ror         r14,1Ch
  000000000000028F: 4D 01 EC           add         r12,r13
  0000000000000292: 48 31 FA           xor         rdx,rdi
  0000000000000295: 4D 01 E3           add         r11,r12
  0000000000000298: 4C 01 E2           add         rdx,r12
  000000000000029B: 48 8D 6D 08        lea         rbp,[rbp+8]
  000000000000029F: 4C 01 F2           add         rdx,r14
  00000000000002A2: 4C 8B 66 28        mov         r12,qword ptr [rsi+28h]
  00000000000002A6: 4D 89 DD           mov         r13,r11
  00000000000002A9: 49 89 D6           mov         r14,rdx
  00000000000002AC: 49 0F CC           bswap       r12
  00000000000002AF: 49 C1 CD 17        ror         r13,17h
  00000000000002B3: 48 89 C7           mov         rdi,rax
  00000000000002B6: 4D 31 DD           xor         r13,r11
  00000000000002B9: 49 C1 CE 05        ror         r14,5
  00000000000002BD: 48 31 DF           xor         rdi,rbx
  00000000000002C0: 4C 89 64 24 28     mov         qword ptr [rsp+28h],r12
  00000000000002C5: 49 31 D6           xor         r14,rdx
  00000000000002C8: 4C 21 DF           and         rdi,r11
  00000000000002CB: 49 C1 CD 04        ror         r13,4
  00000000000002CF: 49 01 CC           add         r12,rcx
  00000000000002D2: 48 31 DF           xor         rdi,rbx
  00000000000002D5: 49 C1 CE 06        ror         r14,6
  00000000000002D9: 4D 31 DD           xor         r13,r11
  00000000000002DC: 49 01 FC           add         r12,rdi
  00000000000002DF: 48 89 D7           mov         rdi,rdx
  00000000000002E2: 4C 03 65 00        add         r12,qword ptr [rbp]
  00000000000002E6: 49 31 D6           xor         r14,rdx
  00000000000002E9: 4C 31 C7           xor         rdi,r8
  00000000000002EC: 49 C1 CD 0E        ror         r13,0Eh
  00000000000002F0: 4C 89 C1           mov         rcx,r8
  00000000000002F3: 49 21 FF           and         r15,rdi
  00000000000002F6: 49 C1 CE 1C        ror         r14,1Ch
  00000000000002FA: 4D 01 EC           add         r12,r13
  00000000000002FD: 4C 31 F9           xor         rcx,r15
  0000000000000300: 4D 01 E2           add         r10,r12
  0000000000000303: 4C 01 E1           add         rcx,r12
  0000000000000306: 48 8D 6D 18        lea         rbp,[rbp+18h]
  000000000000030A: 4C 01 F1           add         rcx,r14
  000000000000030D: 4C 8B 66 30        mov         r12,qword ptr [rsi+30h]
  0000000000000311: 4D 89 D5           mov         r13,r10
  0000000000000314: 49 89 CE           mov         r14,rcx
  0000000000000317: 49 0F CC           bswap       r12
  000000000000031A: 49 C1 CD 17        ror         r13,17h
  000000000000031E: 4D 89 DF           mov         r15,r11
  0000000000000321: 4D 31 D5           xor         r13,r10
  0000000000000324: 49 C1 CE 05        ror         r14,5
  0000000000000328: 49 31 C7           xor         r15,rax
  000000000000032B: 4C 89 64 24 30     mov         qword ptr [rsp+30h],r12
  0000000000000330: 49 31 CE           xor         r14,rcx
  0000000000000333: 4D 21 D7           and         r15,r10
  0000000000000336: 49 C1 CD 04        ror         r13,4
  000000000000033A: 49 01 DC           add         r12,rbx
  000000000000033D: 49 31 C7           xor         r15,rax
  0000000000000340: 49 C1 CE 06        ror         r14,6
  0000000000000344: 4D 31 D5           xor         r13,r10
  0000000000000347: 4D 01 FC           add         r12,r15
  000000000000034A: 49 89 CF           mov         r15,rcx
  000000000000034D: 4C 03 65 00        add         r12,qword ptr [rbp]
  0000000000000351: 49 31 CE           xor         r14,rcx
  0000000000000354: 49 31 D7           xor         r15,rdx
  0000000000000357: 49 C1 CD 0E        ror         r13,0Eh
  000000000000035B: 48 89 D3           mov         rbx,rdx
  000000000000035E: 4C 21 FF           and         rdi,r15
  0000000000000361: 49 C1 CE 1C        ror         r14,1Ch
  0000000000000365: 4D 01 EC           add         r12,r13
  0000000000000368: 48 31 FB           xor         rbx,rdi
  000000000000036B: 4D 01 E1           add         r9,r12
  000000000000036E: 4C 01 E3           add         rbx,r12
  0000000000000371: 48 8D 6D 08        lea         rbp,[rbp+8]
  0000000000000375: 4C 01 F3           add         rbx,r14
  0000000000000378: 4C 8B 66 38        mov         r12,qword ptr [rsi+38h]
  000000000000037C: 4D 89 CD           mov         r13,r9
  000000000000037F: 49 89 DE           mov         r14,rbx
  0000000000000382: 49 0F CC           bswap       r12
  0000000000000385: 49 C1 CD 17        ror         r13,17h
  0000000000000389: 4C 89 D7           mov         rdi,r10
  000000000000038C: 4D 31 CD           xor         r13,r9
  000000000000038F: 49 C1 CE 05        ror         r14,5
  0000000000000393: 4C 31 DF           xor         rdi,r11
  0000000000000396: 4C 89 64 24 38     mov         qword ptr [rsp+38h],r12
  000000000000039B: 49 31 DE           xor         r14,rbx
  000000000000039E: 4C 21 CF           and         rdi,r9
  00000000000003A1: 49 C1 CD 04        ror         r13,4
  00000000000003A5: 49 01 C4           add         r12,rax
  00000000000003A8: 4C 31 DF           xor         rdi,r11
  00000000000003AB: 49 C1 CE 06        ror         r14,6
  00000000000003AF: 4D 31 CD           xor         r13,r9
  00000000000003B2: 49 01 FC           add         r12,rdi
  00000000000003B5: 48 89 DF           mov         rdi,rbx
  00000000000003B8: 4C 03 65 00        add         r12,qword ptr [rbp]
  00000000000003BC: 49 31 DE           xor         r14,rbx
  00000000000003BF: 48 31 CF           xor         rdi,rcx
  00000000000003C2: 49 C1 CD 0E        ror         r13,0Eh
  00000000000003C6: 48 89 C8           mov         rax,rcx
  00000000000003C9: 49 21 FF           and         r15,rdi
  00000000000003CC: 49 C1 CE 1C        ror         r14,1Ch
  00000000000003D0: 4D 01 EC           add         r12,r13
  00000000000003D3: 4C 31 F8           xor         rax,r15
  00000000000003D6: 4D 01 E0           add         r8,r12
  00000000000003D9: 4C 01 E0           add         rax,r12
  00000000000003DC: 48 8D 6D 18        lea         rbp,[rbp+18h]
  00000000000003E0: 4C 01 F0           add         rax,r14
  00000000000003E3: 4C 8B 66 40        mov         r12,qword ptr [rsi+40h]
  00000000000003E7: 4D 89 C5           mov         r13,r8
  00000000000003EA: 49 89 C6           mov         r14,rax
  00000000000003ED: 49 0F CC           bswap       r12
  00000000000003F0: 49 C1 CD 17        ror         r13,17h
  00000000000003F4: 4D 89 CF           mov         r15,r9
  00000000000003F7: 4D 31 C5           xor         r13,r8
  00000000000003FA: 49 C1 CE 05        ror         r14,5
  00000000000003FE: 4D 31 D7           xor         r15,r10
  0000000000000401: 4C 89 64 24 40     mov         qword ptr [rsp+40h],r12
  0000000000000406: 49 31 C6           xor         r14,rax
  0000000000000409: 4D 21 C7           and         r15,r8
  000000000000040C: 49 C1 CD 04        ror         r13,4
  0000000000000410: 4D 01 DC           add         r12,r11
  0000000000000413: 4D 31 D7           xor         r15,r10
  0000000000000416: 49 C1 CE 06        ror         r14,6
  000000000000041A: 4D 31 C5           xor         r13,r8
  000000000000041D: 4D 01 FC           add         r12,r15
  0000000000000420: 49 89 C7           mov         r15,rax
  0000000000000423: 4C 03 65 00        add         r12,qword ptr [rbp]
  0000000000000427: 49 31 C6           xor         r14,rax
  000000000000042A: 49 31 DF           xor         r15,rbx
  000000000000042D: 49 C1 CD 0E        ror         r13,0Eh
  0000000000000431: 49 89 DB           mov         r11,rbx
  0000000000000434: 4C 21 FF           and         rdi,r15
  0000000000000437: 49 C1 CE 1C        ror         r14,1Ch
  000000000000043B: 4D 01 EC           add         r12,r13
  000000000000043E: 49 31 FB           xor         r11,rdi
  0000000000000441: 4C 01 E2           add         rdx,r12
  0000000000000444: 4D 01 E3           add         r11,r12
  0000000000000447: 48 8D 6D 08        lea         rbp,[rbp+8]
  000000000000044B: 4D 01 F3           add         r11,r14
  000000000000044E: 4C 8B 66 48        mov         r12,qword ptr [rsi+48h]
  0000000000000452: 49 89 D5           mov         r13,rdx
  0000000000000455: 4D 89 DE           mov         r14,r11
  0000000000000458: 49 0F CC           bswap       r12
  000000000000045B: 49 C1 CD 17        ror         r13,17h
  000000000000045F: 4C 89 C7           mov         rdi,r8
  0000000000000462: 49 31 D5           xor         r13,rdx
  0000000000000465: 49 C1 CE 05        ror         r14,5
  0000000000000469: 4C 31 CF           xor         rdi,r9
  000000000000046C: 4C 89 64 24 48     mov         qword ptr [rsp+48h],r12
  0000000000000471: 4D 31 DE           xor         r14,r11
  0000000000000474: 48 21 D7           and         rdi,rdx
  0000000000000477: 49 C1 CD 04        ror         r13,4
  000000000000047B: 4D 01 D4           add         r12,r10
  000000000000047E: 4C 31 CF           xor         rdi,r9
  0000000000000481: 49 C1 CE 06        ror         r14,6
  0000000000000485: 49 31 D5           xor         r13,rdx
  0000000000000488: 49 01 FC           add         r12,rdi
  000000000000048B: 4C 89 DF           mov         rdi,r11
  000000000000048E: 4C 03 65 00        add         r12,qword ptr [rbp]
  0000000000000492: 4D 31 DE           xor         r14,r11
  0000000000000495: 48 31 C7           xor         rdi,rax
  0000000000000498: 49 C1 CD 0E        ror         r13,0Eh
  000000000000049C: 49 89 C2           mov         r10,rax
  000000000000049F: 49 21 FF           and         r15,rdi
  00000000000004A2: 49 C1 CE 1C        ror         r14,1Ch
  00000000000004A6: 4D 01 EC           add         r12,r13
  00000000000004A9: 4D 31 FA           xor         r10,r15
  00000000000004AC: 4C 01 E1           add         rcx,r12
  00000000000004AF: 4D 01 E2           add         r10,r12
  00000000000004B2: 48 8D 6D 18        lea         rbp,[rbp+18h]
  00000000000004B6: 4D 01 F2           add         r10,r14
  00000000000004B9: 4C 8B 66 50        mov         r12,qword ptr [rsi+50h]
  00000000000004BD: 49 89 CD           mov         r13,rcx
  00000000000004C0: 4D 89 D6           mov         r14,r10
  00000000000004C3: 49 0F CC           bswap       r12
  00000000000004C6: 49 C1 CD 17        ror         r13,17h
  00000000000004CA: 49 89 D7           mov         r15,rdx
  00000000000004CD: 49 31 CD           xor         r13,rcx
  00000000000004D0: 49 C1 CE 05        ror         r14,5
  00000000000004D4: 4D 31 C7           xor         r15,r8
  00000000000004D7: 4C 89 64 24 50     mov         qword ptr [rsp+50h],r12
  00000000000004DC: 4D 31 D6           xor         r14,r10
  00000000000004DF: 49 21 CF           and         r15,rcx
  00000000000004E2: 49 C1 CD 04        ror         r13,4
  00000000000004E6: 4D 01 CC           add         r12,r9
  00000000000004E9: 4D 31 C7           xor         r15,r8
  00000000000004EC: 49 C1 CE 06        ror         r14,6
  00000000000004F0: 49 31 CD           xor         r13,rcx
  00000000000004F3: 4D 01 FC           add         r12,r15
  00000000000004F6: 4D 89 D7           mov         r15,r10
  00000000000004F9: 4C 03 65 00        add         r12,qword ptr [rbp]
  00000000000004FD: 4D 31 D6           xor         r14,r10
  0000000000000500: 4D 31 DF           xor         r15,r11
  0000000000000503: 49 C1 CD 0E        ror         r13,0Eh
  0000000000000507: 4D 89 D9           mov         r9,r11
  000000000000050A: 4C 21 FF           and         rdi,r15
  000000000000050D: 49 C1 CE 1C        ror         r14,1Ch
  0000000000000511: 4D 01 EC           add         r12,r13
  0000000000000514: 49 31 F9           xor         r9,rdi
  0000000000000517: 4C 01 E3           add         rbx,r12
  000000000000051A: 4D 01 E1           add         r9,r12
  000000000000051D: 48 8D 6D 08        lea         rbp,[rbp+8]
  0000000000000521: 4D 01 F1           add         r9,r14
  0000000000000524: 4C 8B 66 58        mov         r12,qword ptr [rsi+58h]
  0000000000000528: 49 89 DD           mov         r13,rbx
  000000000000052B: 4D 89 CE           mov         r14,r9
  000000000000052E: 49 0F CC           bswap       r12
  0000000000000531: 49 C1 CD 17        ror         r13,17h
  0000000000000535: 48 89 CF           mov         rdi,rcx
  0000000000000538: 49 31 DD           xor         r13,rbx
  000000000000053B: 49 C1 CE 05        ror         r14,5
  000000000000053F: 48 31 D7           xor         rdi,rdx
  0000000000000542: 4C 89 64 24 58     mov         qword ptr [rsp+58h],r12
  0000000000000547: 4D 31 CE           xor         r14,r9
  000000000000054A: 48 21 DF           and         rdi,rbx
  000000000000054D: 49 C1 CD 04        ror         r13,4
  0000000000000551: 4D 01 C4           add         r12,r8
  0000000000000554: 48 31 D7           xor         rdi,rdx
  0000000000000557: 49 C1 CE 06        ror         r14,6
  000000000000055B: 49 31 DD           xor         r13,rbx
  000000000000055E: 49 01 FC           add         r12,rdi
  0000000000000561: 4C 89 CF           mov         rdi,r9
  0000000000000564: 4C 03 65 00        add         r12,qword ptr [rbp]
  0000000000000568: 4D 31 CE           xor         r14,r9
  000000000000056B: 4C 31 D7           xor         rdi,r10
  000000000000056E: 49 C1 CD 0E        ror         r13,0Eh
  0000000000000572: 4D 89 D0           mov         r8,r10
  0000000000000575: 49 21 FF           and         r15,rdi
  0000000000000578: 49 C1 CE 1C        ror         r14,1Ch
  000000000000057C: 4D 01 EC           add         r12,r13
  000000000000057F: 4D 31 F8           xor         r8,r15
  0000000000000582: 4C 01 E0           add         rax,r12
  0000000000000585: 4D 01 E0           add         r8,r12
  0000000000000588: 48 8D 6D 18        lea         rbp,[rbp+18h]
  000000000000058C: 4D 01 F0           add         r8,r14
  000000000000058F: 4C 8B 66 60        mov         r12,qword ptr [rsi+60h]
  0000000000000593: 49 89 C5           mov         r13,rax
  0000000000000596: 4D 89 C6           mov         r14,r8
  0000000000000599: 49 0F CC           bswap       r12
  000000000000059C: 49 C1 CD 17        ror         r13,17h
  00000000000005A0: 49 89 DF           mov         r15,rbx
  00000000000005A3: 49 31 C5           xor         r13,rax
  00000000000005A6: 49 C1 CE 05        ror         r14,5
  00000000000005AA: 49 31 CF           xor         r15,rcx
  00000000000005AD: 4C 89 64 24 60     mov         qword ptr [rsp+60h],r12
  00000000000005B2: 4D 31 C6           xor         r14,r8
  00000000000005B5: 49 21 C7           and         r15,rax
  00000000000005B8: 49 C1 CD 04        ror         r13,4
  00000000000005BC: 49 01 D4           add         r12,rdx
  00000000000005BF: 49 31 CF           xor         r15,rcx
  00000000000005C2: 49 C1 CE 06        ror         r14,6
  00000000000005C6: 49 31 C5           xor         r13,rax
  00000000000005C9: 4D 01 FC           add         r12,r15
  00000000000005CC: 4D 89 C7           mov         r15,r8
  00000000000005CF: 4C 03 65 00        add         r12,qword ptr [rbp]
  00000000000005D3: 4D 31 C6           xor         r14,r8
  00000000000005D6: 4D 31 CF           xor         r15,r9
  00000000000005D9: 49 C1 CD 0E        ror         r13,0Eh
  00000000000005DD: 4C 89 CA           mov         rdx,r9
  00000000000005E0: 4C 21 FF           and         rdi,r15
  00000000000005E3: 49 C1 CE 1C        ror         r14,1Ch
  00000000000005E7: 4D 01 EC           add         r12,r13
  00000000000005EA: 48 31 FA           xor         rdx,rdi
  00000000000005ED: 4D 01 E3           add         r11,r12
  00000000000005F0: 4C 01 E2           add         rdx,r12
  00000000000005F3: 48 8D 6D 08        lea         rbp,[rbp+8]
  00000000000005F7: 4C 01 F2           add         rdx,r14
  00000000000005FA: 4C 8B 66 68        mov         r12,qword ptr [rsi+68h]
  00000000000005FE: 4D 89 DD           mov         r13,r11
  0000000000000601: 49 89 D6           mov         r14,rdx
  0000000000000604: 49 0F CC           bswap       r12
  0000000000000607: 49 C1 CD 17        ror         r13,17h
  000000000000060B: 48 89 C7           mov         rdi,rax
  000000000000060E: 4D 31 DD           xor         r13,r11
  0000000000000611: 49 C1 CE 05        ror         r14,5
  0000000000000615: 48 31 DF           xor         rdi,rbx
  0000000000000618: 4C 89 64 24 68     mov         qword ptr [rsp+68h],r12
  000000000000061D: 49 31 D6           xor         r14,rdx
  0000000000000620: 4C 21 DF           and         rdi,r11
  0000000000000623: 49 C1 CD 04        ror         r13,4
  0000000000000627: 49 01 CC           add         r12,rcx
  000000000000062A: 48 31 DF           xor         rdi,rbx
  000000000000062D: 49 C1 CE 06        ror         r14,6
  0000000000000631: 4D 31 DD           xor         r13,r11
  0000000000000634: 49 01 FC           add         r12,rdi
  0000000000000637: 48 89 D7           mov         rdi,rdx
  000000000000063A: 4C 03 65 00        add         r12,qword ptr [rbp]
  000000000000063E: 49 31 D6           xor         r14,rdx
  0000000000000641: 4C 31 C7           xor         rdi,r8
  0000000000000644: 49 C1 CD 0E        ror         r13,0Eh
  0000000000000648: 4C 89 C1           mov         rcx,r8
  000000000000064B: 49 21 FF           and         r15,rdi
  000000000000064E: 49 C1 CE 1C        ror         r14,1Ch
  0000000000000652: 4D 01 EC           add         r12,r13
  0000000000000655: 4C 31 F9           xor         rcx,r15
  0000000000000658: 4D 01 E2           add         r10,r12
  000000000000065B: 4C 01 E1           add         rcx,r12
  000000000000065E: 48 8D 6D 18        lea         rbp,[rbp+18h]
  0000000000000662: 4C 01 F1           add         rcx,r14
  0000000000000665: 4C 8B 66 70        mov         r12,qword ptr [rsi+70h]
  0000000000000669: 4D 89 D5           mov         r13,r10
  000000000000066C: 49 89 CE           mov         r14,rcx
  000000000000066F: 49 0F CC           bswap       r12
  0000000000000672: 49 C1 CD 17        ror         r13,17h
  0000000000000676: 4D 89 DF           mov         r15,r11
  0000000000000679: 4D 31 D5           xor         r13,r10
  000000000000067C: 49 C1 CE 05        ror         r14,5
  0000000000000680: 49 31 C7           xor         r15,rax
  0000000000000683: 4C 89 64 24 70     mov         qword ptr [rsp+70h],r12
  0000000000000688: 49 31 CE           xor         r14,rcx
  000000000000068B: 4D 21 D7           and         r15,r10
  000000000000068E: 49 C1 CD 04        ror         r13,4
  0000000000000692: 49 01 DC           add         r12,rbx
  0000000000000695: 49 31 C7           xor         r15,rax
  0000000000000698: 49 C1 CE 06        ror         r14,6
  000000000000069C: 4D 31 D5           xor         r13,r10
  000000000000069F: 4D 01 FC           add         r12,r15
  00000000000006A2: 49 89 CF           mov         r15,rcx
  00000000000006A5: 4C 03 65 00        add         r12,qword ptr [rbp]
  00000000000006A9: 49 31 CE           xor         r14,rcx
  00000000000006AC: 49 31 D7           xor         r15,rdx
  00000000000006AF: 49 C1 CD 0E        ror         r13,0Eh
  00000000000006B3: 48 89 D3           mov         rbx,rdx
  00000000000006B6: 4C 21 FF           and         rdi,r15
  00000000000006B9: 49 C1 CE 1C        ror         r14,1Ch
  00000000000006BD: 4D 01 EC           add         r12,r13
  00000000000006C0: 48 31 FB           xor         rbx,rdi
  00000000000006C3: 4D 01 E1           add         r9,r12
  00000000000006C6: 4C 01 E3           add         rbx,r12
  00000000000006C9: 48 8D 6D 08        lea         rbp,[rbp+8]
  00000000000006CD: 4C 01 F3           add         rbx,r14
  00000000000006D0: 4C 8B 66 78        mov         r12,qword ptr [rsi+78h]
  00000000000006D4: 4D 89 CD           mov         r13,r9
  00000000000006D7: 49 89 DE           mov         r14,rbx
  00000000000006DA: 49 0F CC           bswap       r12
  00000000000006DD: 49 C1 CD 17        ror         r13,17h
  00000000000006E1: 4C 89 D7           mov         rdi,r10
  00000000000006E4: 4D 31 CD           xor         r13,r9
  00000000000006E7: 49 C1 CE 05        ror         r14,5
  00000000000006EB: 4C 31 DF           xor         rdi,r11
  00000000000006EE: 4C 89 64 24 78     mov         qword ptr [rsp+78h],r12
  00000000000006F3: 49 31 DE           xor         r14,rbx
  00000000000006F6: 4C 21 CF           and         rdi,r9
  00000000000006F9: 49 C1 CD 04        ror         r13,4
  00000000000006FD: 49 01 C4           add         r12,rax
  0000000000000700: 4C 31 DF           xor         rdi,r11
  0000000000000703: 49 C1 CE 06        ror         r14,6
  0000000000000707: 4D 31 CD           xor         r13,r9
  000000000000070A: 49 01 FC           add         r12,rdi
  000000000000070D: 48 89 DF           mov         rdi,rbx
  0000000000000710: 4C 03 65 00        add         r12,qword ptr [rbp]
  0000000000000714: 49 31 DE           xor         r14,rbx
  0000000000000717: 48 31 CF           xor         rdi,rcx
  000000000000071A: 49 C1 CD 0E        ror         r13,0Eh
  000000000000071E: 48 89 C8           mov         rax,rcx
  0000000000000721: 49 21 FF           and         r15,rdi
  0000000000000724: 49 C1 CE 1C        ror         r14,1Ch
  0000000000000728: 4D 01 EC           add         r12,r13
  000000000000072B: 4C 31 F8           xor         rax,r15
  000000000000072E: 4D 01 E0           add         r8,r12
  0000000000000731: 4C 01 E0           add         rax,r12
  0000000000000734: 48 8D 6D 18        lea         rbp,[rbp+18h]
  0000000000000738: E9 03 00 00 00     jmp         L$rounds_16_xx
  000000000000073D: 90                 nop
  000000000000073E: 90                 nop
  000000000000073F: 90                 nop
L$rounds_16_xx:
  0000000000000740: 4C 8B 6C 24 08     mov         r13,qword ptr [rsp+8]
  0000000000000745: 4C 8B 7C 24 70     mov         r15,qword ptr [rsp+70h]
  000000000000074A: 4D 89 EC           mov         r12,r13
  000000000000074D: 49 C1 CD 07        ror         r13,7
  0000000000000751: 4C 01 F0           add         rax,r14
  0000000000000754: 4D 89 FE           mov         r14,r15
  0000000000000757: 49 C1 CF 2A        ror         r15,2Ah
  000000000000075B: 4D 31 E5           xor         r13,r12
  000000000000075E: 49 C1 EC 07        shr         r12,7
  0000000000000762: 49 D1 CD           ror         r13,1
  0000000000000765: 4D 31 F7           xor         r15,r14
  0000000000000768: 49 C1 EE 06        shr         r14,6
  000000000000076C: 49 C1 CF 13        ror         r15,13h
  0000000000000770: 4D 31 EC           xor         r12,r13
  0000000000000773: 4D 31 F7           xor         r15,r14
  0000000000000776: 4C 03 64 24 48     add         r12,qword ptr [rsp+48h]
  000000000000077B: 4C 03 24 24        add         r12,qword ptr [rsp]
  000000000000077F: 4D 89 C5           mov         r13,r8
  0000000000000782: 4D 01 FC           add         r12,r15
  0000000000000785: 49 89 C6           mov         r14,rax
  0000000000000788: 49 C1 CD 17        ror         r13,17h
  000000000000078C: 4D 89 CF           mov         r15,r9
  000000000000078F: 4D 31 C5           xor         r13,r8
  0000000000000792: 49 C1 CE 05        ror         r14,5
  0000000000000796: 4D 31 D7           xor         r15,r10
  0000000000000799: 4C 89 24 24        mov         qword ptr [rsp],r12
  000000000000079D: 49 31 C6           xor         r14,rax
  00000000000007A0: 4D 21 C7           and         r15,r8
  00000000000007A3: 49 C1 CD 04        ror         r13,4
  00000000000007A7: 4D 01 DC           add         r12,r11
  00000000000007AA: 4D 31 D7           xor         r15,r10
  00000000000007AD: 49 C1 CE 06        ror         r14,6
  00000000000007B1: 4D 31 C5           xor         r13,r8
  00000000000007B4: 4D 01 FC           add         r12,r15
  00000000000007B7: 49 89 C7           mov         r15,rax
  00000000000007BA: 4C 03 65 00        add         r12,qword ptr [rbp]
  00000000000007BE: 49 31 C6           xor         r14,rax
  00000000000007C1: 49 31 DF           xor         r15,rbx
  00000000000007C4: 49 C1 CD 0E        ror         r13,0Eh
  00000000000007C8: 49 89 DB           mov         r11,rbx
  00000000000007CB: 4C 21 FF           and         rdi,r15
  00000000000007CE: 49 C1 CE 1C        ror         r14,1Ch
  00000000000007D2: 4D 01 EC           add         r12,r13
  00000000000007D5: 49 31 FB           xor         r11,rdi
  00000000000007D8: 4C 01 E2           add         rdx,r12
  00000000000007DB: 4D 01 E3           add         r11,r12
  00000000000007DE: 48 8D 6D 08        lea         rbp,[rbp+8]
  00000000000007E2: 4C 8B 6C 24 10     mov         r13,qword ptr [rsp+10h]
  00000000000007E7: 48 8B 7C 24 78     mov         rdi,qword ptr [rsp+78h]
  00000000000007EC: 4D 89 EC           mov         r12,r13
  00000000000007EF: 49 C1 CD 07        ror         r13,7
  00000000000007F3: 4D 01 F3           add         r11,r14
  00000000000007F6: 49 89 FE           mov         r14,rdi
  00000000000007F9: 48 C1 CF 2A        ror         rdi,2Ah
  00000000000007FD: 4D 31 E5           xor         r13,r12
  0000000000000800: 49 C1 EC 07        shr         r12,7
  0000000000000804: 49 D1 CD           ror         r13,1
  0000000000000807: 4C 31 F7           xor         rdi,r14
  000000000000080A: 49 C1 EE 06        shr         r14,6
  000000000000080E: 48 C1 CF 13        ror         rdi,13h
  0000000000000812: 4D 31 EC           xor         r12,r13
  0000000000000815: 4C 31 F7           xor         rdi,r14
  0000000000000818: 4C 03 64 24 50     add         r12,qword ptr [rsp+50h]
  000000000000081D: 4C 03 64 24 08     add         r12,qword ptr [rsp+8]
  0000000000000822: 49 89 D5           mov         r13,rdx
  0000000000000825: 49 01 FC           add         r12,rdi
  0000000000000828: 4D 89 DE           mov         r14,r11
  000000000000082B: 49 C1 CD 17        ror         r13,17h
  000000000000082F: 4C 89 C7           mov         rdi,r8
  0000000000000832: 49 31 D5           xor         r13,rdx
  0000000000000835: 49 C1 CE 05        ror         r14,5
  0000000000000839: 4C 31 CF           xor         rdi,r9
  000000000000083C: 4C 89 64 24 08     mov         qword ptr [rsp+8],r12
  0000000000000841: 4D 31 DE           xor         r14,r11
  0000000000000844: 48 21 D7           and         rdi,rdx
  0000000000000847: 49 C1 CD 04        ror         r13,4
  000000000000084B: 4D 01 D4           add         r12,r10
  000000000000084E: 4C 31 CF           xor         rdi,r9
  0000000000000851: 49 C1 CE 06        ror         r14,6
  0000000000000855: 49 31 D5           xor         r13,rdx
  0000000000000858: 49 01 FC           add         r12,rdi
  000000000000085B: 4C 89 DF           mov         rdi,r11
  000000000000085E: 4C 03 65 00        add         r12,qword ptr [rbp]
  0000000000000862: 4D 31 DE           xor         r14,r11
  0000000000000865: 48 31 C7           xor         rdi,rax
  0000000000000868: 49 C1 CD 0E        ror         r13,0Eh
  000000000000086C: 49 89 C2           mov         r10,rax
  000000000000086F: 49 21 FF           and         r15,rdi
  0000000000000872: 49 C1 CE 1C        ror         r14,1Ch
  0000000000000876: 4D 01 EC           add         r12,r13
  0000000000000879: 4D 31 FA           xor         r10,r15
  000000000000087C: 4C 01 E1           add         rcx,r12
  000000000000087F: 4D 01 E2           add         r10,r12
  0000000000000882: 48 8D 6D 18        lea         rbp,[rbp+18h]
  0000000000000886: 4C 8B 6C 24 18     mov         r13,qword ptr [rsp+18h]
  000000000000088B: 4C 8B 3C 24        mov         r15,qword ptr [rsp]
  000000000000088F: 4D 89 EC           mov         r12,r13
  0000000000000892: 49 C1 CD 07        ror         r13,7
  0000000000000896: 4D 01 F2           add         r10,r14
  0000000000000899: 4D 89 FE           mov         r14,r15
  000000000000089C: 49 C1 CF 2A        ror         r15,2Ah
  00000000000008A0: 4D 31 E5           xor         r13,r12
  00000000000008A3: 49 C1 EC 07        shr         r12,7
  00000000000008A7: 49 D1 CD           ror         r13,1
  00000000000008AA: 4D 31 F7           xor         r15,r14
  00000000000008AD: 49 C1 EE 06        shr         r14,6
  00000000000008B1: 49 C1 CF 13        ror         r15,13h
  00000000000008B5: 4D 31 EC           xor         r12,r13
  00000000000008B8: 4D 31 F7           xor         r15,r14
  00000000000008BB: 4C 03 64 24 58     add         r12,qword ptr [rsp+58h]
  00000000000008C0: 4C 03 64 24 10     add         r12,qword ptr [rsp+10h]
  00000000000008C5: 49 89 CD           mov         r13,rcx
  00000000000008C8: 4D 01 FC           add         r12,r15
  00000000000008CB: 4D 89 D6           mov         r14,r10
  00000000000008CE: 49 C1 CD 17        ror         r13,17h
  00000000000008D2: 49 89 D7           mov         r15,rdx
  00000000000008D5: 49 31 CD           xor         r13,rcx
  00000000000008D8: 49 C1 CE 05        ror         r14,5
  00000000000008DC: 4D 31 C7           xor         r15,r8
  00000000000008DF: 4C 89 64 24 10     mov         qword ptr [rsp+10h],r12
  00000000000008E4: 4D 31 D6           xor         r14,r10
  00000000000008E7: 49 21 CF           and         r15,rcx
  00000000000008EA: 49 C1 CD 04        ror         r13,4
  00000000000008EE: 4D 01 CC           add         r12,r9
  00000000000008F1: 4D 31 C7           xor         r15,r8
  00000000000008F4: 49 C1 CE 06        ror         r14,6
  00000000000008F8: 49 31 CD           xor         r13,rcx
  00000000000008FB: 4D 01 FC           add         r12,r15
  00000000000008FE: 4D 89 D7           mov         r15,r10
  0000000000000901: 4C 03 65 00        add         r12,qword ptr [rbp]
  0000000000000905: 4D 31 D6           xor         r14,r10
  0000000000000908: 4D 31 DF           xor         r15,r11
  000000000000090B: 49 C1 CD 0E        ror         r13,0Eh
  000000000000090F: 4D 89 D9           mov         r9,r11
  0000000000000912: 4C 21 FF           and         rdi,r15
  0000000000000915: 49 C1 CE 1C        ror         r14,1Ch
  0000000000000919: 4D 01 EC           add         r12,r13
  000000000000091C: 49 31 F9           xor         r9,rdi
  000000000000091F: 4C 01 E3           add         rbx,r12
  0000000000000922: 4D 01 E1           add         r9,r12
  0000000000000925: 48 8D 6D 08        lea         rbp,[rbp+8]
  0000000000000929: 4C 8B 6C 24 20     mov         r13,qword ptr [rsp+20h]
  000000000000092E: 48 8B 7C 24 08     mov         rdi,qword ptr [rsp+8]
  0000000000000933: 4D 89 EC           mov         r12,r13
  0000000000000936: 49 C1 CD 07        ror         r13,7
  000000000000093A: 4D 01 F1           add         r9,r14
  000000000000093D: 49 89 FE           mov         r14,rdi
  0000000000000940: 48 C1 CF 2A        ror         rdi,2Ah
  0000000000000944: 4D 31 E5           xor         r13,r12
  0000000000000947: 49 C1 EC 07        shr         r12,7
  000000000000094B: 49 D1 CD           ror         r13,1
  000000000000094E: 4C 31 F7           xor         rdi,r14
  0000000000000951: 49 C1 EE 06        shr         r14,6
  0000000000000955: 48 C1 CF 13        ror         rdi,13h
  0000000000000959: 4D 31 EC           xor         r12,r13
  000000000000095C: 4C 31 F7           xor         rdi,r14
  000000000000095F: 4C 03 64 24 60     add         r12,qword ptr [rsp+60h]
  0000000000000964: 4C 03 64 24 18     add         r12,qword ptr [rsp+18h]
  0000000000000969: 49 89 DD           mov         r13,rbx
  000000000000096C: 49 01 FC           add         r12,rdi
  000000000000096F: 4D 89 CE           mov         r14,r9
  0000000000000972: 49 C1 CD 17        ror         r13,17h
  0000000000000976: 48 89 CF           mov         rdi,rcx
  0000000000000979: 49 31 DD           xor         r13,rbx
  000000000000097C: 49 C1 CE 05        ror         r14,5
  0000000000000980: 48 31 D7           xor         rdi,rdx
  0000000000000983: 4C 89 64 24 18     mov         qword ptr [rsp+18h],r12
  0000000000000988: 4D 31 CE           xor         r14,r9
  000000000000098B: 48 21 DF           and         rdi,rbx
  000000000000098E: 49 C1 CD 04        ror         r13,4
  0000000000000992: 4D 01 C4           add         r12,r8
  0000000000000995: 48 31 D7           xor         rdi,rdx
  0000000000000998: 49 C1 CE 06        ror         r14,6
  000000000000099C: 49 31 DD           xor         r13,rbx
  000000000000099F: 49 01 FC           add         r12,rdi
  00000000000009A2: 4C 89 CF           mov         rdi,r9
  00000000000009A5: 4C 03 65 00        add         r12,qword ptr [rbp]
  00000000000009A9: 4D 31 CE           xor         r14,r9
  00000000000009AC: 4C 31 D7           xor         rdi,r10
  00000000000009AF: 49 C1 CD 0E        ror         r13,0Eh
  00000000000009B3: 4D 89 D0           mov         r8,r10
  00000000000009B6: 49 21 FF           and         r15,rdi
  00000000000009B9: 49 C1 CE 1C        ror         r14,1Ch
  00000000000009BD: 4D 01 EC           add         r12,r13
  00000000000009C0: 4D 31 F8           xor         r8,r15
  00000000000009C3: 4C 01 E0           add         rax,r12
  00000000000009C6: 4D 01 E0           add         r8,r12
  00000000000009C9: 48 8D 6D 18        lea         rbp,[rbp+18h]
  00000000000009CD: 4C 8B 6C 24 28     mov         r13,qword ptr [rsp+28h]
  00000000000009D2: 4C 8B 7C 24 10     mov         r15,qword ptr [rsp+10h]
  00000000000009D7: 4D 89 EC           mov         r12,r13
  00000000000009DA: 49 C1 CD 07        ror         r13,7
  00000000000009DE: 4D 01 F0           add         r8,r14
  00000000000009E1: 4D 89 FE           mov         r14,r15
  00000000000009E4: 49 C1 CF 2A        ror         r15,2Ah
  00000000000009E8: 4D 31 E5           xor         r13,r12
  00000000000009EB: 49 C1 EC 07        shr         r12,7
  00000000000009EF: 49 D1 CD           ror         r13,1
  00000000000009F2: 4D 31 F7           xor         r15,r14
  00000000000009F5: 49 C1 EE 06        shr         r14,6
  00000000000009F9: 49 C1 CF 13        ror         r15,13h
  00000000000009FD: 4D 31 EC           xor         r12,r13
  0000000000000A00: 4D 31 F7           xor         r15,r14
  0000000000000A03: 4C 03 64 24 68     add         r12,qword ptr [rsp+68h]
  0000000000000A08: 4C 03 64 24 20     add         r12,qword ptr [rsp+20h]
  0000000000000A0D: 49 89 C5           mov         r13,rax
  0000000000000A10: 4D 01 FC           add         r12,r15
  0000000000000A13: 4D 89 C6           mov         r14,r8
  0000000000000A16: 49 C1 CD 17        ror         r13,17h
  0000000000000A1A: 49 89 DF           mov         r15,rbx
  0000000000000A1D: 49 31 C5           xor         r13,rax
  0000000000000A20: 49 C1 CE 05        ror         r14,5
  0000000000000A24: 49 31 CF           xor         r15,rcx
  0000000000000A27: 4C 89 64 24 20     mov         qword ptr [rsp+20h],r12
  0000000000000A2C: 4D 31 C6           xor         r14,r8
  0000000000000A2F: 49 21 C7           and         r15,rax
  0000000000000A32: 49 C1 CD 04        ror         r13,4
  0000000000000A36: 49 01 D4           add         r12,rdx
  0000000000000A39: 49 31 CF           xor         r15,rcx
  0000000000000A3C: 49 C1 CE 06        ror         r14,6
  0000000000000A40: 49 31 C5           xor         r13,rax
  0000000000000A43: 4D 01 FC           add         r12,r15
  0000000000000A46: 4D 89 C7           mov         r15,r8
  0000000000000A49: 4C 03 65 00        add         r12,qword ptr [rbp]
  0000000000000A4D: 4D 31 C6           xor         r14,r8
  0000000000000A50: 4D 31 CF           xor         r15,r9
  0000000000000A53: 49 C1 CD 0E        ror         r13,0Eh
  0000000000000A57: 4C 89 CA           mov         rdx,r9
  0000000000000A5A: 4C 21 FF           and         rdi,r15
  0000000000000A5D: 49 C1 CE 1C        ror         r14,1Ch
  0000000000000A61: 4D 01 EC           add         r12,r13
  0000000000000A64: 48 31 FA           xor         rdx,rdi
  0000000000000A67: 4D 01 E3           add         r11,r12
  0000000000000A6A: 4C 01 E2           add         rdx,r12
  0000000000000A6D: 48 8D 6D 08        lea         rbp,[rbp+8]
  0000000000000A71: 4C 8B 6C 24 30     mov         r13,qword ptr [rsp+30h]
  0000000000000A76: 48 8B 7C 24 18     mov         rdi,qword ptr [rsp+18h]
  0000000000000A7B: 4D 89 EC           mov         r12,r13
  0000000000000A7E: 49 C1 CD 07        ror         r13,7
  0000000000000A82: 4C 01 F2           add         rdx,r14
  0000000000000A85: 49 89 FE           mov         r14,rdi
  0000000000000A88: 48 C1 CF 2A        ror         rdi,2Ah
  0000000000000A8C: 4D 31 E5           xor         r13,r12
  0000000000000A8F: 49 C1 EC 07        shr         r12,7
  0000000000000A93: 49 D1 CD           ror         r13,1
  0000000000000A96: 4C 31 F7           xor         rdi,r14
  0000000000000A99: 49 C1 EE 06        shr         r14,6
  0000000000000A9D: 48 C1 CF 13        ror         rdi,13h
  0000000000000AA1: 4D 31 EC           xor         r12,r13
  0000000000000AA4: 4C 31 F7           xor         rdi,r14
  0000000000000AA7: 4C 03 64 24 70     add         r12,qword ptr [rsp+70h]
  0000000000000AAC: 4C 03 64 24 28     add         r12,qword ptr [rsp+28h]
  0000000000000AB1: 4D 89 DD           mov         r13,r11
  0000000000000AB4: 49 01 FC           add         r12,rdi
  0000000000000AB7: 49 89 D6           mov         r14,rdx
  0000000000000ABA: 49 C1 CD 17        ror         r13,17h
  0000000000000ABE: 48 89 C7           mov         rdi,rax
  0000000000000AC1: 4D 31 DD           xor         r13,r11
  0000000000000AC4: 49 C1 CE 05        ror         r14,5
  0000000000000AC8: 48 31 DF           xor         rdi,rbx
  0000000000000ACB: 4C 89 64 24 28     mov         qword ptr [rsp+28h],r12
  0000000000000AD0: 49 31 D6           xor         r14,rdx
  0000000000000AD3: 4C 21 DF           and         rdi,r11
  0000000000000AD6: 49 C1 CD 04        ror         r13,4
  0000000000000ADA: 49 01 CC           add         r12,rcx
  0000000000000ADD: 48 31 DF           xor         rdi,rbx
  0000000000000AE0: 49 C1 CE 06        ror         r14,6
  0000000000000AE4: 4D 31 DD           xor         r13,r11
  0000000000000AE7: 49 01 FC           add         r12,rdi
  0000000000000AEA: 48 89 D7           mov         rdi,rdx
  0000000000000AED: 4C 03 65 00        add         r12,qword ptr [rbp]
  0000000000000AF1: 49 31 D6           xor         r14,rdx
  0000000000000AF4: 4C 31 C7           xor         rdi,r8
  0000000000000AF7: 49 C1 CD 0E        ror         r13,0Eh
  0000000000000AFB: 4C 89 C1           mov         rcx,r8
  0000000000000AFE: 49 21 FF           and         r15,rdi
  0000000000000B01: 49 C1 CE 1C        ror         r14,1Ch
  0000000000000B05: 4D 01 EC           add         r12,r13
  0000000000000B08: 4C 31 F9           xor         rcx,r15
  0000000000000B0B: 4D 01 E2           add         r10,r12
  0000000000000B0E: 4C 01 E1           add         rcx,r12
  0000000000000B11: 48 8D 6D 18        lea         rbp,[rbp+18h]
  0000000000000B15: 4C 8B 6C 24 38     mov         r13,qword ptr [rsp+38h]
  0000000000000B1A: 4C 8B 7C 24 20     mov         r15,qword ptr [rsp+20h]
  0000000000000B1F: 4D 89 EC           mov         r12,r13
  0000000000000B22: 49 C1 CD 07        ror         r13,7
  0000000000000B26: 4C 01 F1           add         rcx,r14
  0000000000000B29: 4D 89 FE           mov         r14,r15
  0000000000000B2C: 49 C1 CF 2A        ror         r15,2Ah
  0000000000000B30: 4D 31 E5           xor         r13,r12
  0000000000000B33: 49 C1 EC 07        shr         r12,7
  0000000000000B37: 49 D1 CD           ror         r13,1
  0000000000000B3A: 4D 31 F7           xor         r15,r14
  0000000000000B3D: 49 C1 EE 06        shr         r14,6
  0000000000000B41: 49 C1 CF 13        ror         r15,13h
  0000000000000B45: 4D 31 EC           xor         r12,r13
  0000000000000B48: 4D 31 F7           xor         r15,r14
  0000000000000B4B: 4C 03 64 24 78     add         r12,qword ptr [rsp+78h]
  0000000000000B50: 4C 03 64 24 30     add         r12,qword ptr [rsp+30h]
  0000000000000B55: 4D 89 D5           mov         r13,r10
  0000000000000B58: 4D 01 FC           add         r12,r15
  0000000000000B5B: 49 89 CE           mov         r14,rcx
  0000000000000B5E: 49 C1 CD 17        ror         r13,17h
  0000000000000B62: 4D 89 DF           mov         r15,r11
  0000000000000B65: 4D 31 D5           xor         r13,r10
  0000000000000B68: 49 C1 CE 05        ror         r14,5
  0000000000000B6C: 49 31 C7           xor         r15,rax
  0000000000000B6F: 4C 89 64 24 30     mov         qword ptr [rsp+30h],r12
  0000000000000B74: 49 31 CE           xor         r14,rcx
  0000000000000B77: 4D 21 D7           and         r15,r10
  0000000000000B7A: 49 C1 CD 04        ror         r13,4
  0000000000000B7E: 49 01 DC           add         r12,rbx
  0000000000000B81: 49 31 C7           xor         r15,rax
  0000000000000B84: 49 C1 CE 06        ror         r14,6
  0000000000000B88: 4D 31 D5           xor         r13,r10
  0000000000000B8B: 4D 01 FC           add         r12,r15
  0000000000000B8E: 49 89 CF           mov         r15,rcx
  0000000000000B91: 4C 03 65 00        add         r12,qword ptr [rbp]
  0000000000000B95: 49 31 CE           xor         r14,rcx
  0000000000000B98: 49 31 D7           xor         r15,rdx
  0000000000000B9B: 49 C1 CD 0E        ror         r13,0Eh
  0000000000000B9F: 48 89 D3           mov         rbx,rdx
  0000000000000BA2: 4C 21 FF           and         rdi,r15
  0000000000000BA5: 49 C1 CE 1C        ror         r14,1Ch
  0000000000000BA9: 4D 01 EC           add         r12,r13
  0000000000000BAC: 48 31 FB           xor         rbx,rdi
  0000000000000BAF: 4D 01 E1           add         r9,r12
  0000000000000BB2: 4C 01 E3           add         rbx,r12
  0000000000000BB5: 48 8D 6D 08        lea         rbp,[rbp+8]
  0000000000000BB9: 4C 8B 6C 24 40     mov         r13,qword ptr [rsp+40h]
  0000000000000BBE: 48 8B 7C 24 28     mov         rdi,qword ptr [rsp+28h]
  0000000000000BC3: 4D 89 EC           mov         r12,r13
  0000000000000BC6: 49 C1 CD 07        ror         r13,7
  0000000000000BCA: 4C 01 F3           add         rbx,r14
  0000000000000BCD: 49 89 FE           mov         r14,rdi
  0000000000000BD0: 48 C1 CF 2A        ror         rdi,2Ah
  0000000000000BD4: 4D 31 E5           xor         r13,r12
  0000000000000BD7: 49 C1 EC 07        shr         r12,7
  0000000000000BDB: 49 D1 CD           ror         r13,1
  0000000000000BDE: 4C 31 F7           xor         rdi,r14
  0000000000000BE1: 49 C1 EE 06        shr         r14,6
  0000000000000BE5: 48 C1 CF 13        ror         rdi,13h
  0000000000000BE9: 4D 31 EC           xor         r12,r13
  0000000000000BEC: 4C 31 F7           xor         rdi,r14
  0000000000000BEF: 4C 03 24 24        add         r12,qword ptr [rsp]
  0000000000000BF3: 4C 03 64 24 38     add         r12,qword ptr [rsp+38h]
  0000000000000BF8: 4D 89 CD           mov         r13,r9
  0000000000000BFB: 49 01 FC           add         r12,rdi
  0000000000000BFE: 49 89 DE           mov         r14,rbx
  0000000000000C01: 49 C1 CD 17        ror         r13,17h
  0000000000000C05: 4C 89 D7           mov         rdi,r10
  0000000000000C08: 4D 31 CD           xor         r13,r9
  0000000000000C0B: 49 C1 CE 05        ror         r14,5
  0000000000000C0F: 4C 31 DF           xor         rdi,r11
  0000000000000C12: 4C 89 64 24 38     mov         qword ptr [rsp+38h],r12
  0000000000000C17: 49 31 DE           xor         r14,rbx
  0000000000000C1A: 4C 21 CF           and         rdi,r9
  0000000000000C1D: 49 C1 CD 04        ror         r13,4
  0000000000000C21: 49 01 C4           add         r12,rax
  0000000000000C24: 4C 31 DF           xor         rdi,r11
  0000000000000C27: 49 C1 CE 06        ror         r14,6
  0000000000000C2B: 4D 31 CD           xor         r13,r9
  0000000000000C2E: 49 01 FC           add         r12,rdi
  0000000000000C31: 48 89 DF           mov         rdi,rbx
  0000000000000C34: 4C 03 65 00        add         r12,qword ptr [rbp]
  0000000000000C38: 49 31 DE           xor         r14,rbx
  0000000000000C3B: 48 31 CF           xor         rdi,rcx
  0000000000000C3E: 49 C1 CD 0E        ror         r13,0Eh
  0000000000000C42: 48 89 C8           mov         rax,rcx
  0000000000000C45: 49 21 FF           and         r15,rdi
  0000000000000C48: 49 C1 CE 1C        ror         r14,1Ch
  0000000000000C4C: 4D 01 EC           add         r12,r13
  0000000000000C4F: 4C 31 F8           xor         rax,r15
  0000000000000C52: 4D 01 E0           add         r8,r12
  0000000000000C55: 4C 01 E0           add         rax,r12
  0000000000000C58: 48 8D 6D 18        lea         rbp,[rbp+18h]
  0000000000000C5C: 4C 8B 6C 24 48     mov         r13,qword ptr [rsp+48h]
  0000000000000C61: 4C 8B 7C 24 30     mov         r15,qword ptr [rsp+30h]
  0000000000000C66: 4D 89 EC           mov         r12,r13
  0000000000000C69: 49 C1 CD 07        ror         r13,7
  0000000000000C6D: 4C 01 F0           add         rax,r14
  0000000000000C70: 4D 89 FE           mov         r14,r15
  0000000000000C73: 49 C1 CF 2A        ror         r15,2Ah
  0000000000000C77: 4D 31 E5           xor         r13,r12
  0000000000000C7A: 49 C1 EC 07        shr         r12,7
  0000000000000C7E: 49 D1 CD           ror         r13,1
  0000000000000C81: 4D 31 F7           xor         r15,r14
  0000000000000C84: 49 C1 EE 06        shr         r14,6
  0000000000000C88: 49 C1 CF 13        ror         r15,13h
  0000000000000C8C: 4D 31 EC           xor         r12,r13
  0000000000000C8F: 4D 31 F7           xor         r15,r14
  0000000000000C92: 4C 03 64 24 08     add         r12,qword ptr [rsp+8]
  0000000000000C97: 4C 03 64 24 40     add         r12,qword ptr [rsp+40h]
  0000000000000C9C: 4D 89 C5           mov         r13,r8
  0000000000000C9F: 4D 01 FC           add         r12,r15
  0000000000000CA2: 49 89 C6           mov         r14,rax
  0000000000000CA5: 49 C1 CD 17        ror         r13,17h
  0000000000000CA9: 4D 89 CF           mov         r15,r9
  0000000000000CAC: 4D 31 C5           xor         r13,r8
  0000000000000CAF: 49 C1 CE 05        ror         r14,5
  0000000000000CB3: 4D 31 D7           xor         r15,r10
  0000000000000CB6: 4C 89 64 24 40     mov         qword ptr [rsp+40h],r12
  0000000000000CBB: 49 31 C6           xor         r14,rax
  0000000000000CBE: 4D 21 C7           and         r15,r8
  0000000000000CC1: 49 C1 CD 04        ror         r13,4
  0000000000000CC5: 4D 01 DC           add         r12,r11
  0000000000000CC8: 4D 31 D7           xor         r15,r10
  0000000000000CCB: 49 C1 CE 06        ror         r14,6
  0000000000000CCF: 4D 31 C5           xor         r13,r8
  0000000000000CD2: 4D 01 FC           add         r12,r15
  0000000000000CD5: 49 89 C7           mov         r15,rax
  0000000000000CD8: 4C 03 65 00        add         r12,qword ptr [rbp]
  0000000000000CDC: 49 31 C6           xor         r14,rax
  0000000000000CDF: 49 31 DF           xor         r15,rbx
  0000000000000CE2: 49 C1 CD 0E        ror         r13,0Eh
  0000000000000CE6: 49 89 DB           mov         r11,rbx
  0000000000000CE9: 4C 21 FF           and         rdi,r15
  0000000000000CEC: 49 C1 CE 1C        ror         r14,1Ch
  0000000000000CF0: 4D 01 EC           add         r12,r13
  0000000000000CF3: 49 31 FB           xor         r11,rdi
  0000000000000CF6: 4C 01 E2           add         rdx,r12
  0000000000000CF9: 4D 01 E3           add         r11,r12
  0000000000000CFC: 48 8D 6D 08        lea         rbp,[rbp+8]
  0000000000000D00: 4C 8B 6C 24 50     mov         r13,qword ptr [rsp+50h]
  0000000000000D05: 48 8B 7C 24 38     mov         rdi,qword ptr [rsp+38h]
  0000000000000D0A: 4D 89 EC           mov         r12,r13
  0000000000000D0D: 49 C1 CD 07        ror         r13,7
  0000000000000D11: 4D 01 F3           add         r11,r14
  0000000000000D14: 49 89 FE           mov         r14,rdi
  0000000000000D17: 48 C1 CF 2A        ror         rdi,2Ah
  0000000000000D1B: 4D 31 E5           xor         r13,r12
  0000000000000D1E: 49 C1 EC 07        shr         r12,7
  0000000000000D22: 49 D1 CD           ror         r13,1
  0000000000000D25: 4C 31 F7           xor         rdi,r14
  0000000000000D28: 49 C1 EE 06        shr         r14,6
  0000000000000D2C: 48 C1 CF 13        ror         rdi,13h
  0000000000000D30: 4D 31 EC           xor         r12,r13
  0000000000000D33: 4C 31 F7           xor         rdi,r14
  0000000000000D36: 4C 03 64 24 10     add         r12,qword ptr [rsp+10h]
  0000000000000D3B: 4C 03 64 24 48     add         r12,qword ptr [rsp+48h]
  0000000000000D40: 49 89 D5           mov         r13,rdx
  0000000000000D43: 49 01 FC           add         r12,rdi
  0000000000000D46: 4D 89 DE           mov         r14,r11
  0000000000000D49: 49 C1 CD 17        ror         r13,17h
  0000000000000D4D: 4C 89 C7           mov         rdi,r8
  0000000000000D50: 49 31 D5           xor         r13,rdx
  0000000000000D53: 49 C1 CE 05        ror         r14,5
  0000000000000D57: 4C 31 CF           xor         rdi,r9
  0000000000000D5A: 4C 89 64 24 48     mov         qword ptr [rsp+48h],r12
  0000000000000D5F: 4D 31 DE           xor         r14,r11
  0000000000000D62: 48 21 D7           and         rdi,rdx
  0000000000000D65: 49 C1 CD 04        ror         r13,4
  0000000000000D69: 4D 01 D4           add         r12,r10
  0000000000000D6C: 4C 31 CF           xor         rdi,r9
  0000000000000D6F: 49 C1 CE 06        ror         r14,6
  0000000000000D73: 49 31 D5           xor         r13,rdx
  0000000000000D76: 49 01 FC           add         r12,rdi
  0000000000000D79: 4C 89 DF           mov         rdi,r11
  0000000000000D7C: 4C 03 65 00        add         r12,qword ptr [rbp]
  0000000000000D80: 4D 31 DE           xor         r14,r11
  0000000000000D83: 48 31 C7           xor         rdi,rax
  0000000000000D86: 49 C1 CD 0E        ror         r13,0Eh
  0000000000000D8A: 49 89 C2           mov         r10,rax
  0000000000000D8D: 49 21 FF           and         r15,rdi
  0000000000000D90: 49 C1 CE 1C        ror         r14,1Ch
  0000000000000D94: 4D 01 EC           add         r12,r13
  0000000000000D97: 4D 31 FA           xor         r10,r15
  0000000000000D9A: 4C 01 E1           add         rcx,r12
  0000000000000D9D: 4D 01 E2           add         r10,r12
  0000000000000DA0: 48 8D 6D 18        lea         rbp,[rbp+18h]
  0000000000000DA4: 4C 8B 6C 24 58     mov         r13,qword ptr [rsp+58h]
  0000000000000DA9: 4C 8B 7C 24 40     mov         r15,qword ptr [rsp+40h]
  0000000000000DAE: 4D 89 EC           mov         r12,r13
  0000000000000DB1: 49 C1 CD 07        ror         r13,7
  0000000000000DB5: 4D 01 F2           add         r10,r14
  0000000000000DB8: 4D 89 FE           mov         r14,r15
  0000000000000DBB: 49 C1 CF 2A        ror         r15,2Ah
  0000000000000DBF: 4D 31 E5           xor         r13,r12
  0000000000000DC2: 49 C1 EC 07        shr         r12,7
  0000000000000DC6: 49 D1 CD           ror         r13,1
  0000000000000DC9: 4D 31 F7           xor         r15,r14
  0000000000000DCC: 49 C1 EE 06        shr         r14,6
  0000000000000DD0: 49 C1 CF 13        ror         r15,13h
  0000000000000DD4: 4D 31 EC           xor         r12,r13
  0000000000000DD7: 4D 31 F7           xor         r15,r14
  0000000000000DDA: 4C 03 64 24 18     add         r12,qword ptr [rsp+18h]
  0000000000000DDF: 4C 03 64 24 50     add         r12,qword ptr [rsp+50h]
  0000000000000DE4: 49 89 CD           mov         r13,rcx
  0000000000000DE7: 4D 01 FC           add         r12,r15
  0000000000000DEA: 4D 89 D6           mov         r14,r10
  0000000000000DED: 49 C1 CD 17        ror         r13,17h
  0000000000000DF1: 49 89 D7           mov         r15,rdx
  0000000000000DF4: 49 31 CD           xor         r13,rcx
  0000000000000DF7: 49 C1 CE 05        ror         r14,5
  0000000000000DFB: 4D 31 C7           xor         r15,r8
  0000000000000DFE: 4C 89 64 24 50     mov         qword ptr [rsp+50h],r12
  0000000000000E03: 4D 31 D6           xor         r14,r10
  0000000000000E06: 49 21 CF           and         r15,rcx
  0000000000000E09: 49 C1 CD 04        ror         r13,4
  0000000000000E0D: 4D 01 CC           add         r12,r9
  0000000000000E10: 4D 31 C7           xor         r15,r8
  0000000000000E13: 49 C1 CE 06        ror         r14,6
  0000000000000E17: 49 31 CD           xor         r13,rcx
  0000000000000E1A: 4D 01 FC           add         r12,r15
  0000000000000E1D: 4D 89 D7           mov         r15,r10
  0000000000000E20: 4C 03 65 00        add         r12,qword ptr [rbp]
  0000000000000E24: 4D 31 D6           xor         r14,r10
  0000000000000E27: 4D 31 DF           xor         r15,r11
  0000000000000E2A: 49 C1 CD 0E        ror         r13,0Eh
  0000000000000E2E: 4D 89 D9           mov         r9,r11
  0000000000000E31: 4C 21 FF           and         rdi,r15
  0000000000000E34: 49 C1 CE 1C        ror         r14,1Ch
  0000000000000E38: 4D 01 EC           add         r12,r13
  0000000000000E3B: 49 31 F9           xor         r9,rdi
  0000000000000E3E: 4C 01 E3           add         rbx,r12
  0000000000000E41: 4D 01 E1           add         r9,r12
  0000000000000E44: 48 8D 6D 08        lea         rbp,[rbp+8]
  0000000000000E48: 4C 8B 6C 24 60     mov         r13,qword ptr [rsp+60h]
  0000000000000E4D: 48 8B 7C 24 48     mov         rdi,qword ptr [rsp+48h]
  0000000000000E52: 4D 89 EC           mov         r12,r13
  0000000000000E55: 49 C1 CD 07        ror         r13,7
  0000000000000E59: 4D 01 F1           add         r9,r14
  0000000000000E5C: 49 89 FE           mov         r14,rdi
  0000000000000E5F: 48 C1 CF 2A        ror         rdi,2Ah
  0000000000000E63: 4D 31 E5           xor         r13,r12
  0000000000000E66: 49 C1 EC 07        shr         r12,7
  0000000000000E6A: 49 D1 CD           ror         r13,1
  0000000000000E6D: 4C 31 F7           xor         rdi,r14
  0000000000000E70: 49 C1 EE 06        shr         r14,6
  0000000000000E74: 48 C1 CF 13        ror         rdi,13h
  0000000000000E78: 4D 31 EC           xor         r12,r13
  0000000000000E7B: 4C 31 F7           xor         rdi,r14
  0000000000000E7E: 4C 03 64 24 20     add         r12,qword ptr [rsp+20h]
  0000000000000E83: 4C 03 64 24 58     add         r12,qword ptr [rsp+58h]
  0000000000000E88: 49 89 DD           mov         r13,rbx
  0000000000000E8B: 49 01 FC           add         r12,rdi
  0000000000000E8E: 4D 89 CE           mov         r14,r9
  0000000000000E91: 49 C1 CD 17        ror         r13,17h
  0000000000000E95: 48 89 CF           mov         rdi,rcx
  0000000000000E98: 49 31 DD           xor         r13,rbx
  0000000000000E9B: 49 C1 CE 05        ror         r14,5
  0000000000000E9F: 48 31 D7           xor         rdi,rdx
  0000000000000EA2: 4C 89 64 24 58     mov         qword ptr [rsp+58h],r12
  0000000000000EA7: 4D 31 CE           xor         r14,r9
  0000000000000EAA: 48 21 DF           and         rdi,rbx
  0000000000000EAD: 49 C1 CD 04        ror         r13,4
  0000000000000EB1: 4D 01 C4           add         r12,r8
  0000000000000EB4: 48 31 D7           xor         rdi,rdx
  0000000000000EB7: 49 C1 CE 06        ror         r14,6
  0000000000000EBB: 49 31 DD           xor         r13,rbx
  0000000000000EBE: 49 01 FC           add         r12,rdi
  0000000000000EC1: 4C 89 CF           mov         rdi,r9
  0000000000000EC4: 4C 03 65 00        add         r12,qword ptr [rbp]
  0000000000000EC8: 4D 31 CE           xor         r14,r9
  0000000000000ECB: 4C 31 D7           xor         rdi,r10
  0000000000000ECE: 49 C1 CD 0E        ror         r13,0Eh
  0000000000000ED2: 4D 89 D0           mov         r8,r10
  0000000000000ED5: 49 21 FF           and         r15,rdi
  0000000000000ED8: 49 C1 CE 1C        ror         r14,1Ch
  0000000000000EDC: 4D 01 EC           add         r12,r13
  0000000000000EDF: 4D 31 F8           xor         r8,r15
  0000000000000EE2: 4C 01 E0           add         rax,r12
  0000000000000EE5: 4D 01 E0           add         r8,r12
  0000000000000EE8: 48 8D 6D 18        lea         rbp,[rbp+18h]
  0000000000000EEC: 4C 8B 6C 24 68     mov         r13,qword ptr [rsp+68h]
  0000000000000EF1: 4C 8B 7C 24 50     mov         r15,qword ptr [rsp+50h]
  0000000000000EF6: 4D 89 EC           mov         r12,r13
  0000000000000EF9: 49 C1 CD 07        ror         r13,7
  0000000000000EFD: 4D 01 F0           add         r8,r14
  0000000000000F00: 4D 89 FE           mov         r14,r15
  0000000000000F03: 49 C1 CF 2A        ror         r15,2Ah
  0000000000000F07: 4D 31 E5           xor         r13,r12
  0000000000000F0A: 49 C1 EC 07        shr         r12,7
  0000000000000F0E: 49 D1 CD           ror         r13,1
  0000000000000F11: 4D 31 F7           xor         r15,r14
  0000000000000F14: 49 C1 EE 06        shr         r14,6
  0000000000000F18: 49 C1 CF 13        ror         r15,13h
  0000000000000F1C: 4D 31 EC           xor         r12,r13
  0000000000000F1F: 4D 31 F7           xor         r15,r14
  0000000000000F22: 4C 03 64 24 28     add         r12,qword ptr [rsp+28h]
  0000000000000F27: 4C 03 64 24 60     add         r12,qword ptr [rsp+60h]
  0000000000000F2C: 49 89 C5           mov         r13,rax
  0000000000000F2F: 4D 01 FC           add         r12,r15
  0000000000000F32: 4D 89 C6           mov         r14,r8
  0000000000000F35: 49 C1 CD 17        ror         r13,17h
  0000000000000F39: 49 89 DF           mov         r15,rbx
  0000000000000F3C: 49 31 C5           xor         r13,rax
  0000000000000F3F: 49 C1 CE 05        ror         r14,5
  0000000000000F43: 49 31 CF           xor         r15,rcx
  0000000000000F46: 4C 89 64 24 60     mov         qword ptr [rsp+60h],r12
  0000000000000F4B: 4D 31 C6           xor         r14,r8
  0000000000000F4E: 49 21 C7           and         r15,rax
  0000000000000F51: 49 C1 CD 04        ror         r13,4
  0000000000000F55: 49 01 D4           add         r12,rdx
  0000000000000F58: 49 31 CF           xor         r15,rcx
  0000000000000F5B: 49 C1 CE 06        ror         r14,6
  0000000000000F5F: 49 31 C5           xor         r13,rax
  0000000000000F62: 4D 01 FC           add         r12,r15
  0000000000000F65: 4D 89 C7           mov         r15,r8
  0000000000000F68: 4C 03 65 00        add         r12,qword ptr [rbp]
  0000000000000F6C: 4D 31 C6           xor         r14,r8
  0000000000000F6F: 4D 31 CF           xor         r15,r9
  0000000000000F72: 49 C1 CD 0E        ror         r13,0Eh
  0000000000000F76: 4C 89 CA           mov         rdx,r9
  0000000000000F79: 4C 21 FF           and         rdi,r15
  0000000000000F7C: 49 C1 CE 1C        ror         r14,1Ch
  0000000000000F80: 4D 01 EC           add         r12,r13
  0000000000000F83: 48 31 FA           xor         rdx,rdi
  0000000000000F86: 4D 01 E3           add         r11,r12
  0000000000000F89: 4C 01 E2           add         rdx,r12
  0000000000000F8C: 48 8D 6D 08        lea         rbp,[rbp+8]
  0000000000000F90: 4C 8B 6C 24 70     mov         r13,qword ptr [rsp+70h]
  0000000000000F95: 48 8B 7C 24 58     mov         rdi,qword ptr [rsp+58h]
  0000000000000F9A: 4D 89 EC           mov         r12,r13
  0000000000000F9D: 49 C1 CD 07        ror         r13,7
  0000000000000FA1: 4C 01 F2           add         rdx,r14
  0000000000000FA4: 49 89 FE           mov         r14,rdi
  0000000000000FA7: 48 C1 CF 2A        ror         rdi,2Ah
  0000000000000FAB: 4D 31 E5           xor         r13,r12
  0000000000000FAE: 49 C1 EC 07        shr         r12,7
  0000000000000FB2: 49 D1 CD           ror         r13,1
  0000000000000FB5: 4C 31 F7           xor         rdi,r14
  0000000000000FB8: 49 C1 EE 06        shr         r14,6
  0000000000000FBC: 48 C1 CF 13        ror         rdi,13h
  0000000000000FC0: 4D 31 EC           xor         r12,r13
  0000000000000FC3: 4C 31 F7           xor         rdi,r14
  0000000000000FC6: 4C 03 64 24 30     add         r12,qword ptr [rsp+30h]
  0000000000000FCB: 4C 03 64 24 68     add         r12,qword ptr [rsp+68h]
  0000000000000FD0: 4D 89 DD           mov         r13,r11
  0000000000000FD3: 49 01 FC           add         r12,rdi
  0000000000000FD6: 49 89 D6           mov         r14,rdx
  0000000000000FD9: 49 C1 CD 17        ror         r13,17h
  0000000000000FDD: 48 89 C7           mov         rdi,rax
  0000000000000FE0: 4D 31 DD           xor         r13,r11
  0000000000000FE3: 49 C1 CE 05        ror         r14,5
  0000000000000FE7: 48 31 DF           xor         rdi,rbx
  0000000000000FEA: 4C 89 64 24 68     mov         qword ptr [rsp+68h],r12
  0000000000000FEF: 49 31 D6           xor         r14,rdx
  0000000000000FF2: 4C 21 DF           and         rdi,r11
  0000000000000FF5: 49 C1 CD 04        ror         r13,4
  0000000000000FF9: 49 01 CC           add         r12,rcx
  0000000000000FFC: 48 31 DF           xor         rdi,rbx
  0000000000000FFF: 49 C1 CE 06        ror         r14,6
  0000000000001003: 4D 31 DD           xor         r13,r11
  0000000000001006: 49 01 FC           add         r12,rdi
  0000000000001009: 48 89 D7           mov         rdi,rdx
  000000000000100C: 4C 03 65 00        add         r12,qword ptr [rbp]
  0000000000001010: 49 31 D6           xor         r14,rdx
  0000000000001013: 4C 31 C7           xor         rdi,r8
  0000000000001016: 49 C1 CD 0E        ror         r13,0Eh
  000000000000101A: 4C 89 C1           mov         rcx,r8
  000000000000101D: 49 21 FF           and         r15,rdi
  0000000000001020: 49 C1 CE 1C        ror         r14,1Ch
  0000000000001024: 4D 01 EC           add         r12,r13
  0000000000001027: 4C 31 F9           xor         rcx,r15
  000000000000102A: 4D 01 E2           add         r10,r12
  000000000000102D: 4C 01 E1           add         rcx,r12
  0000000000001030: 48 8D 6D 18        lea         rbp,[rbp+18h]
  0000000000001034: 4C 8B 6C 24 78     mov         r13,qword ptr [rsp+78h]
  0000000000001039: 4C 8B 7C 24 60     mov         r15,qword ptr [rsp+60h]
  000000000000103E: 4D 89 EC           mov         r12,r13
  0000000000001041: 49 C1 CD 07        ror         r13,7
  0000000000001045: 4C 01 F1           add         rcx,r14
  0000000000001048: 4D 89 FE           mov         r14,r15
  000000000000104B: 49 C1 CF 2A        ror         r15,2Ah
  000000000000104F: 4D 31 E5           xor         r13,r12
  0000000000001052: 49 C1 EC 07        shr         r12,7
  0000000000001056: 49 D1 CD           ror         r13,1
  0000000000001059: 4D 31 F7           xor         r15,r14
  000000000000105C: 49 C1 EE 06        shr         r14,6
  0000000000001060: 49 C1 CF 13        ror         r15,13h
  0000000000001064: 4D 31 EC           xor         r12,r13
  0000000000001067: 4D 31 F7           xor         r15,r14
  000000000000106A: 4C 03 64 24 38     add         r12,qword ptr [rsp+38h]
  000000000000106F: 4C 03 64 24 70     add         r12,qword ptr [rsp+70h]
  0000000000001074: 4D 89 D5           mov         r13,r10
  0000000000001077: 4D 01 FC           add         r12,r15
  000000000000107A: 49 89 CE           mov         r14,rcx
  000000000000107D: 49 C1 CD 17        ror         r13,17h
  0000000000001081: 4D 89 DF           mov         r15,r11
  0000000000001084: 4D 31 D5           xor         r13,r10
  0000000000001087: 49 C1 CE 05        ror         r14,5
  000000000000108B: 49 31 C7           xor         r15,rax
  000000000000108E: 4C 89 64 24 70     mov         qword ptr [rsp+70h],r12
  0000000000001093: 49 31 CE           xor         r14,rcx
  0000000000001096: 4D 21 D7           and         r15,r10
  0000000000001099: 49 C1 CD 04        ror         r13,4
  000000000000109D: 49 01 DC           add         r12,rbx
  00000000000010A0: 49 31 C7           xor         r15,rax
  00000000000010A3: 49 C1 CE 06        ror         r14,6
  00000000000010A7: 4D 31 D5           xor         r13,r10
  00000000000010AA: 4D 01 FC           add         r12,r15
  00000000000010AD: 49 89 CF           mov         r15,rcx
  00000000000010B0: 4C 03 65 00        add         r12,qword ptr [rbp]
  00000000000010B4: 49 31 CE           xor         r14,rcx
  00000000000010B7: 49 31 D7           xor         r15,rdx
  00000000000010BA: 49 C1 CD 0E        ror         r13,0Eh
  00000000000010BE: 48 89 D3           mov         rbx,rdx
  00000000000010C1: 4C 21 FF           and         rdi,r15
  00000000000010C4: 49 C1 CE 1C        ror         r14,1Ch
  00000000000010C8: 4D 01 EC           add         r12,r13
  00000000000010CB: 48 31 FB           xor         rbx,rdi
  00000000000010CE: 4D 01 E1           add         r9,r12
  00000000000010D1: 4C 01 E3           add         rbx,r12
  00000000000010D4: 48 8D 6D 08        lea         rbp,[rbp+8]
  00000000000010D8: 4C 8B 2C 24        mov         r13,qword ptr [rsp]
  00000000000010DC: 48 8B 7C 24 68     mov         rdi,qword ptr [rsp+68h]
  00000000000010E1: 4D 89 EC           mov         r12,r13
  00000000000010E4: 49 C1 CD 07        ror         r13,7
  00000000000010E8: 4C 01 F3           add         rbx,r14
  00000000000010EB: 49 89 FE           mov         r14,rdi
  00000000000010EE: 48 C1 CF 2A        ror         rdi,2Ah
  00000000000010F2: 4D 31 E5           xor         r13,r12
  00000000000010F5: 49 C1 EC 07        shr         r12,7
  00000000000010F9: 49 D1 CD           ror         r13,1
  00000000000010FC: 4C 31 F7           xor         rdi,r14
  00000000000010FF: 49 C1 EE 06        shr         r14,6
  0000000000001103: 48 C1 CF 13        ror         rdi,13h
  0000000000001107: 4D 31 EC           xor         r12,r13
  000000000000110A: 4C 31 F7           xor         rdi,r14
  000000000000110D: 4C 03 64 24 40     add         r12,qword ptr [rsp+40h]
  0000000000001112: 4C 03 64 24 78     add         r12,qword ptr [rsp+78h]
  0000000000001117: 4D 89 CD           mov         r13,r9
  000000000000111A: 49 01 FC           add         r12,rdi
  000000000000111D: 49 89 DE           mov         r14,rbx
  0000000000001120: 49 C1 CD 17        ror         r13,17h
  0000000000001124: 4C 89 D7           mov         rdi,r10
  0000000000001127: 4D 31 CD           xor         r13,r9
  000000000000112A: 49 C1 CE 05        ror         r14,5
  000000000000112E: 4C 31 DF           xor         rdi,r11
  0000000000001131: 4C 89 64 24 78     mov         qword ptr [rsp+78h],r12
  0000000000001136: 49 31 DE           xor         r14,rbx
  0000000000001139: 4C 21 CF           and         rdi,r9
  000000000000113C: 49 C1 CD 04        ror         r13,4
  0000000000001140: 49 01 C4           add         r12,rax
  0000000000001143: 4C 31 DF           xor         rdi,r11
  0000000000001146: 49 C1 CE 06        ror         r14,6
  000000000000114A: 4D 31 CD           xor         r13,r9
  000000000000114D: 49 01 FC           add         r12,rdi
  0000000000001150: 48 89 DF           mov         rdi,rbx
  0000000000001153: 4C 03 65 00        add         r12,qword ptr [rbp]
  0000000000001157: 49 31 DE           xor         r14,rbx
  000000000000115A: 48 31 CF           xor         rdi,rcx
  000000000000115D: 49 C1 CD 0E        ror         r13,0Eh
  0000000000001161: 48 89 C8           mov         rax,rcx
  0000000000001164: 49 21 FF           and         r15,rdi
  0000000000001167: 49 C1 CE 1C        ror         r14,1Ch
  000000000000116B: 4D 01 EC           add         r12,r13
  000000000000116E: 4C 31 F8           xor         rax,r15
  0000000000001171: 4D 01 E0           add         r8,r12
  0000000000001174: 4C 01 E0           add         rax,r12
  0000000000001177: 48 8D 6D 18        lea         rbp,[rbp+18h]
  000000000000117B: 80 7D 07 00        cmp         byte ptr [rbp+7],0
  000000000000117F: 0F 85 BB F5 FF FF  jne         L$rounds_16_xx
  0000000000001185: 48 8B BC 24 80 00  mov         rdi,qword ptr [rsp+80h]
                    00 00
  000000000000118D: 4C 01 F0           add         rax,r14
  0000000000001190: 48 8D B6 80 00 00  lea         rsi,[rsi+80h]
                    00
  0000000000001197: 48 03 07           add         rax,qword ptr [rdi]
  000000000000119A: 48 03 5F 08        add         rbx,qword ptr [rdi+8]
  000000000000119E: 48 03 4F 10        add         rcx,qword ptr [rdi+10h]
  00000000000011A2: 48 03 57 18        add         rdx,qword ptr [rdi+18h]
  00000000000011A6: 4C 03 47 20        add         r8,qword ptr [rdi+20h]
  00000000000011AA: 4C 03 4F 28        add         r9,qword ptr [rdi+28h]
  00000000000011AE: 4C 03 57 30        add         r10,qword ptr [rdi+30h]
  00000000000011B2: 4C 03 5F 38        add         r11,qword ptr [rdi+38h]
  00000000000011B6: 48 3B B4 24 90 00  cmp         rsi,qword ptr [rsp+90h]
                    00 00
  00000000000011BE: 48 89 07           mov         qword ptr [rdi],rax
  00000000000011C1: 48 89 5F 08        mov         qword ptr [rdi+8],rbx
  00000000000011C5: 48 89 4F 10        mov         qword ptr [rdi+10h],rcx
  00000000000011C9: 48 89 57 18        mov         qword ptr [rdi+18h],rdx
  00000000000011CD: 4C 89 47 20        mov         qword ptr [rdi+20h],r8
  00000000000011D1: 4C 89 4F 28        mov         qword ptr [rdi+28h],r9
  00000000000011D5: 4C 89 57 30        mov         qword ptr [rdi+30h],r10
  00000000000011D9: 4C 89 5F 38        mov         qword ptr [rdi+38h],r11
  00000000000011DD: 0F 82 9D EE FF FF  jb          L$loop
  00000000000011E3: 48 8B B4 24 98 00  mov         rsi,qword ptr [rsp+98h]
                    00 00
  00000000000011EB: 4C 8B 7E D0        mov         r15,qword ptr [rsi-30h]
  00000000000011EF: 4C 8B 76 D8        mov         r14,qword ptr [rsi-28h]
  00000000000011F3: 4C 8B 6E E0        mov         r13,qword ptr [rsi-20h]
  00000000000011F7: 4C 8B 66 E8        mov         r12,qword ptr [rsi-18h]
  00000000000011FB: 48 8B 6E F0        mov         rbp,qword ptr [rsi-10h]
  00000000000011FF: 48 8B 5E F8        mov         rbx,qword ptr [rsi-8]
  0000000000001203: 48 8D 26           lea         rsp,[rsi]
L$epilogue:
  0000000000001206: 48 8B 7C 24 08     mov         rdi,qword ptr [rsp+8]
  000000000000120B: 48 8B 74 24 10     mov         rsi,qword ptr [rsp+10h]
  0000000000001210: F3 C3              rep ret
L$SEH_end_sha512_block_data_order_nohw:
  0000000000001212: 90                 nop
  0000000000001213: 90                 nop
  0000000000001214: 90                 nop
  0000000000001215: 90                 nop
  0000000000001216: 90                 nop
  0000000000001217: 90                 nop
  0000000000001218: 90                 nop
  0000000000001219: 90                 nop
  000000000000121A: 90                 nop
  000000000000121B: 90                 nop
  000000000000121C: 90                 nop
  000000000000121D: 90                 nop
  000000000000121E: 90                 nop
  000000000000121F: 90                 nop
  0000000000001220: 90                 nop
  0000000000001221: 90                 nop
  0000000000001222: 90                 nop
  0000000000001223: 90                 nop
  0000000000001224: 90                 nop
  0000000000001225: 90                 nop
  0000000000001226: 90                 nop
  0000000000001227: 90                 nop
  0000000000001228: 90                 nop
  0000000000001229: 90                 nop
  000000000000122A: 90                 nop
  000000000000122B: 90                 nop
  000000000000122C: 90                 nop
  000000000000122D: 90                 nop
  000000000000122E: 90                 nop
  000000000000122F: 90                 nop
  0000000000001230: 90                 nop
  0000000000001231: 90                 nop
  0000000000001232: 90                 nop
  0000000000001233: 90                 nop
  0000000000001234: 90                 nop
  0000000000001235: 90                 nop
  0000000000001236: 90                 nop
  0000000000001237: 90                 nop
  0000000000001238: 90                 nop
  0000000000001239: 90                 nop
  000000000000123A: 90                 nop
  000000000000123B: 90                 nop
  000000000000123C: 90                 nop
  000000000000123D: 90                 nop
  000000000000123E: 90                 nop
  000000000000123F: 90                 nop
aws_lc_0_21_0_sha512_block_data_order_avx:
  0000000000001240: 48 89 7C 24 08     mov         qword ptr [rsp+8],rdi
  0000000000001245: 48 89 74 24 10     mov         qword ptr [rsp+10h],rsi
  000000000000124A: 48 89 E0           mov         rax,rsp
L$SEH_begin_sha512_block_data_order_avx:
  000000000000124D: 48 89 CF           mov         rdi,rcx
  0000000000001250: 48 89 D6           mov         rsi,rdx
  0000000000001253: 4C 89 C2           mov         rdx,r8
  0000000000001256: 48 89 E0           mov         rax,rsp
  0000000000001259: 53                 push        rbx
  000000000000125A: 55                 push        rbp
  000000000000125B: 41 54              push        r12
  000000000000125D: 41 55              push        r13
  000000000000125F: 41 56              push        r14
  0000000000001261: 41 57              push        r15
  0000000000001263: 48 C1 E2 04        shl         rdx,4
  0000000000001267: 48 81 EC 00 01 00  sub         rsp,100h
                    00
  000000000000126E: 48 8D 14 D6        lea         rdx,[rsi+rdx*8]
  0000000000001272: 48 83 E4 C0        and         rsp,0FFFFFFFFFFFFFFC0h
  0000000000001276: 48 89 BC 24 80 00  mov         qword ptr [rsp+80h],rdi
                    00 00
  000000000000127E: 48 89 B4 24 88 00  mov         qword ptr [rsp+88h],rsi
                    00 00
  0000000000001286: 48 89 94 24 90 00  mov         qword ptr [rsp+90h],rdx
                    00 00
  000000000000128E: 48 89 84 24 98 00  mov         qword ptr [rsp+98h],rax
                    00 00
  0000000000001296: 0F 29 B4 24 A0 00  movaps      xmmword ptr [rsp+0A0h],xmm6
                    00 00
  000000000000129E: 0F 29 BC 24 B0 00  movaps      xmmword ptr [rsp+0B0h],xmm7
                    00 00
  00000000000012A6: 44 0F 29 84 24 C0  movaps      xmmword ptr [rsp+0C0h],xmm8
                    00 00 00
  00000000000012AF: 44 0F 29 8C 24 D0  movaps      xmmword ptr [rsp+0D0h],xmm9
                    00 00 00
  00000000000012B8: 44 0F 29 94 24 E0  movaps      xmmword ptr [rsp+0E0h],xmm10
                    00 00 00
  00000000000012C1: 44 0F 29 9C 24 F0  movaps      xmmword ptr [rsp+0F0h],xmm11
                    00 00 00
L$prologue_avx:
  00000000000012CA: C5 F8 77           vzeroupper
  00000000000012CD: 48 8B 07           mov         rax,qword ptr [rdi]
  00000000000012D0: 48 8B 5F 08        mov         rbx,qword ptr [rdi+8]
  00000000000012D4: 48 8B 4F 10        mov         rcx,qword ptr [rdi+10h]
  00000000000012D8: 48 8B 57 18        mov         rdx,qword ptr [rdi+18h]
  00000000000012DC: 4C 8B 47 20        mov         r8,qword ptr [rdi+20h]
  00000000000012E0: 4C 8B 4F 28        mov         r9,qword ptr [rdi+28h]
  00000000000012E4: 4C 8B 57 30        mov         r10,qword ptr [rdi+30h]
  00000000000012E8: 4C 8B 5F 38        mov         r11,qword ptr [rdi+38h]
  00000000000012EC: E9 0F 00 00 00     jmp         L$loop_avx
  00000000000012F1: 90                 nop
  00000000000012F2: 90                 nop
  00000000000012F3: 90                 nop
  00000000000012F4: 90                 nop
  00000000000012F5: 90                 nop
  00000000000012F6: 90                 nop
  00000000000012F7: 90                 nop
  00000000000012F8: 90                 nop
  00000000000012F9: 90                 nop
  00000000000012FA: 90                 nop
  00000000000012FB: 90                 nop
  00000000000012FC: 90                 nop
  00000000000012FD: 90                 nop
  00000000000012FE: 90                 nop
  00000000000012FF: 90                 nop
L$loop_avx:
  0000000000001300: C5 79 6F 1D 00 05  vmovdqa     xmm11,xmmword ptr [.rdata+500h]
                    00 00
  0000000000001308: C5 FA 6F 06        vmovdqu     xmm0,xmmword ptr [rsi]
  000000000000130C: 48 8D 2D 80 00 00  lea         rbp,[.rdata+80h]
                    00
  0000000000001313: C5 FA 6F 4E 10     vmovdqu     xmm1,xmmword ptr [rsi+10h]
  0000000000001318: C5 FA 6F 56 20     vmovdqu     xmm2,xmmword ptr [rsi+20h]
  000000000000131D: C4 C2 79 00 C3     vpshufb     xmm0,xmm0,xmm11
  0000000000001322: C5 FA 6F 5E 30     vmovdqu     xmm3,xmmword ptr [rsi+30h]
  0000000000001327: C4 C2 71 00 CB     vpshufb     xmm1,xmm1,xmm11
  000000000000132C: C5 FA 6F 66 40     vmovdqu     xmm4,xmmword ptr [rsi+40h]
  0000000000001331: C4 C2 69 00 D3     vpshufb     xmm2,xmm2,xmm11
  0000000000001336: C5 FA 6F 6E 50     vmovdqu     xmm5,xmmword ptr [rsi+50h]
  000000000000133B: C4 C2 61 00 DB     vpshufb     xmm3,xmm3,xmm11
  0000000000001340: C5 FA 6F 76 60     vmovdqu     xmm6,xmmword ptr [rsi+60h]
  0000000000001345: C4 C2 59 00 E3     vpshufb     xmm4,xmm4,xmm11
  000000000000134A: C5 FA 6F 7E 70     vmovdqu     xmm7,xmmword ptr [rsi+70h]
  000000000000134F: C4 C2 51 00 EB     vpshufb     xmm5,xmm5,xmm11
  0000000000001354: C5 79 D4 45 80     vpaddq      xmm8,xmm0,xmmword ptr [rbp-80h]
  0000000000001359: C4 C2 49 00 F3     vpshufb     xmm6,xmm6,xmm11
  000000000000135E: C5 71 D4 4D A0     vpaddq      xmm9,xmm1,xmmword ptr [rbp-60h]
  0000000000001363: C4 C2 41 00 FB     vpshufb     xmm7,xmm7,xmm11
  0000000000001368: C5 69 D4 55 C0     vpaddq      xmm10,xmm2,xmmword ptr [rbp-40h]
  000000000000136D: C5 61 D4 5D E0     vpaddq      xmm11,xmm3,xmmword ptr [rbp-20h]
  0000000000001372: C5 79 7F 04 24     vmovdqa     xmmword ptr [rsp],xmm8
  0000000000001377: C5 59 D4 45 00     vpaddq      xmm8,xmm4,xmmword ptr [rbp]
  000000000000137C: C5 79 7F 4C 24 10  vmovdqa     xmmword ptr [rsp+10h],xmm9
  0000000000001382: C5 51 D4 4D 20     vpaddq      xmm9,xmm5,xmmword ptr [rbp+20h]
  0000000000001387: C5 79 7F 54 24 20  vmovdqa     xmmword ptr [rsp+20h],xmm10
  000000000000138D: C5 49 D4 55 40     vpaddq      xmm10,xmm6,xmmword ptr [rbp+40h]
  0000000000001392: C5 79 7F 5C 24 30  vmovdqa     xmmword ptr [rsp+30h],xmm11
  0000000000001398: C5 41 D4 5D 60     vpaddq      xmm11,xmm7,xmmword ptr [rbp+60h]
  000000000000139D: C5 79 7F 44 24 40  vmovdqa     xmmword ptr [rsp+40h],xmm8
  00000000000013A3: 49 89 C6           mov         r14,rax
  00000000000013A6: C5 79 7F 4C 24 50  vmovdqa     xmmword ptr [rsp+50h],xmm9
  00000000000013AC: 48 89 DF           mov         rdi,rbx
  00000000000013AF: C5 79 7F 54 24 60  vmovdqa     xmmword ptr [rsp+60h],xmm10
  00000000000013B5: 48 31 CF           xor         rdi,rcx
  00000000000013B8: C5 79 7F 5C 24 70  vmovdqa     xmmword ptr [rsp+70h],xmm11
  00000000000013BE: 4D 89 C5           mov         r13,r8
  00000000000013C1: E9 0A 00 00 00     jmp         L$avx_00_47
  00000000000013C6: 90                 nop
  00000000000013C7: 90                 nop
  00000000000013C8: 90                 nop
  00000000000013C9: 90                 nop
  00000000000013CA: 90                 nop
  00000000000013CB: 90                 nop
  00000000000013CC: 90                 nop
  00000000000013CD: 90                 nop
  00000000000013CE: 90                 nop
  00000000000013CF: 90                 nop
L$avx_00_47:
  00000000000013D0: 48 81 C5 00 01 00  add         rbp,100h
                    00
  00000000000013D7: C4 63 71 0F C0 08  vpalignr    xmm8,xmm1,xmm0,8
  00000000000013DD: 4D 0F AC ED 17     shrd        r13,r13,17h
  00000000000013E2: 4C 89 F0           mov         rax,r14
  00000000000013E5: C4 63 51 0F DC 08  vpalignr    xmm11,xmm5,xmm4,8
  00000000000013EB: 4D 89 CC           mov         r12,r9
  00000000000013EE: 4D 0F AC F6 05     shrd        r14,r14,5
  00000000000013F3: C4 C1 29 73 D0 01  vpsrlq      xmm10,xmm8,1
  00000000000013F9: 4D 31 C5           xor         r13,r8
  00000000000013FC: 4D 31 D4           xor         r12,r10
  00000000000013FF: C4 C1 79 D4 C3     vpaddq      xmm0,xmm0,xmm11
  0000000000001404: 4D 0F AC ED 04     shrd        r13,r13,4
  0000000000001409: 49 31 C6           xor         r14,rax
  000000000000140C: C4 C1 21 73 D0 07  vpsrlq      xmm11,xmm8,7
  0000000000001412: 4D 21 C4           and         r12,r8
  0000000000001415: 4D 31 C5           xor         r13,r8
  0000000000001418: C4 C1 31 73 F0 38  vpsllq      xmm9,xmm8,38h
  000000000000141E: 4C 03 1C 24        add         r11,qword ptr [rsp]
  0000000000001422: 49 89 C7           mov         r15,rax
  0000000000001425: C4 41 21 EF C2     vpxor       xmm8,xmm11,xmm10
  000000000000142A: 4D 31 D4           xor         r12,r10
  000000000000142D: 4D 0F AC F6 06     shrd        r14,r14,6
  0000000000001432: C4 C1 29 73 D2 07  vpsrlq      xmm10,xmm10,7
  0000000000001438: 49 31 DF           xor         r15,rbx
  000000000000143B: 4D 01 E3           add         r11,r12
  000000000000143E: C4 41 39 EF C1     vpxor       xmm8,xmm8,xmm9
  0000000000001443: 4D 0F AC ED 0E     shrd        r13,r13,0Eh
  0000000000001448: 4C 21 FF           and         rdi,r15
  000000000000144B: C4 C1 31 73 F1 07  vpsllq      xmm9,xmm9,7
  0000000000001451: 49 31 C6           xor         r14,rax
  0000000000001454: 4D 01 EB           add         r11,r13
  0000000000001457: C4 41 39 EF C2     vpxor       xmm8,xmm8,xmm10
  000000000000145C: 48 31 DF           xor         rdi,rbx
  000000000000145F: 4D 0F AC F6 1C     shrd        r14,r14,1Ch
  0000000000001464: C5 A1 73 D7 06     vpsrlq      xmm11,xmm7,6
  0000000000001469: 4C 01 DA           add         rdx,r11
  000000000000146C: 49 01 FB           add         r11,rdi
  000000000000146F: C4 41 39 EF C1     vpxor       xmm8,xmm8,xmm9
  0000000000001474: 49 89 D5           mov         r13,rdx
  0000000000001477: 4D 01 DE           add         r14,r11
  000000000000147A: C5 A9 73 F7 03     vpsllq      xmm10,xmm7,3
  000000000000147F: 4D 0F AC ED 17     shrd        r13,r13,17h
  0000000000001484: 4D 89 F3           mov         r11,r14
  0000000000001487: C4 C1 79 D4 C0     vpaddq      xmm0,xmm0,xmm8
  000000000000148C: 4D 89 C4           mov         r12,r8
  000000000000148F: 4D 0F AC F6 05     shrd        r14,r14,5
  0000000000001494: C5 B1 73 D7 13     vpsrlq      xmm9,xmm7,13h
  0000000000001499: 49 31 D5           xor         r13,rdx
  000000000000149C: 4D 31 CC           xor         r12,r9
  000000000000149F: C4 41 21 EF DA     vpxor       xmm11,xmm11,xmm10
  00000000000014A4: 4D 0F AC ED 04     shrd        r13,r13,4
  00000000000014A9: 4D 31 DE           xor         r14,r11
  00000000000014AC: C4 C1 29 73 F2 2A  vpsllq      xmm10,xmm10,2Ah
  00000000000014B2: 49 21 D4           and         r12,rdx
  00000000000014B5: 49 31 D5           xor         r13,rdx
  00000000000014B8: C4 41 21 EF D9     vpxor       xmm11,xmm11,xmm9
  00000000000014BD: 4C 03 54 24 08     add         r10,qword ptr [rsp+8]
  00000000000014C2: 4C 89 DF           mov         rdi,r11
  00000000000014C5: C4 C1 31 73 D1 2A  vpsrlq      xmm9,xmm9,2Ah
  00000000000014CB: 4D 31 CC           xor         r12,r9
  00000000000014CE: 4D 0F AC F6 06     shrd        r14,r14,6
  00000000000014D3: C4 41 21 EF DA     vpxor       xmm11,xmm11,xmm10
  00000000000014D8: 48 31 C7           xor         rdi,rax
  00000000000014DB: 4D 01 E2           add         r10,r12
  00000000000014DE: C4 41 21 EF D9     vpxor       xmm11,xmm11,xmm9
  00000000000014E3: 4D 0F AC ED 0E     shrd        r13,r13,0Eh
  00000000000014E8: 49 21 FF           and         r15,rdi
  00000000000014EB: C4 C1 79 D4 C3     vpaddq      xmm0,xmm0,xmm11
  00000000000014F0: 4D 31 DE           xor         r14,r11
  00000000000014F3: 4D 01 EA           add         r10,r13
  00000000000014F6: C5 79 D4 55 80     vpaddq      xmm10,xmm0,xmmword ptr [rbp-80h]
  00000000000014FB: 49 31 C7           xor         r15,rax
  00000000000014FE: 4D 0F AC F6 1C     shrd        r14,r14,1Ch
  0000000000001503: 4C 01 D1           add         rcx,r10
  0000000000001506: 4D 01 FA           add         r10,r15
  0000000000001509: 49 89 CD           mov         r13,rcx
  000000000000150C: 4D 01 D6           add         r14,r10
  000000000000150F: C5 79 7F 14 24     vmovdqa     xmmword ptr [rsp],xmm10
  0000000000001514: C4 63 69 0F C1 08  vpalignr    xmm8,xmm2,xmm1,8
  000000000000151A: 4D 0F AC ED 17     shrd        r13,r13,17h
  000000000000151F: 4D 89 F2           mov         r10,r14
  0000000000001522: C4 63 49 0F DD 08  vpalignr    xmm11,xmm6,xmm5,8
  0000000000001528: 49 89 D4           mov         r12,rdx
  000000000000152B: 4D 0F AC F6 05     shrd        r14,r14,5
  0000000000001530: C4 C1 29 73 D0 01  vpsrlq      xmm10,xmm8,1
  0000000000001536: 49 31 CD           xor         r13,rcx
  0000000000001539: 4D 31 C4           xor         r12,r8
  000000000000153C: C4 C1 71 D4 CB     vpaddq      xmm1,xmm1,xmm11
  0000000000001541: 4D 0F AC ED 04     shrd        r13,r13,4
  0000000000001546: 4D 31 D6           xor         r14,r10
  0000000000001549: C4 C1 21 73 D0 07  vpsrlq      xmm11,xmm8,7
  000000000000154F: 49 21 CC           and         r12,rcx
  0000000000001552: 49 31 CD           xor         r13,rcx
  0000000000001555: C4 C1 31 73 F0 38  vpsllq      xmm9,xmm8,38h
  000000000000155B: 4C 03 4C 24 10     add         r9,qword ptr [rsp+10h]
  0000000000001560: 4D 89 D7           mov         r15,r10
  0000000000001563: C4 41 21 EF C2     vpxor       xmm8,xmm11,xmm10
  0000000000001568: 4D 31 C4           xor         r12,r8
  000000000000156B: 4D 0F AC F6 06     shrd        r14,r14,6
  0000000000001570: C4 C1 29 73 D2 07  vpsrlq      xmm10,xmm10,7
  0000000000001576: 4D 31 DF           xor         r15,r11
  0000000000001579: 4D 01 E1           add         r9,r12
  000000000000157C: C4 41 39 EF C1     vpxor       xmm8,xmm8,xmm9
  0000000000001581: 4D 0F AC ED 0E     shrd        r13,r13,0Eh
  0000000000001586: 4C 21 FF           and         rdi,r15
  0000000000001589: C4 C1 31 73 F1 07  vpsllq      xmm9,xmm9,7
  000000000000158F: 4D 31 D6           xor         r14,r10
  0000000000001592: 4D 01 E9           add         r9,r13
  0000000000001595: C4 41 39 EF C2     vpxor       xmm8,xmm8,xmm10
  000000000000159A: 4C 31 DF           xor         rdi,r11
  000000000000159D: 4D 0F AC F6 1C     shrd        r14,r14,1Ch
  00000000000015A2: C5 A1 73 D0 06     vpsrlq      xmm11,xmm0,6
  00000000000015A7: 4C 01 CB           add         rbx,r9
  00000000000015AA: 49 01 F9           add         r9,rdi
  00000000000015AD: C4 41 39 EF C1     vpxor       xmm8,xmm8,xmm9
  00000000000015B2: 49 89 DD           mov         r13,rbx
  00000000000015B5: 4D 01 CE           add         r14,r9
  00000000000015B8: C5 A9 73 F0 03     vpsllq      xmm10,xmm0,3
  00000000000015BD: 4D 0F AC ED 17     shrd        r13,r13,17h
  00000000000015C2: 4D 89 F1           mov         r9,r14
  00000000000015C5: C4 C1 71 D4 C8     vpaddq      xmm1,xmm1,xmm8
  00000000000015CA: 49 89 CC           mov         r12,rcx
  00000000000015CD: 4D 0F AC F6 05     shrd        r14,r14,5
  00000000000015D2: C5 B1 73 D0 13     vpsrlq      xmm9,xmm0,13h
  00000000000015D7: 49 31 DD           xor         r13,rbx
  00000000000015DA: 49 31 D4           xor         r12,rdx
  00000000000015DD: C4 41 21 EF DA     vpxor       xmm11,xmm11,xmm10
  00000000000015E2: 4D 0F AC ED 04     shrd        r13,r13,4
  00000000000015E7: 4D 31 CE           xor         r14,r9
  00000000000015EA: C4 C1 29 73 F2 2A  vpsllq      xmm10,xmm10,2Ah
  00000000000015F0: 49 21 DC           and         r12,rbx
  00000000000015F3: 49 31 DD           xor         r13,rbx
  00000000000015F6: C4 41 21 EF D9     vpxor       xmm11,xmm11,xmm9
  00000000000015FB: 4C 03 44 24 18     add         r8,qword ptr [rsp+18h]
  0000000000001600: 4C 89 CF           mov         rdi,r9
  0000000000001603: C4 C1 31 73 D1 2A  vpsrlq      xmm9,xmm9,2Ah
  0000000000001609: 49 31 D4           xor         r12,rdx
  000000000000160C: 4D 0F AC F6 06     shrd        r14,r14,6
  0000000000001611: C4 41 21 EF DA     vpxor       xmm11,xmm11,xmm10
  0000000000001616: 4C 31 D7           xor         rdi,r10
  0000000000001619: 4D 01 E0           add         r8,r12
  000000000000161C: C4 41 21 EF D9     vpxor       xmm11,xmm11,xmm9
  0000000000001621: 4D 0F AC ED 0E     shrd        r13,r13,0Eh
  0000000000001626: 49 21 FF           and         r15,rdi
  0000000000001629: C4 C1 71 D4 CB     vpaddq      xmm1,xmm1,xmm11
  000000000000162E: 4D 31 CE           xor         r14,r9
  0000000000001631: 4D 01 E8           add         r8,r13
  0000000000001634: C5 71 D4 55 A0     vpaddq      xmm10,xmm1,xmmword ptr [rbp-60h]
  0000000000001639: 4D 31 D7           xor         r15,r10
  000000000000163C: 4D 0F AC F6 1C     shrd        r14,r14,1Ch
  0000000000001641: 4C 01 C0           add         rax,r8
  0000000000001644: 4D 01 F8           add         r8,r15
  0000000000001647: 49 89 C5           mov         r13,rax
  000000000000164A: 4D 01 C6           add         r14,r8
  000000000000164D: C5 79 7F 54 24 10  vmovdqa     xmmword ptr [rsp+10h],xmm10
  0000000000001653: C4 63 61 0F C2 08  vpalignr    xmm8,xmm3,xmm2,8
  0000000000001659: 4D 0F AC ED 17     shrd        r13,r13,17h
  000000000000165E: 4D 89 F0           mov         r8,r14
  0000000000001661: C4 63 41 0F DE 08  vpalignr    xmm11,xmm7,xmm6,8
  0000000000001667: 49 89 DC           mov         r12,rbx
  000000000000166A: 4D 0F AC F6 05     shrd        r14,r14,5
  000000000000166F: C4 C1 29 73 D0 01  vpsrlq      xmm10,xmm8,1
  0000000000001675: 49 31 C5           xor         r13,rax
  0000000000001678: 49 31 CC           xor         r12,rcx
  000000000000167B: C4 C1 69 D4 D3     vpaddq      xmm2,xmm2,xmm11
  0000000000001680: 4D 0F AC ED 04     shrd        r13,r13,4
  0000000000001685: 4D 31 C6           xor         r14,r8
  0000000000001688: C4 C1 21 73 D0 07  vpsrlq      xmm11,xmm8,7
  000000000000168E: 49 21 C4           and         r12,rax
  0000000000001691: 49 31 C5           xor         r13,rax
  0000000000001694: C4 C1 31 73 F0 38  vpsllq      xmm9,xmm8,38h
  000000000000169A: 48 03 54 24 20     add         rdx,qword ptr [rsp+20h]
  000000000000169F: 4D 89 C7           mov         r15,r8
  00000000000016A2: C4 41 21 EF C2     vpxor       xmm8,xmm11,xmm10
  00000000000016A7: 49 31 CC           xor         r12,rcx
  00000000000016AA: 4D 0F AC F6 06     shrd        r14,r14,6
  00000000000016AF: C4 C1 29 73 D2 07  vpsrlq      xmm10,xmm10,7
  00000000000016B5: 4D 31 CF           xor         r15,r9
  00000000000016B8: 4C 01 E2           add         rdx,r12
  00000000000016BB: C4 41 39 EF C1     vpxor       xmm8,xmm8,xmm9
  00000000000016C0: 4D 0F AC ED 0E     shrd        r13,r13,0Eh
  00000000000016C5: 4C 21 FF           and         rdi,r15
  00000000000016C8: C4 C1 31 73 F1 07  vpsllq      xmm9,xmm9,7
  00000000000016CE: 4D 31 C6           xor         r14,r8
  00000000000016D1: 4C 01 EA           add         rdx,r13
  00000000000016D4: C4 41 39 EF C2     vpxor       xmm8,xmm8,xmm10
  00000000000016D9: 4C 31 CF           xor         rdi,r9
  00000000000016DC: 4D 0F AC F6 1C     shrd        r14,r14,1Ch
  00000000000016E1: C5 A1 73 D1 06     vpsrlq      xmm11,xmm1,6
  00000000000016E6: 49 01 D3           add         r11,rdx
  00000000000016E9: 48 01 FA           add         rdx,rdi
  00000000000016EC: C4 41 39 EF C1     vpxor       xmm8,xmm8,xmm9
  00000000000016F1: 4D 89 DD           mov         r13,r11
  00000000000016F4: 49 01 D6           add         r14,rdx
  00000000000016F7: C5 A9 73 F1 03     vpsllq      xmm10,xmm1,3
  00000000000016FC: 4D 0F AC ED 17     shrd        r13,r13,17h
  0000000000001701: 4C 89 F2           mov         rdx,r14
  0000000000001704: C4 C1 69 D4 D0     vpaddq      xmm2,xmm2,xmm8
  0000000000001709: 49 89 C4           mov         r12,rax
  000000000000170C: 4D 0F AC F6 05     shrd        r14,r14,5
  0000000000001711: C5 B1 73 D1 13     vpsrlq      xmm9,xmm1,13h
  0000000000001716: 4D 31 DD           xor         r13,r11
  0000000000001719: 49 31 DC           xor         r12,rbx
  000000000000171C: C4 41 21 EF DA     vpxor       xmm11,xmm11,xmm10
  0000000000001721: 4D 0F AC ED 04     shrd        r13,r13,4
  0000000000001726: 49 31 D6           xor         r14,rdx
  0000000000001729: C4 C1 29 73 F2 2A  vpsllq      xmm10,xmm10,2Ah
  000000000000172F: 4D 21 DC           and         r12,r11
  0000000000001732: 4D 31 DD           xor         r13,r11
  0000000000001735: C4 41 21 EF D9     vpxor       xmm11,xmm11,xmm9
  000000000000173A: 48 03 4C 24 28     add         rcx,qword ptr [rsp+28h]
  000000000000173F: 48 89 D7           mov         rdi,rdx
  0000000000001742: C4 C1 31 73 D1 2A  vpsrlq      xmm9,xmm9,2Ah
  0000000000001748: 49 31 DC           xor         r12,rbx
  000000000000174B: 4D 0F AC F6 06     shrd        r14,r14,6
  0000000000001750: C4 41 21 EF DA     vpxor       xmm11,xmm11,xmm10
  0000000000001755: 4C 31 C7           xor         rdi,r8
  0000000000001758: 4C 01 E1           add         rcx,r12
  000000000000175B: C4 41 21 EF D9     vpxor       xmm11,xmm11,xmm9
  0000000000001760: 4D 0F AC ED 0E     shrd        r13,r13,0Eh
  0000000000001765: 49 21 FF           and         r15,rdi
  0000000000001768: C4 C1 69 D4 D3     vpaddq      xmm2,xmm2,xmm11
  000000000000176D: 49 31 D6           xor         r14,rdx
  0000000000001770: 4C 01 E9           add         rcx,r13
  0000000000001773: C5 69 D4 55 C0     vpaddq      xmm10,xmm2,xmmword ptr [rbp-40h]
  0000000000001778: 4D 31 C7           xor         r15,r8
  000000000000177B: 4D 0F AC F6 1C     shrd        r14,r14,1Ch
  0000000000001780: 49 01 CA           add         r10,rcx
  0000000000001783: 4C 01 F9           add         rcx,r15
  0000000000001786: 4D 89 D5           mov         r13,r10
  0000000000001789: 49 01 CE           add         r14,rcx
  000000000000178C: C5 79 7F 54 24 20  vmovdqa     xmmword ptr [rsp+20h],xmm10
  0000000000001792: C4 63 59 0F C3 08  vpalignr    xmm8,xmm4,xmm3,8
  0000000000001798: 4D 0F AC ED 17     shrd        r13,r13,17h
  000000000000179D: 4C 89 F1           mov         rcx,r14
  00000000000017A0: C4 63 79 0F DF 08  vpalignr    xmm11,xmm0,xmm7,8
  00000000000017A6: 4D 89 DC           mov         r12,r11
  00000000000017A9: 4D 0F AC F6 05     shrd        r14,r14,5
  00000000000017AE: C4 C1 29 73 D0 01  vpsrlq      xmm10,xmm8,1
  00000000000017B4: 4D 31 D5           xor         r13,r10
  00000000000017B7: 49 31 C4           xor         r12,rax
  00000000000017BA: C4 C1 61 D4 DB     vpaddq      xmm3,xmm3,xmm11
  00000000000017BF: 4D 0F AC ED 04     shrd        r13,r13,4
  00000000000017C4: 49 31 CE           xor         r14,rcx
  00000000000017C7: C4 C1 21 73 D0 07  vpsrlq      xmm11,xmm8,7
  00000000000017CD: 4D 21 D4           and         r12,r10
  00000000000017D0: 4D 31 D5           xor         r13,r10
  00000000000017D3: C4 C1 31 73 F0 38  vpsllq      xmm9,xmm8,38h
  00000000000017D9: 48 03 5C 24 30     add         rbx,qword ptr [rsp+30h]
  00000000000017DE: 49 89 CF           mov         r15,rcx
  00000000000017E1: C4 41 21 EF C2     vpxor       xmm8,xmm11,xmm10
  00000000000017E6: 49 31 C4           xor         r12,rax
  00000000000017E9: 4D 0F AC F6 06     shrd        r14,r14,6
  00000000000017EE: C4 C1 29 73 D2 07  vpsrlq      xmm10,xmm10,7
  00000000000017F4: 49 31 D7           xor         r15,rdx
  00000000000017F7: 4C 01 E3           add         rbx,r12
  00000000000017FA: C4 41 39 EF C1     vpxor       xmm8,xmm8,xmm9
  00000000000017FF: 4D 0F AC ED 0E     shrd        r13,r13,0Eh
  0000000000001804: 4C 21 FF           and         rdi,r15
  0000000000001807: C4 C1 31 73 F1 07  vpsllq      xmm9,xmm9,7
  000000000000180D: 49 31 CE           xor         r14,rcx
  0000000000001810: 4C 01 EB           add         rbx,r13
  0000000000001813: C4 41 39 EF C2     vpxor       xmm8,xmm8,xmm10
  0000000000001818: 48 31 D7           xor         rdi,rdx
  000000000000181B: 4D 0F AC F6 1C     shrd        r14,r14,1Ch
  0000000000001820: C5 A1 73 D2 06     vpsrlq      xmm11,xmm2,6
  0000000000001825: 49 01 D9           add         r9,rbx
  0000000000001828: 48 01 FB           add         rbx,rdi
  000000000000182B: C4 41 39 EF C1     vpxor       xmm8,xmm8,xmm9
  0000000000001830: 4D 89 CD           mov         r13,r9
  0000000000001833: 49 01 DE           add         r14,rbx
  0000000000001836: C5 A9 73 F2 03     vpsllq      xmm10,xmm2,3
  000000000000183B: 4D 0F AC ED 17     shrd        r13,r13,17h
  0000000000001840: 4C 89 F3           mov         rbx,r14
  0000000000001843: C4 C1 61 D4 D8     vpaddq      xmm3,xmm3,xmm8
  0000000000001848: 4D 89 D4           mov         r12,r10
  000000000000184B: 4D 0F AC F6 05     shrd        r14,r14,5
  0000000000001850: C5 B1 73 D2 13     vpsrlq      xmm9,xmm2,13h
  0000000000001855: 4D 31 CD           xor         r13,r9
  0000000000001858: 4D 31 DC           xor         r12,r11
  000000000000185B: C4 41 21 EF DA     vpxor       xmm11,xmm11,xmm10
  0000000000001860: 4D 0F AC ED 04     shrd        r13,r13,4
  0000000000001865: 49 31 DE           xor         r14,rbx
  0000000000001868: C4 C1 29 73 F2 2A  vpsllq      xmm10,xmm10,2Ah
  000000000000186E: 4D 21 CC           and         r12,r9
  0000000000001871: 4D 31 CD           xor         r13,r9
  0000000000001874: C4 41 21 EF D9     vpxor       xmm11,xmm11,xmm9
  0000000000001879: 48 03 44 24 38     add         rax,qword ptr [rsp+38h]
  000000000000187E: 48 89 DF           mov         rdi,rbx
  0000000000001881: C4 C1 31 73 D1 2A  vpsrlq      xmm9,xmm9,2Ah
  0000000000001887: 4D 31 DC           xor         r12,r11
  000000000000188A: 4D 0F AC F6 06     shrd        r14,r14,6
  000000000000188F: C4 41 21 EF DA     vpxor       xmm11,xmm11,xmm10
  0000000000001894: 48 31 CF           xor         rdi,rcx
  0000000000001897: 4C 01 E0           add         rax,r12
  000000000000189A: C4 41 21 EF D9     vpxor       xmm11,xmm11,xmm9
  000000000000189F: 4D 0F AC ED 0E     shrd        r13,r13,0Eh
  00000000000018A4: 49 21 FF           and         r15,rdi
  00000000000018A7: C4 C1 61 D4 DB     vpaddq      xmm3,xmm3,xmm11
  00000000000018AC: 49 31 DE           xor         r14,rbx
  00000000000018AF: 4C 01 E8           add         rax,r13
  00000000000018B2: C5 61 D4 55 E0     vpaddq      xmm10,xmm3,xmmword ptr [rbp-20h]
  00000000000018B7: 49 31 CF           xor         r15,rcx
  00000000000018BA: 4D 0F AC F6 1C     shrd        r14,r14,1Ch
  00000000000018BF: 49 01 C0           add         r8,rax
  00000000000018C2: 4C 01 F8           add         rax,r15
  00000000000018C5: 4D 89 C5           mov         r13,r8
  00000000000018C8: 49 01 C6           add         r14,rax
  00000000000018CB: C5 79 7F 54 24 30  vmovdqa     xmmword ptr [rsp+30h],xmm10
  00000000000018D1: C4 63 51 0F C4 08  vpalignr    xmm8,xmm5,xmm4,8
  00000000000018D7: 4D 0F AC ED 17     shrd        r13,r13,17h
  00000000000018DC: 4C 89 F0           mov         rax,r14
  00000000000018DF: C4 63 71 0F D8 08  vpalignr    xmm11,xmm1,xmm0,8
  00000000000018E5: 4D 89 CC           mov         r12,r9
  00000000000018E8: 4D 0F AC F6 05     shrd        r14,r14,5
  00000000000018ED: C4 C1 29 73 D0 01  vpsrlq      xmm10,xmm8,1
  00000000000018F3: 4D 31 C5           xor         r13,r8
  00000000000018F6: 4D 31 D4           xor         r12,r10
  00000000000018F9: C4 C1 59 D4 E3     vpaddq      xmm4,xmm4,xmm11
  00000000000018FE: 4D 0F AC ED 04     shrd        r13,r13,4
  0000000000001903: 49 31 C6           xor         r14,rax
  0000000000001906: C4 C1 21 73 D0 07  vpsrlq      xmm11,xmm8,7
  000000000000190C: 4D 21 C4           and         r12,r8
  000000000000190F: 4D 31 C5           xor         r13,r8
  0000000000001912: C4 C1 31 73 F0 38  vpsllq      xmm9,xmm8,38h
  0000000000001918: 4C 03 5C 24 40     add         r11,qword ptr [rsp+40h]
  000000000000191D: 49 89 C7           mov         r15,rax
  0000000000001920: C4 41 21 EF C2     vpxor       xmm8,xmm11,xmm10
  0000000000001925: 4D 31 D4           xor         r12,r10
  0000000000001928: 4D 0F AC F6 06     shrd        r14,r14,6
  000000000000192D: C4 C1 29 73 D2 07  vpsrlq      xmm10,xmm10,7
  0000000000001933: 49 31 DF           xor         r15,rbx
  0000000000001936: 4D 01 E3           add         r11,r12
  0000000000001939: C4 41 39 EF C1     vpxor       xmm8,xmm8,xmm9
  000000000000193E: 4D 0F AC ED 0E     shrd        r13,r13,0Eh
  0000000000001943: 4C 21 FF           and         rdi,r15
  0000000000001946: C4 C1 31 73 F1 07  vpsllq      xmm9,xmm9,7
  000000000000194C: 49 31 C6           xor         r14,rax
  000000000000194F: 4D 01 EB           add         r11,r13
  0000000000001952: C4 41 39 EF C2     vpxor       xmm8,xmm8,xmm10
  0000000000001957: 48 31 DF           xor         rdi,rbx
  000000000000195A: 4D 0F AC F6 1C     shrd        r14,r14,1Ch
  000000000000195F: C5 A1 73 D3 06     vpsrlq      xmm11,xmm3,6
  0000000000001964: 4C 01 DA           add         rdx,r11
  0000000000001967: 49 01 FB           add         r11,rdi
  000000000000196A: C4 41 39 EF C1     vpxor       xmm8,xmm8,xmm9
  000000000000196F: 49 89 D5           mov         r13,rdx
  0000000000001972: 4D 01 DE           add         r14,r11
  0000000000001975: C5 A9 73 F3 03     vpsllq      xmm10,xmm3,3
  000000000000197A: 4D 0F AC ED 17     shrd        r13,r13,17h
  000000000000197F: 4D 89 F3           mov         r11,r14
  0000000000001982: C4 C1 59 D4 E0     vpaddq      xmm4,xmm4,xmm8
  0000000000001987: 4D 89 C4           mov         r12,r8
  000000000000198A: 4D 0F AC F6 05     shrd        r14,r14,5
  000000000000198F: C5 B1 73 D3 13     vpsrlq      xmm9,xmm3,13h
  0000000000001994: 49 31 D5           xor         r13,rdx
  0000000000001997: 4D 31 CC           xor         r12,r9
  000000000000199A: C4 41 21 EF DA     vpxor       xmm11,xmm11,xmm10
  000000000000199F: 4D 0F AC ED 04     shrd        r13,r13,4
  00000000000019A4: 4D 31 DE           xor         r14,r11
  00000000000019A7: C4 C1 29 73 F2 2A  vpsllq      xmm10,xmm10,2Ah
  00000000000019AD: 49 21 D4           and         r12,rdx
  00000000000019B0: 49 31 D5           xor         r13,rdx
  00000000000019B3: C4 41 21 EF D9     vpxor       xmm11,xmm11,xmm9
  00000000000019B8: 4C 03 54 24 48     add         r10,qword ptr [rsp+48h]
  00000000000019BD: 4C 89 DF           mov         rdi,r11
  00000000000019C0: C4 C1 31 73 D1 2A  vpsrlq      xmm9,xmm9,2Ah
  00000000000019C6: 4D 31 CC           xor         r12,r9
  00000000000019C9: 4D 0F AC F6 06     shrd        r14,r14,6
  00000000000019CE: C4 41 21 EF DA     vpxor       xmm11,xmm11,xmm10
  00000000000019D3: 48 31 C7           xor         rdi,rax
  00000000000019D6: 4D 01 E2           add         r10,r12
  00000000000019D9: C4 41 21 EF D9     vpxor       xmm11,xmm11,xmm9
  00000000000019DE: 4D 0F AC ED 0E     shrd        r13,r13,0Eh
  00000000000019E3: 49 21 FF           and         r15,rdi
  00000000000019E6: C4 C1 59 D4 E3     vpaddq      xmm4,xmm4,xmm11
  00000000000019EB: 4D 31 DE           xor         r14,r11
  00000000000019EE: 4D 01 EA           add         r10,r13
  00000000000019F1: C5 59 D4 55 00     vpaddq      xmm10,xmm4,xmmword ptr [rbp]
  00000000000019F6: 49 31 C7           xor         r15,rax
  00000000000019F9: 4D 0F AC F6 1C     shrd        r14,r14,1Ch
  00000000000019FE: 4C 01 D1           add         rcx,r10
  0000000000001A01: 4D 01 FA           add         r10,r15
  0000000000001A04: 49 89 CD           mov         r13,rcx
  0000000000001A07: 4D 01 D6           add         r14,r10
  0000000000001A0A: C5 79 7F 54 24 40  vmovdqa     xmmword ptr [rsp+40h],xmm10
  0000000000001A10: C4 63 49 0F C5 08  vpalignr    xmm8,xmm6,xmm5,8
  0000000000001A16: 4D 0F AC ED 17     shrd        r13,r13,17h
  0000000000001A1B: 4D 89 F2           mov         r10,r14
  0000000000001A1E: C4 63 69 0F D9 08  vpalignr    xmm11,xmm2,xmm1,8
  0000000000001A24: 49 89 D4           mov         r12,rdx
  0000000000001A27: 4D 0F AC F6 05     shrd        r14,r14,5
  0000000000001A2C: C4 C1 29 73 D0 01  vpsrlq      xmm10,xmm8,1
  0000000000001A32: 49 31 CD           xor         r13,rcx
  0000000000001A35: 4D 31 C4           xor         r12,r8
  0000000000001A38: C4 C1 51 D4 EB     vpaddq      xmm5,xmm5,xmm11
  0000000000001A3D: 4D 0F AC ED 04     shrd        r13,r13,4
  0000000000001A42: 4D 31 D6           xor         r14,r10
  0000000000001A45: C4 C1 21 73 D0 07  vpsrlq      xmm11,xmm8,7
  0000000000001A4B: 49 21 CC           and         r12,rcx
  0000000000001A4E: 49 31 CD           xor         r13,rcx
  0000000000001A51: C4 C1 31 73 F0 38  vpsllq      xmm9,xmm8,38h
  0000000000001A57: 4C 03 4C 24 50     add         r9,qword ptr [rsp+50h]
  0000000000001A5C: 4D 89 D7           mov         r15,r10
  0000000000001A5F: C4 41 21 EF C2     vpxor       xmm8,xmm11,xmm10
  0000000000001A64: 4D 31 C4           xor         r12,r8
  0000000000001A67: 4D 0F AC F6 06     shrd        r14,r14,6
  0000000000001A6C: C4 C1 29 73 D2 07  vpsrlq      xmm10,xmm10,7
  0000000000001A72: 4D 31 DF           xor         r15,r11
  0000000000001A75: 4D 01 E1           add         r9,r12
  0000000000001A78: C4 41 39 EF C1     vpxor       xmm8,xmm8,xmm9
  0000000000001A7D: 4D 0F AC ED 0E     shrd        r13,r13,0Eh
  0000000000001A82: 4C 21 FF           and         rdi,r15
  0000000000001A85: C4 C1 31 73 F1 07  vpsllq      xmm9,xmm9,7
  0000000000001A8B: 4D 31 D6           xor         r14,r10
  0000000000001A8E: 4D 01 E9           add         r9,r13
  0000000000001A91: C4 41 39 EF C2     vpxor       xmm8,xmm8,xmm10
  0000000000001A96: 4C 31 DF           xor         rdi,r11
  0000000000001A99: 4D 0F AC F6 1C     shrd        r14,r14,1Ch
  0000000000001A9E: C5 A1 73 D4 06     vpsrlq      xmm11,xmm4,6
  0000000000001AA3: 4C 01 CB           add         rbx,r9
  0000000000001AA6: 49 01 F9           add         r9,rdi
  0000000000001AA9: C4 41 39 EF C1     vpxor       xmm8,xmm8,xmm9
  0000000000001AAE: 49 89 DD           mov         r13,rbx
  0000000000001AB1: 4D 01 CE           add         r14,r9
  0000000000001AB4: C5 A9 73 F4 03     vpsllq      xmm10,xmm4,3
  0000000000001AB9: 4D 0F AC ED 17     shrd        r13,r13,17h
  0000000000001ABE: 4D 89 F1           mov         r9,r14
  0000000000001AC1: C4 C1 51 D4 E8     vpaddq      xmm5,xmm5,xmm8
  0000000000001AC6: 49 89 CC           mov         r12,rcx
  0000000000001AC9: 4D 0F AC F6 05     shrd        r14,r14,5
  0000000000001ACE: C5 B1 73 D4 13     vpsrlq      xmm9,xmm4,13h
  0000000000001AD3: 49 31 DD           xor         r13,rbx
  0000000000001AD6: 49 31 D4           xor         r12,rdx
  0000000000001AD9: C4 41 21 EF DA     vpxor       xmm11,xmm11,xmm10
  0000000000001ADE: 4D 0F AC ED 04     shrd        r13,r13,4
  0000000000001AE3: 4D 31 CE           xor         r14,r9
  0000000000001AE6: C4 C1 29 73 F2 2A  vpsllq      xmm10,xmm10,2Ah
  0000000000001AEC: 49 21 DC           and         r12,rbx
  0000000000001AEF: 49 31 DD           xor         r13,rbx
  0000000000001AF2: C4 41 21 EF D9     vpxor       xmm11,xmm11,xmm9
  0000000000001AF7: 4C 03 44 24 58     add         r8,qword ptr [rsp+58h]
  0000000000001AFC: 4C 89 CF           mov         rdi,r9
  0000000000001AFF: C4 C1 31 73 D1 2A  vpsrlq      xmm9,xmm9,2Ah
  0000000000001B05: 49 31 D4           xor         r12,rdx
  0000000000001B08: 4D 0F AC F6 06     shrd        r14,r14,6
  0000000000001B0D: C4 41 21 EF DA     vpxor       xmm11,xmm11,xmm10
  0000000000001B12: 4C 31 D7           xor         rdi,r10
  0000000000001B15: 4D 01 E0           add         r8,r12
  0000000000001B18: C4 41 21 EF D9     vpxor       xmm11,xmm11,xmm9
  0000000000001B1D: 4D 0F AC ED 0E     shrd        r13,r13,0Eh
  0000000000001B22: 49 21 FF           and         r15,rdi
  0000000000001B25: C4 C1 51 D4 EB     vpaddq      xmm5,xmm5,xmm11
  0000000000001B2A: 4D 31 CE           xor         r14,r9
  0000000000001B2D: 4D 01 E8           add         r8,r13
  0000000000001B30: C5 51 D4 55 20     vpaddq      xmm10,xmm5,xmmword ptr [rbp+20h]
  0000000000001B35: 4D 31 D7           xor         r15,r10
  0000000000001B38: 4D 0F AC F6 1C     shrd        r14,r14,1Ch
  0000000000001B3D: 4C 01 C0           add         rax,r8
  0000000000001B40: 4D 01 F8           add         r8,r15
  0000000000001B43: 49 89 C5           mov         r13,rax
  0000000000001B46: 4D 01 C6           add         r14,r8
  0000000000001B49: C5 79 7F 54 24 50  vmovdqa     xmmword ptr [rsp+50h],xmm10
  0000000000001B4F: C4 63 41 0F C6 08  vpalignr    xmm8,xmm7,xmm6,8
  0000000000001B55: 4D 0F AC ED 17     shrd        r13,r13,17h
  0000000000001B5A: 4D 89 F0           mov         r8,r14
  0000000000001B5D: C4 63 61 0F DA 08  vpalignr    xmm11,xmm3,xmm2,8
  0000000000001B63: 49 89 DC           mov         r12,rbx
  0000000000001B66: 4D 0F AC F6 05     shrd        r14,r14,5
  0000000000001B6B: C4 C1 29 73 D0 01  vpsrlq      xmm10,xmm8,1
  0000000000001B71: 49 31 C5           xor         r13,rax
  0000000000001B74: 49 31 CC           xor         r12,rcx
  0000000000001B77: C4 C1 49 D4 F3     vpaddq      xmm6,xmm6,xmm11
  0000000000001B7C: 4D 0F AC ED 04     shrd        r13,r13,4
  0000000000001B81: 4D 31 C6           xor         r14,r8
  0000000000001B84: C4 C1 21 73 D0 07  vpsrlq      xmm11,xmm8,7
  0000000000001B8A: 49 21 C4           and         r12,rax
  0000000000001B8D: 49 31 C5           xor         r13,rax
  0000000000001B90: C4 C1 31 73 F0 38  vpsllq      xmm9,xmm8,38h
  0000000000001B96: 48 03 54 24 60     add         rdx,qword ptr [rsp+60h]
  0000000000001B9B: 4D 89 C7           mov         r15,r8
  0000000000001B9E: C4 41 21 EF C2     vpxor       xmm8,xmm11,xmm10
  0000000000001BA3: 49 31 CC           xor         r12,rcx
  0000000000001BA6: 4D 0F AC F6 06     shrd        r14,r14,6
  0000000000001BAB: C4 C1 29 73 D2 07  vpsrlq      xmm10,xmm10,7
  0000000000001BB1: 4D 31 CF           xor         r15,r9
  0000000000001BB4: 4C 01 E2           add         rdx,r12
  0000000000001BB7: C4 41 39 EF C1     vpxor       xmm8,xmm8,xmm9
  0000000000001BBC: 4D 0F AC ED 0E     shrd        r13,r13,0Eh
  0000000000001BC1: 4C 21 FF           and         rdi,r15
  0000000000001BC4: C4 C1 31 73 F1 07  vpsllq      xmm9,xmm9,7
  0000000000001BCA: 4D 31 C6           xor         r14,r8
  0000000000001BCD: 4C 01 EA           add         rdx,r13
  0000000000001BD0: C4 41 39 EF C2     vpxor       xmm8,xmm8,xmm10
  0000000000001BD5: 4C 31 CF           xor         rdi,r9
  0000000000001BD8: 4D 0F AC F6 1C     shrd        r14,r14,1Ch
  0000000000001BDD: C5 A1 73 D5 06     vpsrlq      xmm11,xmm5,6
  0000000000001BE2: 49 01 D3           add         r11,rdx
  0000000000001BE5: 48 01 FA           add         rdx,rdi
  0000000000001BE8: C4 41 39 EF C1     vpxor       xmm8,xmm8,xmm9
  0000000000001BED: 4D 89 DD           mov         r13,r11
  0000000000001BF0: 49 01 D6           add         r14,rdx
  0000000000001BF3: C5 A9 73 F5 03     vpsllq      xmm10,xmm5,3
  0000000000001BF8: 4D 0F AC ED 17     shrd        r13,r13,17h
  0000000000001BFD: 4C 89 F2           mov         rdx,r14
  0000000000001C00: C4 C1 49 D4 F0     vpaddq      xmm6,xmm6,xmm8
  0000000000001C05: 49 89 C4           mov         r12,rax
  0000000000001C08: 4D 0F AC F6 05     shrd        r14,r14,5
  0000000000001C0D: C5 B1 73 D5 13     vpsrlq      xmm9,xmm5,13h
  0000000000001C12: 4D 31 DD           xor         r13,r11
  0000000000001C15: 49 31 DC           xor         r12,rbx
  0000000000001C18: C4 41 21 EF DA     vpxor       xmm11,xmm11,xmm10
  0000000000001C1D: 4D 0F AC ED 04     shrd        r13,r13,4
  0000000000001C22: 49 31 D6           xor         r14,rdx
  0000000000001C25: C4 C1 29 73 F2 2A  vpsllq      xmm10,xmm10,2Ah
  0000000000001C2B: 4D 21 DC           and         r12,r11
  0000000000001C2E: 4D 31 DD           xor         r13,r11
  0000000000001C31: C4 41 21 EF D9     vpxor       xmm11,xmm11,xmm9
  0000000000001C36: 48 03 4C 24 68     add         rcx,qword ptr [rsp+68h]
  0000000000001C3B: 48 89 D7           mov         rdi,rdx
  0000000000001C3E: C4 C1 31 73 D1 2A  vpsrlq      xmm9,xmm9,2Ah
  0000000000001C44: 49 31 DC           xor         r12,rbx
  0000000000001C47: 4D 0F AC F6 06     shrd        r14,r14,6
  0000000000001C4C: C4 41 21 EF DA     vpxor       xmm11,xmm11,xmm10
  0000000000001C51: 4C 31 C7           xor         rdi,r8
  0000000000001C54: 4C 01 E1           add         rcx,r12
  0000000000001C57: C4 41 21 EF D9     vpxor       xmm11,xmm11,xmm9
  0000000000001C5C: 4D 0F AC ED 0E     shrd        r13,r13,0Eh
  0000000000001C61: 49 21 FF           and         r15,rdi
  0000000000001C64: C4 C1 49 D4 F3     vpaddq      xmm6,xmm6,xmm11
  0000000000001C69: 49 31 D6           xor         r14,rdx
  0000000000001C6C: 4C 01 E9           add         rcx,r13
  0000000000001C6F: C5 49 D4 55 40     vpaddq      xmm10,xmm6,xmmword ptr [rbp+40h]
  0000000000001C74: 4D 31 C7           xor         r15,r8
  0000000000001C77: 4D 0F AC F6 1C     shrd        r14,r14,1Ch
  0000000000001C7C: 49 01 CA           add         r10,rcx
  0000000000001C7F: 4C 01 F9           add         rcx,r15
  0000000000001C82: 4D 89 D5           mov         r13,r10
  0000000000001C85: 49 01 CE           add         r14,rcx
  0000000000001C88: C5 79 7F 54 24 60  vmovdqa     xmmword ptr [rsp+60h],xmm10
  0000000000001C8E: C4 63 79 0F C7 08  vpalignr    xmm8,xmm0,xmm7,8
  0000000000001C94: 4D 0F AC ED 17     shrd        r13,r13,17h
  0000000000001C99: 4C 89 F1           mov         rcx,r14
  0000000000001C9C: C4 63 59 0F DB 08  vpalignr    xmm11,xmm4,xmm3,8
  0000000000001CA2: 4D 89 DC           mov         r12,r11
  0000000000001CA5: 4D 0F AC F6 05     shrd        r14,r14,5
  0000000000001CAA: C4 C1 29 73 D0 01  vpsrlq      xmm10,xmm8,1
  0000000000001CB0: 4D 31 D5           xor         r13,r10
  0000000000001CB3: 49 31 C4           xor         r12,rax
  0000000000001CB6: C4 C1 41 D4 FB     vpaddq      xmm7,xmm7,xmm11
  0000000000001CBB: 4D 0F AC ED 04     shrd        r13,r13,4
  0000000000001CC0: 49 31 CE           xor         r14,rcx
  0000000000001CC3: C4 C1 21 73 D0 07  vpsrlq      xmm11,xmm8,7
  0000000000001CC9: 4D 21 D4           and         r12,r10
  0000000000001CCC: 4D 31 D5           xor         r13,r10
  0000000000001CCF: C4 C1 31 73 F0 38  vpsllq      xmm9,xmm8,38h
  0000000000001CD5: 48 03 5C 24 70     add         rbx,qword ptr [rsp+70h]
  0000000000001CDA: 49 89 CF           mov         r15,rcx
  0000000000001CDD: C4 41 21 EF C2     vpxor       xmm8,xmm11,xmm10
  0000000000001CE2: 49 31 C4           xor         r12,rax
  0000000000001CE5: 4D 0F AC F6 06     shrd        r14,r14,6
  0000000000001CEA: C4 C1 29 73 D2 07  vpsrlq      xmm10,xmm10,7
  0000000000001CF0: 49 31 D7           xor         r15,rdx
  0000000000001CF3: 4C 01 E3           add         rbx,r12
  0000000000001CF6: C4 41 39 EF C1     vpxor       xmm8,xmm8,xmm9
  0000000000001CFB: 4D 0F AC ED 0E     shrd        r13,r13,0Eh
  0000000000001D00: 4C 21 FF           and         rdi,r15
  0000000000001D03: C4 C1 31 73 F1 07  vpsllq      xmm9,xmm9,7
  0000000000001D09: 49 31 CE           xor         r14,rcx
  0000000000001D0C: 4C 01 EB           add         rbx,r13
  0000000000001D0F: C4 41 39 EF C2     vpxor       xmm8,xmm8,xmm10
  0000000000001D14: 48 31 D7           xor         rdi,rdx
  0000000000001D17: 4D 0F AC F6 1C     shrd        r14,r14,1Ch
  0000000000001D1C: C5 A1 73 D6 06     vpsrlq      xmm11,xmm6,6
  0000000000001D21: 49 01 D9           add         r9,rbx
  0000000000001D24: 48 01 FB           add         rbx,rdi
  0000000000001D27: C4 41 39 EF C1     vpxor       xmm8,xmm8,xmm9
  0000000000001D2C: 4D 89 CD           mov         r13,r9
  0000000000001D2F: 49 01 DE           add         r14,rbx
  0000000000001D32: C5 A9 73 F6 03     vpsllq      xmm10,xmm6,3
  0000000000001D37: 4D 0F AC ED 17     shrd        r13,r13,17h
  0000000000001D3C: 4C 89 F3           mov         rbx,r14
  0000000000001D3F: C4 C1 41 D4 F8     vpaddq      xmm7,xmm7,xmm8
  0000000000001D44: 4D 89 D4           mov         r12,r10
  0000000000001D47: 4D 0F AC F6 05     shrd        r14,r14,5
  0000000000001D4C: C5 B1 73 D6 13     vpsrlq      xmm9,xmm6,13h
  0000000000001D51: 4D 31 CD           xor         r13,r9
  0000000000001D54: 4D 31 DC           xor         r12,r11
  0000000000001D57: C4 41 21 EF DA     vpxor       xmm11,xmm11,xmm10
  0000000000001D5C: 4D 0F AC ED 04     shrd        r13,r13,4
  0000000000001D61: 49 31 DE           xor         r14,rbx
  0000000000001D64: C4 C1 29 73 F2 2A  vpsllq      xmm10,xmm10,2Ah
  0000000000001D6A: 4D 21 CC           and         r12,r9
  0000000000001D6D: 4D 31 CD           xor         r13,r9
  0000000000001D70: C4 41 21 EF D9     vpxor       xmm11,xmm11,xmm9
  0000000000001D75: 48 03 44 24 78     add         rax,qword ptr [rsp+78h]
  0000000000001D7A: 48 89 DF           mov         rdi,rbx
  0000000000001D7D: C4 C1 31 73 D1 2A  vpsrlq      xmm9,xmm9,2Ah
  0000000000001D83: 4D 31 DC           xor         r12,r11
  0000000000001D86: 4D 0F AC F6 06     shrd        r14,r14,6
  0000000000001D8B: C4 41 21 EF DA     vpxor       xmm11,xmm11,xmm10
  0000000000001D90: 48 31 CF           xor         rdi,rcx
  0000000000001D93: 4C 01 E0           add         rax,r12
  0000000000001D96: C4 41 21 EF D9     vpxor       xmm11,xmm11,xmm9
  0000000000001D9B: 4D 0F AC ED 0E     shrd        r13,r13,0Eh
  0000000000001DA0: 49 21 FF           and         r15,rdi
  0000000000001DA3: C4 C1 41 D4 FB     vpaddq      xmm7,xmm7,xmm11
  0000000000001DA8: 49 31 DE           xor         r14,rbx
  0000000000001DAB: 4C 01 E8           add         rax,r13
  0000000000001DAE: C5 41 D4 55 60     vpaddq      xmm10,xmm7,xmmword ptr [rbp+60h]
  0000000000001DB3: 49 31 CF           xor         r15,rcx
  0000000000001DB6: 4D 0F AC F6 1C     shrd        r14,r14,1Ch
  0000000000001DBB: 49 01 C0           add         r8,rax
  0000000000001DBE: 4C 01 F8           add         rax,r15
  0000000000001DC1: 4D 89 C5           mov         r13,r8
  0000000000001DC4: 49 01 C6           add         r14,rax
  0000000000001DC7: C5 79 7F 54 24 70  vmovdqa     xmmword ptr [rsp+70h],xmm10
  0000000000001DCD: 80 BD 87 00 00 00  cmp         byte ptr [rbp+87h],0
                    00
  0000000000001DD4: 0F 85 F6 F5 FF FF  jne         L$avx_00_47
  0000000000001DDA: 4D 0F AC ED 17     shrd        r13,r13,17h
  0000000000001DDF: 4C 89 F0           mov         rax,r14
  0000000000001DE2: 4D 89 CC           mov         r12,r9
  0000000000001DE5: 4D 0F AC F6 05     shrd        r14,r14,5
  0000000000001DEA: 4D 31 C5           xor         r13,r8
  0000000000001DED: 4D 31 D4           xor         r12,r10
  0000000000001DF0: 4D 0F AC ED 04     shrd        r13,r13,4
  0000000000001DF5: 49 31 C6           xor         r14,rax
  0000000000001DF8: 4D 21 C4           and         r12,r8
  0000000000001DFB: 4D 31 C5           xor         r13,r8
  0000000000001DFE: 4C 03 1C 24        add         r11,qword ptr [rsp]
  0000000000001E02: 49 89 C7           mov         r15,rax
  0000000000001E05: 4D 31 D4           xor         r12,r10
  0000000000001E08: 4D 0F AC F6 06     shrd        r14,r14,6
  0000000000001E0D: 49 31 DF           xor         r15,rbx
  0000000000001E10: 4D 01 E3           add         r11,r12
  0000000000001E13: 4D 0F AC ED 0E     shrd        r13,r13,0Eh
  0000000000001E18: 4C 21 FF           and         rdi,r15
  0000000000001E1B: 49 31 C6           xor         r14,rax
  0000000000001E1E: 4D 01 EB           add         r11,r13
  0000000000001E21: 48 31 DF           xor         rdi,rbx
  0000000000001E24: 4D 0F AC F6 1C     shrd        r14,r14,1Ch
  0000000000001E29: 4C 01 DA           add         rdx,r11
  0000000000001E2C: 49 01 FB           add         r11,rdi
  0000000000001E2F: 49 89 D5           mov         r13,rdx
  0000000000001E32: 4D 01 DE           add         r14,r11
  0000000000001E35: 4D 0F AC ED 17     shrd        r13,r13,17h
  0000000000001E3A: 4D 89 F3           mov         r11,r14
  0000000000001E3D: 4D 89 C4           mov         r12,r8
  0000000000001E40: 4D 0F AC F6 05     shrd        r14,r14,5
  0000000000001E45: 49 31 D5           xor         r13,rdx
  0000000000001E48: 4D 31 CC           xor         r12,r9
  0000000000001E4B: 4D 0F AC ED 04     shrd        r13,r13,4
  0000000000001E50: 4D 31 DE           xor         r14,r11
  0000000000001E53: 49 21 D4           and         r12,rdx
  0000000000001E56: 49 31 D5           xor         r13,rdx
  0000000000001E59: 4C 03 54 24 08     add         r10,qword ptr [rsp+8]
  0000000000001E5E: 4C 89 DF           mov         rdi,r11
  0000000000001E61: 4D 31 CC           xor         r12,r9
  0000000000001E64: 4D 0F AC F6 06     shrd        r14,r14,6
  0000000000001E69: 48 31 C7           xor         rdi,rax
  0000000000001E6C: 4D 01 E2           add         r10,r12
  0000000000001E6F: 4D 0F AC ED 0E     shrd        r13,r13,0Eh
  0000000000001E74: 49 21 FF           and         r15,rdi
  0000000000001E77: 4D 31 DE           xor         r14,r11
  0000000000001E7A: 4D 01 EA           add         r10,r13
  0000000000001E7D: 49 31 C7           xor         r15,rax
  0000000000001E80: 4D 0F AC F6 1C     shrd        r14,r14,1Ch
  0000000000001E85: 4C 01 D1           add         rcx,r10
  0000000000001E88: 4D 01 FA           add         r10,r15
  0000000000001E8B: 49 89 CD           mov         r13,rcx
  0000000000001E8E: 4D 01 D6           add         r14,r10
  0000000000001E91: 4D 0F AC ED 17     shrd        r13,r13,17h
  0000000000001E96: 4D 89 F2           mov         r10,r14
  0000000000001E99: 49 89 D4           mov         r12,rdx
  0000000000001E9C: 4D 0F AC F6 05     shrd        r14,r14,5
  0000000000001EA1: 49 31 CD           xor         r13,rcx
  0000000000001EA4: 4D 31 C4           xor         r12,r8
  0000000000001EA7: 4D 0F AC ED 04     shrd        r13,r13,4
  0000000000001EAC: 4D 31 D6           xor         r14,r10
  0000000000001EAF: 49 21 CC           and         r12,rcx
  0000000000001EB2: 49 31 CD           xor         r13,rcx
  0000000000001EB5: 4C 03 4C 24 10     add         r9,qword ptr [rsp+10h]
  0000000000001EBA: 4D 89 D7           mov         r15,r10
  0000000000001EBD: 4D 31 C4           xor         r12,r8
  0000000000001EC0: 4D 0F AC F6 06     shrd        r14,r14,6
  0000000000001EC5: 4D 31 DF           xor         r15,r11
  0000000000001EC8: 4D 01 E1           add         r9,r12
  0000000000001ECB: 4D 0F AC ED 0E     shrd        r13,r13,0Eh
  0000000000001ED0: 4C 21 FF           and         rdi,r15
  0000000000001ED3: 4D 31 D6           xor         r14,r10
  0000000000001ED6: 4D 01 E9           add         r9,r13
  0000000000001ED9: 4C 31 DF           xor         rdi,r11
  0000000000001EDC: 4D 0F AC F6 1C     shrd        r14,r14,1Ch
  0000000000001EE1: 4C 01 CB           add         rbx,r9
  0000000000001EE4: 49 01 F9           add         r9,rdi
  0000000000001EE7: 49 89 DD           mov         r13,rbx
  0000000000001EEA: 4D 01 CE           add         r14,r9
  0000000000001EED: 4D 0F AC ED 17     shrd        r13,r13,17h
  0000000000001EF2: 4D 89 F1           mov         r9,r14
  0000000000001EF5: 49 89 CC           mov         r12,rcx
  0000000000001EF8: 4D 0F AC F6 05     shrd        r14,r14,5
  0000000000001EFD: 49 31 DD           xor         r13,rbx
  0000000000001F00: 49 31 D4           xor         r12,rdx
  0000000000001F03: 4D 0F AC ED 04     shrd        r13,r13,4
  0000000000001F08: 4D 31 CE           xor         r14,r9
  0000000000001F0B: 49 21 DC           and         r12,rbx
  0000000000001F0E: 49 31 DD           xor         r13,rbx
  0000000000001F11: 4C 03 44 24 18     add         r8,qword ptr [rsp+18h]
  0000000000001F16: 4C 89 CF           mov         rdi,r9
  0000000000001F19: 49 31 D4           xor         r12,rdx
  0000000000001F1C: 4D 0F AC F6 06     shrd        r14,r14,6
  0000000000001F21: 4C 31 D7           xor         rdi,r10
  0000000000001F24: 4D 01 E0           add         r8,r12
  0000000000001F27: 4D 0F AC ED 0E     shrd        r13,r13,0Eh
  0000000000001F2C: 49 21 FF           and         r15,rdi
  0000000000001F2F: 4D 31 CE           xor         r14,r9
  0000000000001F32: 4D 01 E8           add         r8,r13
  0000000000001F35: 4D 31 D7           xor         r15,r10
  0000000000001F38: 4D 0F AC F6 1C     shrd        r14,r14,1Ch
  0000000000001F3D: 4C 01 C0           add         rax,r8
  0000000000001F40: 4D 01 F8           add         r8,r15
  0000000000001F43: 49 89 C5           mov         r13,rax
  0000000000001F46: 4D 01 C6           add         r14,r8
  0000000000001F49: 4D 0F AC ED 17     shrd        r13,r13,17h
  0000000000001F4E: 4D 89 F0           mov         r8,r14
  0000000000001F51: 49 89 DC           mov         r12,rbx
  0000000000001F54: 4D 0F AC F6 05     shrd        r14,r14,5
  0000000000001F59: 49 31 C5           xor         r13,rax
  0000000000001F5C: 49 31 CC           xor         r12,rcx
  0000000000001F5F: 4D 0F AC ED 04     shrd        r13,r13,4
  0000000000001F64: 4D 31 C6           xor         r14,r8
  0000000000001F67: 49 21 C4           and         r12,rax
  0000000000001F6A: 49 31 C5           xor         r13,rax
  0000000000001F6D: 48 03 54 24 20     add         rdx,qword ptr [rsp+20h]
  0000000000001F72: 4D 89 C7           mov         r15,r8
  0000000000001F75: 49 31 CC           xor         r12,rcx
  0000000000001F78: 4D 0F AC F6 06     shrd        r14,r14,6
  0000000000001F7D: 4D 31 CF           xor         r15,r9
  0000000000001F80: 4C 01 E2           add         rdx,r12
  0000000000001F83: 4D 0F AC ED 0E     shrd        r13,r13,0Eh
  0000000000001F88: 4C 21 FF           and         rdi,r15
  0000000000001F8B: 4D 31 C6           xor         r14,r8
  0000000000001F8E: 4C 01 EA           add         rdx,r13
  0000000000001F91: 4C 31 CF           xor         rdi,r9
  0000000000001F94: 4D 0F AC F6 1C     shrd        r14,r14,1Ch
  0000000000001F99: 49 01 D3           add         r11,rdx
  0000000000001F9C: 48 01 FA           add         rdx,rdi
  0000000000001F9F: 4D 89 DD           mov         r13,r11
  0000000000001FA2: 49 01 D6           add         r14,rdx
  0000000000001FA5: 4D 0F AC ED 17     shrd        r13,r13,17h
  0000000000001FAA: 4C 89 F2           mov         rdx,r14
  0000000000001FAD: 49 89 C4           mov         r12,rax
  0000000000001FB0: 4D 0F AC F6 05     shrd        r14,r14,5
  0000000000001FB5: 4D 31 DD           xor         r13,r11
  0000000000001FB8: 49 31 DC           xor         r12,rbx
  0000000000001FBB: 4D 0F AC ED 04     shrd        r13,r13,4
  0000000000001FC0: 49 31 D6           xor         r14,rdx
  0000000000001FC3: 4D 21 DC           and         r12,r11
  0000000000001FC6: 4D 31 DD           xor         r13,r11
  0000000000001FC9: 48 03 4C 24 28     add         rcx,qword ptr [rsp+28h]
  0000000000001FCE: 48 89 D7           mov         rdi,rdx
  0000000000001FD1: 49 31 DC           xor         r12,rbx
  0000000000001FD4: 4D 0F AC F6 06     shrd        r14,r14,6
  0000000000001FD9: 4C 31 C7           xor         rdi,r8
  0000000000001FDC: 4C 01 E1           add         rcx,r12
  0000000000001FDF: 4D 0F AC ED 0E     shrd        r13,r13,0Eh
  0000000000001FE4: 49 21 FF           and         r15,rdi
  0000000000001FE7: 49 31 D6           xor         r14,rdx
  0000000000001FEA: 4C 01 E9           add         rcx,r13
  0000000000001FED: 4D 31 C7           xor         r15,r8
  0000000000001FF0: 4D 0F AC F6 1C     shrd        r14,r14,1Ch
  0000000000001FF5: 49 01 CA           add         r10,rcx
  0000000000001FF8: 4C 01 F9           add         rcx,r15
  0000000000001FFB: 4D 89 D5           mov         r13,r10
  0000000000001FFE: 49 01 CE           add         r14,rcx
  0000000000002001: 4D 0F AC ED 17     shrd        r13,r13,17h
  0000000000002006: 4C 89 F1           mov         rcx,r14
  0000000000002009: 4D 89 DC           mov         r12,r11
  000000000000200C: 4D 0F AC F6 05     shrd        r14,r14,5
  0000000000002011: 4D 31 D5           xor         r13,r10
  0000000000002014: 49 31 C4           xor         r12,rax
  0000000000002017: 4D 0F AC ED 04     shrd        r13,r13,4
  000000000000201C: 49 31 CE           xor         r14,rcx
  000000000000201F: 4D 21 D4           and         r12,r10
  0000000000002022: 4D 31 D5           xor         r13,r10
  0000000000002025: 48 03 5C 24 30     add         rbx,qword ptr [rsp+30h]
  000000000000202A: 49 89 CF           mov         r15,rcx
  000000000000202D: 49 31 C4           xor         r12,rax
  0000000000002030: 4D 0F AC F6 06     shrd        r14,r14,6
  0000000000002035: 49 31 D7           xor         r15,rdx
  0000000000002038: 4C 01 E3           add         rbx,r12
  000000000000203B: 4D 0F AC ED 0E     shrd        r13,r13,0Eh
  0000000000002040: 4C 21 FF           and         rdi,r15
  0000000000002043: 49 31 CE           xor         r14,rcx
  0000000000002046: 4C 01 EB           add         rbx,r13
  0000000000002049: 48 31 D7           xor         rdi,rdx
  000000000000204C: 4D 0F AC F6 1C     shrd        r14,r14,1Ch
  0000000000002051: 49 01 D9           add         r9,rbx
  0000000000002054: 48 01 FB           add         rbx,rdi
  0000000000002057: 4D 89 CD           mov         r13,r9
  000000000000205A: 49 01 DE           add         r14,rbx
  000000000000205D: 4D 0F AC ED 17     shrd        r13,r13,17h
  0000000000002062: 4C 89 F3           mov         rbx,r14
  0000000000002065: 4D 89 D4           mov         r12,r10
  0000000000002068: 4D 0F AC F6 05     shrd        r14,r14,5
  000000000000206D: 4D 31 CD           xor         r13,r9
  0000000000002070: 4D 31 DC           xor         r12,r11
  0000000000002073: 4D 0F AC ED 04     shrd        r13,r13,4
  0000000000002078: 49 31 DE           xor         r14,rbx
  000000000000207B: 4D 21 CC           and         r12,r9
  000000000000207E: 4D 31 CD           xor         r13,r9
  0000000000002081: 48 03 44 24 38     add         rax,qword ptr [rsp+38h]
  0000000000002086: 48 89 DF           mov         rdi,rbx
  0000000000002089: 4D 31 DC           xor         r12,r11
  000000000000208C: 4D 0F AC F6 06     shrd        r14,r14,6
  0000000000002091: 48 31 CF           xor         rdi,rcx
  0000000000002094: 4C 01 E0           add         rax,r12
  0000000000002097: 4D 0F AC ED 0E     shrd        r13,r13,0Eh
  000000000000209C: 49 21 FF           and         r15,rdi
  000000000000209F: 49 31 DE           xor         r14,rbx
  00000000000020A2: 4C 01 E8           add         rax,r13
  00000000000020A5: 49 31 CF           xor         r15,rcx
  00000000000020A8: 4D 0F AC F6 1C     shrd        r14,r14,1Ch
  00000000000020AD: 49 01 C0           add         r8,rax
  00000000000020B0: 4C 01 F8           add         rax,r15
  00000000000020B3: 4D 89 C5           mov         r13,r8
  00000000000020B6: 49 01 C6           add         r14,rax
  00000000000020B9: 4D 0F AC ED 17     shrd        r13,r13,17h
  00000000000020BE: 4C 89 F0           mov         rax,r14
  00000000000020C1: 4D 89 CC           mov         r12,r9
  00000000000020C4: 4D 0F AC F6 05     shrd        r14,r14,5
  00000000000020C9: 4D 31 C5           xor         r13,r8
  00000000000020CC: 4D 31 D4           xor         r12,r10
  00000000000020CF: 4D 0F AC ED 04     shrd        r13,r13,4
  00000000000020D4: 49 31 C6           xor         r14,rax
  00000000000020D7: 4D 21 C4           and         r12,r8
  00000000000020DA: 4D 31 C5           xor         r13,r8
  00000000000020DD: 4C 03 5C 24 40     add         r11,qword ptr [rsp+40h]
  00000000000020E2: 49 89 C7           mov         r15,rax
  00000000000020E5: 4D 31 D4           xor         r12,r10
  00000000000020E8: 4D 0F AC F6 06     shrd        r14,r14,6
  00000000000020ED: 49 31 DF           xor         r15,rbx
  00000000000020F0: 4D 01 E3           add         r11,r12
  00000000000020F3: 4D 0F AC ED 0E     shrd        r13,r13,0Eh
  00000000000020F8: 4C 21 FF           and         rdi,r15
  00000000000020FB: 49 31 C6           xor         r14,rax
  00000000000020FE: 4D 01 EB           add         r11,r13
  0000000000002101: 48 31 DF           xor         rdi,rbx
  0000000000002104: 4D 0F AC F6 1C     shrd        r14,r14,1Ch
  0000000000002109: 4C 01 DA           add         rdx,r11
  000000000000210C: 49 01 FB           add         r11,rdi
  000000000000210F: 49 89 D5           mov         r13,rdx
  0000000000002112: 4D 01 DE           add         r14,r11
  0000000000002115: 4D 0F AC ED 17     shrd        r13,r13,17h
  000000000000211A: 4D 89 F3           mov         r11,r14
  000000000000211D: 4D 89 C4           mov         r12,r8
  0000000000002120: 4D 0F AC F6 05     shrd        r14,r14,5
  0000000000002125: 49 31 D5           xor         r13,rdx
  0000000000002128: 4D 31 CC           xor         r12,r9
  000000000000212B: 4D 0F AC ED 04     shrd        r13,r13,4
  0000000000002130: 4D 31 DE           xor         r14,r11
  0000000000002133: 49 21 D4           and         r12,rdx
  0000000000002136: 49 31 D5           xor         r13,rdx
  0000000000002139: 4C 03 54 24 48     add         r10,qword ptr [rsp+48h]
  000000000000213E: 4C 89 DF           mov         rdi,r11
  0000000000002141: 4D 31 CC           xor         r12,r9
  0000000000002144: 4D 0F AC F6 06     shrd        r14,r14,6
  0000000000002149: 48 31 C7           xor         rdi,rax
  000000000000214C: 4D 01 E2           add         r10,r12
  000000000000214F: 4D 0F AC ED 0E     shrd        r13,r13,0Eh
  0000000000002154: 49 21 FF           and         r15,rdi
  0000000000002157: 4D 31 DE           xor         r14,r11
  000000000000215A: 4D 01 EA           add         r10,r13
  000000000000215D: 49 31 C7           xor         r15,rax
  0000000000002160: 4D 0F AC F6 1C     shrd        r14,r14,1Ch
  0000000000002165: 4C 01 D1           add         rcx,r10
  0000000000002168: 4D 01 FA           add         r10,r15
  000000000000216B: 49 89 CD           mov         r13,rcx
  000000000000216E: 4D 01 D6           add         r14,r10
  0000000000002171: 4D 0F AC ED 17     shrd        r13,r13,17h
  0000000000002176: 4D 89 F2           mov         r10,r14
  0000000000002179: 49 89 D4           mov         r12,rdx
  000000000000217C: 4D 0F AC F6 05     shrd        r14,r14,5
  0000000000002181: 49 31 CD           xor         r13,rcx
  0000000000002184: 4D 31 C4           xor         r12,r8
  0000000000002187: 4D 0F AC ED 04     shrd        r13,r13,4
  000000000000218C: 4D 31 D6           xor         r14,r10
  000000000000218F: 49 21 CC           and         r12,rcx
  0000000000002192: 49 31 CD           xor         r13,rcx
  0000000000002195: 4C 03 4C 24 50     add         r9,qword ptr [rsp+50h]
  000000000000219A: 4D 89 D7           mov         r15,r10
  000000000000219D: 4D 31 C4           xor         r12,r8
  00000000000021A0: 4D 0F AC F6 06     shrd        r14,r14,6
  00000000000021A5: 4D 31 DF           xor         r15,r11
  00000000000021A8: 4D 01 E1           add         r9,r12
  00000000000021AB: 4D 0F AC ED 0E     shrd        r13,r13,0Eh
  00000000000021B0: 4C 21 FF           and         rdi,r15
  00000000000021B3: 4D 31 D6           xor         r14,r10
  00000000000021B6: 4D 01 E9           add         r9,r13
  00000000000021B9: 4C 31 DF           xor         rdi,r11
  00000000000021BC: 4D 0F AC F6 1C     shrd        r14,r14,1Ch
  00000000000021C1: 4C 01 CB           add         rbx,r9
  00000000000021C4: 49 01 F9           add         r9,rdi
  00000000000021C7: 49 89 DD           mov         r13,rbx
  00000000000021CA: 4D 01 CE           add         r14,r9
  00000000000021CD: 4D 0F AC ED 17     shrd        r13,r13,17h
  00000000000021D2: 4D 89 F1           mov         r9,r14
  00000000000021D5: 49 89 CC           mov         r12,rcx
  00000000000021D8: 4D 0F AC F6 05     shrd        r14,r14,5
  00000000000021DD: 49 31 DD           xor         r13,rbx
  00000000000021E0: 49 31 D4           xor         r12,rdx
  00000000000021E3: 4D 0F AC ED 04     shrd        r13,r13,4
  00000000000021E8: 4D 31 CE           xor         r14,r9
  00000000000021EB: 49 21 DC           and         r12,rbx
  00000000000021EE: 49 31 DD           xor         r13,rbx
  00000000000021F1: 4C 03 44 24 58     add         r8,qword ptr [rsp+58h]
  00000000000021F6: 4C 89 CF           mov         rdi,r9
  00000000000021F9: 49 31 D4           xor         r12,rdx
  00000000000021FC: 4D 0F AC F6 06     shrd        r14,r14,6
  0000000000002201: 4C 31 D7           xor         rdi,r10
  0000000000002204: 4D 01 E0           add         r8,r12
  0000000000002207: 4D 0F AC ED 0E     shrd        r13,r13,0Eh
  000000000000220C: 49 21 FF           and         r15,rdi
  000000000000220F: 4D 31 CE           xor         r14,r9
  0000000000002212: 4D 01 E8           add         r8,r13
  0000000000002215: 4D 31 D7           xor         r15,r10
  0000000000002218: 4D 0F AC F6 1C     shrd        r14,r14,1Ch
  000000000000221D: 4C 01 C0           add         rax,r8
  0000000000002220: 4D 01 F8           add         r8,r15
  0000000000002223: 49 89 C5           mov         r13,rax
  0000000000002226: 4D 01 C6           add         r14,r8
  0000000000002229: 4D 0F AC ED 17     shrd        r13,r13,17h
  000000000000222E: 4D 89 F0           mov         r8,r14
  0000000000002231: 49 89 DC           mov         r12,rbx
  0000000000002234: 4D 0F AC F6 05     shrd        r14,r14,5
  0000000000002239: 49 31 C5           xor         r13,rax
  000000000000223C: 49 31 CC           xor         r12,rcx
  000000000000223F: 4D 0F AC ED 04     shrd        r13,r13,4
  0000000000002244: 4D 31 C6           xor         r14,r8
  0000000000002247: 49 21 C4           and         r12,rax
  000000000000224A: 49 31 C5           xor         r13,rax
  000000000000224D: 48 03 54 24 60     add         rdx,qword ptr [rsp+60h]
  0000000000002252: 4D 89 C7           mov         r15,r8
  0000000000002255: 49 31 CC           xor         r12,rcx
  0000000000002258: 4D 0F AC F6 06     shrd        r14,r14,6
  000000000000225D: 4D 31 CF           xor         r15,r9
  0000000000002260: 4C 01 E2           add         rdx,r12
  0000000000002263: 4D 0F AC ED 0E     shrd        r13,r13,0Eh
  0000000000002268: 4C 21 FF           and         rdi,r15
  000000000000226B: 4D 31 C6           xor         r14,r8
  000000000000226E: 4C 01 EA           add         rdx,r13
  0000000000002271: 4C 31 CF           xor         rdi,r9
  0000000000002274: 4D 0F AC F6 1C     shrd        r14,r14,1Ch
  0000000000002279: 49 01 D3           add         r11,rdx
  000000000000227C: 48 01 FA           add         rdx,rdi
  000000000000227F: 4D 89 DD           mov         r13,r11
  0000000000002282: 49 01 D6           add         r14,rdx
  0000000000002285: 4D 0F AC ED 17     shrd        r13,r13,17h
  000000000000228A: 4C 89 F2           mov         rdx,r14
  000000000000228D: 49 89 C4           mov         r12,rax
  0000000000002290: 4D 0F AC F6 05     shrd        r14,r14,5
  0000000000002295: 4D 31 DD           xor         r13,r11
  0000000000002298: 49 31 DC           xor         r12,rbx
  000000000000229B: 4D 0F AC ED 04     shrd        r13,r13,4
  00000000000022A0: 49 31 D6           xor         r14,rdx
  00000000000022A3: 4D 21 DC           and         r12,r11
  00000000000022A6: 4D 31 DD           xor         r13,r11
  00000000000022A9: 48 03 4C 24 68     add         rcx,qword ptr [rsp+68h]
  00000000000022AE: 48 89 D7           mov         rdi,rdx
  00000000000022B1: 49 31 DC           xor         r12,rbx
  00000000000022B4: 4D 0F AC F6 06     shrd        r14,r14,6
  00000000000022B9: 4C 31 C7           xor         rdi,r8
  00000000000022BC: 4C 01 E1           add         rcx,r12
  00000000000022BF: 4D 0F AC ED 0E     shrd        r13,r13,0Eh
  00000000000022C4: 49 21 FF           and         r15,rdi
  00000000000022C7: 49 31 D6           xor         r14,rdx
  00000000000022CA: 4C 01 E9           add         rcx,r13
  00000000000022CD: 4D 31 C7           xor         r15,r8
  00000000000022D0: 4D 0F AC F6 1C     shrd        r14,r14,1Ch
  00000000000022D5: 49 01 CA           add         r10,rcx
  00000000000022D8: 4C 01 F9           add         rcx,r15
  00000000000022DB: 4D 89 D5           mov         r13,r10
  00000000000022DE: 49 01 CE           add         r14,rcx
  00000000000022E1: 4D 0F AC ED 17     shrd        r13,r13,17h
  00000000000022E6: 4C 89 F1           mov         rcx,r14
  00000000000022E9: 4D 89 DC           mov         r12,r11
  00000000000022EC: 4D 0F AC F6 05     shrd        r14,r14,5
  00000000000022F1: 4D 31 D5           xor         r13,r10
  00000000000022F4: 49 31 C4           xor         r12,rax
  00000000000022F7: 4D 0F AC ED 04     shrd        r13,r13,4
  00000000000022FC: 49 31 CE           xor         r14,rcx
  00000000000022FF: 4D 21 D4           and         r12,r10
  0000000000002302: 4D 31 D5           xor         r13,r10
  0000000000002305: 48 03 5C 24 70     add         rbx,qword ptr [rsp+70h]
  000000000000230A: 49 89 CF           mov         r15,rcx
  000000000000230D: 49 31 C4           xor         r12,rax
  0000000000002310: 4D 0F AC F6 06     shrd        r14,r14,6
  0000000000002315: 49 31 D7           xor         r15,rdx
  0000000000002318: 4C 01 E3           add         rbx,r12
  000000000000231B: 4D 0F AC ED 0E     shrd        r13,r13,0Eh
  0000000000002320: 4C 21 FF           and         rdi,r15
  0000000000002323: 49 31 CE           xor         r14,rcx
  0000000000002326: 4C 01 EB           add         rbx,r13
  0000000000002329: 48 31 D7           xor         rdi,rdx
  000000000000232C: 4D 0F AC F6 1C     shrd        r14,r14,1Ch
  0000000000002331: 49 01 D9           add         r9,rbx
  0000000000002334: 48 01 FB           add         rbx,rdi
  0000000000002337: 4D 89 CD           mov         r13,r9
  000000000000233A: 49 01 DE           add         r14,rbx
  000000000000233D: 4D 0F AC ED 17     shrd        r13,r13,17h
  0000000000002342: 4C 89 F3           mov         rbx,r14
  0000000000002345: 4D 89 D4           mov         r12,r10
  0000000000002348: 4D 0F AC F6 05     shrd        r14,r14,5
  000000000000234D: 4D 31 CD           xor         r13,r9
  0000000000002350: 4D 31 DC           xor         r12,r11
  0000000000002353: 4D 0F AC ED 04     shrd        r13,r13,4
  0000000000002358: 49 31 DE           xor         r14,rbx
  000000000000235B: 4D 21 CC           and         r12,r9
  000000000000235E: 4D 31 CD           xor         r13,r9
  0000000000002361: 48 03 44 24 78     add         rax,qword ptr [rsp+78h]
  0000000000002366: 48 89 DF           mov         rdi,rbx
  0000000000002369: 4D 31 DC           xor         r12,r11
  000000000000236C: 4D 0F AC F6 06     shrd        r14,r14,6
  0000000000002371: 48 31 CF           xor         rdi,rcx
  0000000000002374: 4C 01 E0           add         rax,r12
  0000000000002377: 4D 0F AC ED 0E     shrd        r13,r13,0Eh
  000000000000237C: 49 21 FF           and         r15,rdi
  000000000000237F: 49 31 DE           xor         r14,rbx
  0000000000002382: 4C 01 E8           add         rax,r13
  0000000000002385: 49 31 CF           xor         r15,rcx
  0000000000002388: 4D 0F AC F6 1C     shrd        r14,r14,1Ch
  000000000000238D: 49 01 C0           add         r8,rax
  0000000000002390: 4C 01 F8           add         rax,r15
  0000000000002393: 4D 89 C5           mov         r13,r8
  0000000000002396: 49 01 C6           add         r14,rax
  0000000000002399: 48 8B BC 24 80 00  mov         rdi,qword ptr [rsp+80h]
                    00 00
  00000000000023A1: 4C 89 F0           mov         rax,r14
  00000000000023A4: 48 03 07           add         rax,qword ptr [rdi]
  00000000000023A7: 48 8D B6 80 00 00  lea         rsi,[rsi+80h]
                    00
  00000000000023AE: 48 03 5F 08        add         rbx,qword ptr [rdi+8]
  00000000000023B2: 48 03 4F 10        add         rcx,qword ptr [rdi+10h]
  00000000000023B6: 48 03 57 18        add         rdx,qword ptr [rdi+18h]
  00000000000023BA: 4C 03 47 20        add         r8,qword ptr [rdi+20h]
  00000000000023BE: 4C 03 4F 28        add         r9,qword ptr [rdi+28h]
  00000000000023C2: 4C 03 57 30        add         r10,qword ptr [rdi+30h]
  00000000000023C6: 4C 03 5F 38        add         r11,qword ptr [rdi+38h]
  00000000000023CA: 48 3B B4 24 90 00  cmp         rsi,qword ptr [rsp+90h]
                    00 00
  00000000000023D2: 48 89 07           mov         qword ptr [rdi],rax
  00000000000023D5: 48 89 5F 08        mov         qword ptr [rdi+8],rbx
  00000000000023D9: 48 89 4F 10        mov         qword ptr [rdi+10h],rcx
  00000000000023DD: 48 89 57 18        mov         qword ptr [rdi+18h],rdx
  00000000000023E1: 4C 89 47 20        mov         qword ptr [rdi+20h],r8
  00000000000023E5: 4C 89 4F 28        mov         qword ptr [rdi+28h],r9
  00000000000023E9: 4C 89 57 30        mov         qword ptr [rdi+30h],r10
  00000000000023ED: 4C 89 5F 38        mov         qword ptr [rdi+38h],r11
  00000000000023F1: 0F 82 09 EF FF FF  jb          L$loop_avx
  00000000000023F7: 48 8B B4 24 98 00  mov         rsi,qword ptr [rsp+98h]
                    00 00
  00000000000023FF: C5 F8 77           vzeroupper
  0000000000002402: 0F 28 B4 24 A0 00  movaps      xmm6,xmmword ptr [rsp+0A0h]
                    00 00
  000000000000240A: 0F 28 BC 24 B0 00  movaps      xmm7,xmmword ptr [rsp+0B0h]
                    00 00
  0000000000002412: 44 0F 28 84 24 C0  movaps      xmm8,xmmword ptr [rsp+0C0h]
                    00 00 00
  000000000000241B: 44 0F 28 8C 24 D0  movaps      xmm9,xmmword ptr [rsp+0D0h]
                    00 00 00
  0000000000002424: 44 0F 28 94 24 E0  movaps      xmm10,xmmword ptr [rsp+0E0h]
                    00 00 00
  000000000000242D: 44 0F 28 9C 24 F0  movaps      xmm11,xmmword ptr [rsp+0F0h]
                    00 00 00
  0000000000002436: 4C 8B 7E D0        mov         r15,qword ptr [rsi-30h]
  000000000000243A: 4C 8B 76 D8        mov         r14,qword ptr [rsi-28h]
  000000000000243E: 4C 8B 6E E0        mov         r13,qword ptr [rsi-20h]
  0000000000002442: 4C 8B 66 E8        mov         r12,qword ptr [rsi-18h]
  0000000000002446: 48 8B 6E F0        mov         rbp,qword ptr [rsi-10h]
  000000000000244A: 48 8B 5E F8        mov         rbx,qword ptr [rsi-8]
  000000000000244E: 48 8D 26           lea         rsp,[rsi]
L$epilogue_avx:
  0000000000002451: 48 8B 7C 24 08     mov         rdi,qword ptr [rsp+8]
  0000000000002456: 48 8B 74 24 10     mov         rsi,qword ptr [rsp+10h]
  000000000000245B: F3 C3              rep ret
L$SEH_end_sha512_block_data_order_avx:
  000000000000245D: 90                 nop
  000000000000245E: 90                 nop
  000000000000245F: 90                 nop
se_handler:
  0000000000002460: 56                 push        rsi
  0000000000002461: 57                 push        rdi
  0000000000002462: 53                 push        rbx
  0000000000002463: 55                 push        rbp
  0000000000002464: 41 54              push        r12
  0000000000002466: 41 55              push        r13
  0000000000002468: 41 56              push        r14
  000000000000246A: 41 57              push        r15
  000000000000246C: 9C                 pushfq
  000000000000246D: 48 83 EC 40        sub         rsp,40h
  0000000000002471: 49 8B 40 78        mov         rax,qword ptr [r8+78h]
  0000000000002475: 49 8B 98 F8 00 00  mov         rbx,qword ptr [r8+0F8h]
                    00
  000000000000247C: 49 8B 71 08        mov         rsi,qword ptr [r9+8]
  0000000000002480: 4D 8B 59 38        mov         r11,qword ptr [r9+38h]
  0000000000002484: 45 8B 13           mov         r10d,dword ptr [r11]
  0000000000002487: 4E 8D 14 16        lea         r10,[rsi+r10]
  000000000000248B: 4C 39 D3           cmp         rbx,r10
  000000000000248E: 0F 82 8B 00 00 00  jb          L$in_prologue
  0000000000002494: 49 8B 80 98 00 00  mov         rax,qword ptr [r8+98h]
                    00
  000000000000249B: 45 8B 53 04        mov         r10d,dword ptr [r11+4]
  000000000000249F: 4E 8D 14 16        lea         r10,[rsi+r10]
  00000000000024A3: 4C 39 D3           cmp         rbx,r10
  00000000000024A6: 0F 83 73 00 00 00  jae         L$in_prologue
  00000000000024AC: 48 89 C6           mov         rsi,rax
  00000000000024AF: 48 8B 80 98 00 00  mov         rax,qword ptr [rax+98h]
                    00
  00000000000024B6: 48 8B 58 F8        mov         rbx,qword ptr [rax-8]
  00000000000024BA: 48 8B 68 F0        mov         rbp,qword ptr [rax-10h]
  00000000000024BE: 4C 8B 60 E8        mov         r12,qword ptr [rax-18h]
  00000000000024C2: 4C 8B 68 E0        mov         r13,qword ptr [rax-20h]
  00000000000024C6: 4C 8B 70 D8        mov         r14,qword ptr [rax-28h]
  00000000000024CA: 4C 8B 78 D0        mov         r15,qword ptr [rax-30h]
  00000000000024CE: 49 89 98 90 00 00  mov         qword ptr [r8+90h],rbx
                    00
  00000000000024D5: 49 89 A8 A0 00 00  mov         qword ptr [r8+0A0h],rbp
                    00
  00000000000024DC: 4D 89 A0 D8 00 00  mov         qword ptr [r8+0D8h],r12
                    00
  00000000000024E3: 4D 89 A8 E0 00 00  mov         qword ptr [r8+0E0h],r13
                    00
  00000000000024EA: 4D 89 B0 E8 00 00  mov         qword ptr [r8+0E8h],r14
                    00
  00000000000024F1: 4D 89 B8 F0 00 00  mov         qword ptr [r8+0F0h],r15
                    00
  00000000000024F8: 4C 8D 15 07 ED FF  lea         r10,[L$epilogue]
                    FF
  00000000000024FF: 4C 39 D3           cmp         rbx,r10
  0000000000002502: 0F 82 17 00 00 00  jb          L$in_prologue
  0000000000002508: 48 8D B6 A0 00 00  lea         rsi,[rsi+0A0h]
                    00
  000000000000250F: 49 8D B8 00 02 00  lea         rdi,[r8+200h]
                    00
  0000000000002516: B9 0C 00 00 00     mov         ecx,0Ch
  000000000000251B: FC                 cld
  000000000000251C: F3 48 A5           rep movs    qword ptr [rdi],qword ptr [rsi]
L$in_prologue:
  000000000000251F: 48 8B 78 08        mov         rdi,qword ptr [rax+8]
  0000000000002523: 48 8B 70 10        mov         rsi,qword ptr [rax+10h]
  0000000000002527: 49 89 80 98 00 00  mov         qword ptr [r8+98h],rax
                    00
  000000000000252E: 49 89 B0 A8 00 00  mov         qword ptr [r8+0A8h],rsi
                    00
  0000000000002535: 49 89 B8 B0 00 00  mov         qword ptr [r8+0B0h],rdi
                    00
  000000000000253C: 49 8B 79 28        mov         rdi,qword ptr [r9+28h]
  0000000000002540: 4C 89 C6           mov         rsi,r8
  0000000000002543: B9 9A 00 00 00     mov         ecx,9Ah
  0000000000002548: FC                 cld
  0000000000002549: F3 48 A5           rep movs    qword ptr [rdi],qword ptr [rsi]
  000000000000254C: 4C 89 CE           mov         rsi,r9
  000000000000254F: 48 31 C9           xor         rcx,rcx
  0000000000002552: 48 8B 56 08        mov         rdx,qword ptr [rsi+8]
  0000000000002556: 4C 8B 06           mov         r8,qword ptr [rsi]
  0000000000002559: 4C 8B 4E 10        mov         r9,qword ptr [rsi+10h]
  000000000000255D: 4C 8B 56 28        mov         r10,qword ptr [rsi+28h]
  0000000000002561: 4C 8D 5E 38        lea         r11,[rsi+38h]
  0000000000002565: 4C 8D 66 18        lea         r12,[rsi+18h]
  0000000000002569: 4C 89 54 24 20     mov         qword ptr [rsp+20h],r10
  000000000000256E: 4C 89 5C 24 28     mov         qword ptr [rsp+28h],r11
  0000000000002573: 4C 89 64 24 30     mov         qword ptr [rsp+30h],r12
  0000000000002578: 48 89 4C 24 38     mov         qword ptr [rsp+38h],rcx
  000000000000257D: FF 15 00 00 00 00  call        qword ptr [__imp_RtlVirtualUnwind]
  0000000000002583: B8 01 00 00 00     mov         eax,1
  0000000000002588: 48 83 C4 40        add         rsp,40h
  000000000000258C: 9D                 popfq
  000000000000258D: 41 5F              pop         r15
  000000000000258F: 41 5E              pop         r14
  0000000000002591: 41 5D              pop         r13
  0000000000002593: 41 5C              pop         r12
  0000000000002595: 5D                 pop         rbp
  0000000000002596: 5B                 pop         rbx
  0000000000002597: 5F                 pop         rdi
  0000000000002598: 5E                 pop         rsi
  0000000000002599: F3 C3              rep ret

  Summary

          1C .debug$T
          18 .pdata
         565 .rdata
        259B .text
          20 .xdata
