Copyright (C) Microsoft Corporation.  All rights reserved.


Dump of file x86_64-mont5.obj

File Type: COFF OBJECT

aws_lc_0_21_0_bn_mul_mont_gather5:
  0000000000000000: 48 89 7C 24 08     mov         qword ptr [rsp+8],rdi
  0000000000000005: 48 89 74 24 10     mov         qword ptr [rsp+10h],rsi
  000000000000000A: 48 89 E0           mov         rax,rsp
L$SEH_begin_bn_mul_mont_gather5:
  000000000000000D: 48 89 CF           mov         rdi,rcx
  0000000000000010: 48 89 D6           mov         rsi,rdx
  0000000000000013: 4C 89 C2           mov         rdx,r8
  0000000000000016: 4C 89 C9           mov         rcx,r9
  0000000000000019: 4C 8B 44 24 28     mov         r8,qword ptr [rsp+28h]
  000000000000001E: 4C 8B 4C 24 30     mov         r9,qword ptr [rsp+30h]
  0000000000000023: 45 89 C9           mov         r9d,r9d
  0000000000000026: 48 89 E0           mov         rax,rsp
  0000000000000029: 41 F7 C1 07 00 00  test        r9d,7
                    00
  0000000000000030: 0F 85 1A 00 00 00  jne         L$mul_enter
  0000000000000036: 4C 8D 1D 00 00 00  lea         r11,[aws_lc_0_21_0_OPENSSL_ia32cap_P]
                    00
  000000000000003D: 45 8B 5B 08        mov         r11d,dword ptr [r11+8]
  0000000000000041: E9 A1 06 00 00     jmp         L$mul4x_enter
  0000000000000046: 90                 nop
  0000000000000047: 90                 nop
  0000000000000048: 90                 nop
  0000000000000049: 90                 nop
  000000000000004A: 90                 nop
  000000000000004B: 90                 nop
  000000000000004C: 90                 nop
  000000000000004D: 90                 nop
  000000000000004E: 90                 nop
  000000000000004F: 90                 nop
L$mul_enter:
  0000000000000050: 66 0F 6E 6C 24 38  movd        xmm5,dword ptr [rsp+38h]
  0000000000000056: 53                 push        rbx
  0000000000000057: 55                 push        rbp
  0000000000000058: 41 54              push        r12
  000000000000005A: 41 55              push        r13
  000000000000005C: 41 56              push        r14
  000000000000005E: 41 57              push        r15
  0000000000000060: 49 F7 D9           neg         r9
  0000000000000063: 49 89 E3           mov         r11,rsp
  0000000000000066: 4E 8D 94 CC E8 FE  lea         r10,[rsp+r9*8-118h]
                    FF FF
  000000000000006E: 49 F7 D9           neg         r9
  0000000000000071: 49 81 E2 00 FC FF  and         r10,0FFFFFFFFFFFFFC00h
                    FF
  0000000000000078: 4D 29 D3           sub         r11,r10
  000000000000007B: 49 81 E3 00 F0 FF  and         r11,0FFFFFFFFFFFFF000h
                    FF
  0000000000000082: 4B 8D 24 1A        lea         rsp,[r10+r11]
  0000000000000086: 4C 8B 1C 24        mov         r11,qword ptr [rsp]
  000000000000008A: 4C 39 D4           cmp         rsp,r10
  000000000000008D: 0F 87 05 00 00 00  ja          L$mul_page_walk
  0000000000000093: E9 15 00 00 00     jmp         L$mul_page_walk_done
L$mul_page_walk:
  0000000000000098: 48 8D A4 24 00 F0  lea         rsp,[rsp-1000h]
                    FF FF
  00000000000000A0: 4C 8B 1C 24        mov         r11,qword ptr [rsp]
  00000000000000A4: 4C 39 D4           cmp         rsp,r10
  00000000000000A7: 0F 87 EB FF FF FF  ja          L$mul_page_walk
L$mul_page_walk_done:
  00000000000000AD: 4C 8D 15 00 00 00  lea         r10,[.rdata]
                    00
  00000000000000B4: 4A 89 44 CC 08     mov         qword ptr [rsp+r9*8+8],rax
L$mul_body:
  00000000000000B9: 4C 8D A2 80 00 00  lea         r12,[rdx+80h]
                    00
  00000000000000C0: 66 41 0F 6F 02     movdqa      xmm0,xmmword ptr [r10]
  00000000000000C5: 66 41 0F 6F 4A 10  movdqa      xmm1,xmmword ptr [r10+10h]
  00000000000000CB: 4E 8D 54 CC A8     lea         r10,[rsp+r9*8-58h]
  00000000000000D0: 49 83 E2 F0        and         r10,0FFFFFFFFFFFFFFF0h
  00000000000000D4: 66 0F 70 ED 00     pshufd      xmm5,xmm5,0
  00000000000000D9: 66 0F 6F E1        movdqa      xmm4,xmm1
  00000000000000DD: 66 0F 6F D1        movdqa      xmm2,xmm1
  00000000000000E1: 66 0F FE C8        paddd       xmm1,xmm0
  00000000000000E5: 66 0F 76 C5        pcmpeqd     xmm0,xmm5
  00000000000000E9: 67 66 0F 6F DC     movdqa      xmm3,xmm4
  00000000000000EE: 66 0F FE D1        paddd       xmm2,xmm1
  00000000000000F2: 66 0F 76 CD        pcmpeqd     xmm1,xmm5
  00000000000000F6: 66 41 0F 7F 42 70  movdqa      xmmword ptr [r10+70h],xmm0
  00000000000000FC: 66 0F 6F C4        movdqa      xmm0,xmm4
  0000000000000100: 66 0F FE DA        paddd       xmm3,xmm2
  0000000000000104: 66 0F 76 D5        pcmpeqd     xmm2,xmm5
  0000000000000108: 66 41 0F 7F 8A 80  movdqa      xmmword ptr [r10+80h],xmm1
                    00 00 00
  0000000000000111: 66 0F 6F CC        movdqa      xmm1,xmm4
  0000000000000115: 66 0F FE C3        paddd       xmm0,xmm3
  0000000000000119: 66 0F 76 DD        pcmpeqd     xmm3,xmm5
  000000000000011D: 66 41 0F 7F 92 90  movdqa      xmmword ptr [r10+90h],xmm2
                    00 00 00
  0000000000000126: 66 0F 6F D4        movdqa      xmm2,xmm4
  000000000000012A: 66 0F FE C8        paddd       xmm1,xmm0
  000000000000012E: 66 0F 76 C5        pcmpeqd     xmm0,xmm5
  0000000000000132: 66 41 0F 7F 9A A0  movdqa      xmmword ptr [r10+0A0h],xmm3
                    00 00 00
  000000000000013B: 66 0F 6F DC        movdqa      xmm3,xmm4
  000000000000013F: 66 0F FE D1        paddd       xmm2,xmm1
  0000000000000143: 66 0F 76 CD        pcmpeqd     xmm1,xmm5
  0000000000000147: 66 41 0F 7F 82 B0  movdqa      xmmword ptr [r10+0B0h],xmm0
                    00 00 00
  0000000000000150: 66 0F 6F C4        movdqa      xmm0,xmm4
  0000000000000154: 66 0F FE DA        paddd       xmm3,xmm2
  0000000000000158: 66 0F 76 D5        pcmpeqd     xmm2,xmm5
  000000000000015C: 66 41 0F 7F 8A C0  movdqa      xmmword ptr [r10+0C0h],xmm1
                    00 00 00
  0000000000000165: 66 0F 6F CC        movdqa      xmm1,xmm4
  0000000000000169: 66 0F FE C3        paddd       xmm0,xmm3
  000000000000016D: 66 0F 76 DD        pcmpeqd     xmm3,xmm5
  0000000000000171: 66 41 0F 7F 92 D0  movdqa      xmmword ptr [r10+0D0h],xmm2
                    00 00 00
  000000000000017A: 66 0F 6F D4        movdqa      xmm2,xmm4
  000000000000017E: 66 0F FE C8        paddd       xmm1,xmm0
  0000000000000182: 66 0F 76 C5        pcmpeqd     xmm0,xmm5
  0000000000000186: 66 41 0F 7F 9A E0  movdqa      xmmword ptr [r10+0E0h],xmm3
                    00 00 00
  000000000000018F: 66 0F 6F DC        movdqa      xmm3,xmm4
  0000000000000193: 66 0F FE D1        paddd       xmm2,xmm1
  0000000000000197: 66 0F 76 CD        pcmpeqd     xmm1,xmm5
  000000000000019B: 66 41 0F 7F 82 F0  movdqa      xmmword ptr [r10+0F0h],xmm0
                    00 00 00
  00000000000001A4: 66 0F 6F C4        movdqa      xmm0,xmm4
  00000000000001A8: 66 0F FE DA        paddd       xmm3,xmm2
  00000000000001AC: 66 0F 76 D5        pcmpeqd     xmm2,xmm5
  00000000000001B0: 66 41 0F 7F 8A 00  movdqa      xmmword ptr [r10+100h],xmm1
                    01 00 00
  00000000000001B9: 66 0F 6F CC        movdqa      xmm1,xmm4
  00000000000001BD: 66 0F FE C3        paddd       xmm0,xmm3
  00000000000001C1: 66 0F 76 DD        pcmpeqd     xmm3,xmm5
  00000000000001C5: 66 41 0F 7F 92 10  movdqa      xmmword ptr [r10+110h],xmm2
                    01 00 00
  00000000000001CE: 66 0F 6F D4        movdqa      xmm2,xmm4
  00000000000001D2: 66 0F FE C8        paddd       xmm1,xmm0
  00000000000001D6: 66 0F 76 C5        pcmpeqd     xmm0,xmm5
  00000000000001DA: 66 41 0F 7F 9A 20  movdqa      xmmword ptr [r10+120h],xmm3
                    01 00 00
  00000000000001E3: 66 0F 6F DC        movdqa      xmm3,xmm4
  00000000000001E7: 66 0F FE D1        paddd       xmm2,xmm1
  00000000000001EB: 66 0F 76 CD        pcmpeqd     xmm1,xmm5
  00000000000001EF: 66 41 0F 7F 82 30  movdqa      xmmword ptr [r10+130h],xmm0
                    01 00 00
  00000000000001F8: 66 0F FE DA        paddd       xmm3,xmm2
  00000000000001FC: 67 66 0F 76 D5     pcmpeqd     xmm2,xmm5
  0000000000000201: 66 41 0F 7F 8A 40  movdqa      xmmword ptr [r10+140h],xmm1
                    01 00 00
  000000000000020A: 66 0F 76 DD        pcmpeqd     xmm3,xmm5
  000000000000020E: 66 41 0F 7F 92 50  movdqa      xmmword ptr [r10+150h],xmm2
                    01 00 00
  0000000000000217: 66 41 0F DB 44 24  pand        xmm0,xmmword ptr [r12+40h]
                    40
  000000000000021E: 66 41 0F DB 4C 24  pand        xmm1,xmmword ptr [r12+50h]
                    50
  0000000000000225: 66 41 0F DB 54 24  pand        xmm2,xmmword ptr [r12+60h]
                    60
  000000000000022C: 66 41 0F 7F 9A 60  movdqa      xmmword ptr [r10+160h],xmm3
                    01 00 00
  0000000000000235: 66 41 0F DB 5C 24  pand        xmm3,xmmword ptr [r12+70h]
                    70
  000000000000023C: 66 0F EB C2        por         xmm0,xmm2
  0000000000000240: 66 0F EB CB        por         xmm1,xmm3
  0000000000000244: 66 41 0F 6F 64 24  movdqa      xmm4,xmmword ptr [r12-80h]
                    80
  000000000000024B: 66 41 0F 6F 6C 24  movdqa      xmm5,xmmword ptr [r12-70h]
                    90
  0000000000000252: 66 41 0F 6F 54 24  movdqa      xmm2,xmmword ptr [r12-60h]
                    A0
  0000000000000259: 66 41 0F DB 62 70  pand        xmm4,xmmword ptr [r10+70h]
  000000000000025F: 66 41 0F 6F 5C 24  movdqa      xmm3,xmmword ptr [r12-50h]
                    B0
  0000000000000266: 66 41 0F DB AA 80  pand        xmm5,xmmword ptr [r10+80h]
                    00 00 00
  000000000000026F: 66 0F EB C4        por         xmm0,xmm4
  0000000000000273: 66 41 0F DB 92 90  pand        xmm2,xmmword ptr [r10+90h]
                    00 00 00
  000000000000027C: 66 0F EB CD        por         xmm1,xmm5
  0000000000000280: 66 41 0F DB 9A A0  pand        xmm3,xmmword ptr [r10+0A0h]
                    00 00 00
  0000000000000289: 66 0F EB C2        por         xmm0,xmm2
  000000000000028D: 66 0F EB CB        por         xmm1,xmm3
  0000000000000291: 66 41 0F 6F 64 24  movdqa      xmm4,xmmword ptr [r12-40h]
                    C0
  0000000000000298: 66 41 0F 6F 6C 24  movdqa      xmm5,xmmword ptr [r12-30h]
                    D0
  000000000000029F: 66 41 0F 6F 54 24  movdqa      xmm2,xmmword ptr [r12-20h]
                    E0
  00000000000002A6: 66 41 0F DB A2 B0  pand        xmm4,xmmword ptr [r10+0B0h]
                    00 00 00
  00000000000002AF: 66 41 0F 6F 5C 24  movdqa      xmm3,xmmword ptr [r12-10h]
                    F0
  00000000000002B6: 66 41 0F DB AA C0  pand        xmm5,xmmword ptr [r10+0C0h]
                    00 00 00
  00000000000002BF: 66 0F EB C4        por         xmm0,xmm4
  00000000000002C3: 66 41 0F DB 92 D0  pand        xmm2,xmmword ptr [r10+0D0h]
                    00 00 00
  00000000000002CC: 66 0F EB CD        por         xmm1,xmm5
  00000000000002D0: 66 41 0F DB 9A E0  pand        xmm3,xmmword ptr [r10+0E0h]
                    00 00 00
  00000000000002D9: 66 0F EB C2        por         xmm0,xmm2
  00000000000002DD: 66 0F EB CB        por         xmm1,xmm3
  00000000000002E1: 66 41 0F 6F 24 24  movdqa      xmm4,xmmword ptr [r12]
  00000000000002E7: 66 41 0F 6F 6C 24  movdqa      xmm5,xmmword ptr [r12+10h]
                    10
  00000000000002EE: 66 41 0F 6F 54 24  movdqa      xmm2,xmmword ptr [r12+20h]
                    20
  00000000000002F5: 66 41 0F DB A2 F0  pand        xmm4,xmmword ptr [r10+0F0h]
                    00 00 00
  00000000000002FE: 66 41 0F 6F 5C 24  movdqa      xmm3,xmmword ptr [r12+30h]
                    30
  0000000000000305: 66 41 0F DB AA 00  pand        xmm5,xmmword ptr [r10+100h]
                    01 00 00
  000000000000030E: 66 0F EB C4        por         xmm0,xmm4
  0000000000000312: 66 41 0F DB 92 10  pand        xmm2,xmmword ptr [r10+110h]
                    01 00 00
  000000000000031B: 66 0F EB CD        por         xmm1,xmm5
  000000000000031F: 66 41 0F DB 9A 20  pand        xmm3,xmmword ptr [r10+120h]
                    01 00 00
  0000000000000328: 66 0F EB C2        por         xmm0,xmm2
  000000000000032C: 66 0F EB CB        por         xmm1,xmm3
  0000000000000330: 66 0F EB C1        por         xmm0,xmm1
  0000000000000334: 66 0F 70 C8 4E     pshufd      xmm1,xmm0,4Eh
  0000000000000339: 66 0F EB C1        por         xmm0,xmm1
  000000000000033D: 4D 8D A4 24 00 01  lea         r12,[r12+100h]
                    00 00
  0000000000000345: 66 48 0F 7E C3     movq        rbx,xmm0
  000000000000034A: 4D 8B 00           mov         r8,qword ptr [r8]
  000000000000034D: 48 8B 06           mov         rax,qword ptr [rsi]
  0000000000000350: 4D 31 F6           xor         r14,r14
  0000000000000353: 4D 31 FF           xor         r15,r15
  0000000000000356: 4C 89 C5           mov         rbp,r8
  0000000000000359: 48 F7 E3           mul         rax,rbx
  000000000000035C: 49 89 C2           mov         r10,rax
  000000000000035F: 48 8B 01           mov         rax,qword ptr [rcx]
  0000000000000362: 49 0F AF EA        imul        rbp,r10
  0000000000000366: 49 89 D3           mov         r11,rdx
  0000000000000369: 48 F7 E5           mul         rax,rbp
  000000000000036C: 49 01 C2           add         r10,rax
  000000000000036F: 48 8B 46 08        mov         rax,qword ptr [rsi+8]
  0000000000000373: 48 83 D2 00        adc         rdx,0
  0000000000000377: 49 89 D5           mov         r13,rdx
  000000000000037A: 4D 8D 7F 01        lea         r15,[r15+1]
  000000000000037E: E9 2A 00 00 00     jmp         L$1st_enter
  0000000000000383: 90                 nop
  0000000000000384: 90                 nop
  0000000000000385: 90                 nop
  0000000000000386: 90                 nop
  0000000000000387: 90                 nop
  0000000000000388: 90                 nop
  0000000000000389: 90                 nop
  000000000000038A: 90                 nop
  000000000000038B: 90                 nop
  000000000000038C: 90                 nop
  000000000000038D: 90                 nop
  000000000000038E: 90                 nop
  000000000000038F: 90                 nop
L$1st:
  0000000000000390: 49 01 C5           add         r13,rax
  0000000000000393: 4A 8B 04 FE        mov         rax,qword ptr [rsi+r15*8]
  0000000000000397: 48 83 D2 00        adc         rdx,0
  000000000000039B: 4D 01 DD           add         r13,r11
  000000000000039E: 4D 89 D3           mov         r11,r10
  00000000000003A1: 48 83 D2 00        adc         rdx,0
  00000000000003A5: 4E 89 6C FC F0     mov         qword ptr [rsp+r15*8-10h],r13
  00000000000003AA: 49 89 D5           mov         r13,rdx
L$1st_enter:
  00000000000003AD: 48 F7 E3           mul         rax,rbx
  00000000000003B0: 49 01 C3           add         r11,rax
  00000000000003B3: 4A 8B 04 F9        mov         rax,qword ptr [rcx+r15*8]
  00000000000003B7: 48 83 D2 00        adc         rdx,0
  00000000000003BB: 4D 8D 7F 01        lea         r15,[r15+1]
  00000000000003BF: 49 89 D2           mov         r10,rdx
  00000000000003C2: 48 F7 E5           mul         rax,rbp
  00000000000003C5: 4D 39 CF           cmp         r15,r9
  00000000000003C8: 0F 85 C2 FF FF FF  jne         L$1st
  00000000000003CE: 49 01 C5           add         r13,rax
  00000000000003D1: 48 83 D2 00        adc         rdx,0
  00000000000003D5: 4D 01 DD           add         r13,r11
  00000000000003D8: 48 83 D2 00        adc         rdx,0
  00000000000003DC: 4E 89 6C CC F0     mov         qword ptr [rsp+r9*8-10h],r13
  00000000000003E1: 49 89 D5           mov         r13,rdx
  00000000000003E4: 4D 89 D3           mov         r11,r10
  00000000000003E7: 48 31 D2           xor         rdx,rdx
  00000000000003EA: 4D 01 DD           add         r13,r11
  00000000000003ED: 48 83 D2 00        adc         rdx,0
  00000000000003F1: 4E 89 6C CC F8     mov         qword ptr [rsp+r9*8-8],r13
  00000000000003F6: 4A 89 14 CC        mov         qword ptr [rsp+r9*8],rdx
  00000000000003FA: 4D 8D 76 01        lea         r14,[r14+1]
  00000000000003FE: E9 0D 00 00 00     jmp         L$outer
  0000000000000403: 90                 nop
  0000000000000404: 90                 nop
  0000000000000405: 90                 nop
  0000000000000406: 90                 nop
  0000000000000407: 90                 nop
  0000000000000408: 90                 nop
  0000000000000409: 90                 nop
  000000000000040A: 90                 nop
  000000000000040B: 90                 nop
  000000000000040C: 90                 nop
  000000000000040D: 90                 nop
  000000000000040E: 90                 nop
  000000000000040F: 90                 nop
L$outer:
  0000000000000410: 4A 8D 94 CC 98 00  lea         rdx,[rsp+r9*8+98h]
                    00 00
  0000000000000418: 48 83 E2 F0        and         rdx,0FFFFFFFFFFFFFFF0h
  000000000000041C: 66 0F EF E4        pxor        xmm4,xmm4
  0000000000000420: 66 0F EF ED        pxor        xmm5,xmm5
  0000000000000424: 66 41 0F 6F 44 24  movdqa      xmm0,xmmword ptr [r12-80h]
                    80
  000000000000042B: 66 41 0F 6F 4C 24  movdqa      xmm1,xmmword ptr [r12-70h]
                    90
  0000000000000432: 66 41 0F 6F 54 24  movdqa      xmm2,xmmword ptr [r12-60h]
                    A0
  0000000000000439: 66 41 0F 6F 5C 24  movdqa      xmm3,xmmword ptr [r12-50h]
                    B0
  0000000000000440: 66 0F DB 42 80     pand        xmm0,xmmword ptr [rdx-80h]
  0000000000000445: 66 0F DB 4A 90     pand        xmm1,xmmword ptr [rdx-70h]
  000000000000044A: 66 0F EB E0        por         xmm4,xmm0
  000000000000044E: 66 0F DB 52 A0     pand        xmm2,xmmword ptr [rdx-60h]
  0000000000000453: 66 0F EB E9        por         xmm5,xmm1
  0000000000000457: 66 0F DB 5A B0     pand        xmm3,xmmword ptr [rdx-50h]
  000000000000045C: 66 0F EB E2        por         xmm4,xmm2
  0000000000000460: 66 0F EB EB        por         xmm5,xmm3
  0000000000000464: 66 41 0F 6F 44 24  movdqa      xmm0,xmmword ptr [r12-40h]
                    C0
  000000000000046B: 66 41 0F 6F 4C 24  movdqa      xmm1,xmmword ptr [r12-30h]
                    D0
  0000000000000472: 66 41 0F 6F 54 24  movdqa      xmm2,xmmword ptr [r12-20h]
                    E0
  0000000000000479: 66 41 0F 6F 5C 24  movdqa      xmm3,xmmword ptr [r12-10h]
                    F0
  0000000000000480: 66 0F DB 42 C0     pand        xmm0,xmmword ptr [rdx-40h]
  0000000000000485: 66 0F DB 4A D0     pand        xmm1,xmmword ptr [rdx-30h]
  000000000000048A: 66 0F EB E0        por         xmm4,xmm0
  000000000000048E: 66 0F DB 52 E0     pand        xmm2,xmmword ptr [rdx-20h]
  0000000000000493: 66 0F EB E9        por         xmm5,xmm1
  0000000000000497: 66 0F DB 5A F0     pand        xmm3,xmmword ptr [rdx-10h]
  000000000000049C: 66 0F EB E2        por         xmm4,xmm2
  00000000000004A0: 66 0F EB EB        por         xmm5,xmm3
  00000000000004A4: 66 41 0F 6F 04 24  movdqa      xmm0,xmmword ptr [r12]
  00000000000004AA: 66 41 0F 6F 4C 24  movdqa      xmm1,xmmword ptr [r12+10h]
                    10
  00000000000004B1: 66 41 0F 6F 54 24  movdqa      xmm2,xmmword ptr [r12+20h]
                    20
  00000000000004B8: 66 41 0F 6F 5C 24  movdqa      xmm3,xmmword ptr [r12+30h]
                    30
  00000000000004BF: 66 0F DB 02        pand        xmm0,xmmword ptr [rdx]
  00000000000004C3: 66 0F DB 4A 10     pand        xmm1,xmmword ptr [rdx+10h]
  00000000000004C8: 66 0F EB E0        por         xmm4,xmm0
  00000000000004CC: 66 0F DB 52 20     pand        xmm2,xmmword ptr [rdx+20h]
  00000000000004D1: 66 0F EB E9        por         xmm5,xmm1
  00000000000004D5: 66 0F DB 5A 30     pand        xmm3,xmmword ptr [rdx+30h]
  00000000000004DA: 66 0F EB E2        por         xmm4,xmm2
  00000000000004DE: 66 0F EB EB        por         xmm5,xmm3
  00000000000004E2: 66 41 0F 6F 44 24  movdqa      xmm0,xmmword ptr [r12+40h]
                    40
  00000000000004E9: 66 41 0F 6F 4C 24  movdqa      xmm1,xmmword ptr [r12+50h]
                    50
  00000000000004F0: 66 41 0F 6F 54 24  movdqa      xmm2,xmmword ptr [r12+60h]
                    60
  00000000000004F7: 66 41 0F 6F 5C 24  movdqa      xmm3,xmmword ptr [r12+70h]
                    70
  00000000000004FE: 66 0F DB 42 40     pand        xmm0,xmmword ptr [rdx+40h]
  0000000000000503: 66 0F DB 4A 50     pand        xmm1,xmmword ptr [rdx+50h]
  0000000000000508: 66 0F EB E0        por         xmm4,xmm0
  000000000000050C: 66 0F DB 52 60     pand        xmm2,xmmword ptr [rdx+60h]
  0000000000000511: 66 0F EB E9        por         xmm5,xmm1
  0000000000000515: 66 0F DB 5A 70     pand        xmm3,xmmword ptr [rdx+70h]
  000000000000051A: 66 0F EB E2        por         xmm4,xmm2
  000000000000051E: 66 0F EB EB        por         xmm5,xmm3
  0000000000000522: 66 0F EB E5        por         xmm4,xmm5
  0000000000000526: 66 0F 70 C4 4E     pshufd      xmm0,xmm4,4Eh
  000000000000052B: 66 0F EB C4        por         xmm0,xmm4
  000000000000052F: 4D 8D A4 24 00 01  lea         r12,[r12+100h]
                    00 00
  0000000000000537: 48 8B 06           mov         rax,qword ptr [rsi]
  000000000000053A: 66 48 0F 7E C3     movq        rbx,xmm0
  000000000000053F: 4D 31 FF           xor         r15,r15
  0000000000000542: 4C 89 C5           mov         rbp,r8
  0000000000000545: 4C 8B 14 24        mov         r10,qword ptr [rsp]
  0000000000000549: 48 F7 E3           mul         rax,rbx
  000000000000054C: 49 01 C2           add         r10,rax
  000000000000054F: 48 8B 01           mov         rax,qword ptr [rcx]
  0000000000000552: 48 83 D2 00        adc         rdx,0
  0000000000000556: 49 0F AF EA        imul        rbp,r10
  000000000000055A: 49 89 D3           mov         r11,rdx
  000000000000055D: 48 F7 E5           mul         rax,rbp
  0000000000000560: 49 01 C2           add         r10,rax
  0000000000000563: 48 8B 46 08        mov         rax,qword ptr [rsi+8]
  0000000000000567: 48 83 D2 00        adc         rdx,0
  000000000000056B: 4C 8B 54 24 08     mov         r10,qword ptr [rsp+8]
  0000000000000570: 49 89 D5           mov         r13,rdx
  0000000000000573: 4D 8D 7F 01        lea         r15,[r15+1]
  0000000000000577: E9 22 00 00 00     jmp         L$inner_enter
  000000000000057C: 90                 nop
  000000000000057D: 90                 nop
  000000000000057E: 90                 nop
  000000000000057F: 90                 nop
L$inner:
  0000000000000580: 49 01 C5           add         r13,rax
  0000000000000583: 4A 8B 04 FE        mov         rax,qword ptr [rsi+r15*8]
  0000000000000587: 48 83 D2 00        adc         rdx,0
  000000000000058B: 4D 01 D5           add         r13,r10
  000000000000058E: 4E 8B 14 FC        mov         r10,qword ptr [rsp+r15*8]
  0000000000000592: 48 83 D2 00        adc         rdx,0
  0000000000000596: 4E 89 6C FC F0     mov         qword ptr [rsp+r15*8-10h],r13
  000000000000059B: 49 89 D5           mov         r13,rdx
L$inner_enter:
  000000000000059E: 48 F7 E3           mul         rax,rbx
  00000000000005A1: 49 01 C3           add         r11,rax
  00000000000005A4: 4A 8B 04 F9        mov         rax,qword ptr [rcx+r15*8]
  00000000000005A8: 48 83 D2 00        adc         rdx,0
  00000000000005AC: 4D 01 DA           add         r10,r11
  00000000000005AF: 49 89 D3           mov         r11,rdx
  00000000000005B2: 49 83 D3 00        adc         r11,0
  00000000000005B6: 4D 8D 7F 01        lea         r15,[r15+1]
  00000000000005BA: 48 F7 E5           mul         rax,rbp
  00000000000005BD: 4D 39 CF           cmp         r15,r9
  00000000000005C0: 0F 85 BA FF FF FF  jne         L$inner
  00000000000005C6: 49 01 C5           add         r13,rax
  00000000000005C9: 48 83 D2 00        adc         rdx,0
  00000000000005CD: 4D 01 D5           add         r13,r10
  00000000000005D0: 4E 8B 14 CC        mov         r10,qword ptr [rsp+r9*8]
  00000000000005D4: 48 83 D2 00        adc         rdx,0
  00000000000005D8: 4E 89 6C CC F0     mov         qword ptr [rsp+r9*8-10h],r13
  00000000000005DD: 49 89 D5           mov         r13,rdx
  00000000000005E0: 48 31 D2           xor         rdx,rdx
  00000000000005E3: 4D 01 DD           add         r13,r11
  00000000000005E6: 48 83 D2 00        adc         rdx,0
  00000000000005EA: 4D 01 D5           add         r13,r10
  00000000000005ED: 48 83 D2 00        adc         rdx,0
  00000000000005F1: 4E 89 6C CC F8     mov         qword ptr [rsp+r9*8-8],r13
  00000000000005F6: 4A 89 14 CC        mov         qword ptr [rsp+r9*8],rdx
  00000000000005FA: 4D 8D 76 01        lea         r14,[r14+1]
  00000000000005FE: 4D 39 CE           cmp         r14,r9
  0000000000000601: 0F 82 09 FE FF FF  jb          L$outer
  0000000000000607: 4D 31 F6           xor         r14,r14
  000000000000060A: 48 8B 04 24        mov         rax,qword ptr [rsp]
  000000000000060E: 48 8D 34 24        lea         rsi,[rsp]
  0000000000000612: 4D 89 CF           mov         r15,r9
  0000000000000615: E9 06 00 00 00     jmp         L$sub
  000000000000061A: 90                 nop
  000000000000061B: 90                 nop
  000000000000061C: 90                 nop
  000000000000061D: 90                 nop
  000000000000061E: 90                 nop
  000000000000061F: 90                 nop
L$sub:
  0000000000000620: 4A 1B 04 F1        sbb         rax,qword ptr [rcx+r14*8]
  0000000000000624: 4A 89 04 F7        mov         qword ptr [rdi+r14*8],rax
  0000000000000628: 4A 8B 44 F6 08     mov         rax,qword ptr [rsi+r14*8+8]
  000000000000062D: 4D 8D 76 01        lea         r14,[r14+1]
  0000000000000631: 49 FF CF           dec         r15
  0000000000000634: 0F 85 E6 FF FF FF  jne         L$sub
  000000000000063A: 48 83 D8 00        sbb         rax,0
  000000000000063E: 48 C7 C3 FF FF FF  mov         rbx,0FFFFFFFFFFFFFFFFh
                    FF
  0000000000000645: 48 31 C3           xor         rbx,rax
  0000000000000648: 4D 31 F6           xor         r14,r14
  000000000000064B: 4D 89 CF           mov         r15,r9
L$copy:
  000000000000064E: 4A 8B 0C F7        mov         rcx,qword ptr [rdi+r14*8]
  0000000000000652: 4A 8B 14 F4        mov         rdx,qword ptr [rsp+r14*8]
  0000000000000656: 48 21 D9           and         rcx,rbx
  0000000000000659: 48 21 C2           and         rdx,rax
  000000000000065C: 4E 89 34 F4        mov         qword ptr [rsp+r14*8],r14
  0000000000000660: 48 09 CA           or          rdx,rcx
  0000000000000663: 4A 89 14 F7        mov         qword ptr [rdi+r14*8],rdx
  0000000000000667: 4D 8D 76 01        lea         r14,[r14+1]
  000000000000066B: 49 83 EF 01        sub         r15,1
  000000000000066F: 0F 85 D9 FF FF FF  jne         L$copy
  0000000000000675: 4A 8B 74 CC 08     mov         rsi,qword ptr [rsp+r9*8+8]
  000000000000067A: B8 01 00 00 00     mov         eax,1
  000000000000067F: 4C 8B 7E D0        mov         r15,qword ptr [rsi-30h]
  0000000000000683: 4C 8B 76 D8        mov         r14,qword ptr [rsi-28h]
  0000000000000687: 4C 8B 6E E0        mov         r13,qword ptr [rsi-20h]
  000000000000068B: 4C 8B 66 E8        mov         r12,qword ptr [rsi-18h]
  000000000000068F: 48 8B 6E F0        mov         rbp,qword ptr [rsi-10h]
  0000000000000693: 48 8B 5E F8        mov         rbx,qword ptr [rsi-8]
  0000000000000697: 48 8D 26           lea         rsp,[rsi]
L$mul_epilogue:
  000000000000069A: 48 8B 7C 24 08     mov         rdi,qword ptr [rsp+8]
  000000000000069F: 48 8B 74 24 10     mov         rsi,qword ptr [rsp+10h]
  00000000000006A4: F3 C3              rep ret
L$SEH_end_bn_mul_mont_gather5:
  00000000000006A6: 90                 nop
  00000000000006A7: 90                 nop
  00000000000006A8: 90                 nop
  00000000000006A9: 90                 nop
  00000000000006AA: 90                 nop
  00000000000006AB: 90                 nop
  00000000000006AC: 90                 nop
  00000000000006AD: 90                 nop
  00000000000006AE: 90                 nop
  00000000000006AF: 90                 nop
  00000000000006B0: 90                 nop
  00000000000006B1: 90                 nop
  00000000000006B2: 90                 nop
  00000000000006B3: 90                 nop
  00000000000006B4: 90                 nop
  00000000000006B5: 90                 nop
  00000000000006B6: 90                 nop
  00000000000006B7: 90                 nop
  00000000000006B8: 90                 nop
  00000000000006B9: 90                 nop
  00000000000006BA: 90                 nop
  00000000000006BB: 90                 nop
  00000000000006BC: 90                 nop
  00000000000006BD: 90                 nop
  00000000000006BE: 90                 nop
  00000000000006BF: 90                 nop
bn_mul4x_mont_gather5:
  00000000000006C0: 48 89 7C 24 08     mov         qword ptr [rsp+8],rdi
  00000000000006C5: 48 89 74 24 10     mov         qword ptr [rsp+10h],rsi
  00000000000006CA: 48 89 E0           mov         rax,rsp
L$SEH_begin_bn_mul4x_mont_gather5:
  00000000000006CD: 48 89 CF           mov         rdi,rcx
  00000000000006D0: 48 89 D6           mov         rsi,rdx
  00000000000006D3: 4C 89 C2           mov         rdx,r8
  00000000000006D6: 4C 89 C9           mov         rcx,r9
  00000000000006D9: 4C 8B 44 24 28     mov         r8,qword ptr [rsp+28h]
  00000000000006DE: 4C 8B 4C 24 30     mov         r9,qword ptr [rsp+30h]
  00000000000006E3: 67 48 89 E0        mov         rax,rsp
L$mul4x_enter:
  00000000000006E7: 41 81 E3 08 01 08  and         r11d,80108h
                    00
  00000000000006EE: 41 81 FB 08 01 08  cmp         r11d,80108h
                    00
  00000000000006F5: 0F 84 4B 14 00 00  je          L$mulx4x_enter
  00000000000006FB: 53                 push        rbx
  00000000000006FC: 55                 push        rbp
  00000000000006FD: 41 54              push        r12
  00000000000006FF: 41 55              push        r13
  0000000000000701: 41 56              push        r14
  0000000000000703: 41 57              push        r15
L$mul4x_prologue:
  0000000000000705: 67 41 C1 E1 03     shl         r9d,3
  000000000000070A: 4F 8D 14 49        lea         r10,[r9+r9*2]
  000000000000070E: 49 F7 D9           neg         r9
  0000000000000711: 4E 8D 9C 4C C0 FE  lea         r11,[rsp+r9*2-140h]
                    FF FF
  0000000000000719: 48 89 E5           mov         rbp,rsp
  000000000000071C: 49 29 FB           sub         r11,rdi
  000000000000071F: 49 81 E3 FF 0F 00  and         r11,0FFFh
                    00
  0000000000000726: 4D 39 DA           cmp         r10,r11
  0000000000000729: 0F 82 11 00 00 00  jb          L$mul4xsp_alt
  000000000000072F: 4C 29 DD           sub         rbp,r11
  0000000000000732: 4A 8D AC 4D C0 FE  lea         rbp,[rbp+r9*2-140h]
                    FF FF
  000000000000073A: E9 21 00 00 00     jmp         L$mul4xsp_done
  000000000000073F: 90                 nop
L$mul4xsp_alt:
  0000000000000740: 4F 8D 94 09 C0 0E  lea         r10,[r9+r9+0EC0h]
                    00 00
  0000000000000748: 4A 8D AC 4D C0 FE  lea         rbp,[rbp+r9*2-140h]
                    FF FF
  0000000000000750: 4D 29 D3           sub         r11,r10
  0000000000000753: 41 BA 00 00 00 00  mov         r10d,0
  0000000000000759: 4D 0F 42 DA        cmovb       r11,r10
  000000000000075D: 4C 29 DD           sub         rbp,r11
L$mul4xsp_done:
  0000000000000760: 48 83 E5 C0        and         rbp,0FFFFFFFFFFFFFFC0h
  0000000000000764: 49 89 E3           mov         r11,rsp
  0000000000000767: 49 29 EB           sub         r11,rbp
  000000000000076A: 49 81 E3 00 F0 FF  and         r11,0FFFFFFFFFFFFF000h
                    FF
  0000000000000771: 49 8D 24 2B        lea         rsp,[r11+rbp]
  0000000000000775: 4C 8B 14 24        mov         r10,qword ptr [rsp]
  0000000000000779: 48 39 EC           cmp         rsp,rbp
  000000000000077C: 0F 87 05 00 00 00  ja          L$mul4x_page_walk
  0000000000000782: E9 15 00 00 00     jmp         L$mul4x_page_walk_done
L$mul4x_page_walk:
  0000000000000787: 48 8D A4 24 00 F0  lea         rsp,[rsp-1000h]
                    FF FF
  000000000000078F: 4C 8B 14 24        mov         r10,qword ptr [rsp]
  0000000000000793: 48 39 EC           cmp         rsp,rbp
  0000000000000796: 0F 87 EB FF FF FF  ja          L$mul4x_page_walk
L$mul4x_page_walk_done:
  000000000000079C: 49 F7 D9           neg         r9
  000000000000079F: 48 89 44 24 28     mov         qword ptr [rsp+28h],rax
L$mul4x_body:
  00000000000007A4: E8 37 00 00 00     call        mul4x_internal
  00000000000007A9: 48 8B 74 24 28     mov         rsi,qword ptr [rsp+28h]
  00000000000007AE: B8 01 00 00 00     mov         eax,1
  00000000000007B3: 4C 8B 7E D0        mov         r15,qword ptr [rsi-30h]
  00000000000007B7: 4C 8B 76 D8        mov         r14,qword ptr [rsi-28h]
  00000000000007BB: 4C 8B 6E E0        mov         r13,qword ptr [rsi-20h]
  00000000000007BF: 4C 8B 66 E8        mov         r12,qword ptr [rsi-18h]
  00000000000007C3: 48 8B 6E F0        mov         rbp,qword ptr [rsi-10h]
  00000000000007C7: 48 8B 5E F8        mov         rbx,qword ptr [rsi-8]
  00000000000007CB: 48 8D 26           lea         rsp,[rsi]
L$mul4x_epilogue:
  00000000000007CE: 48 8B 7C 24 08     mov         rdi,qword ptr [rsp+8]
  00000000000007D3: 48 8B 74 24 10     mov         rsi,qword ptr [rsp+10h]
  00000000000007D8: F3 C3              rep ret
L$SEH_end_bn_mul4x_mont_gather5:
  00000000000007DA: 90                 nop
  00000000000007DB: 90                 nop
  00000000000007DC: 90                 nop
  00000000000007DD: 90                 nop
  00000000000007DE: 90                 nop
  00000000000007DF: 90                 nop
mul4x_internal:
  00000000000007E0: 49 C1 E1 05        shl         r9,5
  00000000000007E4: 66 0F 6E 68 38     movd        xmm5,dword ptr [rax+38h]
  00000000000007E9: 48 8D 05 00 00 00  lea         rax,[.rdata]
                    00
  00000000000007F0: 4E 8D AC 0A 80 00  lea         r13,[rdx+r9+80h]
                    00 00
  00000000000007F8: 49 C1 E9 05        shr         r9,5
  00000000000007FC: 66 0F 6F 00        movdqa      xmm0,xmmword ptr [rax]
  0000000000000800: 66 0F 6F 48 10     movdqa      xmm1,xmmword ptr [rax+10h]
  0000000000000805: 4E 8D 54 0C E8     lea         r10,[rsp+r9-18h]
  000000000000080A: 4C 8D A2 80 00 00  lea         r12,[rdx+80h]
                    00
  0000000000000811: 66 0F 70 ED 00     pshufd      xmm5,xmm5,0
  0000000000000816: 66 0F 6F E1        movdqa      xmm4,xmm1
  000000000000081A: 67 67 66 0F 6F D1  movdqa      xmm2,xmm1
  0000000000000820: 66 0F FE C8        paddd       xmm1,xmm0
  0000000000000824: 66 0F 76 C5        pcmpeqd     xmm0,xmm5
  0000000000000828: 67 66 0F 6F DC     movdqa      xmm3,xmm4
  000000000000082D: 66 0F FE D1        paddd       xmm2,xmm1
  0000000000000831: 66 0F 76 CD        pcmpeqd     xmm1,xmm5
  0000000000000835: 66 41 0F 7F 42 70  movdqa      xmmword ptr [r10+70h],xmm0
  000000000000083B: 66 0F 6F C4        movdqa      xmm0,xmm4
  000000000000083F: 66 0F FE DA        paddd       xmm3,xmm2
  0000000000000843: 66 0F 76 D5        pcmpeqd     xmm2,xmm5
  0000000000000847: 66 41 0F 7F 8A 80  movdqa      xmmword ptr [r10+80h],xmm1
                    00 00 00
  0000000000000850: 66 0F 6F CC        movdqa      xmm1,xmm4
  0000000000000854: 66 0F FE C3        paddd       xmm0,xmm3
  0000000000000858: 66 0F 76 DD        pcmpeqd     xmm3,xmm5
  000000000000085C: 66 41 0F 7F 92 90  movdqa      xmmword ptr [r10+90h],xmm2
                    00 00 00
  0000000000000865: 66 0F 6F D4        movdqa      xmm2,xmm4
  0000000000000869: 66 0F FE C8        paddd       xmm1,xmm0
  000000000000086D: 66 0F 76 C5        pcmpeqd     xmm0,xmm5
  0000000000000871: 66 41 0F 7F 9A A0  movdqa      xmmword ptr [r10+0A0h],xmm3
                    00 00 00
  000000000000087A: 66 0F 6F DC        movdqa      xmm3,xmm4
  000000000000087E: 66 0F FE D1        paddd       xmm2,xmm1
  0000000000000882: 66 0F 76 CD        pcmpeqd     xmm1,xmm5
  0000000000000886: 66 41 0F 7F 82 B0  movdqa      xmmword ptr [r10+0B0h],xmm0
                    00 00 00
  000000000000088F: 66 0F 6F C4        movdqa      xmm0,xmm4
  0000000000000893: 66 0F FE DA        paddd       xmm3,xmm2
  0000000000000897: 66 0F 76 D5        pcmpeqd     xmm2,xmm5
  000000000000089B: 66 41 0F 7F 8A C0  movdqa      xmmword ptr [r10+0C0h],xmm1
                    00 00 00
  00000000000008A4: 66 0F 6F CC        movdqa      xmm1,xmm4
  00000000000008A8: 66 0F FE C3        paddd       xmm0,xmm3
  00000000000008AC: 66 0F 76 DD        pcmpeqd     xmm3,xmm5
  00000000000008B0: 66 41 0F 7F 92 D0  movdqa      xmmword ptr [r10+0D0h],xmm2
                    00 00 00
  00000000000008B9: 66 0F 6F D4        movdqa      xmm2,xmm4
  00000000000008BD: 66 0F FE C8        paddd       xmm1,xmm0
  00000000000008C1: 66 0F 76 C5        pcmpeqd     xmm0,xmm5
  00000000000008C5: 66 41 0F 7F 9A E0  movdqa      xmmword ptr [r10+0E0h],xmm3
                    00 00 00
  00000000000008CE: 66 0F 6F DC        movdqa      xmm3,xmm4
  00000000000008D2: 66 0F FE D1        paddd       xmm2,xmm1
  00000000000008D6: 66 0F 76 CD        pcmpeqd     xmm1,xmm5
  00000000000008DA: 66 41 0F 7F 82 F0  movdqa      xmmword ptr [r10+0F0h],xmm0
                    00 00 00
  00000000000008E3: 66 0F 6F C4        movdqa      xmm0,xmm4
  00000000000008E7: 66 0F FE DA        paddd       xmm3,xmm2
  00000000000008EB: 66 0F 76 D5        pcmpeqd     xmm2,xmm5
  00000000000008EF: 66 41 0F 7F 8A 00  movdqa      xmmword ptr [r10+100h],xmm1
                    01 00 00
  00000000000008F8: 66 0F 6F CC        movdqa      xmm1,xmm4
  00000000000008FC: 66 0F FE C3        paddd       xmm0,xmm3
  0000000000000900: 66 0F 76 DD        pcmpeqd     xmm3,xmm5
  0000000000000904: 66 41 0F 7F 92 10  movdqa      xmmword ptr [r10+110h],xmm2
                    01 00 00
  000000000000090D: 66 0F 6F D4        movdqa      xmm2,xmm4
  0000000000000911: 66 0F FE C8        paddd       xmm1,xmm0
  0000000000000915: 66 0F 76 C5        pcmpeqd     xmm0,xmm5
  0000000000000919: 66 41 0F 7F 9A 20  movdqa      xmmword ptr [r10+120h],xmm3
                    01 00 00
  0000000000000922: 66 0F 6F DC        movdqa      xmm3,xmm4
  0000000000000926: 66 0F FE D1        paddd       xmm2,xmm1
  000000000000092A: 66 0F 76 CD        pcmpeqd     xmm1,xmm5
  000000000000092E: 66 41 0F 7F 82 30  movdqa      xmmword ptr [r10+130h],xmm0
                    01 00 00
  0000000000000937: 66 0F FE DA        paddd       xmm3,xmm2
  000000000000093B: 67 66 0F 76 D5     pcmpeqd     xmm2,xmm5
  0000000000000940: 66 41 0F 7F 8A 40  movdqa      xmmword ptr [r10+140h],xmm1
                    01 00 00
  0000000000000949: 66 0F 76 DD        pcmpeqd     xmm3,xmm5
  000000000000094D: 66 41 0F 7F 92 50  movdqa      xmmword ptr [r10+150h],xmm2
                    01 00 00
  0000000000000956: 66 41 0F DB 44 24  pand        xmm0,xmmword ptr [r12+40h]
                    40
  000000000000095D: 66 41 0F DB 4C 24  pand        xmm1,xmmword ptr [r12+50h]
                    50
  0000000000000964: 66 41 0F DB 54 24  pand        xmm2,xmmword ptr [r12+60h]
                    60
  000000000000096B: 66 41 0F 7F 9A 60  movdqa      xmmword ptr [r10+160h],xmm3
                    01 00 00
  0000000000000974: 66 41 0F DB 5C 24  pand        xmm3,xmmword ptr [r12+70h]
                    70
  000000000000097B: 66 0F EB C2        por         xmm0,xmm2
  000000000000097F: 66 0F EB CB        por         xmm1,xmm3
  0000000000000983: 66 41 0F 6F 64 24  movdqa      xmm4,xmmword ptr [r12-80h]
                    80
  000000000000098A: 66 41 0F 6F 6C 24  movdqa      xmm5,xmmword ptr [r12-70h]
                    90
  0000000000000991: 66 41 0F 6F 54 24  movdqa      xmm2,xmmword ptr [r12-60h]
                    A0
  0000000000000998: 66 41 0F DB 62 70  pand        xmm4,xmmword ptr [r10+70h]
  000000000000099E: 66 41 0F 6F 5C 24  movdqa      xmm3,xmmword ptr [r12-50h]
                    B0
  00000000000009A5: 66 41 0F DB AA 80  pand        xmm5,xmmword ptr [r10+80h]
                    00 00 00
  00000000000009AE: 66 0F EB C4        por         xmm0,xmm4
  00000000000009B2: 66 41 0F DB 92 90  pand        xmm2,xmmword ptr [r10+90h]
                    00 00 00
  00000000000009BB: 66 0F EB CD        por         xmm1,xmm5
  00000000000009BF: 66 41 0F DB 9A A0  pand        xmm3,xmmword ptr [r10+0A0h]
                    00 00 00
  00000000000009C8: 66 0F EB C2        por         xmm0,xmm2
  00000000000009CC: 66 0F EB CB        por         xmm1,xmm3
  00000000000009D0: 66 41 0F 6F 64 24  movdqa      xmm4,xmmword ptr [r12-40h]
                    C0
  00000000000009D7: 66 41 0F 6F 6C 24  movdqa      xmm5,xmmword ptr [r12-30h]
                    D0
  00000000000009DE: 66 41 0F 6F 54 24  movdqa      xmm2,xmmword ptr [r12-20h]
                    E0
  00000000000009E5: 66 41 0F DB A2 B0  pand        xmm4,xmmword ptr [r10+0B0h]
                    00 00 00
  00000000000009EE: 66 41 0F 6F 5C 24  movdqa      xmm3,xmmword ptr [r12-10h]
                    F0
  00000000000009F5: 66 41 0F DB AA C0  pand        xmm5,xmmword ptr [r10+0C0h]
                    00 00 00
  00000000000009FE: 66 0F EB C4        por         xmm0,xmm4
  0000000000000A02: 66 41 0F DB 92 D0  pand        xmm2,xmmword ptr [r10+0D0h]
                    00 00 00
  0000000000000A0B: 66 0F EB CD        por         xmm1,xmm5
  0000000000000A0F: 66 41 0F DB 9A E0  pand        xmm3,xmmword ptr [r10+0E0h]
                    00 00 00
  0000000000000A18: 66 0F EB C2        por         xmm0,xmm2
  0000000000000A1C: 66 0F EB CB        por         xmm1,xmm3
  0000000000000A20: 66 41 0F 6F 24 24  movdqa      xmm4,xmmword ptr [r12]
  0000000000000A26: 66 41 0F 6F 6C 24  movdqa      xmm5,xmmword ptr [r12+10h]
                    10
  0000000000000A2D: 66 41 0F 6F 54 24  movdqa      xmm2,xmmword ptr [r12+20h]
                    20
  0000000000000A34: 66 41 0F DB A2 F0  pand        xmm4,xmmword ptr [r10+0F0h]
                    00 00 00
  0000000000000A3D: 66 41 0F 6F 5C 24  movdqa      xmm3,xmmword ptr [r12+30h]
                    30
  0000000000000A44: 66 41 0F DB AA 00  pand        xmm5,xmmword ptr [r10+100h]
                    01 00 00
  0000000000000A4D: 66 0F EB C4        por         xmm0,xmm4
  0000000000000A51: 66 41 0F DB 92 10  pand        xmm2,xmmword ptr [r10+110h]
                    01 00 00
  0000000000000A5A: 66 0F EB CD        por         xmm1,xmm5
  0000000000000A5E: 66 41 0F DB 9A 20  pand        xmm3,xmmword ptr [r10+120h]
                    01 00 00
  0000000000000A67: 66 0F EB C2        por         xmm0,xmm2
  0000000000000A6B: 66 0F EB CB        por         xmm1,xmm3
  0000000000000A6F: 66 0F EB C1        por         xmm0,xmm1
  0000000000000A73: 66 0F 70 C8 4E     pshufd      xmm1,xmm0,4Eh
  0000000000000A78: 66 0F EB C1        por         xmm0,xmm1
  0000000000000A7C: 4D 8D A4 24 00 01  lea         r12,[r12+100h]
                    00 00
  0000000000000A84: 66 48 0F 7E C3     movq        rbx,xmm0
  0000000000000A89: 4C 89 6C 24 18     mov         qword ptr [rsp+18h],r13
  0000000000000A8E: 48 89 7C 24 40     mov         qword ptr [rsp+40h],rdi
  0000000000000A93: 4D 8B 00           mov         r8,qword ptr [r8]
  0000000000000A96: 48 8B 06           mov         rax,qword ptr [rsi]
  0000000000000A99: 4A 8D 34 0E        lea         rsi,[rsi+r9]
  0000000000000A9D: 49 F7 D9           neg         r9
  0000000000000AA0: 4C 89 C5           mov         rbp,r8
  0000000000000AA3: 48 F7 E3           mul         rax,rbx
  0000000000000AA6: 49 89 C2           mov         r10,rax
  0000000000000AA9: 48 8B 01           mov         rax,qword ptr [rcx]
  0000000000000AAC: 49 0F AF EA        imul        rbp,r10
  0000000000000AB0: 4C 8D 74 24 48     lea         r14,[rsp+48h]
  0000000000000AB5: 49 89 D3           mov         r11,rdx
  0000000000000AB8: 48 F7 E5           mul         rax,rbp
  0000000000000ABB: 49 01 C2           add         r10,rax
  0000000000000ABE: 4A 8B 44 0E 08     mov         rax,qword ptr [rsi+r9+8]
  0000000000000AC3: 48 83 D2 00        adc         rdx,0
  0000000000000AC7: 48 89 D7           mov         rdi,rdx
  0000000000000ACA: 48 F7 E3           mul         rax,rbx
  0000000000000ACD: 49 01 C3           add         r11,rax
  0000000000000AD0: 48 8B 41 08        mov         rax,qword ptr [rcx+8]
  0000000000000AD4: 48 83 D2 00        adc         rdx,0
  0000000000000AD8: 49 89 D2           mov         r10,rdx
  0000000000000ADB: 48 F7 E5           mul         rax,rbp
  0000000000000ADE: 48 01 C7           add         rdi,rax
  0000000000000AE1: 4A 8B 44 0E 10     mov         rax,qword ptr [rsi+r9+10h]
  0000000000000AE6: 48 83 D2 00        adc         rdx,0
  0000000000000AEA: 4C 01 DF           add         rdi,r11
  0000000000000AED: 4D 8D 79 20        lea         r15,[r9+20h]
  0000000000000AF1: 48 8D 49 20        lea         rcx,[rcx+20h]
  0000000000000AF5: 48 83 D2 00        adc         rdx,0
  0000000000000AF9: 49 89 3E           mov         qword ptr [r14],rdi
  0000000000000AFC: 49 89 D5           mov         r13,rdx
  0000000000000AFF: E9 1C 00 00 00     jmp         L$1st4x
  0000000000000B04: 90                 nop
  0000000000000B05: 90                 nop
  0000000000000B06: 90                 nop
  0000000000000B07: 90                 nop
  0000000000000B08: 90                 nop
  0000000000000B09: 90                 nop
  0000000000000B0A: 90                 nop
  0000000000000B0B: 90                 nop
  0000000000000B0C: 90                 nop
  0000000000000B0D: 90                 nop
  0000000000000B0E: 90                 nop
  0000000000000B0F: 90                 nop
  0000000000000B10: 90                 nop
  0000000000000B11: 90                 nop
  0000000000000B12: 90                 nop
  0000000000000B13: 90                 nop
  0000000000000B14: 90                 nop
  0000000000000B15: 90                 nop
  0000000000000B16: 90                 nop
  0000000000000B17: 90                 nop
  0000000000000B18: 90                 nop
  0000000000000B19: 90                 nop
  0000000000000B1A: 90                 nop
  0000000000000B1B: 90                 nop
  0000000000000B1C: 90                 nop
  0000000000000B1D: 90                 nop
  0000000000000B1E: 90                 nop
  0000000000000B1F: 90                 nop
L$1st4x:
  0000000000000B20: 48 F7 E3           mul         rax,rbx
  0000000000000B23: 49 01 C2           add         r10,rax
  0000000000000B26: 48 8B 41 F0        mov         rax,qword ptr [rcx-10h]
  0000000000000B2A: 4D 8D 76 20        lea         r14,[r14+20h]
  0000000000000B2E: 48 83 D2 00        adc         rdx,0
  0000000000000B32: 49 89 D3           mov         r11,rdx
  0000000000000B35: 48 F7 E5           mul         rax,rbp
  0000000000000B38: 49 01 C5           add         r13,rax
  0000000000000B3B: 4A 8B 44 3E F8     mov         rax,qword ptr [rsi+r15-8]
  0000000000000B40: 48 83 D2 00        adc         rdx,0
  0000000000000B44: 4D 01 D5           add         r13,r10
  0000000000000B47: 48 83 D2 00        adc         rdx,0
  0000000000000B4B: 4D 89 6E E8        mov         qword ptr [r14-18h],r13
  0000000000000B4F: 48 89 D7           mov         rdi,rdx
  0000000000000B52: 48 F7 E3           mul         rax,rbx
  0000000000000B55: 49 01 C3           add         r11,rax
  0000000000000B58: 48 8B 41 F8        mov         rax,qword ptr [rcx-8]
  0000000000000B5C: 48 83 D2 00        adc         rdx,0
  0000000000000B60: 49 89 D2           mov         r10,rdx
  0000000000000B63: 48 F7 E5           mul         rax,rbp
  0000000000000B66: 48 01 C7           add         rdi,rax
  0000000000000B69: 4A 8B 04 3E        mov         rax,qword ptr [rsi+r15]
  0000000000000B6D: 48 83 D2 00        adc         rdx,0
  0000000000000B71: 4C 01 DF           add         rdi,r11
  0000000000000B74: 48 83 D2 00        adc         rdx,0
  0000000000000B78: 49 89 7E F0        mov         qword ptr [r14-10h],rdi
  0000000000000B7C: 49 89 D5           mov         r13,rdx
  0000000000000B7F: 48 F7 E3           mul         rax,rbx
  0000000000000B82: 49 01 C2           add         r10,rax
  0000000000000B85: 48 8B 01           mov         rax,qword ptr [rcx]
  0000000000000B88: 48 83 D2 00        adc         rdx,0
  0000000000000B8C: 49 89 D3           mov         r11,rdx
  0000000000000B8F: 48 F7 E5           mul         rax,rbp
  0000000000000B92: 49 01 C5           add         r13,rax
  0000000000000B95: 4A 8B 44 3E 08     mov         rax,qword ptr [rsi+r15+8]
  0000000000000B9A: 48 83 D2 00        adc         rdx,0
  0000000000000B9E: 4D 01 D5           add         r13,r10
  0000000000000BA1: 48 83 D2 00        adc         rdx,0
  0000000000000BA5: 4D 89 6E F8        mov         qword ptr [r14-8],r13
  0000000000000BA9: 48 89 D7           mov         rdi,rdx
  0000000000000BAC: 48 F7 E3           mul         rax,rbx
  0000000000000BAF: 49 01 C3           add         r11,rax
  0000000000000BB2: 48 8B 41 08        mov         rax,qword ptr [rcx+8]
  0000000000000BB6: 48 83 D2 00        adc         rdx,0
  0000000000000BBA: 49 89 D2           mov         r10,rdx
  0000000000000BBD: 48 F7 E5           mul         rax,rbp
  0000000000000BC0: 48 01 C7           add         rdi,rax
  0000000000000BC3: 4A 8B 44 3E 10     mov         rax,qword ptr [rsi+r15+10h]
  0000000000000BC8: 48 83 D2 00        adc         rdx,0
  0000000000000BCC: 4C 01 DF           add         rdi,r11
  0000000000000BCF: 48 8D 49 20        lea         rcx,[rcx+20h]
  0000000000000BD3: 48 83 D2 00        adc         rdx,0
  0000000000000BD7: 49 89 3E           mov         qword ptr [r14],rdi
  0000000000000BDA: 49 89 D5           mov         r13,rdx
  0000000000000BDD: 49 83 C7 20        add         r15,20h
  0000000000000BE1: 0F 85 39 FF FF FF  jne         L$1st4x
  0000000000000BE7: 48 F7 E3           mul         rax,rbx
  0000000000000BEA: 49 01 C2           add         r10,rax
  0000000000000BED: 48 8B 41 F0        mov         rax,qword ptr [rcx-10h]
  0000000000000BF1: 4D 8D 76 20        lea         r14,[r14+20h]
  0000000000000BF5: 48 83 D2 00        adc         rdx,0
  0000000000000BF9: 49 89 D3           mov         r11,rdx
  0000000000000BFC: 48 F7 E5           mul         rax,rbp
  0000000000000BFF: 49 01 C5           add         r13,rax
  0000000000000C02: 48 8B 46 F8        mov         rax,qword ptr [rsi-8]
  0000000000000C06: 48 83 D2 00        adc         rdx,0
  0000000000000C0A: 4D 01 D5           add         r13,r10
  0000000000000C0D: 48 83 D2 00        adc         rdx,0
  0000000000000C11: 4D 89 6E E8        mov         qword ptr [r14-18h],r13
  0000000000000C15: 48 89 D7           mov         rdi,rdx
  0000000000000C18: 48 F7 E3           mul         rax,rbx
  0000000000000C1B: 49 01 C3           add         r11,rax
  0000000000000C1E: 48 8B 41 F8        mov         rax,qword ptr [rcx-8]
  0000000000000C22: 48 83 D2 00        adc         rdx,0
  0000000000000C26: 49 89 D2           mov         r10,rdx
  0000000000000C29: 48 F7 E5           mul         rax,rbp
  0000000000000C2C: 48 01 C7           add         rdi,rax
  0000000000000C2F: 4A 8B 04 0E        mov         rax,qword ptr [rsi+r9]
  0000000000000C33: 48 83 D2 00        adc         rdx,0
  0000000000000C37: 4C 01 DF           add         rdi,r11
  0000000000000C3A: 48 83 D2 00        adc         rdx,0
  0000000000000C3E: 49 89 7E F0        mov         qword ptr [r14-10h],rdi
  0000000000000C42: 49 89 D5           mov         r13,rdx
  0000000000000C45: 4A 8D 0C 09        lea         rcx,[rcx+r9]
  0000000000000C49: 48 31 FF           xor         rdi,rdi
  0000000000000C4C: 4D 01 D5           add         r13,r10
  0000000000000C4F: 48 83 D7 00        adc         rdi,0
  0000000000000C53: 4D 89 6E F8        mov         qword ptr [r14-8],r13
  0000000000000C57: E9 04 00 00 00     jmp         L$outer4x
  0000000000000C5C: 90                 nop
  0000000000000C5D: 90                 nop
  0000000000000C5E: 90                 nop
  0000000000000C5F: 90                 nop
L$outer4x:
  0000000000000C60: 49 8D 96 90 00 00  lea         rdx,[r14+90h]
                    00
  0000000000000C67: 66 0F EF E4        pxor        xmm4,xmm4
  0000000000000C6B: 66 0F EF ED        pxor        xmm5,xmm5
  0000000000000C6F: 66 41 0F 6F 44 24  movdqa      xmm0,xmmword ptr [r12-80h]
                    80
  0000000000000C76: 66 41 0F 6F 4C 24  movdqa      xmm1,xmmword ptr [r12-70h]
                    90
  0000000000000C7D: 66 41 0F 6F 54 24  movdqa      xmm2,xmmword ptr [r12-60h]
                    A0
  0000000000000C84: 66 41 0F 6F 5C 24  movdqa      xmm3,xmmword ptr [r12-50h]
                    B0
  0000000000000C8B: 66 0F DB 42 80     pand        xmm0,xmmword ptr [rdx-80h]
  0000000000000C90: 66 0F DB 4A 90     pand        xmm1,xmmword ptr [rdx-70h]
  0000000000000C95: 66 0F EB E0        por         xmm4,xmm0
  0000000000000C99: 66 0F DB 52 A0     pand        xmm2,xmmword ptr [rdx-60h]
  0000000000000C9E: 66 0F EB E9        por         xmm5,xmm1
  0000000000000CA2: 66 0F DB 5A B0     pand        xmm3,xmmword ptr [rdx-50h]
  0000000000000CA7: 66 0F EB E2        por         xmm4,xmm2
  0000000000000CAB: 66 0F EB EB        por         xmm5,xmm3
  0000000000000CAF: 66 41 0F 6F 44 24  movdqa      xmm0,xmmword ptr [r12-40h]
                    C0
  0000000000000CB6: 66 41 0F 6F 4C 24  movdqa      xmm1,xmmword ptr [r12-30h]
                    D0
  0000000000000CBD: 66 41 0F 6F 54 24  movdqa      xmm2,xmmword ptr [r12-20h]
                    E0
  0000000000000CC4: 66 41 0F 6F 5C 24  movdqa      xmm3,xmmword ptr [r12-10h]
                    F0
  0000000000000CCB: 66 0F DB 42 C0     pand        xmm0,xmmword ptr [rdx-40h]
  0000000000000CD0: 66 0F DB 4A D0     pand        xmm1,xmmword ptr [rdx-30h]
  0000000000000CD5: 66 0F EB E0        por         xmm4,xmm0
  0000000000000CD9: 66 0F DB 52 E0     pand        xmm2,xmmword ptr [rdx-20h]
  0000000000000CDE: 66 0F EB E9        por         xmm5,xmm1
  0000000000000CE2: 66 0F DB 5A F0     pand        xmm3,xmmword ptr [rdx-10h]
  0000000000000CE7: 66 0F EB E2        por         xmm4,xmm2
  0000000000000CEB: 66 0F EB EB        por         xmm5,xmm3
  0000000000000CEF: 66 41 0F 6F 04 24  movdqa      xmm0,xmmword ptr [r12]
  0000000000000CF5: 66 41 0F 6F 4C 24  movdqa      xmm1,xmmword ptr [r12+10h]
                    10
  0000000000000CFC: 66 41 0F 6F 54 24  movdqa      xmm2,xmmword ptr [r12+20h]
                    20
  0000000000000D03: 66 41 0F 6F 5C 24  movdqa      xmm3,xmmword ptr [r12+30h]
                    30
  0000000000000D0A: 66 0F DB 02        pand        xmm0,xmmword ptr [rdx]
  0000000000000D0E: 66 0F DB 4A 10     pand        xmm1,xmmword ptr [rdx+10h]
  0000000000000D13: 66 0F EB E0        por         xmm4,xmm0
  0000000000000D17: 66 0F DB 52 20     pand        xmm2,xmmword ptr [rdx+20h]
  0000000000000D1C: 66 0F EB E9        por         xmm5,xmm1
  0000000000000D20: 66 0F DB 5A 30     pand        xmm3,xmmword ptr [rdx+30h]
  0000000000000D25: 66 0F EB E2        por         xmm4,xmm2
  0000000000000D29: 66 0F EB EB        por         xmm5,xmm3
  0000000000000D2D: 66 41 0F 6F 44 24  movdqa      xmm0,xmmword ptr [r12+40h]
                    40
  0000000000000D34: 66 41 0F 6F 4C 24  movdqa      xmm1,xmmword ptr [r12+50h]
                    50
  0000000000000D3B: 66 41 0F 6F 54 24  movdqa      xmm2,xmmword ptr [r12+60h]
                    60
  0000000000000D42: 66 41 0F 6F 5C 24  movdqa      xmm3,xmmword ptr [r12+70h]
                    70
  0000000000000D49: 66 0F DB 42 40     pand        xmm0,xmmword ptr [rdx+40h]
  0000000000000D4E: 66 0F DB 4A 50     pand        xmm1,xmmword ptr [rdx+50h]
  0000000000000D53: 66 0F EB E0        por         xmm4,xmm0
  0000000000000D57: 66 0F DB 52 60     pand        xmm2,xmmword ptr [rdx+60h]
  0000000000000D5C: 66 0F EB E9        por         xmm5,xmm1
  0000000000000D60: 66 0F DB 5A 70     pand        xmm3,xmmword ptr [rdx+70h]
  0000000000000D65: 66 0F EB E2        por         xmm4,xmm2
  0000000000000D69: 66 0F EB EB        por         xmm5,xmm3
  0000000000000D6D: 66 0F EB E5        por         xmm4,xmm5
  0000000000000D71: 66 0F 70 C4 4E     pshufd      xmm0,xmm4,4Eh
  0000000000000D76: 66 0F EB C4        por         xmm0,xmm4
  0000000000000D7A: 4D 8D A4 24 00 01  lea         r12,[r12+100h]
                    00 00
  0000000000000D82: 66 48 0F 7E C3     movq        rbx,xmm0
  0000000000000D87: 4F 8B 14 0E        mov         r10,qword ptr [r14+r9]
  0000000000000D8B: 4C 89 C5           mov         rbp,r8
  0000000000000D8E: 48 F7 E3           mul         rax,rbx
  0000000000000D91: 49 01 C2           add         r10,rax
  0000000000000D94: 48 8B 01           mov         rax,qword ptr [rcx]
  0000000000000D97: 48 83 D2 00        adc         rdx,0
  0000000000000D9B: 49 0F AF EA        imul        rbp,r10
  0000000000000D9F: 49 89 D3           mov         r11,rdx
  0000000000000DA2: 49 89 3E           mov         qword ptr [r14],rdi
  0000000000000DA5: 4F 8D 34 0E        lea         r14,[r14+r9]
  0000000000000DA9: 48 F7 E5           mul         rax,rbp
  0000000000000DAC: 49 01 C2           add         r10,rax
  0000000000000DAF: 4A 8B 44 0E 08     mov         rax,qword ptr [rsi+r9+8]
  0000000000000DB4: 48 83 D2 00        adc         rdx,0
  0000000000000DB8: 48 89 D7           mov         rdi,rdx
  0000000000000DBB: 48 F7 E3           mul         rax,rbx
  0000000000000DBE: 49 01 C3           add         r11,rax
  0000000000000DC1: 48 8B 41 08        mov         rax,qword ptr [rcx+8]
  0000000000000DC5: 48 83 D2 00        adc         rdx,0
  0000000000000DC9: 4D 03 5E 08        add         r11,qword ptr [r14+8]
  0000000000000DCD: 48 83 D2 00        adc         rdx,0
  0000000000000DD1: 49 89 D2           mov         r10,rdx
  0000000000000DD4: 48 F7 E5           mul         rax,rbp
  0000000000000DD7: 48 01 C7           add         rdi,rax
  0000000000000DDA: 4A 8B 44 0E 10     mov         rax,qword ptr [rsi+r9+10h]
  0000000000000DDF: 48 83 D2 00        adc         rdx,0
  0000000000000DE3: 4C 01 DF           add         rdi,r11
  0000000000000DE6: 4D 8D 79 20        lea         r15,[r9+20h]
  0000000000000DEA: 48 8D 49 20        lea         rcx,[rcx+20h]
  0000000000000DEE: 48 83 D2 00        adc         rdx,0
  0000000000000DF2: 49 89 D5           mov         r13,rdx
  0000000000000DF5: E9 06 00 00 00     jmp         L$inner4x
  0000000000000DFA: 90                 nop
  0000000000000DFB: 90                 nop
  0000000000000DFC: 90                 nop
  0000000000000DFD: 90                 nop
  0000000000000DFE: 90                 nop
  0000000000000DFF: 90                 nop
L$inner4x:
  0000000000000E00: 48 F7 E3           mul         rax,rbx
  0000000000000E03: 49 01 C2           add         r10,rax
  0000000000000E06: 48 8B 41 F0        mov         rax,qword ptr [rcx-10h]
  0000000000000E0A: 48 83 D2 00        adc         rdx,0
  0000000000000E0E: 4D 03 56 10        add         r10,qword ptr [r14+10h]
  0000000000000E12: 4D 8D 76 20        lea         r14,[r14+20h]
  0000000000000E16: 48 83 D2 00        adc         rdx,0
  0000000000000E1A: 49 89 D3           mov         r11,rdx
  0000000000000E1D: 48 F7 E5           mul         rax,rbp
  0000000000000E20: 49 01 C5           add         r13,rax
  0000000000000E23: 4A 8B 44 3E F8     mov         rax,qword ptr [rsi+r15-8]
  0000000000000E28: 48 83 D2 00        adc         rdx,0
  0000000000000E2C: 4D 01 D5           add         r13,r10
  0000000000000E2F: 48 83 D2 00        adc         rdx,0
  0000000000000E33: 49 89 7E E0        mov         qword ptr [r14-20h],rdi
  0000000000000E37: 48 89 D7           mov         rdi,rdx
  0000000000000E3A: 48 F7 E3           mul         rax,rbx
  0000000000000E3D: 49 01 C3           add         r11,rax
  0000000000000E40: 48 8B 41 F8        mov         rax,qword ptr [rcx-8]
  0000000000000E44: 48 83 D2 00        adc         rdx,0
  0000000000000E48: 4D 03 5E F8        add         r11,qword ptr [r14-8]
  0000000000000E4C: 48 83 D2 00        adc         rdx,0
  0000000000000E50: 49 89 D2           mov         r10,rdx
  0000000000000E53: 48 F7 E5           mul         rax,rbp
  0000000000000E56: 48 01 C7           add         rdi,rax
  0000000000000E59: 4A 8B 04 3E        mov         rax,qword ptr [rsi+r15]
  0000000000000E5D: 48 83 D2 00        adc         rdx,0
  0000000000000E61: 4C 01 DF           add         rdi,r11
  0000000000000E64: 48 83 D2 00        adc         rdx,0
  0000000000000E68: 4D 89 6E E8        mov         qword ptr [r14-18h],r13
  0000000000000E6C: 49 89 D5           mov         r13,rdx
  0000000000000E6F: 48 F7 E3           mul         rax,rbx
  0000000000000E72: 49 01 C2           add         r10,rax
  0000000000000E75: 48 8B 01           mov         rax,qword ptr [rcx]
  0000000000000E78: 48 83 D2 00        adc         rdx,0
  0000000000000E7C: 4D 03 16           add         r10,qword ptr [r14]
  0000000000000E7F: 48 83 D2 00        adc         rdx,0
  0000000000000E83: 49 89 D3           mov         r11,rdx
  0000000000000E86: 48 F7 E5           mul         rax,rbp
  0000000000000E89: 49 01 C5           add         r13,rax
  0000000000000E8C: 4A 8B 44 3E 08     mov         rax,qword ptr [rsi+r15+8]
  0000000000000E91: 48 83 D2 00        adc         rdx,0
  0000000000000E95: 4D 01 D5           add         r13,r10
  0000000000000E98: 48 83 D2 00        adc         rdx,0
  0000000000000E9C: 49 89 7E F0        mov         qword ptr [r14-10h],rdi
  0000000000000EA0: 48 89 D7           mov         rdi,rdx
  0000000000000EA3: 48 F7 E3           mul         rax,rbx
  0000000000000EA6: 49 01 C3           add         r11,rax
  0000000000000EA9: 48 8B 41 08        mov         rax,qword ptr [rcx+8]
  0000000000000EAD: 48 83 D2 00        adc         rdx,0
  0000000000000EB1: 4D 03 5E 08        add         r11,qword ptr [r14+8]
  0000000000000EB5: 48 83 D2 00        adc         rdx,0
  0000000000000EB9: 49 89 D2           mov         r10,rdx
  0000000000000EBC: 48 F7 E5           mul         rax,rbp
  0000000000000EBF: 48 01 C7           add         rdi,rax
  0000000000000EC2: 4A 8B 44 3E 10     mov         rax,qword ptr [rsi+r15+10h]
  0000000000000EC7: 48 83 D2 00        adc         rdx,0
  0000000000000ECB: 4C 01 DF           add         rdi,r11
  0000000000000ECE: 48 8D 49 20        lea         rcx,[rcx+20h]
  0000000000000ED2: 48 83 D2 00        adc         rdx,0
  0000000000000ED6: 4D 89 6E F8        mov         qword ptr [r14-8],r13
  0000000000000EDA: 49 89 D5           mov         r13,rdx
  0000000000000EDD: 49 83 C7 20        add         r15,20h
  0000000000000EE1: 0F 85 19 FF FF FF  jne         L$inner4x
  0000000000000EE7: 48 F7 E3           mul         rax,rbx
  0000000000000EEA: 49 01 C2           add         r10,rax
  0000000000000EED: 48 8B 41 F0        mov         rax,qword ptr [rcx-10h]
  0000000000000EF1: 48 83 D2 00        adc         rdx,0
  0000000000000EF5: 4D 03 56 10        add         r10,qword ptr [r14+10h]
  0000000000000EF9: 4D 8D 76 20        lea         r14,[r14+20h]
  0000000000000EFD: 48 83 D2 00        adc         rdx,0
  0000000000000F01: 49 89 D3           mov         r11,rdx
  0000000000000F04: 48 F7 E5           mul         rax,rbp
  0000000000000F07: 49 01 C5           add         r13,rax
  0000000000000F0A: 48 8B 46 F8        mov         rax,qword ptr [rsi-8]
  0000000000000F0E: 48 83 D2 00        adc         rdx,0
  0000000000000F12: 4D 01 D5           add         r13,r10
  0000000000000F15: 48 83 D2 00        adc         rdx,0
  0000000000000F19: 49 89 7E E0        mov         qword ptr [r14-20h],rdi
  0000000000000F1D: 48 89 D7           mov         rdi,rdx
  0000000000000F20: 48 F7 E3           mul         rax,rbx
  0000000000000F23: 49 01 C3           add         r11,rax
  0000000000000F26: 48 89 E8           mov         rax,rbp
  0000000000000F29: 48 8B 69 F8        mov         rbp,qword ptr [rcx-8]
  0000000000000F2D: 48 83 D2 00        adc         rdx,0
  0000000000000F31: 4D 03 5E F8        add         r11,qword ptr [r14-8]
  0000000000000F35: 48 83 D2 00        adc         rdx,0
  0000000000000F39: 49 89 D2           mov         r10,rdx
  0000000000000F3C: 48 F7 E5           mul         rax,rbp
  0000000000000F3F: 48 01 C7           add         rdi,rax
  0000000000000F42: 4A 8B 04 0E        mov         rax,qword ptr [rsi+r9]
  0000000000000F46: 48 83 D2 00        adc         rdx,0
  0000000000000F4A: 4C 01 DF           add         rdi,r11
  0000000000000F4D: 48 83 D2 00        adc         rdx,0
  0000000000000F51: 4D 89 6E E8        mov         qword ptr [r14-18h],r13
  0000000000000F55: 49 89 D5           mov         r13,rdx
  0000000000000F58: 49 89 7E F0        mov         qword ptr [r14-10h],rdi
  0000000000000F5C: 4A 8D 0C 09        lea         rcx,[rcx+r9]
  0000000000000F60: 48 31 FF           xor         rdi,rdi
  0000000000000F63: 4D 01 D5           add         r13,r10
  0000000000000F66: 48 83 D7 00        adc         rdi,0
  0000000000000F6A: 4D 03 2E           add         r13,qword ptr [r14]
  0000000000000F6D: 48 83 D7 00        adc         rdi,0
  0000000000000F71: 4D 89 6E F8        mov         qword ptr [r14-8],r13
  0000000000000F75: 4C 3B 64 24 18     cmp         r12,qword ptr [rsp+18h]
  0000000000000F7A: 0F 82 E0 FC FF FF  jb          L$outer4x
  0000000000000F80: 48 31 C0           xor         rax,rax
  0000000000000F83: 4C 29 ED           sub         rbp,r13
  0000000000000F86: 4D 11 FF           adc         r15,r15
  0000000000000F89: 4C 09 FF           or          rdi,r15
  0000000000000F8C: 48 29 F8           sub         rax,rdi
  0000000000000F8F: 4B 8D 1C 0E        lea         rbx,[r14+r9]
  0000000000000F93: 4C 8B 21           mov         r12,qword ptr [rcx]
  0000000000000F96: 48 8D 29           lea         rbp,[rcx]
  0000000000000F99: 4C 89 C9           mov         rcx,r9
  0000000000000F9C: 48 C1 F9 05        sar         rcx,5
  0000000000000FA0: 48 8B 7C 24 40     mov         rdi,qword ptr [rsp+40h]
  0000000000000FA5: 49 FF CC           dec         r12
  0000000000000FA8: 4D 31 D2           xor         r10,r10
  0000000000000FAB: 4C 8B 6D 08        mov         r13,qword ptr [rbp+8]
  0000000000000FAF: 4C 8B 75 10        mov         r14,qword ptr [rbp+10h]
  0000000000000FB3: 4C 8B 7D 18        mov         r15,qword ptr [rbp+18h]
  0000000000000FB7: E9 F4 0A 00 00     jmp         L$sqr4x_sub_entry
  0000000000000FBC: 90                 nop
  0000000000000FBD: 90                 nop
  0000000000000FBE: 90                 nop
  0000000000000FBF: 90                 nop
aws_lc_0_21_0_bn_power5:
  0000000000000FC0: 48 89 7C 24 08     mov         qword ptr [rsp+8],rdi
  0000000000000FC5: 48 89 74 24 10     mov         qword ptr [rsp+10h],rsi
  0000000000000FCA: 48 89 E0           mov         rax,rsp
L$SEH_begin_bn_power5:
  0000000000000FCD: 48 89 CF           mov         rdi,rcx
  0000000000000FD0: 48 89 D6           mov         rsi,rdx
  0000000000000FD3: 4C 89 C2           mov         rdx,r8
  0000000000000FD6: 4C 89 C9           mov         rcx,r9
  0000000000000FD9: 4C 8B 44 24 28     mov         r8,qword ptr [rsp+28h]
  0000000000000FDE: 4C 8B 4C 24 30     mov         r9,qword ptr [rsp+30h]
  0000000000000FE3: 48 89 E0           mov         rax,rsp
  0000000000000FE6: 4C 8D 1D 00 00 00  lea         r11,[aws_lc_0_21_0_OPENSSL_ia32cap_P]
                    00
  0000000000000FED: 45 8B 5B 08        mov         r11d,dword ptr [r11+8]
  0000000000000FF1: 41 81 E3 08 01 08  and         r11d,80108h
                    00
  0000000000000FF8: 41 81 FB 08 01 08  cmp         r11d,80108h
                    00
  0000000000000FFF: 0F 84 41 14 00 00  je          L$powerx5_enter
  0000000000001005: 53                 push        rbx
  0000000000001006: 55                 push        rbp
  0000000000001007: 41 54              push        r12
  0000000000001009: 41 55              push        r13
  000000000000100B: 41 56              push        r14
  000000000000100D: 41 57              push        r15
L$power5_prologue:
  000000000000100F: 41 C1 E1 03        shl         r9d,3
  0000000000001013: 47 8D 14 49        lea         r10d,[r9+r9*2]
  0000000000001017: 49 F7 D9           neg         r9
  000000000000101A: 4D 8B 00           mov         r8,qword ptr [r8]
  000000000000101D: 4E 8D 9C 4C C0 FE  lea         r11,[rsp+r9*2-140h]
                    FF FF
  0000000000001025: 48 89 E5           mov         rbp,rsp
  0000000000001028: 49 29 FB           sub         r11,rdi
  000000000000102B: 49 81 E3 FF 0F 00  and         r11,0FFFh
                    00
  0000000000001032: 4D 39 DA           cmp         r10,r11
  0000000000001035: 0F 82 25 00 00 00  jb          L$pwr_sp_alt
  000000000000103B: 4C 29 DD           sub         rbp,r11
  000000000000103E: 4A 8D AC 4D C0 FE  lea         rbp,[rbp+r9*2-140h]
                    FF FF
  0000000000001046: E9 35 00 00 00     jmp         L$pwr_sp_done
  000000000000104B: 90                 nop
  000000000000104C: 90                 nop
  000000000000104D: 90                 nop
  000000000000104E: 90                 nop
  000000000000104F: 90                 nop
  0000000000001050: 90                 nop
  0000000000001051: 90                 nop
  0000000000001052: 90                 nop
  0000000000001053: 90                 nop
  0000000000001054: 90                 nop
  0000000000001055: 90                 nop
  0000000000001056: 90                 nop
  0000000000001057: 90                 nop
  0000000000001058: 90                 nop
  0000000000001059: 90                 nop
  000000000000105A: 90                 nop
  000000000000105B: 90                 nop
  000000000000105C: 90                 nop
  000000000000105D: 90                 nop
  000000000000105E: 90                 nop
  000000000000105F: 90                 nop
L$pwr_sp_alt:
  0000000000001060: 4F 8D 94 09 C0 0E  lea         r10,[r9+r9+0EC0h]
                    00 00
  0000000000001068: 4A 8D AC 4D C0 FE  lea         rbp,[rbp+r9*2-140h]
                    FF FF
  0000000000001070: 4D 29 D3           sub         r11,r10
  0000000000001073: 41 BA 00 00 00 00  mov         r10d,0
  0000000000001079: 4D 0F 42 DA        cmovb       r11,r10
  000000000000107D: 4C 29 DD           sub         rbp,r11
L$pwr_sp_done:
  0000000000001080: 48 83 E5 C0        and         rbp,0FFFFFFFFFFFFFFC0h
  0000000000001084: 49 89 E3           mov         r11,rsp
  0000000000001087: 49 29 EB           sub         r11,rbp
  000000000000108A: 49 81 E3 00 F0 FF  and         r11,0FFFFFFFFFFFFF000h
                    FF
  0000000000001091: 49 8D 24 2B        lea         rsp,[r11+rbp]
  0000000000001095: 4C 8B 14 24        mov         r10,qword ptr [rsp]
  0000000000001099: 48 39 EC           cmp         rsp,rbp
  000000000000109C: 0F 87 05 00 00 00  ja          L$pwr_page_walk
  00000000000010A2: E9 15 00 00 00     jmp         L$pwr_page_walk_done
L$pwr_page_walk:
  00000000000010A7: 48 8D A4 24 00 F0  lea         rsp,[rsp-1000h]
                    FF FF
  00000000000010AF: 4C 8B 14 24        mov         r10,qword ptr [rsp]
  00000000000010B3: 48 39 EC           cmp         rsp,rbp
  00000000000010B6: 0F 87 EB FF FF FF  ja          L$pwr_page_walk
L$pwr_page_walk_done:
  00000000000010BC: 4D 89 CA           mov         r10,r9
  00000000000010BF: 49 F7 D9           neg         r9
  00000000000010C2: 4C 89 44 24 20     mov         qword ptr [rsp+20h],r8
  00000000000010C7: 48 89 44 24 28     mov         qword ptr [rsp+28h],rax
L$power5_body:
  00000000000010CC: 66 48 0F 6E CF     movq        xmm1,rdi
  00000000000010D1: 66 48 0F 6E D1     movq        xmm2,rcx
  00000000000010D6: 66 49 0F 6E DA     movq        xmm3,r10
  00000000000010DB: 66 48 0F 6E E2     movq        xmm4,rdx
  00000000000010E0: E8 7B 00 00 00     call        aws_lc_0_21_0_bn_sqr8x_internal
  00000000000010E5: E8 76 09 00 00     call        __bn_post4x_internal
  00000000000010EA: E8 71 00 00 00     call        aws_lc_0_21_0_bn_sqr8x_internal
  00000000000010EF: E8 6C 09 00 00     call        __bn_post4x_internal
  00000000000010F4: E8 67 00 00 00     call        aws_lc_0_21_0_bn_sqr8x_internal
  00000000000010F9: E8 62 09 00 00     call        __bn_post4x_internal
  00000000000010FE: E8 5D 00 00 00     call        aws_lc_0_21_0_bn_sqr8x_internal
  0000000000001103: E8 58 09 00 00     call        __bn_post4x_internal
  0000000000001108: E8 53 00 00 00     call        aws_lc_0_21_0_bn_sqr8x_internal
  000000000000110D: E8 4E 09 00 00     call        __bn_post4x_internal
  0000000000001112: 66 48 0F 7E D1     movq        rcx,xmm2
  0000000000001117: 66 48 0F 7E E2     movq        rdx,xmm4
  000000000000111C: 48 89 F7           mov         rdi,rsi
  000000000000111F: 48 8B 44 24 28     mov         rax,qword ptr [rsp+28h]
  0000000000001124: 4C 8D 44 24 20     lea         r8,[rsp+20h]
  0000000000001129: E8 B2 F6 FF FF     call        mul4x_internal
  000000000000112E: 48 8B 74 24 28     mov         rsi,qword ptr [rsp+28h]
  0000000000001133: B8 01 00 00 00     mov         eax,1
  0000000000001138: 4C 8B 7E D0        mov         r15,qword ptr [rsi-30h]
  000000000000113C: 4C 8B 76 D8        mov         r14,qword ptr [rsi-28h]
  0000000000001140: 4C 8B 6E E0        mov         r13,qword ptr [rsi-20h]
  0000000000001144: 4C 8B 66 E8        mov         r12,qword ptr [rsi-18h]
  0000000000001148: 48 8B 6E F0        mov         rbp,qword ptr [rsi-10h]
  000000000000114C: 48 8B 5E F8        mov         rbx,qword ptr [rsi-8]
  0000000000001150: 48 8D 26           lea         rsp,[rsi]
L$power5_epilogue:
  0000000000001153: 48 8B 7C 24 08     mov         rdi,qword ptr [rsp+8]
  0000000000001158: 48 8B 74 24 10     mov         rsi,qword ptr [rsp+10h]
  000000000000115D: F3 C3              rep ret
L$SEH_end_bn_power5:
  000000000000115F: 90                 nop
aws_lc_0_21_0_bn_sqr8x_internal:
  0000000000001160: 49 8D 6A 20        lea         rbp,[r10+20h]
  0000000000001164: 4A 8D 34 0E        lea         rsi,[rsi+r9]
  0000000000001168: 4C 89 C9           mov         rcx,r9
  000000000000116B: 4C 8B 74 2E E0     mov         r14,qword ptr [rsi+rbp-20h]
  0000000000001170: 4A 8D 7C 4C 38     lea         rdi,[rsp+r9*2+38h]
  0000000000001175: 48 8B 44 2E E8     mov         rax,qword ptr [rsi+rbp-18h]
  000000000000117A: 48 8D 7C 2F E0     lea         rdi,[rdi+rbp-20h]
  000000000000117F: 48 8B 5C 2E F0     mov         rbx,qword ptr [rsi+rbp-10h]
  0000000000001184: 49 89 C7           mov         r15,rax
  0000000000001187: 49 F7 E6           mul         rax,r14
  000000000000118A: 49 89 C2           mov         r10,rax
  000000000000118D: 48 89 D8           mov         rax,rbx
  0000000000001190: 49 89 D3           mov         r11,rdx
  0000000000001193: 4C 89 54 2F E8     mov         qword ptr [rdi+rbp-18h],r10
  0000000000001198: 49 F7 E6           mul         rax,r14
  000000000000119B: 49 01 C3           add         r11,rax
  000000000000119E: 48 89 D8           mov         rax,rbx
  00000000000011A1: 48 83 D2 00        adc         rdx,0
  00000000000011A5: 4C 89 5C 2F F0     mov         qword ptr [rdi+rbp-10h],r11
  00000000000011AA: 49 89 D2           mov         r10,rdx
  00000000000011AD: 48 8B 5C 2E F8     mov         rbx,qword ptr [rsi+rbp-8]
  00000000000011B2: 49 F7 E7           mul         rax,r15
  00000000000011B5: 49 89 C4           mov         r12,rax
  00000000000011B8: 48 89 D8           mov         rax,rbx
  00000000000011BB: 49 89 D5           mov         r13,rdx
  00000000000011BE: 48 8D 4D 00        lea         rcx,[rbp]
  00000000000011C2: 49 F7 E6           mul         rax,r14
  00000000000011C5: 49 01 C2           add         r10,rax
  00000000000011C8: 48 89 D8           mov         rax,rbx
  00000000000011CB: 49 89 D3           mov         r11,rdx
  00000000000011CE: 49 83 D3 00        adc         r11,0
  00000000000011D2: 4D 01 E2           add         r10,r12
  00000000000011D5: 49 83 D3 00        adc         r11,0
  00000000000011D9: 4C 89 54 0F F8     mov         qword ptr [rdi+rcx-8],r10
  00000000000011DE: E9 1D 00 00 00     jmp         L$sqr4x_1st
  00000000000011E3: 90                 nop
  00000000000011E4: 90                 nop
  00000000000011E5: 90                 nop
  00000000000011E6: 90                 nop
  00000000000011E7: 90                 nop
  00000000000011E8: 90                 nop
  00000000000011E9: 90                 nop
  00000000000011EA: 90                 nop
  00000000000011EB: 90                 nop
  00000000000011EC: 90                 nop
  00000000000011ED: 90                 nop
  00000000000011EE: 90                 nop
  00000000000011EF: 90                 nop
  00000000000011F0: 90                 nop
  00000000000011F1: 90                 nop
  00000000000011F2: 90                 nop
  00000000000011F3: 90                 nop
  00000000000011F4: 90                 nop
  00000000000011F5: 90                 nop
  00000000000011F6: 90                 nop
  00000000000011F7: 90                 nop
  00000000000011F8: 90                 nop
  00000000000011F9: 90                 nop
  00000000000011FA: 90                 nop
  00000000000011FB: 90                 nop
  00000000000011FC: 90                 nop
  00000000000011FD: 90                 nop
  00000000000011FE: 90                 nop
  00000000000011FF: 90                 nop
L$sqr4x_1st:
  0000000000001200: 48 8B 1C 0E        mov         rbx,qword ptr [rsi+rcx]
  0000000000001204: 49 F7 E7           mul         rax,r15
  0000000000001207: 49 01 C5           add         r13,rax
  000000000000120A: 48 89 D8           mov         rax,rbx
  000000000000120D: 49 89 D4           mov         r12,rdx
  0000000000001210: 49 83 D4 00        adc         r12,0
  0000000000001214: 49 F7 E6           mul         rax,r14
  0000000000001217: 49 01 C3           add         r11,rax
  000000000000121A: 48 89 D8           mov         rax,rbx
  000000000000121D: 48 8B 5C 0E 08     mov         rbx,qword ptr [rsi+rcx+8]
  0000000000001222: 49 89 D2           mov         r10,rdx
  0000000000001225: 49 83 D2 00        adc         r10,0
  0000000000001229: 4D 01 EB           add         r11,r13
  000000000000122C: 49 83 D2 00        adc         r10,0
  0000000000001230: 49 F7 E7           mul         rax,r15
  0000000000001233: 49 01 C4           add         r12,rax
  0000000000001236: 48 89 D8           mov         rax,rbx
  0000000000001239: 4C 89 1C 0F        mov         qword ptr [rdi+rcx],r11
  000000000000123D: 49 89 D5           mov         r13,rdx
  0000000000001240: 49 83 D5 00        adc         r13,0
  0000000000001244: 49 F7 E6           mul         rax,r14
  0000000000001247: 49 01 C2           add         r10,rax
  000000000000124A: 48 89 D8           mov         rax,rbx
  000000000000124D: 48 8B 5C 0E 10     mov         rbx,qword ptr [rsi+rcx+10h]
  0000000000001252: 49 89 D3           mov         r11,rdx
  0000000000001255: 49 83 D3 00        adc         r11,0
  0000000000001259: 4D 01 E2           add         r10,r12
  000000000000125C: 49 83 D3 00        adc         r11,0
  0000000000001260: 49 F7 E7           mul         rax,r15
  0000000000001263: 49 01 C5           add         r13,rax
  0000000000001266: 48 89 D8           mov         rax,rbx
  0000000000001269: 4C 89 54 0F 08     mov         qword ptr [rdi+rcx+8],r10
  000000000000126E: 49 89 D4           mov         r12,rdx
  0000000000001271: 49 83 D4 00        adc         r12,0
  0000000000001275: 49 F7 E6           mul         rax,r14
  0000000000001278: 49 01 C3           add         r11,rax
  000000000000127B: 48 89 D8           mov         rax,rbx
  000000000000127E: 48 8B 5C 0E 18     mov         rbx,qword ptr [rsi+rcx+18h]
  0000000000001283: 49 89 D2           mov         r10,rdx
  0000000000001286: 49 83 D2 00        adc         r10,0
  000000000000128A: 4D 01 EB           add         r11,r13
  000000000000128D: 49 83 D2 00        adc         r10,0
  0000000000001291: 49 F7 E7           mul         rax,r15
  0000000000001294: 49 01 C4           add         r12,rax
  0000000000001297: 48 89 D8           mov         rax,rbx
  000000000000129A: 4C 89 5C 0F 10     mov         qword ptr [rdi+rcx+10h],r11
  000000000000129F: 49 89 D5           mov         r13,rdx
  00000000000012A2: 49 83 D5 00        adc         r13,0
  00000000000012A6: 48 8D 49 20        lea         rcx,[rcx+20h]
  00000000000012AA: 49 F7 E6           mul         rax,r14
  00000000000012AD: 49 01 C2           add         r10,rax
  00000000000012B0: 48 89 D8           mov         rax,rbx
  00000000000012B3: 49 89 D3           mov         r11,rdx
  00000000000012B6: 49 83 D3 00        adc         r11,0
  00000000000012BA: 4D 01 E2           add         r10,r12
  00000000000012BD: 49 83 D3 00        adc         r11,0
  00000000000012C1: 4C 89 54 0F F8     mov         qword ptr [rdi+rcx-8],r10
  00000000000012C6: 48 83 F9 00        cmp         rcx,0
  00000000000012CA: 0F 85 30 FF FF FF  jne         L$sqr4x_1st
  00000000000012D0: 49 F7 E7           mul         rax,r15
  00000000000012D3: 49 01 C5           add         r13,rax
  00000000000012D6: 48 8D 6D 10        lea         rbp,[rbp+10h]
  00000000000012DA: 48 83 D2 00        adc         rdx,0
  00000000000012DE: 4D 01 DD           add         r13,r11
  00000000000012E1: 48 83 D2 00        adc         rdx,0
  00000000000012E5: 4C 89 2F           mov         qword ptr [rdi],r13
  00000000000012E8: 49 89 D4           mov         r12,rdx
  00000000000012EB: 48 89 57 08        mov         qword ptr [rdi+8],rdx
  00000000000012EF: E9 0C 00 00 00     jmp         L$sqr4x_outer
  00000000000012F4: 90                 nop
  00000000000012F5: 90                 nop
  00000000000012F6: 90                 nop
  00000000000012F7: 90                 nop
  00000000000012F8: 90                 nop
  00000000000012F9: 90                 nop
  00000000000012FA: 90                 nop
  00000000000012FB: 90                 nop
  00000000000012FC: 90                 nop
  00000000000012FD: 90                 nop
  00000000000012FE: 90                 nop
  00000000000012FF: 90                 nop
L$sqr4x_outer:
  0000000000001300: 4C 8B 74 2E E0     mov         r14,qword ptr [rsi+rbp-20h]
  0000000000001305: 4A 8D 7C 4C 38     lea         rdi,[rsp+r9*2+38h]
  000000000000130A: 48 8B 44 2E E8     mov         rax,qword ptr [rsi+rbp-18h]
  000000000000130F: 48 8D 7C 2F E0     lea         rdi,[rdi+rbp-20h]
  0000000000001314: 48 8B 5C 2E F0     mov         rbx,qword ptr [rsi+rbp-10h]
  0000000000001319: 49 89 C7           mov         r15,rax
  000000000000131C: 49 F7 E6           mul         rax,r14
  000000000000131F: 4C 8B 54 2F E8     mov         r10,qword ptr [rdi+rbp-18h]
  0000000000001324: 49 01 C2           add         r10,rax
  0000000000001327: 48 89 D8           mov         rax,rbx
  000000000000132A: 48 83 D2 00        adc         rdx,0
  000000000000132E: 4C 89 54 2F E8     mov         qword ptr [rdi+rbp-18h],r10
  0000000000001333: 49 89 D3           mov         r11,rdx
  0000000000001336: 49 F7 E6           mul         rax,r14
  0000000000001339: 49 01 C3           add         r11,rax
  000000000000133C: 48 89 D8           mov         rax,rbx
  000000000000133F: 48 83 D2 00        adc         rdx,0
  0000000000001343: 4C 03 5C 2F F0     add         r11,qword ptr [rdi+rbp-10h]
  0000000000001348: 49 89 D2           mov         r10,rdx
  000000000000134B: 49 83 D2 00        adc         r10,0
  000000000000134F: 4C 89 5C 2F F0     mov         qword ptr [rdi+rbp-10h],r11
  0000000000001354: 4D 31 E4           xor         r12,r12
  0000000000001357: 48 8B 5C 2E F8     mov         rbx,qword ptr [rsi+rbp-8]
  000000000000135C: 49 F7 E7           mul         rax,r15
  000000000000135F: 49 01 C4           add         r12,rax
  0000000000001362: 48 89 D8           mov         rax,rbx
  0000000000001365: 48 83 D2 00        adc         rdx,0
  0000000000001369: 4C 03 64 2F F8     add         r12,qword ptr [rdi+rbp-8]
  000000000000136E: 49 89 D5           mov         r13,rdx
  0000000000001371: 49 83 D5 00        adc         r13,0
  0000000000001375: 49 F7 E6           mul         rax,r14
  0000000000001378: 49 01 C2           add         r10,rax
  000000000000137B: 48 89 D8           mov         rax,rbx
  000000000000137E: 48 83 D2 00        adc         rdx,0
  0000000000001382: 4D 01 E2           add         r10,r12
  0000000000001385: 49 89 D3           mov         r11,rdx
  0000000000001388: 49 83 D3 00        adc         r11,0
  000000000000138C: 4C 89 54 2F F8     mov         qword ptr [rdi+rbp-8],r10
  0000000000001391: 48 8D 4D 00        lea         rcx,[rbp]
  0000000000001395: E9 06 00 00 00     jmp         L$sqr4x_inner
  000000000000139A: 90                 nop
  000000000000139B: 90                 nop
  000000000000139C: 90                 nop
  000000000000139D: 90                 nop
  000000000000139E: 90                 nop
  000000000000139F: 90                 nop
L$sqr4x_inner:
  00000000000013A0: 48 8B 1C 0E        mov         rbx,qword ptr [rsi+rcx]
  00000000000013A4: 49 F7 E7           mul         rax,r15
  00000000000013A7: 49 01 C5           add         r13,rax
  00000000000013AA: 48 89 D8           mov         rax,rbx
  00000000000013AD: 49 89 D4           mov         r12,rdx
  00000000000013B0: 49 83 D4 00        adc         r12,0
  00000000000013B4: 4C 03 2C 0F        add         r13,qword ptr [rdi+rcx]
  00000000000013B8: 49 83 D4 00        adc         r12,0
  00000000000013BC: 67 49 F7 E6        mul         rax,r14
  00000000000013C0: 49 01 C3           add         r11,rax
  00000000000013C3: 48 89 D8           mov         rax,rbx
  00000000000013C6: 48 8B 5C 0E 08     mov         rbx,qword ptr [rsi+rcx+8]
  00000000000013CB: 49 89 D2           mov         r10,rdx
  00000000000013CE: 49 83 D2 00        adc         r10,0
  00000000000013D2: 4D 01 EB           add         r11,r13
  00000000000013D5: 49 83 D2 00        adc         r10,0
  00000000000013D9: 49 F7 E7           mul         rax,r15
  00000000000013DC: 49 01 C4           add         r12,rax
  00000000000013DF: 4C 89 1C 0F        mov         qword ptr [rdi+rcx],r11
  00000000000013E3: 48 89 D8           mov         rax,rbx
  00000000000013E6: 49 89 D5           mov         r13,rdx
  00000000000013E9: 49 83 D5 00        adc         r13,0
  00000000000013ED: 4C 03 64 0F 08     add         r12,qword ptr [rdi+rcx+8]
  00000000000013F2: 48 8D 49 10        lea         rcx,[rcx+10h]
  00000000000013F6: 49 83 D5 00        adc         r13,0
  00000000000013FA: 49 F7 E6           mul         rax,r14
  00000000000013FD: 49 01 C2           add         r10,rax
  0000000000001400: 48 89 D8           mov         rax,rbx
  0000000000001403: 48 83 D2 00        adc         rdx,0
  0000000000001407: 4D 01 E2           add         r10,r12
  000000000000140A: 49 89 D3           mov         r11,rdx
  000000000000140D: 49 83 D3 00        adc         r11,0
  0000000000001411: 4C 89 54 0F F8     mov         qword ptr [rdi+rcx-8],r10
  0000000000001416: 48 83 F9 00        cmp         rcx,0
  000000000000141A: 0F 85 80 FF FF FF  jne         L$sqr4x_inner
  0000000000001420: 67 49 F7 E7        mul         rax,r15
  0000000000001424: 49 01 C5           add         r13,rax
  0000000000001427: 48 83 D2 00        adc         rdx,0
  000000000000142B: 4D 01 DD           add         r13,r11
  000000000000142E: 48 83 D2 00        adc         rdx,0
  0000000000001432: 4C 89 2F           mov         qword ptr [rdi],r13
  0000000000001435: 49 89 D4           mov         r12,rdx
  0000000000001438: 48 89 57 08        mov         qword ptr [rdi+8],rdx
  000000000000143C: 48 83 C5 10        add         rbp,10h
  0000000000001440: 0F 85 BA FE FF FF  jne         L$sqr4x_outer
  0000000000001446: 4C 8B 76 E0        mov         r14,qword ptr [rsi-20h]
  000000000000144A: 4A 8D 7C 4C 38     lea         rdi,[rsp+r9*2+38h]
  000000000000144F: 48 8B 46 E8        mov         rax,qword ptr [rsi-18h]
  0000000000001453: 48 8D 7C 2F E0     lea         rdi,[rdi+rbp-20h]
  0000000000001458: 48 8B 5E F0        mov         rbx,qword ptr [rsi-10h]
  000000000000145C: 49 89 C7           mov         r15,rax
  000000000000145F: 49 F7 E6           mul         rax,r14
  0000000000001462: 49 01 C2           add         r10,rax
  0000000000001465: 48 89 D8           mov         rax,rbx
  0000000000001468: 49 89 D3           mov         r11,rdx
  000000000000146B: 49 83 D3 00        adc         r11,0
  000000000000146F: 49 F7 E6           mul         rax,r14
  0000000000001472: 49 01 C3           add         r11,rax
  0000000000001475: 48 89 D8           mov         rax,rbx
  0000000000001478: 4C 89 57 E8        mov         qword ptr [rdi-18h],r10
  000000000000147C: 49 89 D2           mov         r10,rdx
  000000000000147F: 49 83 D2 00        adc         r10,0
  0000000000001483: 4D 01 EB           add         r11,r13
  0000000000001486: 48 8B 5E F8        mov         rbx,qword ptr [rsi-8]
  000000000000148A: 49 83 D2 00        adc         r10,0
  000000000000148E: 49 F7 E7           mul         rax,r15
  0000000000001491: 49 01 C4           add         r12,rax
  0000000000001494: 48 89 D8           mov         rax,rbx
  0000000000001497: 4C 89 5F F0        mov         qword ptr [rdi-10h],r11
  000000000000149B: 49 89 D5           mov         r13,rdx
  000000000000149E: 49 83 D5 00        adc         r13,0
  00000000000014A2: 49 F7 E6           mul         rax,r14
  00000000000014A5: 49 01 C2           add         r10,rax
  00000000000014A8: 48 89 D8           mov         rax,rbx
  00000000000014AB: 49 89 D3           mov         r11,rdx
  00000000000014AE: 49 83 D3 00        adc         r11,0
  00000000000014B2: 4D 01 E2           add         r10,r12
  00000000000014B5: 49 83 D3 00        adc         r11,0
  00000000000014B9: 4C 89 57 F8        mov         qword ptr [rdi-8],r10
  00000000000014BD: 49 F7 E7           mul         rax,r15
  00000000000014C0: 49 01 C5           add         r13,rax
  00000000000014C3: 48 8B 46 F0        mov         rax,qword ptr [rsi-10h]
  00000000000014C7: 48 83 D2 00        adc         rdx,0
  00000000000014CB: 4D 01 DD           add         r13,r11
  00000000000014CE: 48 83 D2 00        adc         rdx,0
  00000000000014D2: 4C 89 2F           mov         qword ptr [rdi],r13
  00000000000014D5: 49 89 D4           mov         r12,rdx
  00000000000014D8: 48 89 57 08        mov         qword ptr [rdi+8],rdx
  00000000000014DC: 48 F7 E3           mul         rax,rbx
  00000000000014DF: 48 83 C5 10        add         rbp,10h
  00000000000014E3: 4D 31 F6           xor         r14,r14
  00000000000014E6: 4C 29 CD           sub         rbp,r9
  00000000000014E9: 4D 31 FF           xor         r15,r15
  00000000000014EC: 4C 01 E0           add         rax,r12
  00000000000014EF: 48 83 D2 00        adc         rdx,0
  00000000000014F3: 48 89 47 08        mov         qword ptr [rdi+8],rax
  00000000000014F7: 48 89 57 10        mov         qword ptr [rdi+10h],rdx
  00000000000014FB: 4C 89 7F 18        mov         qword ptr [rdi+18h],r15
  00000000000014FF: 48 8B 44 2E F0     mov         rax,qword ptr [rsi+rbp-10h]
  0000000000001504: 48 8D 7C 24 38     lea         rdi,[rsp+38h]
  0000000000001509: 4D 31 D2           xor         r10,r10
  000000000000150C: 4C 8B 5F 08        mov         r11,qword ptr [rdi+8]
  0000000000001510: 4F 8D 24 56        lea         r12,[r14+r10*2]
  0000000000001514: 49 C1 EA 3F        shr         r10,3Fh
  0000000000001518: 4E 8D 2C 59        lea         r13,[rcx+r11*2]
  000000000000151C: 49 C1 EB 3F        shr         r11,3Fh
  0000000000001520: 4D 09 D5           or          r13,r10
  0000000000001523: 4C 8B 57 10        mov         r10,qword ptr [rdi+10h]
  0000000000001527: 4D 89 DE           mov         r14,r11
  000000000000152A: 48 F7 E0           mul         rax,rax
  000000000000152D: 49 F7 DF           neg         r15
  0000000000001530: 4C 8B 5F 18        mov         r11,qword ptr [rdi+18h]
  0000000000001534: 49 11 C4           adc         r12,rax
  0000000000001537: 48 8B 44 2E F8     mov         rax,qword ptr [rsi+rbp-8]
  000000000000153C: 4C 89 27           mov         qword ptr [rdi],r12
  000000000000153F: 49 11 D5           adc         r13,rdx
  0000000000001542: 4B 8D 1C 56        lea         rbx,[r14+r10*2]
  0000000000001546: 4C 89 6F 08        mov         qword ptr [rdi+8],r13
  000000000000154A: 4D 19 FF           sbb         r15,r15
  000000000000154D: 49 C1 EA 3F        shr         r10,3Fh
  0000000000001551: 4E 8D 04 59        lea         r8,[rcx+r11*2]
  0000000000001555: 49 C1 EB 3F        shr         r11,3Fh
  0000000000001559: 4D 09 D0           or          r8,r10
  000000000000155C: 4C 8B 57 20        mov         r10,qword ptr [rdi+20h]
  0000000000001560: 4D 89 DE           mov         r14,r11
  0000000000001563: 48 F7 E0           mul         rax,rax
  0000000000001566: 49 F7 DF           neg         r15
  0000000000001569: 4C 8B 5F 28        mov         r11,qword ptr [rdi+28h]
  000000000000156D: 48 11 C3           adc         rbx,rax
  0000000000001570: 48 8B 04 2E        mov         rax,qword ptr [rsi+rbp]
  0000000000001574: 48 89 5F 10        mov         qword ptr [rdi+10h],rbx
  0000000000001578: 49 11 D0           adc         r8,rdx
  000000000000157B: 48 8D 6D 10        lea         rbp,[rbp+10h]
  000000000000157F: 4C 89 47 18        mov         qword ptr [rdi+18h],r8
  0000000000001583: 4D 19 FF           sbb         r15,r15
  0000000000001586: 48 8D 7F 40        lea         rdi,[rdi+40h]
  000000000000158A: E9 11 00 00 00     jmp         L$sqr4x_shift_n_add
  000000000000158F: 90                 nop
  0000000000001590: 90                 nop
  0000000000001591: 90                 nop
  0000000000001592: 90                 nop
  0000000000001593: 90                 nop
  0000000000001594: 90                 nop
  0000000000001595: 90                 nop
  0000000000001596: 90                 nop
  0000000000001597: 90                 nop
  0000000000001598: 90                 nop
  0000000000001599: 90                 nop
  000000000000159A: 90                 nop
  000000000000159B: 90                 nop
  000000000000159C: 90                 nop
  000000000000159D: 90                 nop
  000000000000159E: 90                 nop
  000000000000159F: 90                 nop
L$sqr4x_shift_n_add:
  00000000000015A0: 4F 8D 24 56        lea         r12,[r14+r10*2]
  00000000000015A4: 49 C1 EA 3F        shr         r10,3Fh
  00000000000015A8: 4E 8D 2C 59        lea         r13,[rcx+r11*2]
  00000000000015AC: 49 C1 EB 3F        shr         r11,3Fh
  00000000000015B0: 4D 09 D5           or          r13,r10
  00000000000015B3: 4C 8B 57 F0        mov         r10,qword ptr [rdi-10h]
  00000000000015B7: 4D 89 DE           mov         r14,r11
  00000000000015BA: 48 F7 E0           mul         rax,rax
  00000000000015BD: 49 F7 DF           neg         r15
  00000000000015C0: 4C 8B 5F F8        mov         r11,qword ptr [rdi-8]
  00000000000015C4: 49 11 C4           adc         r12,rax
  00000000000015C7: 48 8B 44 2E F8     mov         rax,qword ptr [rsi+rbp-8]
  00000000000015CC: 4C 89 67 E0        mov         qword ptr [rdi-20h],r12
  00000000000015D0: 49 11 D5           adc         r13,rdx
  00000000000015D3: 4B 8D 1C 56        lea         rbx,[r14+r10*2]
  00000000000015D7: 4C 89 6F E8        mov         qword ptr [rdi-18h],r13
  00000000000015DB: 4D 19 FF           sbb         r15,r15
  00000000000015DE: 49 C1 EA 3F        shr         r10,3Fh
  00000000000015E2: 4E 8D 04 59        lea         r8,[rcx+r11*2]
  00000000000015E6: 49 C1 EB 3F        shr         r11,3Fh
  00000000000015EA: 4D 09 D0           or          r8,r10
  00000000000015ED: 4C 8B 17           mov         r10,qword ptr [rdi]
  00000000000015F0: 4D 89 DE           mov         r14,r11
  00000000000015F3: 48 F7 E0           mul         rax,rax
  00000000000015F6: 49 F7 DF           neg         r15
  00000000000015F9: 4C 8B 5F 08        mov         r11,qword ptr [rdi+8]
  00000000000015FD: 48 11 C3           adc         rbx,rax
  0000000000001600: 48 8B 04 2E        mov         rax,qword ptr [rsi+rbp]
  0000000000001604: 48 89 5F F0        mov         qword ptr [rdi-10h],rbx
  0000000000001608: 49 11 D0           adc         r8,rdx
  000000000000160B: 4F 8D 24 56        lea         r12,[r14+r10*2]
  000000000000160F: 4C 89 47 F8        mov         qword ptr [rdi-8],r8
  0000000000001613: 4D 19 FF           sbb         r15,r15
  0000000000001616: 49 C1 EA 3F        shr         r10,3Fh
  000000000000161A: 4E 8D 2C 59        lea         r13,[rcx+r11*2]
  000000000000161E: 49 C1 EB 3F        shr         r11,3Fh
  0000000000001622: 4D 09 D5           or          r13,r10
  0000000000001625: 4C 8B 57 10        mov         r10,qword ptr [rdi+10h]
  0000000000001629: 4D 89 DE           mov         r14,r11
  000000000000162C: 48 F7 E0           mul         rax,rax
  000000000000162F: 49 F7 DF           neg         r15
  0000000000001632: 4C 8B 5F 18        mov         r11,qword ptr [rdi+18h]
  0000000000001636: 49 11 C4           adc         r12,rax
  0000000000001639: 48 8B 44 2E 08     mov         rax,qword ptr [rsi+rbp+8]
  000000000000163E: 4C 89 27           mov         qword ptr [rdi],r12
  0000000000001641: 49 11 D5           adc         r13,rdx
  0000000000001644: 4B 8D 1C 56        lea         rbx,[r14+r10*2]
  0000000000001648: 4C 89 6F 08        mov         qword ptr [rdi+8],r13
  000000000000164C: 4D 19 FF           sbb         r15,r15
  000000000000164F: 49 C1 EA 3F        shr         r10,3Fh
  0000000000001653: 4E 8D 04 59        lea         r8,[rcx+r11*2]
  0000000000001657: 49 C1 EB 3F        shr         r11,3Fh
  000000000000165B: 4D 09 D0           or          r8,r10
  000000000000165E: 4C 8B 57 20        mov         r10,qword ptr [rdi+20h]
  0000000000001662: 4D 89 DE           mov         r14,r11
  0000000000001665: 48 F7 E0           mul         rax,rax
  0000000000001668: 49 F7 DF           neg         r15
  000000000000166B: 4C 8B 5F 28        mov         r11,qword ptr [rdi+28h]
  000000000000166F: 48 11 C3           adc         rbx,rax
  0000000000001672: 48 8B 44 2E 10     mov         rax,qword ptr [rsi+rbp+10h]
  0000000000001677: 48 89 5F 10        mov         qword ptr [rdi+10h],rbx
  000000000000167B: 49 11 D0           adc         r8,rdx
  000000000000167E: 4C 89 47 18        mov         qword ptr [rdi+18h],r8
  0000000000001682: 4D 19 FF           sbb         r15,r15
  0000000000001685: 48 8D 7F 40        lea         rdi,[rdi+40h]
  0000000000001689: 48 83 C5 20        add         rbp,20h
  000000000000168D: 0F 85 0D FF FF FF  jne         L$sqr4x_shift_n_add
  0000000000001693: 4F 8D 24 56        lea         r12,[r14+r10*2]
  0000000000001697: 67 49 C1 EA 3F     shr         r10,3Fh
  000000000000169C: 4E 8D 2C 59        lea         r13,[rcx+r11*2]
  00000000000016A0: 49 C1 EB 3F        shr         r11,3Fh
  00000000000016A4: 4D 09 D5           or          r13,r10
  00000000000016A7: 4C 8B 57 F0        mov         r10,qword ptr [rdi-10h]
  00000000000016AB: 4D 89 DE           mov         r14,r11
  00000000000016AE: 48 F7 E0           mul         rax,rax
  00000000000016B1: 49 F7 DF           neg         r15
  00000000000016B4: 4C 8B 5F F8        mov         r11,qword ptr [rdi-8]
  00000000000016B8: 49 11 C4           adc         r12,rax
  00000000000016BB: 48 8B 46 F8        mov         rax,qword ptr [rsi-8]
  00000000000016BF: 4C 89 67 E0        mov         qword ptr [rdi-20h],r12
  00000000000016C3: 49 11 D5           adc         r13,rdx
  00000000000016C6: 4B 8D 1C 56        lea         rbx,[r14+r10*2]
  00000000000016CA: 4C 89 6F E8        mov         qword ptr [rdi-18h],r13
  00000000000016CE: 4D 19 FF           sbb         r15,r15
  00000000000016D1: 49 C1 EA 3F        shr         r10,3Fh
  00000000000016D5: 4E 8D 04 59        lea         r8,[rcx+r11*2]
  00000000000016D9: 49 C1 EB 3F        shr         r11,3Fh
  00000000000016DD: 4D 09 D0           or          r8,r10
  00000000000016E0: 48 F7 E0           mul         rax,rax
  00000000000016E3: 49 F7 DF           neg         r15
  00000000000016E6: 48 11 C3           adc         rbx,rax
  00000000000016E9: 49 11 D0           adc         r8,rdx
  00000000000016EC: 48 89 5F F0        mov         qword ptr [rdi-10h],rbx
  00000000000016F0: 4C 89 47 F8        mov         qword ptr [rdi-8],r8
  00000000000016F4: 66 48 0F 7E D5     movq        rbp,xmm2
__bn_sqr8x_reduction:
  00000000000016F9: 48 31 C0           xor         rax,rax
  00000000000016FC: 49 8D 0C 29        lea         rcx,[r9+rbp]
  0000000000001700: 4A 8D 54 4C 38     lea         rdx,[rsp+r9*2+38h]
  0000000000001705: 48 89 4C 24 08     mov         qword ptr [rsp+8],rcx
  000000000000170A: 4A 8D 7C 0C 38     lea         rdi,[rsp+r9+38h]
  000000000000170F: 48 89 54 24 10     mov         qword ptr [rsp+10h],rdx
  0000000000001714: 49 F7 D9           neg         r9
  0000000000001717: E9 04 00 00 00     jmp         L$8x_reduction_loop
  000000000000171C: 90                 nop
  000000000000171D: 90                 nop
  000000000000171E: 90                 nop
  000000000000171F: 90                 nop
L$8x_reduction_loop:
  0000000000001720: 4A 8D 3C 0F        lea         rdi,[rdi+r9]
  0000000000001724: 66 48 8B 1F        mov         rbx,qword ptr [rdi]
  0000000000001728: 4C 8B 4F 08        mov         r9,qword ptr [rdi+8]
  000000000000172C: 4C 8B 57 10        mov         r10,qword ptr [rdi+10h]
  0000000000001730: 4C 8B 5F 18        mov         r11,qword ptr [rdi+18h]
  0000000000001734: 4C 8B 67 20        mov         r12,qword ptr [rdi+20h]
  0000000000001738: 4C 8B 6F 28        mov         r13,qword ptr [rdi+28h]
  000000000000173C: 4C 8B 77 30        mov         r14,qword ptr [rdi+30h]
  0000000000001740: 4C 8B 7F 38        mov         r15,qword ptr [rdi+38h]
  0000000000001744: 48 89 02           mov         qword ptr [rdx],rax
  0000000000001747: 48 8D 7F 40        lea         rdi,[rdi+40h]
  000000000000174B: 67 49 89 D8        mov         r8,rbx
  000000000000174F: 48 0F AF 5C 24 28  imul        rbx,qword ptr [rsp+28h]
  0000000000001755: 48 8B 45 00        mov         rax,qword ptr [rbp]
  0000000000001759: B9 08 00 00 00     mov         ecx,8
  000000000000175E: E9 1D 00 00 00     jmp         L$8x_reduce
  0000000000001763: 90                 nop
  0000000000001764: 90                 nop
  0000000000001765: 90                 nop
  0000000000001766: 90                 nop
  0000000000001767: 90                 nop
  0000000000001768: 90                 nop
  0000000000001769: 90                 nop
  000000000000176A: 90                 nop
  000000000000176B: 90                 nop
  000000000000176C: 90                 nop
  000000000000176D: 90                 nop
  000000000000176E: 90                 nop
  000000000000176F: 90                 nop
  0000000000001770: 90                 nop
  0000000000001771: 90                 nop
  0000000000001772: 90                 nop
  0000000000001773: 90                 nop
  0000000000001774: 90                 nop
  0000000000001775: 90                 nop
  0000000000001776: 90                 nop
  0000000000001777: 90                 nop
  0000000000001778: 90                 nop
  0000000000001779: 90                 nop
  000000000000177A: 90                 nop
  000000000000177B: 90                 nop
  000000000000177C: 90                 nop
  000000000000177D: 90                 nop
  000000000000177E: 90                 nop
  000000000000177F: 90                 nop
L$8x_reduce:
  0000000000001780: 48 F7 E3           mul         rax,rbx
  0000000000001783: 48 8B 45 08        mov         rax,qword ptr [rbp+8]
  0000000000001787: 49 F7 D8           neg         r8
  000000000000178A: 49 89 D0           mov         r8,rdx
  000000000000178D: 49 83 D0 00        adc         r8,0
  0000000000001791: 48 F7 E3           mul         rax,rbx
  0000000000001794: 49 01 C1           add         r9,rax
  0000000000001797: 48 8B 45 10        mov         rax,qword ptr [rbp+10h]
  000000000000179B: 48 83 D2 00        adc         rdx,0
  000000000000179F: 4D 01 C8           add         r8,r9
  00000000000017A2: 48 89 5C CC 30     mov         qword ptr [rsp+rcx*8+30h],rbx
  00000000000017A7: 49 89 D1           mov         r9,rdx
  00000000000017AA: 49 83 D1 00        adc         r9,0
  00000000000017AE: 48 F7 E3           mul         rax,rbx
  00000000000017B1: 49 01 C2           add         r10,rax
  00000000000017B4: 48 8B 45 18        mov         rax,qword ptr [rbp+18h]
  00000000000017B8: 48 83 D2 00        adc         rdx,0
  00000000000017BC: 4D 01 D1           add         r9,r10
  00000000000017BF: 48 8B 74 24 28     mov         rsi,qword ptr [rsp+28h]
  00000000000017C4: 49 89 D2           mov         r10,rdx
  00000000000017C7: 49 83 D2 00        adc         r10,0
  00000000000017CB: 48 F7 E3           mul         rax,rbx
  00000000000017CE: 49 01 C3           add         r11,rax
  00000000000017D1: 48 8B 45 20        mov         rax,qword ptr [rbp+20h]
  00000000000017D5: 48 83 D2 00        adc         rdx,0
  00000000000017D9: 49 0F AF F0        imul        rsi,r8
  00000000000017DD: 4D 01 DA           add         r10,r11
  00000000000017E0: 49 89 D3           mov         r11,rdx
  00000000000017E3: 49 83 D3 00        adc         r11,0
  00000000000017E7: 48 F7 E3           mul         rax,rbx
  00000000000017EA: 49 01 C4           add         r12,rax
  00000000000017ED: 48 8B 45 28        mov         rax,qword ptr [rbp+28h]
  00000000000017F1: 48 83 D2 00        adc         rdx,0
  00000000000017F5: 4D 01 E3           add         r11,r12
  00000000000017F8: 49 89 D4           mov         r12,rdx
  00000000000017FB: 49 83 D4 00        adc         r12,0
  00000000000017FF: 48 F7 E3           mul         rax,rbx
  0000000000001802: 49 01 C5           add         r13,rax
  0000000000001805: 48 8B 45 30        mov         rax,qword ptr [rbp+30h]
  0000000000001809: 48 83 D2 00        adc         rdx,0
  000000000000180D: 4D 01 EC           add         r12,r13
  0000000000001810: 49 89 D5           mov         r13,rdx
  0000000000001813: 49 83 D5 00        adc         r13,0
  0000000000001817: 48 F7 E3           mul         rax,rbx
  000000000000181A: 49 01 C6           add         r14,rax
  000000000000181D: 48 8B 45 38        mov         rax,qword ptr [rbp+38h]
  0000000000001821: 48 83 D2 00        adc         rdx,0
  0000000000001825: 4D 01 F5           add         r13,r14
  0000000000001828: 49 89 D6           mov         r14,rdx
  000000000000182B: 49 83 D6 00        adc         r14,0
  000000000000182F: 48 F7 E3           mul         rax,rbx
  0000000000001832: 48 89 F3           mov         rbx,rsi
  0000000000001835: 49 01 C7           add         r15,rax
  0000000000001838: 48 8B 45 00        mov         rax,qword ptr [rbp]
  000000000000183C: 48 83 D2 00        adc         rdx,0
  0000000000001840: 4D 01 FE           add         r14,r15
  0000000000001843: 49 89 D7           mov         r15,rdx
  0000000000001846: 49 83 D7 00        adc         r15,0
  000000000000184A: FF C9              dec         ecx
  000000000000184C: 0F 85 2E FF FF FF  jne         L$8x_reduce
  0000000000001852: 48 8D 6D 40        lea         rbp,[rbp+40h]
  0000000000001856: 48 31 C0           xor         rax,rax
  0000000000001859: 48 8B 54 24 10     mov         rdx,qword ptr [rsp+10h]
  000000000000185E: 48 3B 6C 24 08     cmp         rbp,qword ptr [rsp+8]
  0000000000001863: 0F 83 80 01 00 00  jae         L$8x_no_tail
  0000000000001869: 66 4C 03 07        add         r8,qword ptr [rdi]
  000000000000186D: 4C 13 4F 08        adc         r9,qword ptr [rdi+8]
  0000000000001871: 4C 13 57 10        adc         r10,qword ptr [rdi+10h]
  0000000000001875: 4C 13 5F 18        adc         r11,qword ptr [rdi+18h]
  0000000000001879: 4C 13 67 20        adc         r12,qword ptr [rdi+20h]
  000000000000187D: 4C 13 6F 28        adc         r13,qword ptr [rdi+28h]
  0000000000001881: 4C 13 77 30        adc         r14,qword ptr [rdi+30h]
  0000000000001885: 4C 13 7F 38        adc         r15,qword ptr [rdi+38h]
  0000000000001889: 48 19 F6           sbb         rsi,rsi
  000000000000188C: 48 8B 5C 24 70     mov         rbx,qword ptr [rsp+70h]
  0000000000001891: B9 08 00 00 00     mov         ecx,8
  0000000000001896: 48 8B 45 00        mov         rax,qword ptr [rbp]
  000000000000189A: E9 01 00 00 00     jmp         L$8x_tail
  000000000000189F: 90                 nop
L$8x_tail:
  00000000000018A0: 48 F7 E3           mul         rax,rbx
  00000000000018A3: 49 01 C0           add         r8,rax
  00000000000018A6: 48 8B 45 08        mov         rax,qword ptr [rbp+8]
  00000000000018AA: 4C 89 07           mov         qword ptr [rdi],r8
  00000000000018AD: 49 89 D0           mov         r8,rdx
  00000000000018B0: 49 83 D0 00        adc         r8,0
  00000000000018B4: 48 F7 E3           mul         rax,rbx
  00000000000018B7: 49 01 C1           add         r9,rax
  00000000000018BA: 48 8B 45 10        mov         rax,qword ptr [rbp+10h]
  00000000000018BE: 48 83 D2 00        adc         rdx,0
  00000000000018C2: 4D 01 C8           add         r8,r9
  00000000000018C5: 48 8D 7F 08        lea         rdi,[rdi+8]
  00000000000018C9: 49 89 D1           mov         r9,rdx
  00000000000018CC: 49 83 D1 00        adc         r9,0
  00000000000018D0: 48 F7 E3           mul         rax,rbx
  00000000000018D3: 49 01 C2           add         r10,rax
  00000000000018D6: 48 8B 45 18        mov         rax,qword ptr [rbp+18h]
  00000000000018DA: 48 83 D2 00        adc         rdx,0
  00000000000018DE: 4D 01 D1           add         r9,r10
  00000000000018E1: 49 89 D2           mov         r10,rdx
  00000000000018E4: 49 83 D2 00        adc         r10,0
  00000000000018E8: 48 F7 E3           mul         rax,rbx
  00000000000018EB: 49 01 C3           add         r11,rax
  00000000000018EE: 48 8B 45 20        mov         rax,qword ptr [rbp+20h]
  00000000000018F2: 48 83 D2 00        adc         rdx,0
  00000000000018F6: 4D 01 DA           add         r10,r11
  00000000000018F9: 49 89 D3           mov         r11,rdx
  00000000000018FC: 49 83 D3 00        adc         r11,0
  0000000000001900: 48 F7 E3           mul         rax,rbx
  0000000000001903: 49 01 C4           add         r12,rax
  0000000000001906: 48 8B 45 28        mov         rax,qword ptr [rbp+28h]
  000000000000190A: 48 83 D2 00        adc         rdx,0
  000000000000190E: 4D 01 E3           add         r11,r12
  0000000000001911: 49 89 D4           mov         r12,rdx
  0000000000001914: 49 83 D4 00        adc         r12,0
  0000000000001918: 48 F7 E3           mul         rax,rbx
  000000000000191B: 49 01 C5           add         r13,rax
  000000000000191E: 48 8B 45 30        mov         rax,qword ptr [rbp+30h]
  0000000000001922: 48 83 D2 00        adc         rdx,0
  0000000000001926: 4D 01 EC           add         r12,r13
  0000000000001929: 49 89 D5           mov         r13,rdx
  000000000000192C: 49 83 D5 00        adc         r13,0
  0000000000001930: 48 F7 E3           mul         rax,rbx
  0000000000001933: 49 01 C6           add         r14,rax
  0000000000001936: 48 8B 45 38        mov         rax,qword ptr [rbp+38h]
  000000000000193A: 48 83 D2 00        adc         rdx,0
  000000000000193E: 4D 01 F5           add         r13,r14
  0000000000001941: 49 89 D6           mov         r14,rdx
  0000000000001944: 49 83 D6 00        adc         r14,0
  0000000000001948: 48 F7 E3           mul         rax,rbx
  000000000000194B: 48 8B 5C CC 28     mov         rbx,qword ptr [rsp+rcx*8+28h]
  0000000000001950: 49 01 C7           add         r15,rax
  0000000000001953: 48 83 D2 00        adc         rdx,0
  0000000000001957: 4D 01 FE           add         r14,r15
  000000000000195A: 48 8B 45 00        mov         rax,qword ptr [rbp]
  000000000000195E: 49 89 D7           mov         r15,rdx
  0000000000001961: 49 83 D7 00        adc         r15,0
  0000000000001965: FF C9              dec         ecx
  0000000000001967: 0F 85 33 FF FF FF  jne         L$8x_tail
  000000000000196D: 48 8D 6D 40        lea         rbp,[rbp+40h]
  0000000000001971: 48 8B 54 24 10     mov         rdx,qword ptr [rsp+10h]
  0000000000001976: 48 3B 6C 24 08     cmp         rbp,qword ptr [rsp+8]
  000000000000197B: 0F 83 3F 00 00 00  jae         L$8x_tail_done
  0000000000001981: 48 8B 5C 24 70     mov         rbx,qword ptr [rsp+70h]
  0000000000001986: 48 F7 DE           neg         rsi
  0000000000001989: 48 8B 45 00        mov         rax,qword ptr [rbp]
  000000000000198D: 4C 13 07           adc         r8,qword ptr [rdi]
  0000000000001990: 4C 13 4F 08        adc         r9,qword ptr [rdi+8]
  0000000000001994: 4C 13 57 10        adc         r10,qword ptr [rdi+10h]
  0000000000001998: 4C 13 5F 18        adc         r11,qword ptr [rdi+18h]
  000000000000199C: 4C 13 67 20        adc         r12,qword ptr [rdi+20h]
  00000000000019A0: 4C 13 6F 28        adc         r13,qword ptr [rdi+28h]
  00000000000019A4: 4C 13 77 30        adc         r14,qword ptr [rdi+30h]
  00000000000019A8: 4C 13 7F 38        adc         r15,qword ptr [rdi+38h]
  00000000000019AC: 48 19 F6           sbb         rsi,rsi
  00000000000019AF: B9 08 00 00 00     mov         ecx,8
  00000000000019B4: E9 E7 FE FF FF     jmp         L$8x_tail
  00000000000019B9: 90                 nop
  00000000000019BA: 90                 nop
  00000000000019BB: 90                 nop
  00000000000019BC: 90                 nop
  00000000000019BD: 90                 nop
  00000000000019BE: 90                 nop
  00000000000019BF: 90                 nop
L$8x_tail_done:
  00000000000019C0: 48 31 C0           xor         rax,rax
  00000000000019C3: 4C 03 02           add         r8,qword ptr [rdx]
  00000000000019C6: 49 83 D1 00        adc         r9,0
  00000000000019CA: 49 83 D2 00        adc         r10,0
  00000000000019CE: 49 83 D3 00        adc         r11,0
  00000000000019D2: 49 83 D4 00        adc         r12,0
  00000000000019D6: 49 83 D5 00        adc         r13,0
  00000000000019DA: 49 83 D6 00        adc         r14,0
  00000000000019DE: 49 83 D7 00        adc         r15,0
  00000000000019E2: 48 83 D0 00        adc         rax,0
  00000000000019E6: 48 F7 DE           neg         rsi
L$8x_no_tail:
  00000000000019E9: 4C 13 07           adc         r8,qword ptr [rdi]
  00000000000019EC: 4C 13 4F 08        adc         r9,qword ptr [rdi+8]
  00000000000019F0: 4C 13 57 10        adc         r10,qword ptr [rdi+10h]
  00000000000019F4: 4C 13 5F 18        adc         r11,qword ptr [rdi+18h]
  00000000000019F8: 4C 13 67 20        adc         r12,qword ptr [rdi+20h]
  00000000000019FC: 4C 13 6F 28        adc         r13,qword ptr [rdi+28h]
  0000000000001A00: 4C 13 77 30        adc         r14,qword ptr [rdi+30h]
  0000000000001A04: 4C 13 7F 38        adc         r15,qword ptr [rdi+38h]
  0000000000001A08: 48 83 D0 00        adc         rax,0
  0000000000001A0C: 48 8B 4D F8        mov         rcx,qword ptr [rbp-8]
  0000000000001A10: 48 31 F6           xor         rsi,rsi
  0000000000001A13: 66 48 0F 7E D5     movq        rbp,xmm2
  0000000000001A18: 4C 89 07           mov         qword ptr [rdi],r8
  0000000000001A1B: 4C 89 4F 08        mov         qword ptr [rdi+8],r9
  0000000000001A1F: 66 49 0F 7E D9     movq        r9,xmm3
  0000000000001A24: 4C 89 57 10        mov         qword ptr [rdi+10h],r10
  0000000000001A28: 4C 89 5F 18        mov         qword ptr [rdi+18h],r11
  0000000000001A2C: 4C 89 67 20        mov         qword ptr [rdi+20h],r12
  0000000000001A30: 4C 89 6F 28        mov         qword ptr [rdi+28h],r13
  0000000000001A34: 4C 89 77 30        mov         qword ptr [rdi+30h],r14
  0000000000001A38: 4C 89 7F 38        mov         qword ptr [rdi+38h],r15
  0000000000001A3C: 48 8D 7F 40        lea         rdi,[rdi+40h]
  0000000000001A40: 48 39 D7           cmp         rdi,rdx
  0000000000001A43: 0F 82 D7 FC FF FF  jb          L$8x_reduction_loop
  0000000000001A49: F3 C3              rep ret
  0000000000001A4B: 90                 nop
  0000000000001A4C: 90                 nop
  0000000000001A4D: 90                 nop
  0000000000001A4E: 90                 nop
  0000000000001A4F: 90                 nop
  0000000000001A50: 90                 nop
  0000000000001A51: 90                 nop
  0000000000001A52: 90                 nop
  0000000000001A53: 90                 nop
  0000000000001A54: 90                 nop
  0000000000001A55: 90                 nop
  0000000000001A56: 90                 nop
  0000000000001A57: 90                 nop
  0000000000001A58: 90                 nop
  0000000000001A59: 90                 nop
  0000000000001A5A: 90                 nop
  0000000000001A5B: 90                 nop
  0000000000001A5C: 90                 nop
  0000000000001A5D: 90                 nop
  0000000000001A5E: 90                 nop
  0000000000001A5F: 90                 nop
__bn_post4x_internal:
  0000000000001A60: 4C 8B 65 00        mov         r12,qword ptr [rbp]
  0000000000001A64: 4A 8D 1C 0F        lea         rbx,[rdi+r9]
  0000000000001A68: 4C 89 C9           mov         rcx,r9
  0000000000001A6B: 66 48 0F 7E CF     movq        rdi,xmm1
  0000000000001A70: 48 F7 D8           neg         rax
  0000000000001A73: 66 48 0F 7E CE     movq        rsi,xmm1
  0000000000001A78: 48 C1 F9 05        sar         rcx,5
  0000000000001A7C: 49 FF CC           dec         r12
  0000000000001A7F: 4D 31 D2           xor         r10,r10
  0000000000001A82: 4C 8B 6D 08        mov         r13,qword ptr [rbp+8]
  0000000000001A86: 4C 8B 75 10        mov         r14,qword ptr [rbp+10h]
  0000000000001A8A: 4C 8B 7D 18        mov         r15,qword ptr [rbp+18h]
  0000000000001A8E: E9 1D 00 00 00     jmp         L$sqr4x_sub_entry
  0000000000001A93: 90                 nop
  0000000000001A94: 90                 nop
  0000000000001A95: 90                 nop
  0000000000001A96: 90                 nop
  0000000000001A97: 90                 nop
  0000000000001A98: 90                 nop
  0000000000001A99: 90                 nop
  0000000000001A9A: 90                 nop
  0000000000001A9B: 90                 nop
  0000000000001A9C: 90                 nop
  0000000000001A9D: 90                 nop
  0000000000001A9E: 90                 nop
  0000000000001A9F: 90                 nop
L$sqr4x_sub:
  0000000000001AA0: 4C 8B 65 00        mov         r12,qword ptr [rbp]
  0000000000001AA4: 4C 8B 6D 08        mov         r13,qword ptr [rbp+8]
  0000000000001AA8: 4C 8B 75 10        mov         r14,qword ptr [rbp+10h]
  0000000000001AAC: 4C 8B 7D 18        mov         r15,qword ptr [rbp+18h]
L$sqr4x_sub_entry:
  0000000000001AB0: 48 8D 6D 20        lea         rbp,[rbp+20h]
  0000000000001AB4: 49 F7 D4           not         r12
  0000000000001AB7: 49 F7 D5           not         r13
  0000000000001ABA: 49 F7 D6           not         r14
  0000000000001ABD: 49 F7 D7           not         r15
  0000000000001AC0: 49 21 C4           and         r12,rax
  0000000000001AC3: 49 21 C5           and         r13,rax
  0000000000001AC6: 49 21 C6           and         r14,rax
  0000000000001AC9: 49 21 C7           and         r15,rax
  0000000000001ACC: 49 F7 DA           neg         r10
  0000000000001ACF: 4C 13 23           adc         r12,qword ptr [rbx]
  0000000000001AD2: 4C 13 6B 08        adc         r13,qword ptr [rbx+8]
  0000000000001AD6: 4C 13 73 10        adc         r14,qword ptr [rbx+10h]
  0000000000001ADA: 4C 13 7B 18        adc         r15,qword ptr [rbx+18h]
  0000000000001ADE: 4C 89 27           mov         qword ptr [rdi],r12
  0000000000001AE1: 48 8D 5B 20        lea         rbx,[rbx+20h]
  0000000000001AE5: 4C 89 6F 08        mov         qword ptr [rdi+8],r13
  0000000000001AE9: 4D 19 D2           sbb         r10,r10
  0000000000001AEC: 4C 89 77 10        mov         qword ptr [rdi+10h],r14
  0000000000001AF0: 4C 89 7F 18        mov         qword ptr [rdi+18h],r15
  0000000000001AF4: 48 8D 7F 20        lea         rdi,[rdi+20h]
  0000000000001AF8: 48 FF C1           inc         rcx
  0000000000001AFB: 0F 85 9F FF FF FF  jne         L$sqr4x_sub
  0000000000001B01: 4D 89 CA           mov         r10,r9
  0000000000001B04: 49 F7 D9           neg         r9
  0000000000001B07: F3 C3              rep ret
  0000000000001B09: 90                 nop
  0000000000001B0A: 90                 nop
  0000000000001B0B: 90                 nop
  0000000000001B0C: 90                 nop
  0000000000001B0D: 90                 nop
  0000000000001B0E: 90                 nop
  0000000000001B0F: 90                 nop
  0000000000001B10: 90                 nop
  0000000000001B11: 90                 nop
  0000000000001B12: 90                 nop
  0000000000001B13: 90                 nop
  0000000000001B14: 90                 nop
  0000000000001B15: 90                 nop
  0000000000001B16: 90                 nop
  0000000000001B17: 90                 nop
  0000000000001B18: 90                 nop
  0000000000001B19: 90                 nop
  0000000000001B1A: 90                 nop
  0000000000001B1B: 90                 nop
  0000000000001B1C: 90                 nop
  0000000000001B1D: 90                 nop
  0000000000001B1E: 90                 nop
  0000000000001B1F: 90                 nop
bn_mulx4x_mont_gather5:
  0000000000001B20: 48 89 7C 24 08     mov         qword ptr [rsp+8],rdi
  0000000000001B25: 48 89 74 24 10     mov         qword ptr [rsp+10h],rsi
  0000000000001B2A: 48 89 E0           mov         rax,rsp
L$SEH_begin_bn_mulx4x_mont_gather5:
  0000000000001B2D: 48 89 CF           mov         rdi,rcx
  0000000000001B30: 48 89 D6           mov         rsi,rdx
  0000000000001B33: 4C 89 C2           mov         rdx,r8
  0000000000001B36: 4C 89 C9           mov         rcx,r9
  0000000000001B39: 4C 8B 44 24 28     mov         r8,qword ptr [rsp+28h]
  0000000000001B3E: 4C 8B 4C 24 30     mov         r9,qword ptr [rsp+30h]
  0000000000001B43: 48 89 E0           mov         rax,rsp
L$mulx4x_enter:
  0000000000001B46: 53                 push        rbx
  0000000000001B47: 55                 push        rbp
  0000000000001B48: 41 54              push        r12
  0000000000001B4A: 41 55              push        r13
  0000000000001B4C: 41 56              push        r14
  0000000000001B4E: 41 57              push        r15
L$mulx4x_prologue:
  0000000000001B50: 41 C1 E1 03        shl         r9d,3
  0000000000001B54: 4F 8D 14 49        lea         r10,[r9+r9*2]
  0000000000001B58: 49 F7 D9           neg         r9
  0000000000001B5B: 4D 8B 00           mov         r8,qword ptr [r8]
  0000000000001B5E: 4E 8D 9C 4C C0 FE  lea         r11,[rsp+r9*2-140h]
                    FF FF
  0000000000001B66: 48 89 E5           mov         rbp,rsp
  0000000000001B69: 49 29 FB           sub         r11,rdi
  0000000000001B6C: 49 81 E3 FF 0F 00  and         r11,0FFFh
                    00
  0000000000001B73: 4D 39 DA           cmp         r10,r11
  0000000000001B76: 0F 82 10 00 00 00  jb          L$mulx4xsp_alt
  0000000000001B7C: 4C 29 DD           sub         rbp,r11
  0000000000001B7F: 4A 8D AC 4D C0 FE  lea         rbp,[rbp+r9*2-140h]
                    FF FF
  0000000000001B87: E9 20 00 00 00     jmp         L$mulx4xsp_done
L$mulx4xsp_alt:
  0000000000001B8C: 4F 8D 94 09 C0 0E  lea         r10,[r9+r9+0EC0h]
                    00 00
  0000000000001B94: 4A 8D AC 4D C0 FE  lea         rbp,[rbp+r9*2-140h]
                    FF FF
  0000000000001B9C: 4D 29 D3           sub         r11,r10
  0000000000001B9F: 41 BA 00 00 00 00  mov         r10d,0
  0000000000001BA5: 4D 0F 42 DA        cmovb       r11,r10
  0000000000001BA9: 4C 29 DD           sub         rbp,r11
L$mulx4xsp_done:
  0000000000001BAC: 48 83 E5 C0        and         rbp,0FFFFFFFFFFFFFFC0h
  0000000000001BB0: 49 89 E3           mov         r11,rsp
  0000000000001BB3: 49 29 EB           sub         r11,rbp
  0000000000001BB6: 49 81 E3 00 F0 FF  and         r11,0FFFFFFFFFFFFF000h
                    FF
  0000000000001BBD: 49 8D 24 2B        lea         rsp,[r11+rbp]
  0000000000001BC1: 4C 8B 14 24        mov         r10,qword ptr [rsp]
  0000000000001BC5: 48 39 EC           cmp         rsp,rbp
  0000000000001BC8: 0F 87 05 00 00 00  ja          L$mulx4x_page_walk
  0000000000001BCE: E9 15 00 00 00     jmp         L$mulx4x_page_walk_done
L$mulx4x_page_walk:
  0000000000001BD3: 48 8D A4 24 00 F0  lea         rsp,[rsp-1000h]
                    FF FF
  0000000000001BDB: 4C 8B 14 24        mov         r10,qword ptr [rsp]
  0000000000001BDF: 48 39 EC           cmp         rsp,rbp
  0000000000001BE2: 0F 87 EB FF FF FF  ja          L$mulx4x_page_walk
L$mulx4x_page_walk_done:
  0000000000001BE8: 4C 89 44 24 20     mov         qword ptr [rsp+20h],r8
  0000000000001BED: 48 89 44 24 28     mov         qword ptr [rsp+28h],rax
L$mulx4x_body:
  0000000000001BF2: E8 49 00 00 00     call        mulx4x_internal
  0000000000001BF7: 48 8B 74 24 28     mov         rsi,qword ptr [rsp+28h]
  0000000000001BFC: B8 01 00 00 00     mov         eax,1
  0000000000001C01: 4C 8B 7E D0        mov         r15,qword ptr [rsi-30h]
  0000000000001C05: 4C 8B 76 D8        mov         r14,qword ptr [rsi-28h]
  0000000000001C09: 4C 8B 6E E0        mov         r13,qword ptr [rsi-20h]
  0000000000001C0D: 4C 8B 66 E8        mov         r12,qword ptr [rsi-18h]
  0000000000001C11: 48 8B 6E F0        mov         rbp,qword ptr [rsi-10h]
  0000000000001C15: 48 8B 5E F8        mov         rbx,qword ptr [rsi-8]
  0000000000001C19: 48 8D 26           lea         rsp,[rsi]
L$mulx4x_epilogue:
  0000000000001C1C: 48 8B 7C 24 08     mov         rdi,qword ptr [rsp+8]
  0000000000001C21: 48 8B 74 24 10     mov         rsi,qword ptr [rsp+10h]
  0000000000001C26: F3 C3              rep ret
L$SEH_end_bn_mulx4x_mont_gather5:
  0000000000001C28: 90                 nop
  0000000000001C29: 90                 nop
  0000000000001C2A: 90                 nop
  0000000000001C2B: 90                 nop
  0000000000001C2C: 90                 nop
  0000000000001C2D: 90                 nop
  0000000000001C2E: 90                 nop
  0000000000001C2F: 90                 nop
  0000000000001C30: 90                 nop
  0000000000001C31: 90                 nop
  0000000000001C32: 90                 nop
  0000000000001C33: 90                 nop
  0000000000001C34: 90                 nop
  0000000000001C35: 90                 nop
  0000000000001C36: 90                 nop
  0000000000001C37: 90                 nop
  0000000000001C38: 90                 nop
  0000000000001C39: 90                 nop
  0000000000001C3A: 90                 nop
  0000000000001C3B: 90                 nop
  0000000000001C3C: 90                 nop
  0000000000001C3D: 90                 nop
  0000000000001C3E: 90                 nop
  0000000000001C3F: 90                 nop
mulx4x_internal:
  0000000000001C40: 4C 89 4C 24 08     mov         qword ptr [rsp+8],r9
  0000000000001C45: 4D 89 CA           mov         r10,r9
  0000000000001C48: 49 F7 D9           neg         r9
  0000000000001C4B: 49 C1 E1 05        shl         r9,5
  0000000000001C4F: 49 F7 DA           neg         r10
  0000000000001C52: 4E 8D AC 0A 80 00  lea         r13,[rdx+r9+80h]
                    00 00
  0000000000001C5A: 49 C1 E9 0A        shr         r9,0Ah
  0000000000001C5E: 66 0F 6E 68 38     movd        xmm5,dword ptr [rax+38h]
  0000000000001C63: 49 83 E9 01        sub         r9,1
  0000000000001C67: 48 8D 05 00 00 00  lea         rax,[.rdata]
                    00
  0000000000001C6E: 4C 89 6C 24 18     mov         qword ptr [rsp+18h],r13
  0000000000001C73: 4C 89 4C 24 20     mov         qword ptr [rsp+20h],r9
  0000000000001C78: 48 89 7C 24 40     mov         qword ptr [rsp+40h],rdi
  0000000000001C7D: 66 0F 6F 00        movdqa      xmm0,xmmword ptr [rax]
  0000000000001C81: 66 0F 6F 48 10     movdqa      xmm1,xmmword ptr [rax+10h]
  0000000000001C86: 4E 8D 54 14 E8     lea         r10,[rsp+r10-18h]
  0000000000001C8B: 48 8D BA 80 00 00  lea         rdi,[rdx+80h]
                    00
  0000000000001C92: 66 0F 70 ED 00     pshufd      xmm5,xmm5,0
  0000000000001C97: 66 0F 6F E1        movdqa      xmm4,xmm1
  0000000000001C9B: 67 66 0F 6F D1     movdqa      xmm2,xmm1
  0000000000001CA0: 67 66 0F FE C8     paddd       xmm1,xmm0
  0000000000001CA5: 66 0F 76 C5        pcmpeqd     xmm0,xmm5
  0000000000001CA9: 66 0F 6F DC        movdqa      xmm3,xmm4
  0000000000001CAD: 66 0F FE D1        paddd       xmm2,xmm1
  0000000000001CB1: 66 0F 76 CD        pcmpeqd     xmm1,xmm5
  0000000000001CB5: 66 41 0F 7F 42 70  movdqa      xmmword ptr [r10+70h],xmm0
  0000000000001CBB: 66 0F 6F C4        movdqa      xmm0,xmm4
  0000000000001CBF: 66 0F FE DA        paddd       xmm3,xmm2
  0000000000001CC3: 66 0F 76 D5        pcmpeqd     xmm2,xmm5
  0000000000001CC7: 66 41 0F 7F 8A 80  movdqa      xmmword ptr [r10+80h],xmm1
                    00 00 00
  0000000000001CD0: 66 0F 6F CC        movdqa      xmm1,xmm4
  0000000000001CD4: 66 0F FE C3        paddd       xmm0,xmm3
  0000000000001CD8: 66 0F 76 DD        pcmpeqd     xmm3,xmm5
  0000000000001CDC: 66 41 0F 7F 92 90  movdqa      xmmword ptr [r10+90h],xmm2
                    00 00 00
  0000000000001CE5: 66 0F 6F D4        movdqa      xmm2,xmm4
  0000000000001CE9: 66 0F FE C8        paddd       xmm1,xmm0
  0000000000001CED: 66 0F 76 C5        pcmpeqd     xmm0,xmm5
  0000000000001CF1: 66 41 0F 7F 9A A0  movdqa      xmmword ptr [r10+0A0h],xmm3
                    00 00 00
  0000000000001CFA: 66 0F 6F DC        movdqa      xmm3,xmm4
  0000000000001CFE: 66 0F FE D1        paddd       xmm2,xmm1
  0000000000001D02: 66 0F 76 CD        pcmpeqd     xmm1,xmm5
  0000000000001D06: 66 41 0F 7F 82 B0  movdqa      xmmword ptr [r10+0B0h],xmm0
                    00 00 00
  0000000000001D0F: 66 0F 6F C4        movdqa      xmm0,xmm4
  0000000000001D13: 66 0F FE DA        paddd       xmm3,xmm2
  0000000000001D17: 66 0F 76 D5        pcmpeqd     xmm2,xmm5
  0000000000001D1B: 66 41 0F 7F 8A C0  movdqa      xmmword ptr [r10+0C0h],xmm1
                    00 00 00
  0000000000001D24: 66 0F 6F CC        movdqa      xmm1,xmm4
  0000000000001D28: 66 0F FE C3        paddd       xmm0,xmm3
  0000000000001D2C: 66 0F 76 DD        pcmpeqd     xmm3,xmm5
  0000000000001D30: 66 41 0F 7F 92 D0  movdqa      xmmword ptr [r10+0D0h],xmm2
                    00 00 00
  0000000000001D39: 66 0F 6F D4        movdqa      xmm2,xmm4
  0000000000001D3D: 66 0F FE C8        paddd       xmm1,xmm0
  0000000000001D41: 66 0F 76 C5        pcmpeqd     xmm0,xmm5
  0000000000001D45: 66 41 0F 7F 9A E0  movdqa      xmmword ptr [r10+0E0h],xmm3
                    00 00 00
  0000000000001D4E: 66 0F 6F DC        movdqa      xmm3,xmm4
  0000000000001D52: 66 0F FE D1        paddd       xmm2,xmm1
  0000000000001D56: 66 0F 76 CD        pcmpeqd     xmm1,xmm5
  0000000000001D5A: 66 41 0F 7F 82 F0  movdqa      xmmword ptr [r10+0F0h],xmm0
                    00 00 00
  0000000000001D63: 66 0F 6F C4        movdqa      xmm0,xmm4
  0000000000001D67: 66 0F FE DA        paddd       xmm3,xmm2
  0000000000001D6B: 66 0F 76 D5        pcmpeqd     xmm2,xmm5
  0000000000001D6F: 66 41 0F 7F 8A 00  movdqa      xmmword ptr [r10+100h],xmm1
                    01 00 00
  0000000000001D78: 66 0F 6F CC        movdqa      xmm1,xmm4
  0000000000001D7C: 66 0F FE C3        paddd       xmm0,xmm3
  0000000000001D80: 66 0F 76 DD        pcmpeqd     xmm3,xmm5
  0000000000001D84: 66 41 0F 7F 92 10  movdqa      xmmword ptr [r10+110h],xmm2
                    01 00 00
  0000000000001D8D: 66 0F 6F D4        movdqa      xmm2,xmm4
  0000000000001D91: 66 0F FE C8        paddd       xmm1,xmm0
  0000000000001D95: 66 0F 76 C5        pcmpeqd     xmm0,xmm5
  0000000000001D99: 66 41 0F 7F 9A 20  movdqa      xmmword ptr [r10+120h],xmm3
                    01 00 00
  0000000000001DA2: 66 0F 6F DC        movdqa      xmm3,xmm4
  0000000000001DA6: 67 66 0F FE D1     paddd       xmm2,xmm1
  0000000000001DAB: 66 0F 76 CD        pcmpeqd     xmm1,xmm5
  0000000000001DAF: 66 41 0F 7F 82 30  movdqa      xmmword ptr [r10+130h],xmm0
                    01 00 00
  0000000000001DB8: 66 0F FE DA        paddd       xmm3,xmm2
  0000000000001DBC: 66 0F 76 D5        pcmpeqd     xmm2,xmm5
  0000000000001DC0: 66 41 0F 7F 8A 40  movdqa      xmmword ptr [r10+140h],xmm1
                    01 00 00
  0000000000001DC9: 66 0F 76 DD        pcmpeqd     xmm3,xmm5
  0000000000001DCD: 66 41 0F 7F 92 50  movdqa      xmmword ptr [r10+150h],xmm2
                    01 00 00
  0000000000001DD6: 66 0F DB 47 40     pand        xmm0,xmmword ptr [rdi+40h]
  0000000000001DDB: 66 0F DB 4F 50     pand        xmm1,xmmword ptr [rdi+50h]
  0000000000001DE0: 66 0F DB 57 60     pand        xmm2,xmmword ptr [rdi+60h]
  0000000000001DE5: 66 41 0F 7F 9A 60  movdqa      xmmword ptr [r10+160h],xmm3
                    01 00 00
  0000000000001DEE: 66 0F DB 5F 70     pand        xmm3,xmmword ptr [rdi+70h]
  0000000000001DF3: 66 0F EB C2        por         xmm0,xmm2
  0000000000001DF7: 66 0F EB CB        por         xmm1,xmm3
  0000000000001DFB: 66 0F 6F 67 80     movdqa      xmm4,xmmword ptr [rdi-80h]
  0000000000001E00: 66 0F 6F 6F 90     movdqa      xmm5,xmmword ptr [rdi-70h]
  0000000000001E05: 66 0F 6F 57 A0     movdqa      xmm2,xmmword ptr [rdi-60h]
  0000000000001E0A: 66 41 0F DB 62 70  pand        xmm4,xmmword ptr [r10+70h]
  0000000000001E10: 66 0F 6F 5F B0     movdqa      xmm3,xmmword ptr [rdi-50h]
  0000000000001E15: 66 41 0F DB AA 80  pand        xmm5,xmmword ptr [r10+80h]
                    00 00 00
  0000000000001E1E: 66 0F EB C4        por         xmm0,xmm4
  0000000000001E22: 66 41 0F DB 92 90  pand        xmm2,xmmword ptr [r10+90h]
                    00 00 00
  0000000000001E2B: 66 0F EB CD        por         xmm1,xmm5
  0000000000001E2F: 66 41 0F DB 9A A0  pand        xmm3,xmmword ptr [r10+0A0h]
                    00 00 00
  0000000000001E38: 66 0F EB C2        por         xmm0,xmm2
  0000000000001E3C: 66 0F EB CB        por         xmm1,xmm3
  0000000000001E40: 66 0F 6F 67 C0     movdqa      xmm4,xmmword ptr [rdi-40h]
  0000000000001E45: 66 0F 6F 6F D0     movdqa      xmm5,xmmword ptr [rdi-30h]
  0000000000001E4A: 66 0F 6F 57 E0     movdqa      xmm2,xmmword ptr [rdi-20h]
  0000000000001E4F: 66 41 0F DB A2 B0  pand        xmm4,xmmword ptr [r10+0B0h]
                    00 00 00
  0000000000001E58: 66 0F 6F 5F F0     movdqa      xmm3,xmmword ptr [rdi-10h]
  0000000000001E5D: 66 41 0F DB AA C0  pand        xmm5,xmmword ptr [r10+0C0h]
                    00 00 00
  0000000000001E66: 66 0F EB C4        por         xmm0,xmm4
  0000000000001E6A: 66 41 0F DB 92 D0  pand        xmm2,xmmword ptr [r10+0D0h]
                    00 00 00
  0000000000001E73: 66 0F EB CD        por         xmm1,xmm5
  0000000000001E77: 66 41 0F DB 9A E0  pand        xmm3,xmmword ptr [r10+0E0h]
                    00 00 00
  0000000000001E80: 66 0F EB C2        por         xmm0,xmm2
  0000000000001E84: 66 0F EB CB        por         xmm1,xmm3
  0000000000001E88: 66 0F 6F 27        movdqa      xmm4,xmmword ptr [rdi]
  0000000000001E8C: 66 0F 6F 6F 10     movdqa      xmm5,xmmword ptr [rdi+10h]
  0000000000001E91: 66 0F 6F 57 20     movdqa      xmm2,xmmword ptr [rdi+20h]
  0000000000001E96: 66 41 0F DB A2 F0  pand        xmm4,xmmword ptr [r10+0F0h]
                    00 00 00
  0000000000001E9F: 66 0F 6F 5F 30     movdqa      xmm3,xmmword ptr [rdi+30h]
  0000000000001EA4: 66 41 0F DB AA 00  pand        xmm5,xmmword ptr [r10+100h]
                    01 00 00
  0000000000001EAD: 66 0F EB C4        por         xmm0,xmm4
  0000000000001EB1: 66 41 0F DB 92 10  pand        xmm2,xmmword ptr [r10+110h]
                    01 00 00
  0000000000001EBA: 66 0F EB CD        por         xmm1,xmm5
  0000000000001EBE: 66 41 0F DB 9A 20  pand        xmm3,xmmword ptr [r10+120h]
                    01 00 00
  0000000000001EC7: 66 0F EB C2        por         xmm0,xmm2
  0000000000001ECB: 66 0F EB CB        por         xmm1,xmm3
  0000000000001ECF: 66 0F EF C1        pxor        xmm0,xmm1
  0000000000001ED3: 66 0F 70 C8 4E     pshufd      xmm1,xmm0,4Eh
  0000000000001ED8: 66 0F EB C1        por         xmm0,xmm1
  0000000000001EDC: 48 8D BF 00 01 00  lea         rdi,[rdi+100h]
                    00
  0000000000001EE3: 66 48 0F 7E C2     movq        rdx,xmm0
  0000000000001EE8: 48 8D 5C 24 68     lea         rbx,[rsp+68h]
  0000000000001EED: 49 89 D1           mov         r9,rdx
  0000000000001EF0: C4 E2 BB F6 06     mulx        rax,r8,qword ptr [rsi]
  0000000000001EF5: C4 62 A3 F6 66 08  mulx        r12,r11,qword ptr [rsi+8]
  0000000000001EFB: 49 01 C3           add         r11,rax
  0000000000001EFE: C4 62 FB F6 6E 10  mulx        r13,rax,qword ptr [rsi+10h]
  0000000000001F04: 49 11 C4           adc         r12,rax
  0000000000001F07: 49 83 D5 00        adc         r13,0
  0000000000001F0B: C4 62 FB F6 76 18  mulx        r14,rax,qword ptr [rsi+18h]
  0000000000001F11: 4D 89 C7           mov         r15,r8
  0000000000001F14: 4C 0F AF 44 24 28  imul        r8,qword ptr [rsp+28h]
  0000000000001F1A: 48 31 ED           xor         rbp,rbp
  0000000000001F1D: 4C 89 C2           mov         rdx,r8
  0000000000001F20: 48 89 7C 24 10     mov         qword ptr [rsp+10h],rdi
  0000000000001F25: 48 8D 76 20        lea         rsi,[rsi+20h]
  0000000000001F29: 66 4C 0F 38 F6 E8  adcx        r13,rax
  0000000000001F2F: 66 4C 0F 38 F6 F5  adcx        r14,rbp
  0000000000001F35: C4 62 FB F6 11     mulx        r10,rax,qword ptr [rcx]
  0000000000001F3A: 66 4C 0F 38 F6 F8  adcx        r15,rax
  0000000000001F40: F3 4D 0F 38 F6 D3  adox        r10,r11
  0000000000001F46: C4 62 FB F6 59 08  mulx        r11,rax,qword ptr [rcx+8]
  0000000000001F4C: 66 4C 0F 38 F6 D0  adcx        r10,rax
  0000000000001F52: F3 4D 0F 38 F6 DC  adox        r11,r12
  0000000000001F58: C4 62 FB F6 61 10  mulx        r12,rax,qword ptr [rcx+10h]
  0000000000001F5E: 48 8B 7C 24 20     mov         rdi,qword ptr [rsp+20h]
  0000000000001F63: 4C 89 53 E0        mov         qword ptr [rbx-20h],r10
  0000000000001F67: 66 4C 0F 38 F6 D8  adcx        r11,rax
  0000000000001F6D: F3 4D 0F 38 F6 E5  adox        r12,r13
  0000000000001F73: C4 62 FB F6 79 18  mulx        r15,rax,qword ptr [rcx+18h]
  0000000000001F79: 4C 89 CA           mov         rdx,r9
  0000000000001F7C: 4C 89 5B E8        mov         qword ptr [rbx-18h],r11
  0000000000001F80: 66 4C 0F 38 F6 E0  adcx        r12,rax
  0000000000001F86: F3 4C 0F 38 F6 FD  adox        r15,rbp
  0000000000001F8C: 48 8D 49 20        lea         rcx,[rcx+20h]
  0000000000001F90: 4C 89 63 F0        mov         qword ptr [rbx-10h],r12
  0000000000001F94: E9 07 00 00 00     jmp         L$mulx4x_1st
  0000000000001F99: 90                 nop
  0000000000001F9A: 90                 nop
  0000000000001F9B: 90                 nop
  0000000000001F9C: 90                 nop
  0000000000001F9D: 90                 nop
  0000000000001F9E: 90                 nop
  0000000000001F9F: 90                 nop
L$mulx4x_1st:
  0000000000001FA0: 66 4C 0F 38 F6 FD  adcx        r15,rbp
  0000000000001FA6: C4 E2 AB F6 06     mulx        rax,r10,qword ptr [rsi]
  0000000000001FAB: 66 4D 0F 38 F6 D6  adcx        r10,r14
  0000000000001FB1: C4 62 A3 F6 76 08  mulx        r14,r11,qword ptr [rsi+8]
  0000000000001FB7: 66 4C 0F 38 F6 D8  adcx        r11,rax
  0000000000001FBD: C4 E2 9B F6 46 10  mulx        rax,r12,qword ptr [rsi+10h]
  0000000000001FC3: 66 4D 0F 38 F6 E6  adcx        r12,r14
  0000000000001FC9: C4 62 93 F6 76 18  mulx        r14,r13,qword ptr [rsi+18h]
  0000000000001FCF: 67 67 4C 89 C2     mov         rdx,r8
  0000000000001FD4: 66 4C 0F 38 F6 E8  adcx        r13,rax
  0000000000001FDA: 66 4C 0F 38 F6 F5  adcx        r14,rbp
  0000000000001FE0: 48 8D 76 20        lea         rsi,[rsi+20h]
  0000000000001FE4: 48 8D 5B 20        lea         rbx,[rbx+20h]
  0000000000001FE8: F3 4D 0F 38 F6 D7  adox        r10,r15
  0000000000001FEE: C4 62 FB F6 39     mulx        r15,rax,qword ptr [rcx]
  0000000000001FF3: 66 4C 0F 38 F6 D0  adcx        r10,rax
  0000000000001FF9: F3 4D 0F 38 F6 DF  adox        r11,r15
  0000000000001FFF: C4 62 FB F6 79 08  mulx        r15,rax,qword ptr [rcx+8]
  0000000000002005: 66 4C 0F 38 F6 D8  adcx        r11,rax
  000000000000200B: F3 4D 0F 38 F6 E7  adox        r12,r15
  0000000000002011: C4 62 FB F6 79 10  mulx        r15,rax,qword ptr [rcx+10h]
  0000000000002017: 4C 89 53 D8        mov         qword ptr [rbx-28h],r10
  000000000000201B: 66 4C 0F 38 F6 E0  adcx        r12,rax
  0000000000002021: 4C 89 5B E0        mov         qword ptr [rbx-20h],r11
  0000000000002025: F3 4D 0F 38 F6 EF  adox        r13,r15
  000000000000202B: C4 62 FB F6 79 18  mulx        r15,rax,qword ptr [rcx+18h]
  0000000000002031: 4C 89 CA           mov         rdx,r9
  0000000000002034: 4C 89 63 E8        mov         qword ptr [rbx-18h],r12
  0000000000002038: 66 4C 0F 38 F6 E8  adcx        r13,rax
  000000000000203E: F3 4C 0F 38 F6 FD  adox        r15,rbp
  0000000000002044: 48 8D 49 20        lea         rcx,[rcx+20h]
  0000000000002048: 4C 89 6B F0        mov         qword ptr [rbx-10h],r13
  000000000000204C: 48 FF CF           dec         rdi
  000000000000204F: 0F 85 4B FF FF FF  jne         L$mulx4x_1st
  0000000000002055: 48 8B 44 24 08     mov         rax,qword ptr [rsp+8]
  000000000000205A: 49 11 EF           adc         r15,rbp
  000000000000205D: 48 8D 34 06        lea         rsi,[rsi+rax]
  0000000000002061: 4D 01 FE           add         r14,r15
  0000000000002064: 48 8B 7C 24 10     mov         rdi,qword ptr [rsp+10h]
  0000000000002069: 48 11 ED           adc         rbp,rbp
  000000000000206C: 4C 89 73 F8        mov         qword ptr [rbx-8],r14
  0000000000002070: E9 0B 00 00 00     jmp         L$mulx4x_outer
  0000000000002075: 90                 nop
  0000000000002076: 90                 nop
  0000000000002077: 90                 nop
  0000000000002078: 90                 nop
  0000000000002079: 90                 nop
  000000000000207A: 90                 nop
  000000000000207B: 90                 nop
  000000000000207C: 90                 nop
  000000000000207D: 90                 nop
  000000000000207E: 90                 nop
  000000000000207F: 90                 nop
L$mulx4x_outer:
  0000000000002080: 4C 8D 93 10 FF FF  lea         r10,[rbx-0F0h]
                    FF
  0000000000002087: 66 0F EF E4        pxor        xmm4,xmm4
  000000000000208B: 67 67 66 0F EF ED  pxor        xmm5,xmm5
  0000000000002091: 66 0F 6F 47 80     movdqa      xmm0,xmmword ptr [rdi-80h]
  0000000000002096: 66 0F 6F 4F 90     movdqa      xmm1,xmmword ptr [rdi-70h]
  000000000000209B: 66 0F 6F 57 A0     movdqa      xmm2,xmmword ptr [rdi-60h]
  00000000000020A0: 66 41 0F DB 82 00  pand        xmm0,xmmword ptr [r10+100h]
                    01 00 00
  00000000000020A9: 66 0F 6F 5F B0     movdqa      xmm3,xmmword ptr [rdi-50h]
  00000000000020AE: 66 41 0F DB 8A 10  pand        xmm1,xmmword ptr [r10+110h]
                    01 00 00
  00000000000020B7: 66 0F EB E0        por         xmm4,xmm0
  00000000000020BB: 66 41 0F DB 92 20  pand        xmm2,xmmword ptr [r10+120h]
                    01 00 00
  00000000000020C4: 66 0F EB E9        por         xmm5,xmm1
  00000000000020C8: 66 41 0F DB 9A 30  pand        xmm3,xmmword ptr [r10+130h]
                    01 00 00
  00000000000020D1: 66 0F EB E2        por         xmm4,xmm2
  00000000000020D5: 66 0F EB EB        por         xmm5,xmm3
  00000000000020D9: 66 0F 6F 47 C0     movdqa      xmm0,xmmword ptr [rdi-40h]
  00000000000020DE: 66 0F 6F 4F D0     movdqa      xmm1,xmmword ptr [rdi-30h]
  00000000000020E3: 66 0F 6F 57 E0     movdqa      xmm2,xmmword ptr [rdi-20h]
  00000000000020E8: 66 41 0F DB 82 40  pand        xmm0,xmmword ptr [r10+140h]
                    01 00 00
  00000000000020F1: 66 0F 6F 5F F0     movdqa      xmm3,xmmword ptr [rdi-10h]
  00000000000020F6: 66 41 0F DB 8A 50  pand        xmm1,xmmword ptr [r10+150h]
                    01 00 00
  00000000000020FF: 66 0F EB E0        por         xmm4,xmm0
  0000000000002103: 66 41 0F DB 92 60  pand        xmm2,xmmword ptr [r10+160h]
                    01 00 00
  000000000000210C: 66 0F EB E9        por         xmm5,xmm1
  0000000000002110: 66 41 0F DB 9A 70  pand        xmm3,xmmword ptr [r10+170h]
                    01 00 00
  0000000000002119: 66 0F EB E2        por         xmm4,xmm2
  000000000000211D: 66 0F EB EB        por         xmm5,xmm3
  0000000000002121: 66 0F 6F 07        movdqa      xmm0,xmmword ptr [rdi]
  0000000000002125: 66 0F 6F 4F 10     movdqa      xmm1,xmmword ptr [rdi+10h]
  000000000000212A: 66 0F 6F 57 20     movdqa      xmm2,xmmword ptr [rdi+20h]
  000000000000212F: 66 41 0F DB 82 80  pand        xmm0,xmmword ptr [r10+180h]
                    01 00 00
  0000000000002138: 66 0F 6F 5F 30     movdqa      xmm3,xmmword ptr [rdi+30h]
  000000000000213D: 66 41 0F DB 8A 90  pand        xmm1,xmmword ptr [r10+190h]
                    01 00 00
  0000000000002146: 66 0F EB E0        por         xmm4,xmm0
  000000000000214A: 66 41 0F DB 92 A0  pand        xmm2,xmmword ptr [r10+1A0h]
                    01 00 00
  0000000000002153: 66 0F EB E9        por         xmm5,xmm1
  0000000000002157: 66 41 0F DB 9A B0  pand        xmm3,xmmword ptr [r10+1B0h]
                    01 00 00
  0000000000002160: 66 0F EB E2        por         xmm4,xmm2
  0000000000002164: 66 0F EB EB        por         xmm5,xmm3
  0000000000002168: 66 0F 6F 47 40     movdqa      xmm0,xmmword ptr [rdi+40h]
  000000000000216D: 66 0F 6F 4F 50     movdqa      xmm1,xmmword ptr [rdi+50h]
  0000000000002172: 66 0F 6F 57 60     movdqa      xmm2,xmmword ptr [rdi+60h]
  0000000000002177: 66 41 0F DB 82 C0  pand        xmm0,xmmword ptr [r10+1C0h]
                    01 00 00
  0000000000002180: 66 0F 6F 5F 70     movdqa      xmm3,xmmword ptr [rdi+70h]
  0000000000002185: 66 41 0F DB 8A D0  pand        xmm1,xmmword ptr [r10+1D0h]
                    01 00 00
  000000000000218E: 66 0F EB E0        por         xmm4,xmm0
  0000000000002192: 66 41 0F DB 92 E0  pand        xmm2,xmmword ptr [r10+1E0h]
                    01 00 00
  000000000000219B: 66 0F EB E9        por         xmm5,xmm1
  000000000000219F: 66 41 0F DB 9A F0  pand        xmm3,xmmword ptr [r10+1F0h]
                    01 00 00
  00000000000021A8: 66 0F EB E2        por         xmm4,xmm2
  00000000000021AC: 66 0F EB EB        por         xmm5,xmm3
  00000000000021B0: 66 0F EB E5        por         xmm4,xmm5
  00000000000021B4: 66 0F 70 C4 4E     pshufd      xmm0,xmm4,4Eh
  00000000000021B9: 66 0F EB C4        por         xmm0,xmm4
  00000000000021BD: 48 8D BF 00 01 00  lea         rdi,[rdi+100h]
                    00
  00000000000021C4: 66 48 0F 7E C2     movq        rdx,xmm0
  00000000000021C9: 48 89 2B           mov         qword ptr [rbx],rbp
  00000000000021CC: 48 8D 5C 03 20     lea         rbx,[rbx+rax+20h]
  00000000000021D1: C4 62 BB F6 1E     mulx        r11,r8,qword ptr [rsi]
  00000000000021D6: 48 31 ED           xor         rbp,rbp
  00000000000021D9: 49 89 D1           mov         r9,rdx
  00000000000021DC: C4 62 8B F6 66 08  mulx        r12,r14,qword ptr [rsi+8]
  00000000000021E2: F3 4C 0F 38 F6 43  adox        r8,qword ptr [rbx-20h]
                    E0
  00000000000021E9: 66 4D 0F 38 F6 DE  adcx        r11,r14
  00000000000021EF: C4 62 83 F6 6E 10  mulx        r13,r15,qword ptr [rsi+10h]
  00000000000021F5: F3 4C 0F 38 F6 5B  adox        r11,qword ptr [rbx-18h]
                    E8
  00000000000021FC: 66 4D 0F 38 F6 E7  adcx        r12,r15
  0000000000002202: C4 62 EB F6 76 18  mulx        r14,rdx,qword ptr [rsi+18h]
  0000000000002208: F3 4C 0F 38 F6 63  adox        r12,qword ptr [rbx-10h]
                    F0
  000000000000220F: 66 4C 0F 38 F6 EA  adcx        r13,rdx
  0000000000002215: 48 8D 0C 01        lea         rcx,[rcx+rax]
  0000000000002219: 48 8D 76 20        lea         rsi,[rsi+20h]
  000000000000221D: F3 4C 0F 38 F6 6B  adox        r13,qword ptr [rbx-8]
                    F8
  0000000000002224: 66 4C 0F 38 F6 F5  adcx        r14,rbp
  000000000000222A: F3 4C 0F 38 F6 F5  adox        r14,rbp
  0000000000002230: 4D 89 C7           mov         r15,r8
  0000000000002233: 4C 0F AF 44 24 28  imul        r8,qword ptr [rsp+28h]
  0000000000002239: 4C 89 C2           mov         rdx,r8
  000000000000223C: 48 31 ED           xor         rbp,rbp
  000000000000223F: 48 89 7C 24 10     mov         qword ptr [rsp+10h],rdi
  0000000000002244: C4 62 FB F6 11     mulx        r10,rax,qword ptr [rcx]
  0000000000002249: 66 4C 0F 38 F6 F8  adcx        r15,rax
  000000000000224F: F3 4D 0F 38 F6 D3  adox        r10,r11
  0000000000002255: C4 62 FB F6 59 08  mulx        r11,rax,qword ptr [rcx+8]
  000000000000225B: 66 4C 0F 38 F6 D0  adcx        r10,rax
  0000000000002261: F3 4D 0F 38 F6 DC  adox        r11,r12
  0000000000002267: C4 62 FB F6 61 10  mulx        r12,rax,qword ptr [rcx+10h]
  000000000000226D: 66 4C 0F 38 F6 D8  adcx        r11,rax
  0000000000002273: F3 4D 0F 38 F6 E5  adox        r12,r13
  0000000000002279: C4 62 FB F6 79 18  mulx        r15,rax,qword ptr [rcx+18h]
  000000000000227F: 4C 89 CA           mov         rdx,r9
  0000000000002282: 48 8B 7C 24 20     mov         rdi,qword ptr [rsp+20h]
  0000000000002287: 4C 89 53 E0        mov         qword ptr [rbx-20h],r10
  000000000000228B: 66 4C 0F 38 F6 E0  adcx        r12,rax
  0000000000002291: 4C 89 5B E8        mov         qword ptr [rbx-18h],r11
  0000000000002295: F3 4C 0F 38 F6 FD  adox        r15,rbp
  000000000000229B: 4C 89 63 F0        mov         qword ptr [rbx-10h],r12
  000000000000229F: 48 8D 49 20        lea         rcx,[rcx+20h]
  00000000000022A3: E9 18 00 00 00     jmp         L$mulx4x_inner
  00000000000022A8: 90                 nop
  00000000000022A9: 90                 nop
  00000000000022AA: 90                 nop
  00000000000022AB: 90                 nop
  00000000000022AC: 90                 nop
  00000000000022AD: 90                 nop
  00000000000022AE: 90                 nop
  00000000000022AF: 90                 nop
  00000000000022B0: 90                 nop
  00000000000022B1: 90                 nop
  00000000000022B2: 90                 nop
  00000000000022B3: 90                 nop
  00000000000022B4: 90                 nop
  00000000000022B5: 90                 nop
  00000000000022B6: 90                 nop
  00000000000022B7: 90                 nop
  00000000000022B8: 90                 nop
  00000000000022B9: 90                 nop
  00000000000022BA: 90                 nop
  00000000000022BB: 90                 nop
  00000000000022BC: 90                 nop
  00000000000022BD: 90                 nop
  00000000000022BE: 90                 nop
  00000000000022BF: 90                 nop
L$mulx4x_inner:
  00000000000022C0: C4 E2 AB F6 06     mulx        rax,r10,qword ptr [rsi]
  00000000000022C5: 66 4C 0F 38 F6 FD  adcx        r15,rbp
  00000000000022CB: F3 4D 0F 38 F6 D6  adox        r10,r14
  00000000000022D1: C4 62 A3 F6 76 08  mulx        r14,r11,qword ptr [rsi+8]
  00000000000022D7: 66 4C 0F 38 F6 13  adcx        r10,qword ptr [rbx]
  00000000000022DD: F3 4C 0F 38 F6 D8  adox        r11,rax
  00000000000022E3: C4 E2 9B F6 46 10  mulx        rax,r12,qword ptr [rsi+10h]
  00000000000022E9: 66 4C 0F 38 F6 5B  adcx        r11,qword ptr [rbx+8]
                    08
  00000000000022F0: F3 4D 0F 38 F6 E6  adox        r12,r14
  00000000000022F6: C4 62 93 F6 76 18  mulx        r14,r13,qword ptr [rsi+18h]
  00000000000022FC: 4C 89 C2           mov         rdx,r8
  00000000000022FF: 66 4C 0F 38 F6 63  adcx        r12,qword ptr [rbx+10h]
                    10
  0000000000002306: F3 4C 0F 38 F6 E8  adox        r13,rax
  000000000000230C: 66 4C 0F 38 F6 6B  adcx        r13,qword ptr [rbx+18h]
                    18
  0000000000002313: F3 4C 0F 38 F6 F5  adox        r14,rbp
  0000000000002319: 48 8D 76 20        lea         rsi,[rsi+20h]
  000000000000231D: 48 8D 5B 20        lea         rbx,[rbx+20h]
  0000000000002321: 66 4C 0F 38 F6 F5  adcx        r14,rbp
  0000000000002327: F3 4D 0F 38 F6 D7  adox        r10,r15
  000000000000232D: C4 62 FB F6 39     mulx        r15,rax,qword ptr [rcx]
  0000000000002332: 66 4C 0F 38 F6 D0  adcx        r10,rax
  0000000000002338: F3 4D 0F 38 F6 DF  adox        r11,r15
  000000000000233E: C4 62 FB F6 79 08  mulx        r15,rax,qword ptr [rcx+8]
  0000000000002344: 66 4C 0F 38 F6 D8  adcx        r11,rax
  000000000000234A: F3 4D 0F 38 F6 E7  adox        r12,r15
  0000000000002350: C4 62 FB F6 79 10  mulx        r15,rax,qword ptr [rcx+10h]
  0000000000002356: 4C 89 53 D8        mov         qword ptr [rbx-28h],r10
  000000000000235A: 66 4C 0F 38 F6 E0  adcx        r12,rax
  0000000000002360: F3 4D 0F 38 F6 EF  adox        r13,r15
  0000000000002366: 4C 89 5B E0        mov         qword ptr [rbx-20h],r11
  000000000000236A: C4 62 FB F6 79 18  mulx        r15,rax,qword ptr [rcx+18h]
  0000000000002370: 4C 89 CA           mov         rdx,r9
  0000000000002373: 48 8D 49 20        lea         rcx,[rcx+20h]
  0000000000002377: 4C 89 63 E8        mov         qword ptr [rbx-18h],r12
  000000000000237B: 66 4C 0F 38 F6 E8  adcx        r13,rax
  0000000000002381: F3 4C 0F 38 F6 FD  adox        r15,rbp
  0000000000002387: 4C 89 6B F0        mov         qword ptr [rbx-10h],r13
  000000000000238B: 48 FF CF           dec         rdi
  000000000000238E: 0F 85 2C FF FF FF  jne         L$mulx4x_inner
  0000000000002394: 48 8B 44 24 08     mov         rax,qword ptr [rsp+8]
  0000000000002399: 49 11 EF           adc         r15,rbp
  000000000000239C: 48 2B 3B           sub         rdi,qword ptr [rbx]
  000000000000239F: 48 8B 7C 24 10     mov         rdi,qword ptr [rsp+10h]
  00000000000023A4: 4C 8B 54 24 18     mov         r10,qword ptr [rsp+18h]
  00000000000023A9: 4D 11 FE           adc         r14,r15
  00000000000023AC: 48 8D 34 06        lea         rsi,[rsi+rax]
  00000000000023B0: 48 11 ED           adc         rbp,rbp
  00000000000023B3: 4C 89 73 F8        mov         qword ptr [rbx-8],r14
  00000000000023B7: 4C 39 D7           cmp         rdi,r10
  00000000000023BA: 0F 82 C0 FC FF FF  jb          L$mulx4x_outer
  00000000000023C0: 4C 8B 51 F8        mov         r10,qword ptr [rcx-8]
  00000000000023C4: 49 89 E8           mov         r8,rbp
  00000000000023C7: 4C 8B 24 01        mov         r12,qword ptr [rcx+rax]
  00000000000023CB: 48 8D 2C 01        lea         rbp,[rcx+rax]
  00000000000023CF: 48 89 C1           mov         rcx,rax
  00000000000023D2: 48 8D 3C 03        lea         rdi,[rbx+rax]
  00000000000023D6: 31 C0              xor         eax,eax
  00000000000023D8: 4D 31 FF           xor         r15,r15
  00000000000023DB: 4D 29 F2           sub         r10,r14
  00000000000023DE: 4D 11 FF           adc         r15,r15
  00000000000023E1: 4D 09 F8           or          r8,r15
  00000000000023E4: 48 C1 F9 05        sar         rcx,5
  00000000000023E8: 4C 29 C0           sub         rax,r8
  00000000000023EB: 48 8B 54 24 40     mov         rdx,qword ptr [rsp+40h]
  00000000000023F0: 49 FF CC           dec         r12
  00000000000023F3: 4C 8B 6D 08        mov         r13,qword ptr [rbp+8]
  00000000000023F7: 4D 31 C0           xor         r8,r8
  00000000000023FA: 4C 8B 75 10        mov         r14,qword ptr [rbp+10h]
  00000000000023FE: 4C 8B 7D 18        mov         r15,qword ptr [rbp+18h]
  0000000000002402: E9 A9 0B 00 00     jmp         L$sqrx4x_sub_entry
  0000000000002407: 90                 nop
  0000000000002408: 90                 nop
  0000000000002409: 90                 nop
  000000000000240A: 90                 nop
  000000000000240B: 90                 nop
  000000000000240C: 90                 nop
  000000000000240D: 90                 nop
  000000000000240E: 90                 nop
  000000000000240F: 90                 nop
  0000000000002410: 90                 nop
  0000000000002411: 90                 nop
  0000000000002412: 90                 nop
  0000000000002413: 90                 nop
  0000000000002414: 90                 nop
  0000000000002415: 90                 nop
  0000000000002416: 90                 nop
  0000000000002417: 90                 nop
  0000000000002418: 90                 nop
  0000000000002419: 90                 nop
  000000000000241A: 90                 nop
  000000000000241B: 90                 nop
  000000000000241C: 90                 nop
  000000000000241D: 90                 nop
  000000000000241E: 90                 nop
  000000000000241F: 90                 nop
bn_powerx5:
  0000000000002420: 48 89 7C 24 08     mov         qword ptr [rsp+8],rdi
  0000000000002425: 48 89 74 24 10     mov         qword ptr [rsp+10h],rsi
  000000000000242A: 48 89 E0           mov         rax,rsp
L$SEH_begin_bn_powerx5:
  000000000000242D: 48 89 CF           mov         rdi,rcx
  0000000000002430: 48 89 D6           mov         rsi,rdx
  0000000000002433: 4C 89 C2           mov         rdx,r8
  0000000000002436: 4C 89 C9           mov         rcx,r9
  0000000000002439: 4C 8B 44 24 28     mov         r8,qword ptr [rsp+28h]
  000000000000243E: 4C 8B 4C 24 30     mov         r9,qword ptr [rsp+30h]
  0000000000002443: 48 89 E0           mov         rax,rsp
L$powerx5_enter:
  0000000000002446: 53                 push        rbx
  0000000000002447: 55                 push        rbp
  0000000000002448: 41 54              push        r12
  000000000000244A: 41 55              push        r13
  000000000000244C: 41 56              push        r14
  000000000000244E: 41 57              push        r15
L$powerx5_prologue:
  0000000000002450: 41 C1 E1 03        shl         r9d,3
  0000000000002454: 4F 8D 14 49        lea         r10,[r9+r9*2]
  0000000000002458: 49 F7 D9           neg         r9
  000000000000245B: 4D 8B 00           mov         r8,qword ptr [r8]
  000000000000245E: 4E 8D 9C 4C C0 FE  lea         r11,[rsp+r9*2-140h]
                    FF FF
  0000000000002466: 48 89 E5           mov         rbp,rsp
  0000000000002469: 49 29 FB           sub         r11,rdi
  000000000000246C: 49 81 E3 FF 0F 00  and         r11,0FFFh
                    00
  0000000000002473: 4D 39 DA           cmp         r10,r11
  0000000000002476: 0F 82 24 00 00 00  jb          L$pwrx_sp_alt
  000000000000247C: 4C 29 DD           sub         rbp,r11
  000000000000247F: 4A 8D AC 4D C0 FE  lea         rbp,[rbp+r9*2-140h]
                    FF FF
  0000000000002487: E9 34 00 00 00     jmp         L$pwrx_sp_done
  000000000000248C: 90                 nop
  000000000000248D: 90                 nop
  000000000000248E: 90                 nop
  000000000000248F: 90                 nop
  0000000000002490: 90                 nop
  0000000000002491: 90                 nop
  0000000000002492: 90                 nop
  0000000000002493: 90                 nop
  0000000000002494: 90                 nop
  0000000000002495: 90                 nop
  0000000000002496: 90                 nop
  0000000000002497: 90                 nop
  0000000000002498: 90                 nop
  0000000000002499: 90                 nop
  000000000000249A: 90                 nop
  000000000000249B: 90                 nop
  000000000000249C: 90                 nop
  000000000000249D: 90                 nop
  000000000000249E: 90                 nop
  000000000000249F: 90                 nop
L$pwrx_sp_alt:
  00000000000024A0: 4F 8D 94 09 C0 0E  lea         r10,[r9+r9+0EC0h]
                    00 00
  00000000000024A8: 4A 8D AC 4D C0 FE  lea         rbp,[rbp+r9*2-140h]
                    FF FF
  00000000000024B0: 4D 29 D3           sub         r11,r10
  00000000000024B3: 41 BA 00 00 00 00  mov         r10d,0
  00000000000024B9: 4D 0F 42 DA        cmovb       r11,r10
  00000000000024BD: 4C 29 DD           sub         rbp,r11
L$pwrx_sp_done:
  00000000000024C0: 48 83 E5 C0        and         rbp,0FFFFFFFFFFFFFFC0h
  00000000000024C4: 49 89 E3           mov         r11,rsp
  00000000000024C7: 49 29 EB           sub         r11,rbp
  00000000000024CA: 49 81 E3 00 F0 FF  and         r11,0FFFFFFFFFFFFF000h
                    FF
  00000000000024D1: 49 8D 24 2B        lea         rsp,[r11+rbp]
  00000000000024D5: 4C 8B 14 24        mov         r10,qword ptr [rsp]
  00000000000024D9: 48 39 EC           cmp         rsp,rbp
  00000000000024DC: 0F 87 05 00 00 00  ja          L$pwrx_page_walk
  00000000000024E2: E9 15 00 00 00     jmp         L$pwrx_page_walk_done
L$pwrx_page_walk:
  00000000000024E7: 48 8D A4 24 00 F0  lea         rsp,[rsp-1000h]
                    FF FF
  00000000000024EF: 4C 8B 14 24        mov         r10,qword ptr [rsp]
  00000000000024F3: 48 39 EC           cmp         rsp,rbp
  00000000000024F6: 0F 87 EB FF FF FF  ja          L$pwrx_page_walk
L$pwrx_page_walk_done:
  00000000000024FC: 4D 89 CA           mov         r10,r9
  00000000000024FF: 49 F7 D9           neg         r9
  0000000000002502: 66 0F EF C0        pxor        xmm0,xmm0
  0000000000002506: 66 48 0F 6E CF     movq        xmm1,rdi
  000000000000250B: 66 48 0F 6E D1     movq        xmm2,rcx
  0000000000002510: 66 49 0F 6E DA     movq        xmm3,r10
  0000000000002515: 66 48 0F 6E E2     movq        xmm4,rdx
  000000000000251A: 4C 89 44 24 20     mov         qword ptr [rsp+20h],r8
  000000000000251F: 48 89 44 24 28     mov         qword ptr [rsp+28h],rax
L$powerx5_body:
  0000000000002524: E8 97 00 00 00     call        aws_lc_0_21_0_bn_sqrx8x_internal
  0000000000002529: E8 32 0A 00 00     call        __bn_postx4x_internal
  000000000000252E: E8 8D 00 00 00     call        aws_lc_0_21_0_bn_sqrx8x_internal
  0000000000002533: E8 28 0A 00 00     call        __bn_postx4x_internal
  0000000000002538: E8 83 00 00 00     call        aws_lc_0_21_0_bn_sqrx8x_internal
  000000000000253D: E8 1E 0A 00 00     call        __bn_postx4x_internal
  0000000000002542: E8 79 00 00 00     call        aws_lc_0_21_0_bn_sqrx8x_internal
  0000000000002547: E8 14 0A 00 00     call        __bn_postx4x_internal
  000000000000254C: E8 6F 00 00 00     call        aws_lc_0_21_0_bn_sqrx8x_internal
  0000000000002551: E8 0A 0A 00 00     call        __bn_postx4x_internal
  0000000000002556: 4D 89 D1           mov         r9,r10
  0000000000002559: 48 89 F7           mov         rdi,rsi
  000000000000255C: 66 48 0F 7E D1     movq        rcx,xmm2
  0000000000002561: 66 48 0F 7E E2     movq        rdx,xmm4
  0000000000002566: 48 8B 44 24 28     mov         rax,qword ptr [rsp+28h]
  000000000000256B: E8 D0 F6 FF FF     call        mulx4x_internal
  0000000000002570: 48 8B 74 24 28     mov         rsi,qword ptr [rsp+28h]
  0000000000002575: B8 01 00 00 00     mov         eax,1
  000000000000257A: 4C 8B 7E D0        mov         r15,qword ptr [rsi-30h]
  000000000000257E: 4C 8B 76 D8        mov         r14,qword ptr [rsi-28h]
  0000000000002582: 4C 8B 6E E0        mov         r13,qword ptr [rsi-20h]
  0000000000002586: 4C 8B 66 E8        mov         r12,qword ptr [rsi-18h]
  000000000000258A: 48 8B 6E F0        mov         rbp,qword ptr [rsi-10h]
  000000000000258E: 48 8B 5E F8        mov         rbx,qword ptr [rsi-8]
  0000000000002592: 48 8D 26           lea         rsp,[rsi]
L$powerx5_epilogue:
  0000000000002595: 48 8B 7C 24 08     mov         rdi,qword ptr [rsp+8]
  000000000000259A: 48 8B 74 24 10     mov         rsi,qword ptr [rsp+10h]
  000000000000259F: F3 C3              rep ret
L$SEH_end_bn_powerx5:
  00000000000025A1: 90                 nop
  00000000000025A2: 90                 nop
  00000000000025A3: 90                 nop
  00000000000025A4: 90                 nop
  00000000000025A5: 90                 nop
  00000000000025A6: 90                 nop
  00000000000025A7: 90                 nop
  00000000000025A8: 90                 nop
  00000000000025A9: 90                 nop
  00000000000025AA: 90                 nop
  00000000000025AB: 90                 nop
  00000000000025AC: 90                 nop
  00000000000025AD: 90                 nop
  00000000000025AE: 90                 nop
  00000000000025AF: 90                 nop
  00000000000025B0: 90                 nop
  00000000000025B1: 90                 nop
  00000000000025B2: 90                 nop
  00000000000025B3: 90                 nop
  00000000000025B4: 90                 nop
  00000000000025B5: 90                 nop
  00000000000025B6: 90                 nop
  00000000000025B7: 90                 nop
  00000000000025B8: 90                 nop
  00000000000025B9: 90                 nop
  00000000000025BA: 90                 nop
  00000000000025BB: 90                 nop
  00000000000025BC: 90                 nop
  00000000000025BD: 90                 nop
  00000000000025BE: 90                 nop
  00000000000025BF: 90                 nop
aws_lc_0_21_0_bn_sqrx8x_internal:
  00000000000025C0: 48 8D 7C 24 38     lea         rdi,[rsp+38h]
  00000000000025C5: 4A 8D 2C 0E        lea         rbp,[rsi+r9]
  00000000000025C9: 4C 89 4C 24 08     mov         qword ptr [rsp+8],r9
  00000000000025CE: 48 89 6C 24 10     mov         qword ptr [rsp+10h],rbp
  00000000000025D3: E9 28 00 00 00     jmp         L$sqr8x_zero_start
  00000000000025D8: 90                 nop
  00000000000025D9: 90                 nop
  00000000000025DA: 90                 nop
  00000000000025DB: 90                 nop
  00000000000025DC: 90                 nop
  00000000000025DD: 90                 nop
  00000000000025DE: 90                 nop
  00000000000025DF: 90                 nop
  00000000000025E0: 66 66 66 2E 0F 1F  nop         word ptr cs:[rax+rax]
                    84 00 00 00 00 00
L$sqrx8x_zero:
  00000000000025EC: 3E 66 0F 7F 07     movdqa      xmmword ptr ds:[rdi],xmm0
  00000000000025F1: 66 0F 7F 47 10     movdqa      xmmword ptr [rdi+10h],xmm0
  00000000000025F6: 66 0F 7F 47 20     movdqa      xmmword ptr [rdi+20h],xmm0
  00000000000025FB: 66 0F 7F 47 30     movdqa      xmmword ptr [rdi+30h],xmm0
L$sqr8x_zero_start:
  0000000000002600: 66 0F 7F 47 40     movdqa      xmmword ptr [rdi+40h],xmm0
  0000000000002605: 66 0F 7F 47 50     movdqa      xmmword ptr [rdi+50h],xmm0
  000000000000260A: 66 0F 7F 47 60     movdqa      xmmword ptr [rdi+60h],xmm0
  000000000000260F: 66 0F 7F 47 70     movdqa      xmmword ptr [rdi+70h],xmm0
  0000000000002614: 48 8D BF 80 00 00  lea         rdi,[rdi+80h]
                    00
  000000000000261B: 49 83 E9 40        sub         r9,40h
  000000000000261F: 0F 85 C7 FF FF FF  jne         L$sqrx8x_zero
  0000000000002625: 48 8B 16           mov         rdx,qword ptr [rsi]
  0000000000002628: 4D 31 D2           xor         r10,r10
  000000000000262B: 4D 31 DB           xor         r11,r11
  000000000000262E: 4D 31 E4           xor         r12,r12
  0000000000002631: 4D 31 ED           xor         r13,r13
  0000000000002634: 4D 31 F6           xor         r14,r14
  0000000000002637: 4D 31 FF           xor         r15,r15
  000000000000263A: 48 8D 7C 24 38     lea         rdi,[rsp+38h]
  000000000000263F: 48 31 ED           xor         rbp,rbp
  0000000000002642: E9 19 00 00 00     jmp         L$sqrx8x_outer_loop
  0000000000002647: 90                 nop
  0000000000002648: 90                 nop
  0000000000002649: 90                 nop
  000000000000264A: 90                 nop
  000000000000264B: 90                 nop
  000000000000264C: 90                 nop
  000000000000264D: 90                 nop
  000000000000264E: 90                 nop
  000000000000264F: 90                 nop
  0000000000002650: 90                 nop
  0000000000002651: 90                 nop
  0000000000002652: 90                 nop
  0000000000002653: 90                 nop
  0000000000002654: 90                 nop
  0000000000002655: 90                 nop
  0000000000002656: 90                 nop
  0000000000002657: 90                 nop
  0000000000002658: 90                 nop
  0000000000002659: 90                 nop
  000000000000265A: 90                 nop
  000000000000265B: 90                 nop
  000000000000265C: 90                 nop
  000000000000265D: 90                 nop
  000000000000265E: 90                 nop
  000000000000265F: 90                 nop
L$sqrx8x_outer_loop:
  0000000000002660: C4 E2 BB F6 46 08  mulx        rax,r8,qword ptr [rsi+8]
  0000000000002666: 66 4D 0F 38 F6 C1  adcx        r8,r9
  000000000000266C: F3 4C 0F 38 F6 D0  adox        r10,rax
  0000000000002672: C4 E2 B3 F6 46 10  mulx        rax,r9,qword ptr [rsi+10h]
  0000000000002678: 66 4D 0F 38 F6 CA  adcx        r9,r10
  000000000000267E: F3 4C 0F 38 F6 D8  adox        r11,rax
  0000000000002684: C4 E2 AB F6 86 18  mulx        rax,r10,qword ptr [rsi+18h]
                    00 00 00
  000000000000268D: 66 4D 0F 38 F6 D3  adcx        r10,r11
  0000000000002693: F3 4C 0F 38 F6 E0  adox        r12,rax
  0000000000002699: C4 E2 A3 F6 86 20  mulx        rax,r11,qword ptr [rsi+20h]
                    00 00 00
  00000000000026A2: 66 4D 0F 38 F6 DC  adcx        r11,r12
  00000000000026A8: F3 4C 0F 38 F6 E8  adox        r13,rax
  00000000000026AE: C4 E2 9B F6 46 28  mulx        rax,r12,qword ptr [rsi+28h]
  00000000000026B4: 66 4D 0F 38 F6 E5  adcx        r12,r13
  00000000000026BA: F3 4C 0F 38 F6 F0  adox        r14,rax
  00000000000026C0: C4 E2 93 F6 46 30  mulx        rax,r13,qword ptr [rsi+30h]
  00000000000026C6: 66 4D 0F 38 F6 EE  adcx        r13,r14
  00000000000026CC: F3 49 0F 38 F6 C7  adox        rax,r15
  00000000000026D2: C4 62 8B F6 7E 38  mulx        r15,r14,qword ptr [rsi+38h]
  00000000000026D8: 48 8B 56 08        mov         rdx,qword ptr [rsi+8]
  00000000000026DC: 66 4C 0F 38 F6 F0  adcx        r14,rax
  00000000000026E2: F3 4C 0F 38 F6 FD  adox        r15,rbp
  00000000000026E8: 4C 13 7F 40        adc         r15,qword ptr [rdi+40h]
  00000000000026EC: 4C 89 47 08        mov         qword ptr [rdi+8],r8
  00000000000026F0: 4C 89 4F 10        mov         qword ptr [rdi+10h],r9
  00000000000026F4: 48 19 C9           sbb         rcx,rcx
  00000000000026F7: 48 31 ED           xor         rbp,rbp
  00000000000026FA: C4 E2 BB F6 5E 10  mulx        rbx,r8,qword ptr [rsi+10h]
  0000000000002700: C4 E2 B3 F6 46 18  mulx        rax,r9,qword ptr [rsi+18h]
  0000000000002706: 66 4D 0F 38 F6 C2  adcx        r8,r10
  000000000000270C: F3 4C 0F 38 F6 CB  adox        r9,rbx
  0000000000002712: C4 E2 AB F6 5E 20  mulx        rbx,r10,qword ptr [rsi+20h]
  0000000000002718: 66 4D 0F 38 F6 CB  adcx        r9,r11
  000000000000271E: F3 4C 0F 38 F6 D0  adox        r10,rax
  0000000000002724: C4 E2 A3 F6 86 28  mulx        rax,r11,qword ptr [rsi+28h]
                    00 00 00
  000000000000272D: 66 4D 0F 38 F6 D4  adcx        r10,r12
  0000000000002733: F3 4C 0F 38 F6 DB  adox        r11,rbx
  0000000000002739: C4 E2 9B F6 9E 30  mulx        rbx,r12,qword ptr [rsi+30h]
                    00 00 00
  0000000000002742: 66 4D 0F 38 F6 DD  adcx        r11,r13
  0000000000002748: F3 4D 0F 38 F6 E6  adox        r12,r14
  000000000000274E: C4 62 93 F6 B6 38  mulx        r14,r13,qword ptr [rsi+38h]
                    00 00 00
  0000000000002757: 48 8B 56 10        mov         rdx,qword ptr [rsi+10h]
  000000000000275B: 66 4C 0F 38 F6 E0  adcx        r12,rax
  0000000000002761: F3 4C 0F 38 F6 EB  adox        r13,rbx
  0000000000002767: 66 4D 0F 38 F6 EF  adcx        r13,r15
  000000000000276D: F3 4C 0F 38 F6 F5  adox        r14,rbp
  0000000000002773: 66 4C 0F 38 F6 F5  adcx        r14,rbp
  0000000000002779: 4C 89 47 18        mov         qword ptr [rdi+18h],r8
  000000000000277D: 4C 89 4F 20        mov         qword ptr [rdi+20h],r9
  0000000000002781: C4 E2 BB F6 5E 18  mulx        rbx,r8,qword ptr [rsi+18h]
  0000000000002787: C4 E2 B3 F6 46 20  mulx        rax,r9,qword ptr [rsi+20h]
  000000000000278D: 66 4D 0F 38 F6 C2  adcx        r8,r10
  0000000000002793: F3 4C 0F 38 F6 CB  adox        r9,rbx
  0000000000002799: C4 E2 AB F6 5E 28  mulx        rbx,r10,qword ptr [rsi+28h]
  000000000000279F: 66 4D 0F 38 F6 CB  adcx        r9,r11
  00000000000027A5: F3 4C 0F 38 F6 D0  adox        r10,rax
  00000000000027AB: C4 E2 A3 F6 86 30  mulx        rax,r11,qword ptr [rsi+30h]
                    00 00 00
  00000000000027B4: 66 4D 0F 38 F6 D4  adcx        r10,r12
  00000000000027BA: F3 4D 0F 38 F6 DD  adox        r11,r13
  00000000000027C0: C4 62 9B F6 AE 38  mulx        r13,r12,qword ptr [rsi+38h]
                    00 00 00
  00000000000027C9: 3E 48 8B 56 18     mov         rdx,qword ptr ds:[rsi+18h]
  00000000000027CE: 66 4C 0F 38 F6 DB  adcx        r11,rbx
  00000000000027D4: F3 4C 0F 38 F6 E0  adox        r12,rax
  00000000000027DA: 66 4D 0F 38 F6 E6  adcx        r12,r14
  00000000000027E0: 4C 89 47 28        mov         qword ptr [rdi+28h],r8
  00000000000027E4: 4C 89 4F 30        mov         qword ptr [rdi+30h],r9
  00000000000027E8: C4 E2 BB F6 46 20  mulx        rax,r8,qword ptr [rsi+20h]
  00000000000027EE: F3 4C 0F 38 F6 ED  adox        r13,rbp
  00000000000027F4: 66 4C 0F 38 F6 ED  adcx        r13,rbp
  00000000000027FA: C4 E2 B3 F6 5E 28  mulx        rbx,r9,qword ptr [rsi+28h]
  0000000000002800: 66 4D 0F 38 F6 C2  adcx        r8,r10
  0000000000002806: F3 4C 0F 38 F6 C8  adox        r9,rax
  000000000000280C: C4 E2 AB F6 46 30  mulx        rax,r10,qword ptr [rsi+30h]
  0000000000002812: 66 4D 0F 38 F6 CB  adcx        r9,r11
  0000000000002818: F3 4D 0F 38 F6 D4  adox        r10,r12
  000000000000281E: C4 62 A3 F6 66 38  mulx        r12,r11,qword ptr [rsi+38h]
  0000000000002824: 48 8B 56 20        mov         rdx,qword ptr [rsi+20h]
  0000000000002828: 4C 8B 76 28        mov         r14,qword ptr [rsi+28h]
  000000000000282C: 66 4C 0F 38 F6 D3  adcx        r10,rbx
  0000000000002832: F3 4C 0F 38 F6 D8  adox        r11,rax
  0000000000002838: 4C 8B 7E 30        mov         r15,qword ptr [rsi+30h]
  000000000000283C: 66 4D 0F 38 F6 DD  adcx        r11,r13
  0000000000002842: F3 4C 0F 38 F6 E5  adox        r12,rbp
  0000000000002848: 66 4C 0F 38 F6 E5  adcx        r12,rbp
  000000000000284E: 4C 89 47 38        mov         qword ptr [rdi+38h],r8
  0000000000002852: 4C 89 4F 40        mov         qword ptr [rdi+40h],r9
  0000000000002856: C4 C2 B3 F6 C6     mulx        rax,r9,r14
  000000000000285B: 4C 8B 46 38        mov         r8,qword ptr [rsi+38h]
  000000000000285F: 66 4D 0F 38 F6 CA  adcx        r9,r10
  0000000000002865: C4 C2 AB F6 DF     mulx        rbx,r10,r15
  000000000000286A: F3 4C 0F 38 F6 D0  adox        r10,rax
  0000000000002870: 66 4D 0F 38 F6 D3  adcx        r10,r11
  0000000000002876: C4 C2 A3 F6 C0     mulx        rax,r11,r8
  000000000000287B: 4C 89 F2           mov         rdx,r14
  000000000000287E: F3 4C 0F 38 F6 DB  adox        r11,rbx
  0000000000002884: 66 4D 0F 38 F6 DC  adcx        r11,r12
  000000000000288A: 66 48 0F 38 F6 C5  adcx        rax,rbp
  0000000000002890: C4 C2 8B F6 DF     mulx        rbx,r14,r15
  0000000000002895: C4 42 9B F6 E8     mulx        r13,r12,r8
  000000000000289A: 4C 89 FA           mov         rdx,r15
  000000000000289D: 48 8D 76 40        lea         rsi,[rsi+40h]
  00000000000028A1: 66 4D 0F 38 F6 DE  adcx        r11,r14
  00000000000028A7: F3 4C 0F 38 F6 E3  adox        r12,rbx
  00000000000028AD: 66 4C 0F 38 F6 E0  adcx        r12,rax
  00000000000028B3: F3 4C 0F 38 F6 ED  adox        r13,rbp
  00000000000028B9: 67 67 C4 42 BB F6  mulx        r14,r8,r8
                    F0
  00000000000028C0: 66 4D 0F 38 F6 E8  adcx        r13,r8
  00000000000028C6: 66 4C 0F 38 F6 F5  adcx        r14,rbp
  00000000000028CC: 48 3B 74 24 10     cmp         rsi,qword ptr [rsp+10h]
  00000000000028D1: 0F 84 09 02 00 00  je          L$sqrx8x_outer_break
  00000000000028D7: 48 F7 D9           neg         rcx
  00000000000028DA: 48 C7 C1 F8 FF FF  mov         rcx,0FFFFFFFFFFFFFFF8h
                    FF
  00000000000028E1: 49 89 EF           mov         r15,rbp
  00000000000028E4: 4C 8B 47 40        mov         r8,qword ptr [rdi+40h]
  00000000000028E8: 66 4C 0F 38 F6 4F  adcx        r9,qword ptr [rdi+48h]
                    48
  00000000000028EF: 66 4C 0F 38 F6 57  adcx        r10,qword ptr [rdi+50h]
                    50
  00000000000028F6: 66 4C 0F 38 F6 5F  adcx        r11,qword ptr [rdi+58h]
                    58
  00000000000028FD: 4C 13 67 60        adc         r12,qword ptr [rdi+60h]
  0000000000002901: 4C 13 6F 68        adc         r13,qword ptr [rdi+68h]
  0000000000002905: 4C 13 77 70        adc         r14,qword ptr [rdi+70h]
  0000000000002909: 4C 13 7F 78        adc         r15,qword ptr [rdi+78h]
  000000000000290D: 48 8D 2E           lea         rbp,[rsi]
  0000000000002910: 48 8D BF 80 00 00  lea         rdi,[rdi+80h]
                    00
  0000000000002917: 48 19 C0           sbb         rax,rax
  000000000000291A: 48 8B 56 C0        mov         rdx,qword ptr [rsi-40h]
  000000000000291E: 48 89 44 24 18     mov         qword ptr [rsp+18h],rax
  0000000000002923: 48 89 7C 24 20     mov         qword ptr [rsp+20h],rdi
  0000000000002928: 31 C0              xor         eax,eax
  000000000000292A: E9 11 00 00 00     jmp         L$sqrx8x_loop
  000000000000292F: 90                 nop
  0000000000002930: 90                 nop
  0000000000002931: 90                 nop
  0000000000002932: 90                 nop
  0000000000002933: 90                 nop
  0000000000002934: 90                 nop
  0000000000002935: 90                 nop
  0000000000002936: 90                 nop
  0000000000002937: 90                 nop
  0000000000002938: 90                 nop
  0000000000002939: 90                 nop
  000000000000293A: 90                 nop
  000000000000293B: 90                 nop
  000000000000293C: 90                 nop
  000000000000293D: 90                 nop
  000000000000293E: 90                 nop
  000000000000293F: 90                 nop
L$sqrx8x_loop:
  0000000000002940: 4C 89 C3           mov         rbx,r8
  0000000000002943: C4 62 FB F6 45 00  mulx        r8,rax,qword ptr [rbp]
  0000000000002949: 66 48 0F 38 F6 D8  adcx        rbx,rax
  000000000000294F: F3 4D 0F 38 F6 C1  adox        r8,r9
  0000000000002955: C4 62 FB F6 4D 08  mulx        r9,rax,qword ptr [rbp+8]
  000000000000295B: 66 4C 0F 38 F6 C0  adcx        r8,rax
  0000000000002961: F3 4D 0F 38 F6 CA  adox        r9,r10
  0000000000002967: C4 62 FB F6 55 10  mulx        r10,rax,qword ptr [rbp+10h]
  000000000000296D: 66 4C 0F 38 F6 C8  adcx        r9,rax
  0000000000002973: F3 4D 0F 38 F6 D3  adox        r10,r11
  0000000000002979: C4 62 FB F6 5D 18  mulx        r11,rax,qword ptr [rbp+18h]
  000000000000297F: 66 4C 0F 38 F6 D0  adcx        r10,rax
  0000000000002985: F3 4D 0F 38 F6 DC  adox        r11,r12
  000000000000298B: C4 62 FB F6 A5 20  mulx        r12,rax,qword ptr [rbp+20h]
                    00 00 00
  0000000000002994: 66 4C 0F 38 F6 D8  adcx        r11,rax
  000000000000299A: F3 4D 0F 38 F6 E5  adox        r12,r13
  00000000000029A0: C4 62 FB F6 6D 28  mulx        r13,rax,qword ptr [rbp+28h]
  00000000000029A6: 66 4C 0F 38 F6 E0  adcx        r12,rax
  00000000000029AC: F3 4D 0F 38 F6 EE  adox        r13,r14
  00000000000029B2: C4 62 FB F6 75 30  mulx        r14,rax,qword ptr [rbp+30h]
  00000000000029B8: 48 89 1C CF        mov         qword ptr [rdi+rcx*8],rbx
  00000000000029BC: BB 00 00 00 00     mov         ebx,0
  00000000000029C1: 66 4C 0F 38 F6 E8  adcx        r13,rax
  00000000000029C7: F3 4D 0F 38 F6 F7  adox        r14,r15
  00000000000029CD: C4 62 FB F6 BD 38  mulx        r15,rax,qword ptr [rbp+38h]
                    00 00 00
  00000000000029D6: 48 8B 54 CE 08     mov         rdx,qword ptr [rsi+rcx*8+8]
  00000000000029DB: 66 4C 0F 38 F6 F0  adcx        r14,rax
  00000000000029E1: F3 4C 0F 38 F6 FB  adox        r15,rbx
  00000000000029E7: 66 4C 0F 38 F6 FB  adcx        r15,rbx
  00000000000029ED: 67 48 FF C1        inc         rcx
  00000000000029F1: 0F 85 49 FF FF FF  jne         L$sqrx8x_loop
  00000000000029F7: 48 8D 6D 40        lea         rbp,[rbp+40h]
  00000000000029FB: 48 C7 C1 F8 FF FF  mov         rcx,0FFFFFFFFFFFFFFF8h
                    FF
  0000000000002A02: 48 3B 6C 24 10     cmp         rbp,qword ptr [rsp+10h]
  0000000000002A07: 0F 84 53 00 00 00  je          L$sqrx8x_break
  0000000000002A0D: 48 2B 5C 24 18     sub         rbx,qword ptr [rsp+18h]
  0000000000002A12: 66 48 8B 56 C0     mov         rdx,qword ptr [rsi-40h]
  0000000000002A17: 66 4C 0F 38 F6 07  adcx        r8,qword ptr [rdi]
  0000000000002A1D: 66 4C 0F 38 F6 4F  adcx        r9,qword ptr [rdi+8]
                    08
  0000000000002A24: 4C 13 57 10        adc         r10,qword ptr [rdi+10h]
  0000000000002A28: 4C 13 5F 18        adc         r11,qword ptr [rdi+18h]
  0000000000002A2C: 4C 13 67 20        adc         r12,qword ptr [rdi+20h]
  0000000000002A30: 4C 13 6F 28        adc         r13,qword ptr [rdi+28h]
  0000000000002A34: 4C 13 77 30        adc         r14,qword ptr [rdi+30h]
  0000000000002A38: 4C 13 7F 38        adc         r15,qword ptr [rdi+38h]
  0000000000002A3C: 48 8D 7F 40        lea         rdi,[rdi+40h]
  0000000000002A40: 67 48 19 C0        sbb         rax,rax
  0000000000002A44: 31 DB              xor         ebx,ebx
  0000000000002A46: 48 89 44 24 18     mov         qword ptr [rsp+18h],rax
  0000000000002A4B: E9 F0 FE FF FF     jmp         L$sqrx8x_loop
  0000000000002A50: 90                 nop
  0000000000002A51: 90                 nop
  0000000000002A52: 90                 nop
  0000000000002A53: 90                 nop
  0000000000002A54: 90                 nop
  0000000000002A55: 90                 nop
  0000000000002A56: 90                 nop
  0000000000002A57: 90                 nop
  0000000000002A58: 90                 nop
  0000000000002A59: 90                 nop
  0000000000002A5A: 90                 nop
  0000000000002A5B: 90                 nop
  0000000000002A5C: 90                 nop
  0000000000002A5D: 90                 nop
  0000000000002A5E: 90                 nop
  0000000000002A5F: 90                 nop
L$sqrx8x_break:
  0000000000002A60: 48 31 ED           xor         rbp,rbp
  0000000000002A63: 48 2B 5C 24 18     sub         rbx,qword ptr [rsp+18h]
  0000000000002A68: 66 4C 0F 38 F6 C5  adcx        r8,rbp
  0000000000002A6E: 48 8B 4C 24 20     mov         rcx,qword ptr [rsp+20h]
  0000000000002A73: 66 4C 0F 38 F6 CD  adcx        r9,rbp
  0000000000002A79: 48 8B 16           mov         rdx,qword ptr [rsi]
  0000000000002A7C: 49 83 D2 00        adc         r10,0
  0000000000002A80: 4C 89 07           mov         qword ptr [rdi],r8
  0000000000002A83: 49 83 D3 00        adc         r11,0
  0000000000002A87: 49 83 D4 00        adc         r12,0
  0000000000002A8B: 49 83 D5 00        adc         r13,0
  0000000000002A8F: 49 83 D6 00        adc         r14,0
  0000000000002A93: 49 83 D7 00        adc         r15,0
  0000000000002A97: 48 39 CF           cmp         rdi,rcx
  0000000000002A9A: 0F 84 C0 FB FF FF  je          L$sqrx8x_outer_loop
  0000000000002AA0: 4C 89 4F 08        mov         qword ptr [rdi+8],r9
  0000000000002AA4: 4C 8B 49 08        mov         r9,qword ptr [rcx+8]
  0000000000002AA8: 4C 89 57 10        mov         qword ptr [rdi+10h],r10
  0000000000002AAC: 4C 8B 51 10        mov         r10,qword ptr [rcx+10h]
  0000000000002AB0: 4C 89 5F 18        mov         qword ptr [rdi+18h],r11
  0000000000002AB4: 4C 8B 59 18        mov         r11,qword ptr [rcx+18h]
  0000000000002AB8: 4C 89 67 20        mov         qword ptr [rdi+20h],r12
  0000000000002ABC: 4C 8B 61 20        mov         r12,qword ptr [rcx+20h]
  0000000000002AC0: 4C 89 6F 28        mov         qword ptr [rdi+28h],r13
  0000000000002AC4: 4C 8B 69 28        mov         r13,qword ptr [rcx+28h]
  0000000000002AC8: 4C 89 77 30        mov         qword ptr [rdi+30h],r14
  0000000000002ACC: 4C 8B 71 30        mov         r14,qword ptr [rcx+30h]
  0000000000002AD0: 4C 89 7F 38        mov         qword ptr [rdi+38h],r15
  0000000000002AD4: 4C 8B 79 38        mov         r15,qword ptr [rcx+38h]
  0000000000002AD8: 48 89 CF           mov         rdi,rcx
  0000000000002ADB: E9 80 FB FF FF     jmp         L$sqrx8x_outer_loop
L$sqrx8x_outer_break:
  0000000000002AE0: 4C 89 4F 48        mov         qword ptr [rdi+48h],r9
  0000000000002AE4: 66 48 0F 7E D9     movq        rcx,xmm3
  0000000000002AE9: 4C 89 57 50        mov         qword ptr [rdi+50h],r10
  0000000000002AED: 4C 89 5F 58        mov         qword ptr [rdi+58h],r11
  0000000000002AF1: 4C 89 67 60        mov         qword ptr [rdi+60h],r12
  0000000000002AF5: 4C 89 6F 68        mov         qword ptr [rdi+68h],r13
  0000000000002AF9: 4C 89 77 70        mov         qword ptr [rdi+70h],r14
  0000000000002AFD: 48 8D 7C 24 38     lea         rdi,[rsp+38h]
  0000000000002B02: 48 8B 14 0E        mov         rdx,qword ptr [rsi+rcx]
  0000000000002B06: 4C 8B 5F 08        mov         r11,qword ptr [rdi+8]
  0000000000002B0A: 4D 31 D2           xor         r10,r10
  0000000000002B0D: 4C 8B 4C 24 08     mov         r9,qword ptr [rsp+8]
  0000000000002B12: F3 4D 0F 38 F6 DB  adox        r11,r11
  0000000000002B18: 4C 8B 67 10        mov         r12,qword ptr [rdi+10h]
  0000000000002B1C: 4C 8B 6F 18        mov         r13,qword ptr [rdi+18h]
L$sqrx4x_shift_n_add:
  0000000000002B20: C4 E2 FB F6 DA     mulx        rbx,rax,rdx
  0000000000002B25: F3 4D 0F 38 F6 E4  adox        r12,r12
  0000000000002B2B: 66 49 0F 38 F6 C2  adcx        rax,r10
  0000000000002B31: 48 8B 94 0E 08 00  mov         rdx,qword ptr [rsi+rcx+8]
                    00 00
  0000000000002B39: 4C 8B 97 20 00 00  mov         r10,qword ptr [rdi+20h]
                    00
  0000000000002B40: F3 4D 0F 38 F6 ED  adox        r13,r13
  0000000000002B46: 66 49 0F 38 F6 DB  adcx        rbx,r11
  0000000000002B4C: 4C 8B 5F 28        mov         r11,qword ptr [rdi+28h]
  0000000000002B50: 48 89 07           mov         qword ptr [rdi],rax
  0000000000002B53: 48 89 5F 08        mov         qword ptr [rdi+8],rbx
  0000000000002B57: C4 E2 FB F6 DA     mulx        rbx,rax,rdx
  0000000000002B5C: F3 4D 0F 38 F6 D2  adox        r10,r10
  0000000000002B62: 66 49 0F 38 F6 C4  adcx        rax,r12
  0000000000002B68: 48 8B 54 0E 10     mov         rdx,qword ptr [rsi+rcx+10h]
  0000000000002B6D: 4C 8B 67 30        mov         r12,qword ptr [rdi+30h]
  0000000000002B71: F3 4D 0F 38 F6 DB  adox        r11,r11
  0000000000002B77: 66 49 0F 38 F6 DD  adcx        rbx,r13
  0000000000002B7D: 4C 8B 6F 38        mov         r13,qword ptr [rdi+38h]
  0000000000002B81: 48 89 47 10        mov         qword ptr [rdi+10h],rax
  0000000000002B85: 48 89 5F 18        mov         qword ptr [rdi+18h],rbx
  0000000000002B89: C4 E2 FB F6 DA     mulx        rbx,rax,rdx
  0000000000002B8E: F3 4D 0F 38 F6 E4  adox        r12,r12
  0000000000002B94: 66 49 0F 38 F6 C2  adcx        rax,r10
  0000000000002B9A: 48 8B 54 0E 18     mov         rdx,qword ptr [rsi+rcx+18h]
  0000000000002B9F: 48 8D 49 20        lea         rcx,[rcx+20h]
  0000000000002BA3: 4C 8B 57 40        mov         r10,qword ptr [rdi+40h]
  0000000000002BA7: F3 4D 0F 38 F6 ED  adox        r13,r13
  0000000000002BAD: 66 49 0F 38 F6 DB  adcx        rbx,r11
  0000000000002BB3: 4C 8B 5F 48        mov         r11,qword ptr [rdi+48h]
  0000000000002BB7: 48 89 47 20        mov         qword ptr [rdi+20h],rax
  0000000000002BBB: 48 89 5F 28        mov         qword ptr [rdi+28h],rbx
  0000000000002BBF: C4 E2 FB F6 DA     mulx        rbx,rax,rdx
  0000000000002BC4: F3 4D 0F 38 F6 D2  adox        r10,r10
  0000000000002BCA: 66 49 0F 38 F6 C4  adcx        rax,r12
  0000000000002BD0: E3 2E              jrcxz       L$sqrx4x_shift_n_add_break
  0000000000002BD2: 48 8B 94 0E 00 00  mov         rdx,qword ptr [rsi+rcx]
                    00 00
  0000000000002BDA: F3 4D 0F 38 F6 DB  adox        r11,r11
  0000000000002BE0: 66 49 0F 38 F6 DD  adcx        rbx,r13
  0000000000002BE6: 4C 8B 67 50        mov         r12,qword ptr [rdi+50h]
  0000000000002BEA: 4C 8B 6F 58        mov         r13,qword ptr [rdi+58h]
  0000000000002BEE: 48 89 47 30        mov         qword ptr [rdi+30h],rax
  0000000000002BF2: 48 89 5F 38        mov         qword ptr [rdi+38h],rbx
  0000000000002BF6: 48 8D 7F 40        lea         rdi,[rdi+40h]
  0000000000002BFA: 90                 nop
  0000000000002BFB: E9 20 FF FF FF     jmp         L$sqrx4x_shift_n_add
L$sqrx4x_shift_n_add_break:
  0000000000002C00: 66 49 0F 38 F6 DD  adcx        rbx,r13
  0000000000002C06: 48 89 47 30        mov         qword ptr [rdi+30h],rax
  0000000000002C0A: 48 89 5F 38        mov         qword ptr [rdi+38h],rbx
  0000000000002C0E: 48 8D 7F 40        lea         rdi,[rdi+40h]
  0000000000002C12: 66 48 0F 7E D5     movq        rbp,xmm2
__bn_sqrx8x_reduction:
  0000000000002C17: 31 C0              xor         eax,eax
  0000000000002C19: 48 8B 5C 24 28     mov         rbx,qword ptr [rsp+28h]
  0000000000002C1E: 48 8B 54 24 38     mov         rdx,qword ptr [rsp+38h]
  0000000000002C23: 4A 8D 4C 0D C0     lea         rcx,[rbp+r9-40h]
  0000000000002C28: 48 89 4C 24 08     mov         qword ptr [rsp+8],rcx
  0000000000002C2D: 48 89 7C 24 10     mov         qword ptr [rsp+10h],rdi
  0000000000002C32: 48 8D 7C 24 38     lea         rdi,[rsp+38h]
  0000000000002C37: E9 04 00 00 00     jmp         L$sqrx8x_reduction_loop
  0000000000002C3C: 90                 nop
  0000000000002C3D: 90                 nop
  0000000000002C3E: 90                 nop
  0000000000002C3F: 90                 nop
L$sqrx8x_reduction_loop:
  0000000000002C40: 4C 8B 4F 08        mov         r9,qword ptr [rdi+8]
  0000000000002C44: 4C 8B 57 10        mov         r10,qword ptr [rdi+10h]
  0000000000002C48: 4C 8B 5F 18        mov         r11,qword ptr [rdi+18h]
  0000000000002C4C: 4C 8B 67 20        mov         r12,qword ptr [rdi+20h]
  0000000000002C50: 49 89 D0           mov         r8,rdx
  0000000000002C53: 48 0F AF D3        imul        rdx,rbx
  0000000000002C57: 4C 8B 6F 28        mov         r13,qword ptr [rdi+28h]
  0000000000002C5B: 4C 8B 77 30        mov         r14,qword ptr [rdi+30h]
  0000000000002C5F: 4C 8B 7F 38        mov         r15,qword ptr [rdi+38h]
  0000000000002C63: 48 89 44 24 20     mov         qword ptr [rsp+20h],rax
  0000000000002C68: 48 8D 7F 40        lea         rdi,[rdi+40h]
  0000000000002C6C: 48 31 F6           xor         rsi,rsi
  0000000000002C6F: 48 C7 C1 F8 FF FF  mov         rcx,0FFFFFFFFFFFFFFF8h
                    FF
  0000000000002C76: E9 05 00 00 00     jmp         L$sqrx8x_reduce
  0000000000002C7B: 90                 nop
  0000000000002C7C: 90                 nop
  0000000000002C7D: 90                 nop
  0000000000002C7E: 90                 nop
  0000000000002C7F: 90                 nop
L$sqrx8x_reduce:
  0000000000002C80: 4C 89 C3           mov         rbx,r8
  0000000000002C83: C4 62 FB F6 45 00  mulx        r8,rax,qword ptr [rbp]
  0000000000002C89: 66 48 0F 38 F6 C3  adcx        rax,rbx
  0000000000002C8F: F3 4D 0F 38 F6 C1  adox        r8,r9
  0000000000002C95: C4 62 E3 F6 4D 08  mulx        r9,rbx,qword ptr [rbp+8]
  0000000000002C9B: 66 4C 0F 38 F6 C3  adcx        r8,rbx
  0000000000002CA1: F3 4D 0F 38 F6 CA  adox        r9,r10
  0000000000002CA7: C4 62 E3 F6 55 10  mulx        r10,rbx,qword ptr [rbp+10h]
  0000000000002CAD: 66 4C 0F 38 F6 CB  adcx        r9,rbx
  0000000000002CB3: F3 4D 0F 38 F6 D3  adox        r10,r11
  0000000000002CB9: C4 62 E3 F6 5D 18  mulx        r11,rbx,qword ptr [rbp+18h]
  0000000000002CBF: 66 4C 0F 38 F6 D3  adcx        r10,rbx
  0000000000002CC5: F3 4D 0F 38 F6 DC  adox        r11,r12
  0000000000002CCB: C4 62 E3 F6 A5 20  mulx        r12,rbx,qword ptr [rbp+20h]
                    00 00 00
  0000000000002CD4: 48 89 D0           mov         rax,rdx
  0000000000002CD7: 4C 89 C2           mov         rdx,r8
  0000000000002CDA: 66 4C 0F 38 F6 DB  adcx        r11,rbx
  0000000000002CE0: F3 4D 0F 38 F6 E5  adox        r12,r13
  0000000000002CE6: C4 E2 E3 F6 54 24  mulx        rdx,rbx,qword ptr [rsp+28h]
                    28
  0000000000002CED: 48 89 C2           mov         rdx,rax
  0000000000002CF0: 48 89 44 CC 78     mov         qword ptr [rsp+rcx*8+78h],rax
  0000000000002CF5: C4 62 FB F6 6D 28  mulx        r13,rax,qword ptr [rbp+28h]
  0000000000002CFB: 66 4C 0F 38 F6 E0  adcx        r12,rax
  0000000000002D01: F3 4D 0F 38 F6 EE  adox        r13,r14
  0000000000002D07: C4 62 FB F6 75 30  mulx        r14,rax,qword ptr [rbp+30h]
  0000000000002D0D: 66 4C 0F 38 F6 E8  adcx        r13,rax
  0000000000002D13: F3 4D 0F 38 F6 F7  adox        r14,r15
  0000000000002D19: C4 62 FB F6 7D 38  mulx        r15,rax,qword ptr [rbp+38h]
  0000000000002D1F: 48 89 DA           mov         rdx,rbx
  0000000000002D22: 66 4C 0F 38 F6 F0  adcx        r14,rax
  0000000000002D28: F3 4C 0F 38 F6 FE  adox        r15,rsi
  0000000000002D2E: 66 4C 0F 38 F6 FE  adcx        r15,rsi
  0000000000002D34: 67 67 67 48 FF C1  inc         rcx
  0000000000002D3A: 0F 85 40 FF FF FF  jne         L$sqrx8x_reduce
  0000000000002D40: 48 89 F0           mov         rax,rsi
  0000000000002D43: 48 3B 6C 24 08     cmp         rbp,qword ptr [rsp+8]
  0000000000002D48: 0F 83 9F 01 00 00  jae         L$sqrx8x_no_tail
  0000000000002D4E: 48 8B 54 24 38     mov         rdx,qword ptr [rsp+38h]
  0000000000002D53: 4C 03 07           add         r8,qword ptr [rdi]
  0000000000002D56: 48 8D 6D 40        lea         rbp,[rbp+40h]
  0000000000002D5A: 48 C7 C1 F8 FF FF  mov         rcx,0FFFFFFFFFFFFFFF8h
                    FF
  0000000000002D61: 66 4C 0F 38 F6 4F  adcx        r9,qword ptr [rdi+8]
                    08
  0000000000002D68: 66 4C 0F 38 F6 57  adcx        r10,qword ptr [rdi+10h]
                    10
  0000000000002D6F: 4C 13 5F 18        adc         r11,qword ptr [rdi+18h]
  0000000000002D73: 4C 13 67 20        adc         r12,qword ptr [rdi+20h]
  0000000000002D77: 4C 13 6F 28        adc         r13,qword ptr [rdi+28h]
  0000000000002D7B: 4C 13 77 30        adc         r14,qword ptr [rdi+30h]
  0000000000002D7F: 4C 13 7F 38        adc         r15,qword ptr [rdi+38h]
  0000000000002D83: 48 8D 7F 40        lea         rdi,[rdi+40h]
  0000000000002D87: 48 19 C0           sbb         rax,rax
  0000000000002D8A: 48 31 F6           xor         rsi,rsi
  0000000000002D8D: 48 89 44 24 18     mov         qword ptr [rsp+18h],rax
  0000000000002D92: E9 09 00 00 00     jmp         L$sqrx8x_tail
  0000000000002D97: 90                 nop
  0000000000002D98: 90                 nop
  0000000000002D99: 90                 nop
  0000000000002D9A: 90                 nop
  0000000000002D9B: 90                 nop
  0000000000002D9C: 90                 nop
  0000000000002D9D: 90                 nop
  0000000000002D9E: 90                 nop
  0000000000002D9F: 90                 nop
L$sqrx8x_tail:
  0000000000002DA0: 4C 89 C3           mov         rbx,r8
  0000000000002DA3: C4 62 FB F6 45 00  mulx        r8,rax,qword ptr [rbp]
  0000000000002DA9: 66 48 0F 38 F6 D8  adcx        rbx,rax
  0000000000002DAF: F3 4D 0F 38 F6 C1  adox        r8,r9
  0000000000002DB5: C4 62 FB F6 4D 08  mulx        r9,rax,qword ptr [rbp+8]
  0000000000002DBB: 66 4C 0F 38 F6 C0  adcx        r8,rax
  0000000000002DC1: F3 4D 0F 38 F6 CA  adox        r9,r10
  0000000000002DC7: C4 62 FB F6 55 10  mulx        r10,rax,qword ptr [rbp+10h]
  0000000000002DCD: 66 4C 0F 38 F6 C8  adcx        r9,rax
  0000000000002DD3: F3 4D 0F 38 F6 D3  adox        r10,r11
  0000000000002DD9: C4 62 FB F6 5D 18  mulx        r11,rax,qword ptr [rbp+18h]
  0000000000002DDF: 66 4C 0F 38 F6 D0  adcx        r10,rax
  0000000000002DE5: F3 4D 0F 38 F6 DC  adox        r11,r12
  0000000000002DEB: C4 62 FB F6 A5 20  mulx        r12,rax,qword ptr [rbp+20h]
                    00 00 00
  0000000000002DF4: 66 4C 0F 38 F6 D8  adcx        r11,rax
  0000000000002DFA: F3 4D 0F 38 F6 E5  adox        r12,r13
  0000000000002E00: C4 62 FB F6 6D 28  mulx        r13,rax,qword ptr [rbp+28h]
  0000000000002E06: 66 4C 0F 38 F6 E0  adcx        r12,rax
  0000000000002E0C: F3 4D 0F 38 F6 EE  adox        r13,r14
  0000000000002E12: C4 62 FB F6 75 30  mulx        r14,rax,qword ptr [rbp+30h]
  0000000000002E18: 66 4C 0F 38 F6 E8  adcx        r13,rax
  0000000000002E1E: F3 4D 0F 38 F6 F7  adox        r14,r15
  0000000000002E24: C4 62 FB F6 7D 38  mulx        r15,rax,qword ptr [rbp+38h]
  0000000000002E2A: 48 8B 94 CC 80 00  mov         rdx,qword ptr [rsp+rcx*8+80h]
                    00 00
  0000000000002E32: 66 4C 0F 38 F6 F0  adcx        r14,rax
  0000000000002E38: F3 4C 0F 38 F6 FE  adox        r15,rsi
  0000000000002E3E: 48 89 1C CF        mov         qword ptr [rdi+rcx*8],rbx
  0000000000002E42: 4C 89 C3           mov         rbx,r8
  0000000000002E45: 66 4C 0F 38 F6 FE  adcx        r15,rsi
  0000000000002E4B: 48 FF C1           inc         rcx
  0000000000002E4E: 0F 85 4C FF FF FF  jne         L$sqrx8x_tail
  0000000000002E54: 48 3B 6C 24 08     cmp         rbp,qword ptr [rsp+8]
  0000000000002E59: 0F 83 61 00 00 00  jae         L$sqrx8x_tail_done
  0000000000002E5F: 48 2B 74 24 18     sub         rsi,qword ptr [rsp+18h]
  0000000000002E64: 48 8B 54 24 38     mov         rdx,qword ptr [rsp+38h]
  0000000000002E69: 48 8D 6D 40        lea         rbp,[rbp+40h]
  0000000000002E6D: 4C 13 07           adc         r8,qword ptr [rdi]
  0000000000002E70: 4C 13 4F 08        adc         r9,qword ptr [rdi+8]
  0000000000002E74: 4C 13 57 10        adc         r10,qword ptr [rdi+10h]
  0000000000002E78: 4C 13 5F 18        adc         r11,qword ptr [rdi+18h]
  0000000000002E7C: 4C 13 67 20        adc         r12,qword ptr [rdi+20h]
  0000000000002E80: 4C 13 6F 28        adc         r13,qword ptr [rdi+28h]
  0000000000002E84: 4C 13 77 30        adc         r14,qword ptr [rdi+30h]
  0000000000002E88: 4C 13 7F 38        adc         r15,qword ptr [rdi+38h]
  0000000000002E8C: 48 8D 7F 40        lea         rdi,[rdi+40h]
  0000000000002E90: 48 19 C0           sbb         rax,rax
  0000000000002E93: 48 83 E9 08        sub         rcx,8
  0000000000002E97: 48 31 F6           xor         rsi,rsi
  0000000000002E9A: 48 89 44 24 18     mov         qword ptr [rsp+18h],rax
  0000000000002E9F: E9 FC FE FF FF     jmp         L$sqrx8x_tail
  0000000000002EA4: 90                 nop
  0000000000002EA5: 90                 nop
  0000000000002EA6: 90                 nop
  0000000000002EA7: 90                 nop
  0000000000002EA8: 90                 nop
  0000000000002EA9: 90                 nop
  0000000000002EAA: 90                 nop
  0000000000002EAB: 90                 nop
  0000000000002EAC: 90                 nop
  0000000000002EAD: 90                 nop
  0000000000002EAE: 90                 nop
  0000000000002EAF: 90                 nop
  0000000000002EB0: 90                 nop
  0000000000002EB1: 90                 nop
  0000000000002EB2: 90                 nop
  0000000000002EB3: 90                 nop
  0000000000002EB4: 90                 nop
  0000000000002EB5: 90                 nop
  0000000000002EB6: 90                 nop
  0000000000002EB7: 90                 nop
  0000000000002EB8: 90                 nop
  0000000000002EB9: 90                 nop
  0000000000002EBA: 90                 nop
  0000000000002EBB: 90                 nop
  0000000000002EBC: 90                 nop
  0000000000002EBD: 90                 nop
  0000000000002EBE: 90                 nop
  0000000000002EBF: 90                 nop
L$sqrx8x_tail_done:
  0000000000002EC0: 48 31 C0           xor         rax,rax
  0000000000002EC3: 4C 03 44 24 20     add         r8,qword ptr [rsp+20h]
  0000000000002EC8: 49 83 D1 00        adc         r9,0
  0000000000002ECC: 49 83 D2 00        adc         r10,0
  0000000000002ED0: 49 83 D3 00        adc         r11,0
  0000000000002ED4: 49 83 D4 00        adc         r12,0
  0000000000002ED8: 49 83 D5 00        adc         r13,0
  0000000000002EDC: 49 83 D6 00        adc         r14,0
  0000000000002EE0: 49 83 D7 00        adc         r15,0
  0000000000002EE4: 48 83 D0 00        adc         rax,0
  0000000000002EE8: 48 2B 74 24 18     sub         rsi,qword ptr [rsp+18h]
L$sqrx8x_no_tail:
  0000000000002EED: 4C 13 07           adc         r8,qword ptr [rdi]
  0000000000002EF0: 66 48 0F 7E D9     movq        rcx,xmm3
  0000000000002EF5: 4C 13 4F 08        adc         r9,qword ptr [rdi+8]
  0000000000002EF9: 48 8B 75 38        mov         rsi,qword ptr [rbp+38h]
  0000000000002EFD: 66 48 0F 7E D5     movq        rbp,xmm2
  0000000000002F02: 4C 13 57 10        adc         r10,qword ptr [rdi+10h]
  0000000000002F06: 4C 13 5F 18        adc         r11,qword ptr [rdi+18h]
  0000000000002F0A: 4C 13 67 20        adc         r12,qword ptr [rdi+20h]
  0000000000002F0E: 4C 13 6F 28        adc         r13,qword ptr [rdi+28h]
  0000000000002F12: 4C 13 77 30        adc         r14,qword ptr [rdi+30h]
  0000000000002F16: 4C 13 7F 38        adc         r15,qword ptr [rdi+38h]
  0000000000002F1A: 48 83 D0 00        adc         rax,0
  0000000000002F1E: 48 8B 5C 24 28     mov         rbx,qword ptr [rsp+28h]
  0000000000002F23: 48 8B 54 0F 40     mov         rdx,qword ptr [rdi+rcx+40h]
  0000000000002F28: 4C 89 07           mov         qword ptr [rdi],r8
  0000000000002F2B: 4C 8D 47 40        lea         r8,[rdi+40h]
  0000000000002F2F: 4C 89 4F 08        mov         qword ptr [rdi+8],r9
  0000000000002F33: 4C 89 57 10        mov         qword ptr [rdi+10h],r10
  0000000000002F37: 4C 89 5F 18        mov         qword ptr [rdi+18h],r11
  0000000000002F3B: 4C 89 67 20        mov         qword ptr [rdi+20h],r12
  0000000000002F3F: 4C 89 6F 28        mov         qword ptr [rdi+28h],r13
  0000000000002F43: 4C 89 77 30        mov         qword ptr [rdi+30h],r14
  0000000000002F47: 4C 89 7F 38        mov         qword ptr [rdi+38h],r15
  0000000000002F4B: 48 8D 7C 0F 40     lea         rdi,[rdi+rcx+40h]
  0000000000002F50: 4C 3B 44 24 10     cmp         r8,qword ptr [rsp+10h]
  0000000000002F55: 0F 82 E5 FC FF FF  jb          L$sqrx8x_reduction_loop
  0000000000002F5B: F3 C3              rep ret
  0000000000002F5D: 90                 nop
  0000000000002F5E: 90                 nop
  0000000000002F5F: 90                 nop
__bn_postx4x_internal:
  0000000000002F60: 4C 8B 65 00        mov         r12,qword ptr [rbp]
  0000000000002F64: 49 89 CA           mov         r10,rcx
  0000000000002F67: 49 89 C9           mov         r9,rcx
  0000000000002F6A: 48 F7 D8           neg         rax
  0000000000002F6D: 48 C1 F9 05        sar         rcx,5
  0000000000002F71: 66 48 0F 7E CA     movq        rdx,xmm1
  0000000000002F76: 66 48 0F 7E CE     movq        rsi,xmm1
  0000000000002F7B: 49 FF CC           dec         r12
  0000000000002F7E: 4C 8B 6D 08        mov         r13,qword ptr [rbp+8]
  0000000000002F82: 4D 31 C0           xor         r8,r8
  0000000000002F85: 4C 8B 75 10        mov         r14,qword ptr [rbp+10h]
  0000000000002F89: 4C 8B 7D 18        mov         r15,qword ptr [rbp+18h]
  0000000000002F8D: E9 1E 00 00 00     jmp         L$sqrx4x_sub_entry
  0000000000002F92: 90                 nop
  0000000000002F93: 90                 nop
  0000000000002F94: 90                 nop
  0000000000002F95: 90                 nop
  0000000000002F96: 90                 nop
  0000000000002F97: 90                 nop
  0000000000002F98: 90                 nop
  0000000000002F99: 90                 nop
  0000000000002F9A: 90                 nop
  0000000000002F9B: 90                 nop
  0000000000002F9C: 90                 nop
  0000000000002F9D: 90                 nop
  0000000000002F9E: 90                 nop
  0000000000002F9F: 90                 nop
L$sqrx4x_sub:
  0000000000002FA0: 4C 8B 65 00        mov         r12,qword ptr [rbp]
  0000000000002FA4: 4C 8B 6D 08        mov         r13,qword ptr [rbp+8]
  0000000000002FA8: 4C 8B 75 10        mov         r14,qword ptr [rbp+10h]
  0000000000002FAC: 4C 8B 7D 18        mov         r15,qword ptr [rbp+18h]
L$sqrx4x_sub_entry:
  0000000000002FB0: C4 62 98 F2 E0     andn        r12,r12,rax
  0000000000002FB5: 48 8D 6D 20        lea         rbp,[rbp+20h]
  0000000000002FB9: C4 62 90 F2 E8     andn        r13,r13,rax
  0000000000002FBE: C4 62 88 F2 F0     andn        r14,r14,rax
  0000000000002FC3: C4 62 80 F2 F8     andn        r15,r15,rax
  0000000000002FC8: 49 F7 D8           neg         r8
  0000000000002FCB: 4C 13 27           adc         r12,qword ptr [rdi]
  0000000000002FCE: 4C 13 6F 08        adc         r13,qword ptr [rdi+8]
  0000000000002FD2: 4C 13 77 10        adc         r14,qword ptr [rdi+10h]
  0000000000002FD6: 4C 13 7F 18        adc         r15,qword ptr [rdi+18h]
  0000000000002FDA: 4C 89 22           mov         qword ptr [rdx],r12
  0000000000002FDD: 48 8D 7F 20        lea         rdi,[rdi+20h]
  0000000000002FE1: 4C 89 6A 08        mov         qword ptr [rdx+8],r13
  0000000000002FE5: 4D 19 C0           sbb         r8,r8
  0000000000002FE8: 4C 89 72 10        mov         qword ptr [rdx+10h],r14
  0000000000002FEC: 4C 89 7A 18        mov         qword ptr [rdx+18h],r15
  0000000000002FF0: 48 8D 52 20        lea         rdx,[rdx+20h]
  0000000000002FF4: 48 FF C1           inc         rcx
  0000000000002FF7: 0F 85 A3 FF FF FF  jne         L$sqrx4x_sub
  0000000000002FFD: 49 F7 D9           neg         r9
  0000000000003000: F3 C3              rep ret
  0000000000003002: 90                 nop
  0000000000003003: 90                 nop
  0000000000003004: 90                 nop
  0000000000003005: 90                 nop
  0000000000003006: 90                 nop
  0000000000003007: 90                 nop
  0000000000003008: 90                 nop
  0000000000003009: 90                 nop
  000000000000300A: 90                 nop
  000000000000300B: 90                 nop
  000000000000300C: 90                 nop
  000000000000300D: 90                 nop
  000000000000300E: 90                 nop
  000000000000300F: 90                 nop
aws_lc_0_21_0_bn_scatter5:
  0000000000003010: 83 FA 00           cmp         edx,0
  0000000000003013: 0F 84 1E 00 00 00  je          L$scatter_epilogue
  0000000000003019: 4F 8D 04 C8        lea         r8,[r8+r9*8]
L$scatter:
  000000000000301D: 48 8B 01           mov         rax,qword ptr [rcx]
  0000000000003020: 48 8D 49 08        lea         rcx,[rcx+8]
  0000000000003024: 49 89 00           mov         qword ptr [r8],rax
  0000000000003027: 4D 8D 80 00 01 00  lea         r8,[r8+100h]
                    00
  000000000000302E: 83 EA 01           sub         edx,1
  0000000000003031: 0F 85 E6 FF FF FF  jne         L$scatter
L$scatter_epilogue:
  0000000000003037: F3 C3              rep ret
  0000000000003039: 90                 nop
  000000000000303A: 90                 nop
  000000000000303B: 90                 nop
  000000000000303C: 90                 nop
  000000000000303D: 90                 nop
  000000000000303E: 90                 nop
  000000000000303F: 90                 nop
aws_lc_0_21_0_bn_gather5:
  0000000000003040: 4C 8D 14 24        lea         r10,[rsp]
  0000000000003044: 48 81 EC 08 01 00  sub         rsp,108h
                    00
  000000000000304B: 48 8D 05 00 00 00  lea         rax,[.rdata]
                    00
  0000000000003052: 48 83 E4 F0        and         rsp,0FFFFFFFFFFFFFFF0h
  0000000000003056: 66 41 0F 6E E9     movd        xmm5,r9d
  000000000000305B: 66 0F 6F 00        movdqa      xmm0,xmmword ptr [rax]
  000000000000305F: 66 0F 6F 48 10     movdqa      xmm1,xmmword ptr [rax+10h]
  0000000000003064: 4D 8D 98 80 00 00  lea         r11,[r8+80h]
                    00
  000000000000306B: 48 8D 84 24 80 00  lea         rax,[rsp+80h]
                    00 00
  0000000000003073: 66 0F 70 ED 00     pshufd      xmm5,xmm5,0
  0000000000003078: 66 0F 6F E1        movdqa      xmm4,xmm1
  000000000000307C: 66 0F 6F D1        movdqa      xmm2,xmm1
  0000000000003080: 66 0F FE C8        paddd       xmm1,xmm0
  0000000000003084: 66 0F 76 C5        pcmpeqd     xmm0,xmm5
  0000000000003088: 66 0F 6F DC        movdqa      xmm3,xmm4
  000000000000308C: 66 0F FE D1        paddd       xmm2,xmm1
  0000000000003090: 66 0F 76 CD        pcmpeqd     xmm1,xmm5
  0000000000003094: 66 0F 7F 40 80     movdqa      xmmword ptr [rax-80h],xmm0
  0000000000003099: 66 0F 6F C4        movdqa      xmm0,xmm4
  000000000000309D: 66 0F FE DA        paddd       xmm3,xmm2
  00000000000030A1: 66 0F 76 D5        pcmpeqd     xmm2,xmm5
  00000000000030A5: 66 0F 7F 48 90     movdqa      xmmword ptr [rax-70h],xmm1
  00000000000030AA: 66 0F 6F CC        movdqa      xmm1,xmm4
  00000000000030AE: 66 0F FE C3        paddd       xmm0,xmm3
  00000000000030B2: 66 0F 76 DD        pcmpeqd     xmm3,xmm5
  00000000000030B6: 66 0F 7F 50 A0     movdqa      xmmword ptr [rax-60h],xmm2
  00000000000030BB: 66 0F 6F D4        movdqa      xmm2,xmm4
  00000000000030BF: 66 0F FE C8        paddd       xmm1,xmm0
  00000000000030C3: 66 0F 76 C5        pcmpeqd     xmm0,xmm5
  00000000000030C7: 66 0F 7F 58 B0     movdqa      xmmword ptr [rax-50h],xmm3
  00000000000030CC: 66 0F 6F DC        movdqa      xmm3,xmm4
  00000000000030D0: 66 0F FE D1        paddd       xmm2,xmm1
  00000000000030D4: 66 0F 76 CD        pcmpeqd     xmm1,xmm5
  00000000000030D8: 66 0F 7F 40 C0     movdqa      xmmword ptr [rax-40h],xmm0
  00000000000030DD: 66 0F 6F C4        movdqa      xmm0,xmm4
  00000000000030E1: 66 0F FE DA        paddd       xmm3,xmm2
  00000000000030E5: 66 0F 76 D5        pcmpeqd     xmm2,xmm5
  00000000000030E9: 66 0F 7F 48 D0     movdqa      xmmword ptr [rax-30h],xmm1
  00000000000030EE: 66 0F 6F CC        movdqa      xmm1,xmm4
  00000000000030F2: 66 0F FE C3        paddd       xmm0,xmm3
  00000000000030F6: 66 0F 76 DD        pcmpeqd     xmm3,xmm5
  00000000000030FA: 66 0F 7F 50 E0     movdqa      xmmword ptr [rax-20h],xmm2
  00000000000030FF: 66 0F 6F D4        movdqa      xmm2,xmm4
  0000000000003103: 66 0F FE C8        paddd       xmm1,xmm0
  0000000000003107: 66 0F 76 C5        pcmpeqd     xmm0,xmm5
  000000000000310B: 66 0F 7F 58 F0     movdqa      xmmword ptr [rax-10h],xmm3
  0000000000003110: 66 0F 6F DC        movdqa      xmm3,xmm4
  0000000000003114: 66 0F FE D1        paddd       xmm2,xmm1
  0000000000003118: 66 0F 76 CD        pcmpeqd     xmm1,xmm5
  000000000000311C: 66 0F 7F 00        movdqa      xmmword ptr [rax],xmm0
  0000000000003120: 66 0F 6F C4        movdqa      xmm0,xmm4
  0000000000003124: 66 0F FE DA        paddd       xmm3,xmm2
  0000000000003128: 66 0F 76 D5        pcmpeqd     xmm2,xmm5
  000000000000312C: 66 0F 7F 48 10     movdqa      xmmword ptr [rax+10h],xmm1
  0000000000003131: 66 0F 6F CC        movdqa      xmm1,xmm4
  0000000000003135: 66 0F FE C3        paddd       xmm0,xmm3
  0000000000003139: 66 0F 76 DD        pcmpeqd     xmm3,xmm5
  000000000000313D: 66 0F 7F 50 20     movdqa      xmmword ptr [rax+20h],xmm2
  0000000000003142: 66 0F 6F D4        movdqa      xmm2,xmm4
  0000000000003146: 66 0F FE C8        paddd       xmm1,xmm0
  000000000000314A: 66 0F 76 C5        pcmpeqd     xmm0,xmm5
  000000000000314E: 66 0F 7F 58 30     movdqa      xmmword ptr [rax+30h],xmm3
  0000000000003153: 66 0F 6F DC        movdqa      xmm3,xmm4
  0000000000003157: 66 0F FE D1        paddd       xmm2,xmm1
  000000000000315B: 66 0F 76 CD        pcmpeqd     xmm1,xmm5
  000000000000315F: 66 0F 7F 40 40     movdqa      xmmword ptr [rax+40h],xmm0
  0000000000003164: 66 0F 6F C4        movdqa      xmm0,xmm4
  0000000000003168: 66 0F FE DA        paddd       xmm3,xmm2
  000000000000316C: 66 0F 76 D5        pcmpeqd     xmm2,xmm5
  0000000000003170: 66 0F 7F 48 50     movdqa      xmmword ptr [rax+50h],xmm1
  0000000000003175: 66 0F 6F CC        movdqa      xmm1,xmm4
  0000000000003179: 66 0F FE C3        paddd       xmm0,xmm3
  000000000000317D: 66 0F 76 DD        pcmpeqd     xmm3,xmm5
  0000000000003181: 66 0F 7F 50 60     movdqa      xmmword ptr [rax+60h],xmm2
  0000000000003186: 66 0F 6F D4        movdqa      xmm2,xmm4
  000000000000318A: 66 0F 7F 58 70     movdqa      xmmword ptr [rax+70h],xmm3
  000000000000318F: E9 0C 00 00 00     jmp         L$gather
  0000000000003194: 90                 nop
  0000000000003195: 90                 nop
  0000000000003196: 90                 nop
  0000000000003197: 90                 nop
  0000000000003198: 90                 nop
  0000000000003199: 90                 nop
  000000000000319A: 90                 nop
  000000000000319B: 90                 nop
  000000000000319C: 90                 nop
  000000000000319D: 90                 nop
  000000000000319E: 90                 nop
  000000000000319F: 90                 nop
L$gather:
  00000000000031A0: 66 0F EF E4        pxor        xmm4,xmm4
  00000000000031A4: 66 0F EF ED        pxor        xmm5,xmm5
  00000000000031A8: 66 41 0F 6F 43 80  movdqa      xmm0,xmmword ptr [r11-80h]
  00000000000031AE: 66 41 0F 6F 4B 90  movdqa      xmm1,xmmword ptr [r11-70h]
  00000000000031B4: 66 41 0F 6F 53 A0  movdqa      xmm2,xmmword ptr [r11-60h]
  00000000000031BA: 66 0F DB 40 80     pand        xmm0,xmmword ptr [rax-80h]
  00000000000031BF: 66 41 0F 6F 5B B0  movdqa      xmm3,xmmword ptr [r11-50h]
  00000000000031C5: 66 0F DB 48 90     pand        xmm1,xmmword ptr [rax-70h]
  00000000000031CA: 66 0F EB E0        por         xmm4,xmm0
  00000000000031CE: 66 0F DB 50 A0     pand        xmm2,xmmword ptr [rax-60h]
  00000000000031D3: 66 0F EB E9        por         xmm5,xmm1
  00000000000031D7: 66 0F DB 58 B0     pand        xmm3,xmmword ptr [rax-50h]
  00000000000031DC: 66 0F EB E2        por         xmm4,xmm2
  00000000000031E0: 66 0F EB EB        por         xmm5,xmm3
  00000000000031E4: 66 41 0F 6F 43 C0  movdqa      xmm0,xmmword ptr [r11-40h]
  00000000000031EA: 66 41 0F 6F 4B D0  movdqa      xmm1,xmmword ptr [r11-30h]
  00000000000031F0: 66 41 0F 6F 53 E0  movdqa      xmm2,xmmword ptr [r11-20h]
  00000000000031F6: 66 0F DB 40 C0     pand        xmm0,xmmword ptr [rax-40h]
  00000000000031FB: 66 41 0F 6F 5B F0  movdqa      xmm3,xmmword ptr [r11-10h]
  0000000000003201: 66 0F DB 48 D0     pand        xmm1,xmmword ptr [rax-30h]
  0000000000003206: 66 0F EB E0        por         xmm4,xmm0
  000000000000320A: 66 0F DB 50 E0     pand        xmm2,xmmword ptr [rax-20h]
  000000000000320F: 66 0F EB E9        por         xmm5,xmm1
  0000000000003213: 66 0F DB 58 F0     pand        xmm3,xmmword ptr [rax-10h]
  0000000000003218: 66 0F EB E2        por         xmm4,xmm2
  000000000000321C: 66 0F EB EB        por         xmm5,xmm3
  0000000000003220: 66 41 0F 6F 03     movdqa      xmm0,xmmword ptr [r11]
  0000000000003225: 66 41 0F 6F 4B 10  movdqa      xmm1,xmmword ptr [r11+10h]
  000000000000322B: 66 41 0F 6F 53 20  movdqa      xmm2,xmmword ptr [r11+20h]
  0000000000003231: 66 0F DB 00        pand        xmm0,xmmword ptr [rax]
  0000000000003235: 66 41 0F 6F 5B 30  movdqa      xmm3,xmmword ptr [r11+30h]
  000000000000323B: 66 0F DB 48 10     pand        xmm1,xmmword ptr [rax+10h]
  0000000000003240: 66 0F EB E0        por         xmm4,xmm0
  0000000000003244: 66 0F DB 50 20     pand        xmm2,xmmword ptr [rax+20h]
  0000000000003249: 66 0F EB E9        por         xmm5,xmm1
  000000000000324D: 66 0F DB 58 30     pand        xmm3,xmmword ptr [rax+30h]
  0000000000003252: 66 0F EB E2        por         xmm4,xmm2
  0000000000003256: 66 0F EB EB        por         xmm5,xmm3
  000000000000325A: 66 41 0F 6F 43 40  movdqa      xmm0,xmmword ptr [r11+40h]
  0000000000003260: 66 41 0F 6F 4B 50  movdqa      xmm1,xmmword ptr [r11+50h]
  0000000000003266: 66 41 0F 6F 53 60  movdqa      xmm2,xmmword ptr [r11+60h]
  000000000000326C: 66 0F DB 40 40     pand        xmm0,xmmword ptr [rax+40h]
  0000000000003271: 66 41 0F 6F 5B 70  movdqa      xmm3,xmmword ptr [r11+70h]
  0000000000003277: 66 0F DB 48 50     pand        xmm1,xmmword ptr [rax+50h]
  000000000000327C: 66 0F EB E0        por         xmm4,xmm0
  0000000000003280: 66 0F DB 50 60     pand        xmm2,xmmword ptr [rax+60h]
  0000000000003285: 66 0F EB E9        por         xmm5,xmm1
  0000000000003289: 66 0F DB 58 70     pand        xmm3,xmmword ptr [rax+70h]
  000000000000328E: 66 0F EB E2        por         xmm4,xmm2
  0000000000003292: 66 0F EB EB        por         xmm5,xmm3
  0000000000003296: 66 0F EB E5        por         xmm4,xmm5
  000000000000329A: 4D 8D 9B 00 01 00  lea         r11,[r11+100h]
                    00
  00000000000032A1: 66 0F 70 C4 4E     pshufd      xmm0,xmm4,4Eh
  00000000000032A6: 66 0F EB C4        por         xmm0,xmm4
  00000000000032AA: 66 0F D6 01        movq        mmword ptr [rcx],xmm0
  00000000000032AE: 48 8D 49 08        lea         rcx,[rcx+8]
  00000000000032B2: 83 EA 01           sub         edx,1
  00000000000032B5: 0F 85 E5 FE FF FF  jne         L$gather
  00000000000032BB: 49 8D 22           lea         rsp,[r10]
  00000000000032BE: F3 C3              rep ret
mul_handler:
  00000000000032C0: 56                 push        rsi
  00000000000032C1: 57                 push        rdi
  00000000000032C2: 53                 push        rbx
  00000000000032C3: 55                 push        rbp
  00000000000032C4: 41 54              push        r12
  00000000000032C6: 41 55              push        r13
  00000000000032C8: 41 56              push        r14
  00000000000032CA: 41 57              push        r15
  00000000000032CC: 9C                 pushfq
  00000000000032CD: 48 83 EC 40        sub         rsp,40h
  00000000000032D1: 49 8B 40 78        mov         rax,qword ptr [r8+78h]
  00000000000032D5: 49 8B 98 F8 00 00  mov         rbx,qword ptr [r8+0F8h]
                    00
  00000000000032DC: 49 8B 71 08        mov         rsi,qword ptr [r9+8]
  00000000000032E0: 4D 8B 59 38        mov         r11,qword ptr [r9+38h]
  00000000000032E4: 45 8B 13           mov         r10d,dword ptr [r11]
  00000000000032E7: 4E 8D 14 16        lea         r10,[rsi+r10]
  00000000000032EB: 4C 39 D3           cmp         rbx,r10
  00000000000032EE: 0F 82 90 00 00 00  jb          L$common_seh_tail
  00000000000032F4: 45 8B 53 04        mov         r10d,dword ptr [r11+4]
  00000000000032F8: 4E 8D 14 16        lea         r10,[rsi+r10]
  00000000000032FC: 4C 39 D3           cmp         rbx,r10
  00000000000032FF: 0F 82 3D 00 00 00  jb          L$common_pop_regs
  0000000000003305: 49 8B 80 98 00 00  mov         rax,qword ptr [r8+98h]
                    00
  000000000000330C: 45 8B 53 08        mov         r10d,dword ptr [r11+8]
  0000000000003310: 4E 8D 14 16        lea         r10,[rsi+r10]
  0000000000003314: 4C 39 D3           cmp         rbx,r10
  0000000000003317: 0F 83 67 00 00 00  jae         L$common_seh_tail
  000000000000331D: 4C 8D 15 76 D3 FF  lea         r10,[L$mul_epilogue]
                    FF
  0000000000003324: 4C 39 D3           cmp         rbx,r10
  0000000000003327: 0F 87 11 00 00 00  ja          L$body_40
  000000000000332D: 4D 8B 90 C0 00 00  mov         r10,qword ptr [r8+0C0h]
                    00
  0000000000003334: 4A 8B 44 D0 08     mov         rax,qword ptr [rax+r10*8+8]
  0000000000003339: E9 04 00 00 00     jmp         L$common_pop_regs
L$body_40:
  000000000000333E: 48 8B 40 28        mov         rax,qword ptr [rax+28h]
L$common_pop_regs:
  0000000000003342: 48 8B 58 F8        mov         rbx,qword ptr [rax-8]
  0000000000003346: 48 8B 68 F0        mov         rbp,qword ptr [rax-10h]
  000000000000334A: 4C 8B 60 E8        mov         r12,qword ptr [rax-18h]
  000000000000334E: 4C 8B 68 E0        mov         r13,qword ptr [rax-20h]
  0000000000003352: 4C 8B 70 D8        mov         r14,qword ptr [rax-28h]
  0000000000003356: 4C 8B 78 D0        mov         r15,qword ptr [rax-30h]
  000000000000335A: 49 89 98 90 00 00  mov         qword ptr [r8+90h],rbx
                    00
  0000000000003361: 49 89 A8 A0 00 00  mov         qword ptr [r8+0A0h],rbp
                    00
  0000000000003368: 4D 89 A0 D8 00 00  mov         qword ptr [r8+0D8h],r12
                    00
  000000000000336F: 4D 89 A8 E0 00 00  mov         qword ptr [r8+0E0h],r13
                    00
  0000000000003376: 4D 89 B0 E8 00 00  mov         qword ptr [r8+0E8h],r14
                    00
  000000000000337D: 4D 89 B8 F0 00 00  mov         qword ptr [r8+0F0h],r15
                    00
L$common_seh_tail:
  0000000000003384: 48 8B 78 08        mov         rdi,qword ptr [rax+8]
  0000000000003388: 48 8B 70 10        mov         rsi,qword ptr [rax+10h]
  000000000000338C: 49 89 80 98 00 00  mov         qword ptr [r8+98h],rax
                    00
  0000000000003393: 49 89 B0 A8 00 00  mov         qword ptr [r8+0A8h],rsi
                    00
  000000000000339A: 49 89 B8 B0 00 00  mov         qword ptr [r8+0B0h],rdi
                    00
  00000000000033A1: 49 8B 79 28        mov         rdi,qword ptr [r9+28h]
  00000000000033A5: 4C 89 C6           mov         rsi,r8
  00000000000033A8: B9 9A 00 00 00     mov         ecx,9Ah
  00000000000033AD: FC                 cld
  00000000000033AE: F3 48 A5           rep movs    qword ptr [rdi],qword ptr [rsi]
  00000000000033B1: 4C 89 CE           mov         rsi,r9
  00000000000033B4: 48 31 C9           xor         rcx,rcx
  00000000000033B7: 48 8B 56 08        mov         rdx,qword ptr [rsi+8]
  00000000000033BB: 4C 8B 06           mov         r8,qword ptr [rsi]
  00000000000033BE: 4C 8B 4E 10        mov         r9,qword ptr [rsi+10h]
  00000000000033C2: 4C 8B 56 28        mov         r10,qword ptr [rsi+28h]
  00000000000033C6: 4C 8D 5E 38        lea         r11,[rsi+38h]
  00000000000033CA: 4C 8D 66 18        lea         r12,[rsi+18h]
  00000000000033CE: 4C 89 54 24 20     mov         qword ptr [rsp+20h],r10
  00000000000033D3: 4C 89 5C 24 28     mov         qword ptr [rsp+28h],r11
  00000000000033D8: 4C 89 64 24 30     mov         qword ptr [rsp+30h],r12
  00000000000033DD: 48 89 4C 24 38     mov         qword ptr [rsp+38h],rcx
  00000000000033E2: FF 15 00 00 00 00  call        qword ptr [__imp_RtlVirtualUnwind]
  00000000000033E8: B8 01 00 00 00     mov         eax,1
  00000000000033ED: 48 83 C4 40        add         rsp,40h
  00000000000033F1: 9D                 popfq
  00000000000033F2: 41 5F              pop         r15
  00000000000033F4: 41 5E              pop         r14
  00000000000033F6: 41 5D              pop         r13
  00000000000033F8: 41 5C              pop         r12
  00000000000033FA: 5D                 pop         rbp
  00000000000033FB: 5B                 pop         rbx
  00000000000033FC: 5F                 pop         rdi
  00000000000033FD: 5E                 pop         rsi
  00000000000033FE: F3 C3              rep ret

  Summary

          1C .debug$T
          48 .pdata
          7C .rdata
        3400 .text
          88 .xdata
